 ntfsfile

 Timestamp is 5dfcb48c (Fri Dec 20 14:46:20 2019)

 Preferred load address is 0000000061000000

 Start         Length     Name                   Class
 0001:00000000 0005a061H .text                   CODE
 0001:0005a100 0000654dH .text$                  CODE
 0001:00060650 0000a016H .text$x                 CODE
 0001:0006a670 000001e0H .text$yc                CODE
 0001:0006a850 00000262H .text$yd                CODE
 0002:00000000 00000470H .idata$5                DATA
 0002:00000470 00000008H .CRT$XCA                DATA
 0002:00000478 00000038H .CRT$XCU                DATA
 0002:000004b0 00000008H .CRT$XCZ                DATA
 0002:000004b8 00000008H .CRT$XIA                DATA
 0002:000004c0 00000010H .CRT$XIC                DATA
 0002:000004d0 00000008H .CRT$XIZ                DATA
 0002:000004d8 00000008H .CRT$XPA                DATA
 0002:000004e0 00000008H .CRT$XPZ                DATA
 0002:000004e8 00000008H .CRT$XTA                DATA
 0002:000004f0 00000008H .CRT$XTZ                DATA
 0002:00000500 000080e6H .rdata                  DATA
 0002:000085e8 00000066H .rdata$debug            DATA
 0002:00008650 0000130cH .rdata$r                DATA
 0002:00009960 00000008H .rtc$IAA                DATA
 0002:00009968 00000008H .rtc$IZZ                DATA
 0002:00009970 00000008H .rtc$TAA                DATA
 0002:00009978 00000008H .rtc$TZZ                DATA
 0002:00009980 00011348H .xdata                  DATA
 0002:0001acc8 000003d4H .xdata$x                DATA
 0002:0001b09c 00000078H .idata$2                DATA
 0002:0001b114 00000014H .idata$3                DATA
 0002:0001b128 00000470H .idata$4                DATA
 0002:0001b598 00000a7cH .idata$6                DATA
 0002:0001c020 0000015bH .edata                  DATA
 0003:00000000 00001880H .data                   DATA
 0003:00001880 000016d0H .bss                    DATA
 0004:00000000 00003ab0H .pdata                  DATA
 0005:00000000 00000058H .rsrc$01                DATA
 0005:00000060 00000318H .rsrc$02                DATA

  Address         Publics by Value              Rva+Base               Lib:Object

 0000:00000000       ___safe_se_handler_count   0000000000000000     <absolute>
 0000:00000000       ___safe_se_handler_table   0000000000000000     <absolute>
 0000:00000000       __ImageBase                0000000061000000     <linker-defined>
 0001:00000000       ?message@MsgError@@UEBA?AVUnicodeString@col@@XZ 0000000061001000 f i main.obj
 0001:00000010       ?get_system_message@@YA?AVUnicodeString@col@@K@Z 0000000061001010 f i main.obj
 0001:000000e0       ?message@SystemError@@UEBA?AVUnicodeString@col@@XZ 00000000610010e0 f i main.obj
 0001:00000110       ??1NtfsVolume@@QEAA@XZ     0000000061001110 f i main.obj
 0001:00000150       ?close@NtfsVolume@@QEAAXXZ 0000000061001150 f i main.obj
 0001:000001d0       ??0SystemError@@QEAA@AEBV0@@Z 00000000610011d0 f i main.obj
 0001:00000200       ??0Error@@QEAA@AEBV0@@Z    0000000061001200 f i main.obj
 0001:00000220       ??0FileAnalyzer@@QEAA@XZ   0000000061001220 f i main.obj
 0001:00000320       ??1FileAnalyzer@@QEAA@XZ   0000000061001320 f i main.obj
 0001:00000440       ?str_to_char_info@@YA?AV?$Array@UFAR_CHAR_INFO@@@col@@AEBVUnicodeString@2@AEBV?$Array@UFarColor@@@2@@Z 0000000061001440 f   main.obj
 0001:00000530       ?fmt_char_cnt@@YAIAEBVUnicodeString@col@@@Z 0000000061001530 f   main.obj
 0001:00000560       ?far_get_text@@YA?AVUnicodeString@col@@PEAX_K@Z 0000000061001560 f   main.obj
 0001:00000620       ?display_file_info@FileAnalyzer@@QEAAX_N@Z 0000000061001620 f   main.obj
 0001:0000dc30       ??1MsgError@@QEAA@XZ       000000006100ec30 f i main.obj
 0001:0000dc50       ??0MsgError@@QEAA@AEBV0@@Z 000000006100ec50 f i main.obj
 0001:0000dc90       ?process_file@FileAnalyzer@@QEAAXAEAVFileInfo@@_N@Z 000000006100ec90 f   main.obj
 0001:0000e220       ?process_recursive@FileAnalyzer@@QEAAXAEBVUnicodeString@col@@@Z 000000006100f220 f   main.obj
 0001:0000e5d0       ?panel_go_to_file@@YA_NAEBVUnicodeString@col@@@Z 000000006100f5d0 f   main.obj
 0001:0000e9c0       GetGlobalInfoW             000000006100f9c0 f   main.obj
 0001:0000ea40       OPENSSL_cpuid_setup        000000006100fa40 f   main.obj
 0001:0000ea50       SetStartupInfoW            000000006100fa50 f   main.obj
 0001:0000eb10       GetPluginInfoW             000000006100fb10 f   main.obj
 0001:0000eb90       ?process@FileAnalyzer@@QEAAXXZ 000000006100fb90 f   main.obj
 0001:0000eed0       ?th_proc@FileAnalyzer@@SAIPEAX@Z 000000006100fed0 f   main.obj
 0001:0000ef00       ?dialog_handler@FileAnalyzer@@QEAA_J_J0PEAX@Z 000000006100ff00 f   main.obj
 0001:0000f1d0       ?dlg_proc@FileAnalyzer@@SA_JPEAX_J10@Z 00000000610101d0 f   main.obj
 0001:0000f260       ?file_list_from_cmdline@@YA_NAEBVUnicodeString@col@@AEAV?$ObjectArray@VUnicodeString@col@@@2@AEAV12@@Z 0000000061010260 f   main.obj
 0001:0000f450       ?get_unicode_file_path@@YA?AVUnicodeString@col@@AEBUPluginPanelItem@@AEBV12@_N@Z 0000000061010450 f   main.obj
 0001:0000f480       ?file_list_from_panel@@YA_NAEAV?$ObjectArray@VUnicodeString@col@@@col@@_N@Z 0000000061010480 f   main.obj
 0001:0000f830       ?plugin_show_metadata@@YAXAEBV?$ObjectArray@VUnicodeString@col@@@col@@@Z 0000000061010830 f   main.obj
 0001:0000f9c0       ?plugin_process_contents@@YAXAEBV?$ObjectArray@VUnicodeString@col@@@col@@@Z 00000000610109c0 f   main.obj
 0001:0000fad0       ??1ContentInfo@@QEAA@XZ    0000000061010ad0 f i main.obj
 0001:0000fb70       OpenW                      0000000061010b70 f   main.obj
 0001:00011050       ClosePanelW                0000000061012050 f   main.obj
 0001:00011070       GetOpenPanelInfoW          0000000061012070 f   main.obj
 0001:00011090       GetFindDataW               0000000061012090 f   main.obj
 0001:000110d0       FreeFindDataW              00000000610120d0 f   main.obj
 0001:00011140       SetDirectoryW              0000000061012140 f   main.obj
 0001:000111e0       ConfigureW                 00000000610121e0 f   main.obj
 0001:000115a0       ??1FilePanelMode@@QEAA@XZ  00000000610125a0 f i main.obj
 0001:00011620       ??4FilePanelMode@@QEAAAEAU0@AEBU0@@Z 0000000061012620 f i main.obj
 0001:00011770       ProcessPanelInputW         0000000061012770 f   main.obj
 0001:000117d0       ProcessSynchroEventW       00000000610127d0 f   main.obj
 0001:00011800       DllMain                    0000000061012800 f   main.obj
 0001:00011820       ??1?$ObjectArray@VUnicodeString@col@@@col@@QEAA@XZ 0000000061012820 f i main.obj
 0001:00011830       ?extend@?$ObjectArray@V?$Array@PEB_W@col@@@col@@QEAAAEAV12@_K@Z 0000000061012830 f i file_panel.obj
 0001:00011830       ?extend@?$ObjectArray@VUnicodeString@col@@@col@@QEAAAEAV12@_K@Z 0000000061012830 f i main.obj
 0001:000118d0       ?item@?$ObjectArray@VUnicodeString@col@@@col@@QEAAAEAVUnicodeString@2@_K@Z 00000000610128d0 f i main.obj
 0001:00011910       ??Y?$ObjectArray@VUnicodeString@col@@@col@@QEAAAEAV01@AEBVUnicodeString@1@@Z 0000000061012910 f i main.obj
 0001:00011940       ??0?$Array@E@col@@QEAA@XZ  0000000061012940 f i main.obj
 0001:000119c0       ?item@?$Array@UFarDialogItem@@@col@@QEAAAEAUFarDialogItem@@_K@Z 00000000610129c0 f i main.obj
 0001:00011a30       ??1?$ObjectArray@UAttrInfo@@@col@@QEAA@XZ 0000000061012a30 f i main.obj
 0001:00011aa0       ??1?$ObjectArray@UFileNameAttr@@@col@@QEAA@XZ 0000000061012aa0 f i main.obj
 0001:00011b10       ?buf@?$Array@UFarColor@@@col@@QEAAPEAUFarColor@@_K@Z 0000000061012b10 f i main.obj
 0001:00011ba0       ?set_size@?$Array@UFarColor@@@col@@QEAAAEAV12@_K@Z 0000000061012ba0 f i main.obj
 0001:00011c40       ??1?$ObjectArray@VFileInfo@@@col@@QEAA@XZ 0000000061012c40 f i main.obj
 0001:00011c50       ??0?$Array@UFAR_CHAR_INFO@@@col@@QEAA@XZ 0000000061012c50 f i main.obj
 0001:00011c50       ??0?$Array@UFarListItem@@@col@@QEAA@XZ 0000000061012c50 f i dlgapi.obj
 0001:00011c50       ??0?$Array@UFarColor@@@col@@QEAA@XZ 0000000061012c50 f i main.obj
 0001:00011cd0       ??1?$Array@PEAX@col@@QEAA@XZ 0000000061012cd0 f i content.obj
 0001:00011cd0       ??1?$Array@UFarList@@@col@@QEAA@XZ 0000000061012cd0 f i content.obj
 0001:00011cd0       ??1FileVersionDialogData@@QEAA@XZ 0000000061012cd0 f i filever.obj
 0001:00011cd0       ??1?$Array@UFarMenuItem@@@col@@QEAA@XZ 0000000061012cd0 f i dlgapi.obj
 0001:00011cd0       ??1?$Array@UFarColor@@@col@@QEAA@XZ 0000000061012cd0 f i main.obj
 0001:00011cd0       ??1?$Array@UDataRun@FileInfo@@@col@@QEAA@XZ 0000000061012cd0 f i ntfs_file.obj
 0001:00011cd0       ??1?$Array@E@col@@QEAA@XZ  0000000061012cd0 f i main.obj
 0001:00011cd0       ??1?$Array@UPluginPanelItem@@@col@@QEAA@XZ 0000000061012cd0 f i file_panel.obj
 0001:00011cd0       ??1?$Array@I@col@@QEAA@XZ  0000000061012cd0 f i file_panel.obj
 0001:00011cd0       ??1?$Array@UClusterChain@@@col@@QEAA@XZ 0000000061012cd0 f i defragment.obj
 0001:00011cd0       ??1?$Array@PEB_W@col@@QEAA@XZ 0000000061012cd0 f i file_panel.obj
 0001:00011cd0       ??1?$Array@_N@col@@QEAA@XZ 0000000061012cd0 f i mftindex.obj
 0001:00011cd0       ??1?$Array@_K@col@@QEAA@XZ 0000000061012cd0 f i content.obj
 0001:00011cd0       ??1AnsiString@col@@QEAA@XZ 0000000061012cd0 f i content.obj
 0001:00011cd0       ??1?$Array@D@col@@QEAA@XZ  0000000061012cd0 f i utils.obj
 0001:00011cd0       ??1?$Array@UFarDialogItem@@@col@@QEAA@XZ 0000000061012cd0 f i main.obj
 0001:00011cd0       ??1?$Array@UFAR_CHAR_INFO@@@col@@QEAA@XZ 0000000061012cd0 f i main.obj
 0001:00011cd0       ??1UnicodeString@col@@QEAA@XZ 0000000061012cd0 f i main.obj
 0001:00011cf0       ?extend@?$Array@UFAR_CHAR_INFO@@@col@@QEAAAEAV12@_K@Z 0000000061012cf0 f i main.obj
 0001:00011dc0       ??4?$Array@UFAR_CHAR_INFO@@@col@@QEAAAEAV01@AEBV01@@Z 0000000061012dc0 f i main.obj
 0001:00011dc0       ??4UnicodeString@col@@QEAAAEAV01@AEBV01@@Z 0000000061012dc0 f i main.obj
 0001:00011e00       ?create@?$ObjectArray@V?$Array@PEB_W@col@@@col@@CAPEAUBuffer@12@PEBV?$Array@PEB_W@2@_K@Z 0000000061012e00 f i file_panel.obj
 0001:00011e00       ?create@?$ObjectArray@VUnicodeString@col@@@col@@CAPEAUBuffer@12@PEBVUnicodeString@2@_K@Z 0000000061012e00 f i main.obj
 0001:00011eb0       ?ref_resize@?$ObjectArray@V?$Array@PEB_W@col@@@col@@AEAAX_K@Z 0000000061012eb0 f i file_panel.obj
 0001:00011eb0       ?ref_resize@?$ObjectArray@VUnicodeString@col@@@col@@AEAAX_K@Z 0000000061012eb0 f i main.obj
 0001:00011f10       ?_cmp_def@?$ObjectArray@VUnicodeString@col@@@col@@CAHPEBX0@Z 0000000061012f10 f i main.obj
 0001:00011fd0       ?create@?$ObjectArray@UAttrInfo@@@col@@CAPEAUBuffer@12@PEBUAttrInfo@@_K@Z 0000000061012fd0 f i main.obj
 0001:000120e0       ?create@?$ObjectArray@UFileNameAttr@@@col@@CAPEAUBuffer@12@PEBUFileNameAttr@@_K@Z 00000000610130e0 f i main.obj
 0001:000121d0       ?create@?$ObjectArray@ULogRecord@@@col@@CAPEAUBuffer@12@PEBULogRecord@@_K@Z 00000000610131d0 f i main.obj
 0001:000121d0       ?create@?$ObjectArray@UNameValue@@@col@@CAPEAUBuffer@12@PEBUNameValue@@_K@Z 00000000610131d0 f i filever.obj
 0001:000121d0       ?create@?$ObjectArray@UListData@FarDialog@@@col@@CAPEAUBuffer@12@PEBUListData@FarDialog@@_K@Z 00000000610131d0 f i dlgapi.obj
 0001:00012290       ?resize@?$Array@UFarColor@@@col@@AEAAX_K@Z 0000000061013290 f i main.obj
 0001:00012310       ?create@?$ObjectArray@VFileInfo@@@col@@CAPEAUBuffer@12@PEBVFileInfo@@_K@Z 0000000061013310 f i main.obj
 0001:000123d0       ?clean@?$ObjectArray@VFileInfo@@@col@@AEAAXXZ 00000000610133d0 f i main.obj
 0001:00012530       ?_cmp_def@?$ObjectArray@VFileInfo@@@col@@CAHPEBX0@Z 0000000061013530 f i main.obj
 0001:00012550       ?replace@?$ObjectArray@VUnicodeString@col@@@col@@QEAAAEAV12@_K0PEBVUnicodeString@2@0@Z 0000000061013550 f i main.obj
 0001:000128b0       ?replace@?$Array@UFarColor@@@col@@QEAAAEAV12@_K0PEBUFarColor@@0@Z 00000000610138b0 f i main.obj
 0001:00012be0       ?copy_item@?$ObjectArray@VFileInfo@@@col@@CAXPEAVFileInfo@@PEBV3@@Z 0000000061013be0 f i main.obj
 0001:00012c90       ?clean_item@?$ObjectArray@VFileInfo@@@col@@CAXPEAVFileInfo@@@Z 0000000061013c90 f i main.obj
 0001:00012c90       ??1FileInfo@@QEAA@XZ       0000000061013c90 f i main.obj
 0001:00012cf0       ?ref_resize@?$ObjectArray@VFileInfo@@@col@@AEAAX_K@Z 0000000061013cf0 f i main.obj
 0001:00012d50       ?alloc@?$Array@UFarList@@@col@@AEAAPEAUBuffer@12@_K@Z 0000000061013d50 f i dlgapi.obj
 0001:00012d50       ?alloc@?$Array@UFarListItem@@@col@@AEAAPEAUBuffer@12@_K@Z 0000000061013d50 f i dlgapi.obj
 0001:00012d50       ?alloc@?$Array@UPluginPanelItem@@@col@@AEAAPEAUBuffer@12@_K@Z 0000000061013d50 f i file_panel.obj
 0001:00012d50       ?alloc@UnicodeString@col@@AEAAPEAUBuffer@12@_K@Z 0000000061013d50 f i main.obj
 0001:00012d50       ?alloc@?$Array@UFarColor@@@col@@AEAAPEAUBuffer@12@_K@Z 0000000061013d50 f i main.obj
 0001:00012d50       ?alloc@?$Array@UFAR_CHAR_INFO@@@col@@AEAAPEAUBuffer@12@_K@Z 0000000061013d50 f i main.obj
 0001:00012d50       ?alloc@?$Array@UFarMenuItem@@@col@@AEAAPEAUBuffer@12@_K@Z 0000000061013d50 f i dlgapi.obj
 0001:00012d50       ?alloc@?$Array@PEAVFilePanel@@@col@@AEAAPEAUBuffer@12@_K@Z 0000000061013d50 f i file_panel.obj
 0001:00012d50       ?alloc@?$Array@I@col@@AEAAPEAUBuffer@12@_K@Z 0000000061013d50 f i file_panel.obj
 0001:00012d50       ?alloc@?$Array@E@col@@AEAAPEAUBuffer@12@_K@Z 0000000061013d50 f i content.obj
 0001:00012d50       ?alloc@?$Array@UClusterChain@@@col@@AEAAPEAUBuffer@12@_K@Z 0000000061013d50 f i defragment.obj
 0001:00012d50       ?alloc@?$Array@PEAX@col@@AEAAPEAUBuffer@12@_K@Z 0000000061013d50 f i content.obj
 0001:00012d50       ?alloc@AnsiString@col@@AEAAPEAUBuffer@12@_K@Z 0000000061013d50 f i content.obj
 0001:00012d50       ?alloc@?$Array@_K@col@@AEAAPEAUBuffer@12@_K@Z 0000000061013d50 f i ntfs_file.obj
 0001:00012d50       ?alloc@?$Array@UFarDialogItem@@@col@@AEAAPEAUBuffer@12@_K@Z 0000000061013d50 f i main.obj
 0001:00012d50       ?alloc@?$Array@UDataRun@FileInfo@@@col@@AEAAPEAUBuffer@12@_K@Z 0000000061013d50 f i ntfs_file.obj
 0001:00012d50       ?alloc@?$Array@PEB_W@col@@AEAAPEAUBuffer@12@_K@Z 0000000061013d50 f i file_panel.obj
 0001:00012da0       ?ref_alloc@?$ObjectArray@UPluginItemList@@@col@@AEAAPEAUBuffer@12@_K@Z 0000000061013da0 f i file_panel.obj
 0001:00012da0       ?ref_alloc@?$Array@UFarListItem@@@col@@AEAAPEAUBuffer@12@_K@Z 0000000061013da0 f i dlgapi.obj
 0001:00012da0       ?ref_alloc@?$Array@UFAR_CHAR_INFO@@@col@@AEAAPEAUBuffer@12@_K@Z 0000000061013da0 f i main.obj
 0001:00012e30       ?replace@?$Array@UFarListItem@@@col@@QEAAAEAV12@_K0PEBUFarListItem@@0@Z 0000000061013e30 f i dlgapi.obj
 0001:00012e30       ?replace@?$Array@UFAR_CHAR_INFO@@@col@@QEAAAEAV12@_K0PEBUFAR_CHAR_INFO@@0@Z 0000000061013e30 f i main.obj
 0001:00013130       ??1AttrInfo@@QEAA@XZ       0000000061014130 f i main.obj
 0001:00013150       ??1FileNameAttr@@QEAA@XZ   0000000061014150 f i main.obj
 0001:00013170       ?ref_alloc@?$Array@UFarDialogItem@@@col@@AEAAPEAUBuffer@12@_K@Z 0000000061014170 f i main.obj
 0001:00013210       ?replace@?$Array@UFarDialogItem@@@col@@QEAAAEAV12@_K0PEBUFarDialogItem@@0@Z 0000000061014210 f i main.obj
 0001:000135b0       ?ref_alloc@?$ObjectArray@VFileInfo@@@col@@AEAAPEAUBuffer@12@_K@Z 00000000610145b0 f i main.obj
 0001:00013650       ?replace@?$ObjectArray@VFileInfo@@@col@@QEAAAEAV12@_K0PEBVFileInfo@@0@Z 0000000061014650 f i main.obj
 0001:00013b70       ?compare@UnicodeString@col@@QEBAHAEBV12@@Z 0000000061014b70 f i main.obj
 0001:00013be0       ?left@UnicodeString@col@@QEBA?AV12@_K@Z 0000000061014be0 f i main.obj
 0001:00013c10       ?slice@UnicodeString@col@@QEBA?AV12@_K0@Z 0000000061014c10 f i main.obj
 0001:00013c40       ??9UnicodeString@col@@QEBA_NAEBV01@@Z 0000000061014c40 f i main.obj
 0001:00013ca0       ?set_inc@UnicodeString@col@@QEAAAEAV12@_K@Z 0000000061014ca0 f i main.obj
 0001:00013d10       ??Hcol@@YA?AVUnicodeString@0@AEBV10@AEB_W@Z 0000000061014d10 f i main.obj
 0001:00013d80       ??Hcol@@YA?AVUnicodeString@0@AEBV10@0@Z 0000000061014d80 f i main.obj
 0001:00013df0       ?search@UnicodeString@col@@QEBA_K_K0PEB_W0@Z 0000000061014df0 f i main.obj
 0001:00013ec0       ??Hcol@@YA?AVUnicodeString@0@PEB_WAEBV10@@Z 0000000061014ec0 f i main.obj
 0001:00013f60       ??Hcol@@YA?AVUnicodeString@0@AEBV10@PEB_W@Z 0000000061014f60 f i main.obj
 0001:00013fe0       ?format@UnicodeString@col@@SA?AV12@PEB_WZZ 0000000061014fe0 f i main.obj
 0001:00014050       ?remove@UnicodeString@col@@QEAAAEAV12@_K0@Z 0000000061015050 f i main.obj
 0001:00014240       ?buf@UnicodeString@col@@QEAAPEA_W_K@Z 0000000061015240 f i main.obj
 0001:000142d0       ?set_size@UnicodeString@col@@QEAAAEAV12@_K@Z 00000000610152d0 f i main.obj
 0001:00014350       ?resize@UnicodeString@col@@AEAAX_K@Z 0000000061015350 f i main.obj
 0001:000143d0       ?do_format@UnicodeString@col@@AEAAAEAV12@PEB_WPEAD@Z 00000000610153d0 f i main.obj
 0001:00014d60       ?add_fmt@UnicodeString@col@@QEAAAEAV12@PEB_WZZ 0000000061015d60 f i main.obj
 0001:00014d90       ?strip@UnicodeString@col@@QEAAAEAV12@XZ 0000000061015d90 f i main.obj
 0001:00014e20       ?ref_alloc@UnicodeString@col@@AEAAPEAUBuffer@12@_K@Z 0000000061015e20 f i main.obj
 0001:00014eb0       ?replace@UnicodeString@col@@QEAAAEAV12@_K0PEB_W0@Z 0000000061015eb0 f i main.obj
 0001:000151c0       ??1bad_alloc@std@@UEAA@XZ  00000000610161c0 f i main.obj
 0001:000151d0       ??_Ebad_alloc@std@@UEAAPEAXI@Z 00000000610161d0 f i  CIL library: CIL module
 0001:000151d0       ??_Gbad_alloc@std@@UEAAPEAXI@Z 00000000610161d0 f i main.obj
 0001:00015210       ??0bad_alloc@std@@QEAA@AEBV01@@Z 0000000061016210 f i main.obj
 0001:00015240       ?create@UnicodeString@col@@CAPEAUBuffer@12@PEB_W_K@Z 0000000061016240 f i main.obj
 0001:000152f0       ?initialize@hash_crc32@@UEAA_NXZ 00000000610162f0 f i content.obj
 0001:00015300       ?update@hash_crc32@@UEAAXPEBX_K@Z 0000000061016300 f i content.obj
 0001:00015320       ?finalize@hash_crc32@@UEAAHPEAX@Z 0000000061016320 f i content.obj
 0001:00015350       ?initialize@hash_crc16@@UEAA_NXZ 0000000061016350 f i content.obj
 0001:00015360       ?update@hash_crc16@@UEAAXPEBX_K@Z 0000000061016360 f i content.obj
 0001:000153b0       ?finalize@hash_crc16@@UEAAHPEAX@Z 00000000610163b0 f i content.obj
 0001:000153d0       ??_EIHashCalc@@UEAAPEAXI@Z 00000000610163d0 f i  CIL library: CIL module
 0001:000153d0       ??_Ghash_crc32@@UEAAPEAXI@Z 00000000610163d0 f i content.obj
 0001:000153d0       ??_Ehash_md5@@UEAAPEAXI@Z  00000000610163d0 f i  CIL library: CIL module
 0001:000153d0       ??_Ghash_md5@@UEAAPEAXI@Z  00000000610163d0 f i content.obj
 0001:000153d0       ??_Ehash_crc32@@UEAAPEAXI@Z 00000000610163d0 f i  CIL library: CIL module
 0001:000153d0       ??_GIHashCalc@@UEAAPEAXI@Z 00000000610163d0 f i content.obj
 0001:000153d0       ??_Ehash_crc16@@UEAAPEAXI@Z 00000000610163d0 f i  CIL library: CIL module
 0001:000153d0       ??_Ehash_ed2k@@UEAAPEAXI@Z 00000000610163d0 f i  CIL library: CIL module
 0001:000153d0       ??_Ghash_sha256@@UEAAPEAXI@Z 00000000610163d0 f i content.obj
 0001:000153d0       ??_Ghash_ed2k@@UEAAPEAXI@Z 00000000610163d0 f i content.obj
 0001:000153d0       ??_Ghash_crc16@@UEAAPEAXI@Z 00000000610163d0 f i content.obj
 0001:000153d0       ??_Ehash_sha1@@UEAAPEAXI@Z 00000000610163d0 f i  CIL library: CIL module
 0001:000153d0       ??_Ghash_sha1@@UEAAPEAXI@Z 00000000610163d0 f i content.obj
 0001:000153d0       ??_Ehash_sha256@@UEAAPEAXI@Z 00000000610163d0 f i  CIL library: CIL module
 0001:00015400       ??1hash_crc16@@UEAA@XZ     0000000061016400 f i content.obj
 0001:00015400       ??1hash_sha256@@UEAA@XZ    0000000061016400 f i content.obj
 0001:00015400       ??1hash_crc32@@UEAA@XZ     0000000061016400 f i content.obj
 0001:00015400       ??1hash_md5@@UEAA@XZ       0000000061016400 f i content.obj
 0001:00015400       ??1hash_sha1@@UEAA@XZ      0000000061016400 f i content.obj
 0001:00015400       ??1hash_ed2k@@UEAA@XZ      0000000061016400 f i content.obj
 0001:00015410       ?initialize@hash_md5@@UEAA_NXZ 0000000061016410 f i content.obj
 0001:00015450       ?update@hash_md5@@UEAAXPEBX_K@Z 0000000061016450 f i content.obj
 0001:00015460       ?finalize@hash_md5@@UEAAHPEAX@Z 0000000061016460 f i content.obj
 0001:00015480       ?initialize@hash_sha1@@UEAA_NXZ 0000000061016480 f i content.obj
 0001:000154d0       ?update@hash_sha1@@UEAAXPEBX_K@Z 00000000610164d0 f i content.obj
 0001:000154e0       ?finalize@hash_sha1@@UEAAHPEAX@Z 00000000610164e0 f i content.obj
 0001:00015500       ?initialize@hash_sha256@@UEAA_NXZ 0000000061016500 f i content.obj
 0001:00015560       ?update@hash_sha256@@UEAAXPEBX_K@Z 0000000061016560 f i content.obj
 0001:00015570       ?finalize@hash_sha256@@UEAAHPEAX@Z 0000000061016570 f i content.obj
 0001:00015590       ?initialize@hash_sha3_256@@UEAA_NXZ 0000000061016590 f i content.obj
 0001:000155c0       ?update@hash_sha3_256@@UEAAXPEBX_K@Z 00000000610165c0 f i content.obj
 0001:000155d0       ?finalize@hash_sha3_256@@UEAAHPEAX@Z 00000000610165d0 f i content.obj
 0001:000155f0       ??_Ghash_sha3_256@@UEAAPEAXI@Z 00000000610165f0 f i content.obj
 0001:000155f0       ??_Ehash_sha3_256@@UEAAPEAXI@Z 00000000610165f0 f i  CIL library: CIL module
 0001:00015640       ??1hash_sha3_256@@UEAA@XZ  0000000061016640 f i content.obj
 0001:00015670       ?message@LzoError@@UEBA?AVUnicodeString@col@@XZ 0000000061016670 f i content.obj
 0001:00015840       ??1hash_compress@@UEAA@XZ  0000000061016840 f i content.obj
 0001:00015880       ?initialize@hash_compress@@UEAA_NXZ 0000000061016880 f i content.obj
 0001:00015910       ?update@hash_compress@@UEAAXPEBX_K@Z 0000000061016910 f i content.obj
 0001:000159b0       ?finalize@hash_compress@@UEAAHPEAX@Z 00000000610169b0 f i content.obj
 0001:000159c0       ??_Ghash_compress@@UEAAPEAXI@Z 00000000610169c0 f i content.obj
 0001:000159c0       ??_Ehash_compress@@UEAAPEAXI@Z 00000000610169c0 f i  CIL library: CIL module
 0001:00015a10       ??0LzoError@@QEAA@AEBV0@@Z 0000000061016a10 f i content.obj
 0001:00015a40       ?initialize@hash_ed2k@@UEAA_NXZ 0000000061016a40 f i content.obj
 0001:00015a90       ?update@hash_ed2k@@UEAAXPEBX_K@Z 0000000061016a90 f i content.obj
 0001:00015ce0       ?finalize@hash_ed2k@@UEAAHPEAX@Z 0000000061016ce0 f i content.obj
 0001:00015d50       ?options_dlg_proc@@YA_JPEAX_J10@Z 0000000061016d50 f   content.obj
 0001:000160f0       ?show_options_dialog@@YA_NAEAUContentOptions@@_N@Z 00000000610170f0 f   content.obj
 0001:00016760       ??1FarDialog@@QEAA@XZ      0000000061017760 f i content.obj
 0001:00016760       ??1CompressFilesDialog@@QEAA@XZ 0000000061017760 f i compress_files.obj
 0001:00016760       ??1FilePanelModeDialog@@QEAA@XZ 0000000061017760 f i file_panel.obj
 0001:000167c0       ?ed2k_extract_hash_from_url@@YA?AVUnicodeString@col@@AEBV12@@Z 00000000610177c0 f   content.obj
 0001:000168f0       ?save_hashes_to_file@@YAXAEBVUnicodeString@col@@AEBUContentOptions@@AEBUContentInfo@@@Z 00000000610178f0 f   content.obj
 0001:000174b0       ?result_dlg_proc@@YA_JPEAX_J10@Z 00000000610184b0 f   content.obj
 0001:00017b40       ?show_result_dialog@@YAXAEBVUnicodeString@col@@AEBUContentOptions@@AEBUContentInfo@@@Z 0000000061018b40 f   content.obj
 0001:00018cc0       ??1FileOverlappedRead@@QEAA@XZ 0000000061019cc0 f i content.obj
 0001:00018d10       ??1TwoBuffer@@QEAA@XZ      0000000061019d10 f i content.obj
 0001:00018d30       ??0SharedObjects@@QEAA@XZ  0000000061019d30 f i content.obj
 0001:000197e0       ?do_update_ui@ProcessFileProgress@@MEAAXXZ 000000006101a7e0 f i content.obj
 0001:00019e10       ?process_file_content@@YAXAEBVUnicodeString@col@@AEBUContentOptions@@AEAUContentInfo@@@Z 000000006101ae10 f   content.obj
 0001:00019fe0       ??1SharedObjects@@QEAA@XZ  000000006101afe0 f i content.obj
 0001:0001a080       ?show_result_dialog@@YAXAEBUCompressionStats@@@Z 000000006101b080 f   content.obj
 0001:0001a660       ?do_update_ui@CompressFilesProgress@@MEAAXXZ 000000006101b660 f i content.obj
 0001:0001aef0       ?do_update_ui@EstimationProgress@@MEAAXXZ 000000006101bef0 f i content.obj
 0001:0001b2e0       ?estimate_file_size@@YAXAEBVUnicodeString@col@@AEAUCompressionState@@AEAVEstimationProgress@@@Z 000000006101c2e0 f   content.obj
 0001:0001b3a0       ?estimate_directory_size@@YAXAEBVUnicodeString@col@@AEAUCompressionState@@AEAVEstimationProgress@@@Z 000000006101c3a0 f   content.obj
 0001:0001b670       ?update_ui@CompressOneFileProgress@@MEAAX_N@Z 000000006101c670 f i content.obj
 0001:0001b6b0       ??1ProcessFileProgress@@UEAA@XZ 000000006101c6b0 f i content.obj
 0001:0001b6b0       ??1CompressOneFileProgress@@UEAA@XZ 000000006101c6b0 f i content.obj
 0001:0001b6b0       ??1CompressFilesProgress@@UEAA@XZ 000000006101c6b0 f i content.obj
 0001:0001b6b0       ??1Progress@?3??store_mft_index@FilePanel@@AEAAXXZ@UEAA@XZ 000000006101c6b0 f i mftindex.obj
 0001:0001b6b0       ??1Progress@?1??load_mft_index@FilePanel@@AEAAXXZ@UEAA@XZ 000000006101c6b0 f i mftindex.obj
 0001:0001b6b0       ??1FileListProgress@@UEAA@XZ 000000006101c6b0 f i file_panel.obj
 0001:0001b6b0       ??1VolumeListProgress@?1??create_mft_index@FilePanel@@AEAAXXZ@UEAA@XZ 000000006101c6b0 f i mftindex.obj
 0001:0001b6b0       ??1Progress@?1??update_mft_index_from_usn@FilePanel@@AEAAXXZ@UEAA@XZ 000000006101c6b0 f i mftindex.obj
 0001:0001b6b0       ??1EstimationProgress@@UEAA@XZ 000000006101c6b0 f i content.obj
 0001:0001b6c0       ?compress_file@@YAXAEBVUnicodeString@col@@AEAUSharedObjects@@AEAUCompressionState@@AEAVCompressFilesProgress@@@Z 000000006101c6c0 f   content.obj
 0001:0001b860       ?compress_directory@@YAXAEBVUnicodeString@col@@AEAUSharedObjects@@AEAUCompressionState@@AEAVCompressFilesProgress@@@Z 000000006101c860 f   content.obj
 0001:0001bb20       ?compress_files@@YAXAEBV?$ObjectArray@VUnicodeString@col@@@col@@AEAUCompressionStats@@@Z 000000006101cb20 f   content.obj
 0001:0001bf70       ?replace@?$Array@E@col@@QEAAAEAV12@_K0PEBE0@Z 000000006101cf70 f i content.obj
 0001:0001c250       ?clean_item@?$ObjectArray@UListData@FarDialog@@@col@@CAXPEAUListData@FarDialog@@@Z 000000006101d250 f i content.obj
 0001:0001c250       ??1LogRecord@@QEAA@XZ      000000006101d250 f i main.obj
 0001:0001c250       ??1NameValue@@QEAA@XZ      000000006101d250 f i filever.obj
 0001:0001c250       ??1CertificateInfo@@QEAA@XZ 000000006101d250 f i filever.obj
 0001:0001c250       ?clean_item@?$ObjectArray@UNameValue@@@col@@CAXPEAUNameValue@@@Z 000000006101d250 f i filever.obj
 0001:0001c250       ??1ListData@FarDialog@@QEAA@XZ 000000006101d250 f i content.obj
 0001:0001c250       ??1PanelItemData@FilePanel@@QEAA@XZ 000000006101d250 f i file_panel.obj
 0001:0001c250       ?clean_item@?$ObjectArray@ULogRecord@@@col@@CAXPEAULogRecord@@@Z 000000006101d250 f i main.obj
 0001:0001c290       ?create@AnsiString@col@@CAPEAUBuffer@12@PEBD_K@Z 000000006101d290 f i content.obj
 0001:0001c330       ??Hcol@@YA?AVAnsiString@0@PEBDAEBV10@@Z 000000006101d330 f i content.obj
 0001:0001c3d0       ?ref_alloc@AnsiString@col@@AEAAPEAUBuffer@12@_K@Z 000000006101d3d0 f i content.obj
 0001:0001c460       ?replace@AnsiString@col@@QEAAAEAV12@_K0PEBD0@Z 000000006101d460 f i content.obj
 0001:0001c6f0       ??Hcol@@YA?AVAnsiString@0@AEBV10@PEBD@Z 000000006101d6f0 f i content.obj
 0001:0001c760       ?copy_fmt@UnicodeString@col@@QEAAAEAV12@PEB_WZZ 000000006101d760 f i content.obj
 0001:0001c7b0       ?update@Keccak1600@@QEAAXPEBX_K@Z 000000006101d7b0 f   sha3.obj
 0001:0001c8a0       ?finalize@Keccak1600@@QEAAXPEAX@Z 000000006101d8a0 f   sha3.obj
 0001:0001c940       ??_ECompressFilesProgress@@UEAAPEAXI@Z 000000006101d940 f i  CIL library: CIL module
 0001:0001c940       ??_EFileListProgress@@UEAAPEAXI@Z 000000006101d940 f i  CIL library: CIL module
 0001:0001c940       ??_GProgress@?3??store_mft_index@FilePanel@@AEAAXXZ@UEAAPEAXI@Z 000000006101d940 f i mftindex.obj
 0001:0001c940       ??_ECompressOneFileProgress@@UEAAPEAXI@Z 000000006101d940 f i  CIL library: CIL module
 0001:0001c940       ??_EVolumeListProgress@?1??create_mft_index@FilePanel@@AEAAXXZ@UEAAPEAXI@Z 000000006101d940 f i  CIL library: CIL module
 0001:0001c940       ??_EProgress@?3??store_mft_index@FilePanel@@AEAAXXZ@UEAAPEAXI@Z 000000006101d940 f i  CIL library: CIL module
 0001:0001c940       ??_EProcessFileProgress@@UEAAPEAXI@Z 000000006101d940 f i  CIL library: CIL module
 0001:0001c940       ??_GProcessFileProgress@@UEAAPEAXI@Z 000000006101d940 f i content.obj
 0001:0001c940       ??_GCompressFilesProgress@@UEAAPEAXI@Z 000000006101d940 f i content.obj
 0001:0001c940       ??_GProgress@?1??update_mft_index_from_usn@FilePanel@@AEAAXXZ@UEAAPEAXI@Z 000000006101d940 f i mftindex.obj
 0001:0001c940       ??_GEstimationProgress@@UEAAPEAXI@Z 000000006101d940 f i content.obj
 0001:0001c940       ??_GCompressOneFileProgress@@UEAAPEAXI@Z 000000006101d940 f i content.obj
 0001:0001c940       ??_EProgress@?1??load_mft_index@FilePanel@@AEAAXXZ@UEAAPEAXI@Z 000000006101d940 f i  CIL library: CIL module
 0001:0001c940       ??_EProgress@?1??update_mft_index_from_usn@FilePanel@@AEAAXXZ@UEAAPEAXI@Z 000000006101d940 f i  CIL library: CIL module
 0001:0001c940       ??_GProgressMonitor@@UEAAPEAXI@Z 000000006101d940 f i utils.obj
 0001:0001c940       ??_EEstimationProgress@@UEAAPEAXI@Z 000000006101d940 f i  CIL library: CIL module
 0001:0001c940       ??_GFileListProgress@@UEAAPEAXI@Z 000000006101d940 f i file_panel.obj
 0001:0001c940       ??_EProgressMonitor@@UEAAPEAXI@Z 000000006101d940 f i  CIL library: CIL module
 0001:0001c940       ??_GProgress@?1??load_mft_index@FilePanel@@AEAAXXZ@UEAAPEAXI@Z 000000006101d940 f i mftindex.obj
 0001:0001c940       ??_GVolumeListProgress@?1??create_mft_index@FilePanel@@AEAAXXZ@UEAAPEAXI@Z 000000006101d940 f i mftindex.obj
 0001:0001c970       ?invalidate_mft_index@FilePanel@@AEAAXXZ 000000006101d970 f i file_panel.obj
 0001:0001c9b0       ??0FilePanel@@AEAA@XZ      000000006101d9b0 f i file_panel.obj
 0001:0001cae0       ??1PanelState@@QEAA@XZ     000000006101dae0 f i file_panel.obj
 0001:0001cb40       ?save_state@@YA?AUPanelState@@PEAX@Z 000000006101db40 f   file_panel.obj
 0001:0001cdf0       ?restore_state@@YAXPEAXAEBUPanelState@@@Z 000000006101ddf0 f   file_panel.obj
 0001:0001d0b0       ?open@FilePanel@@SAPEAV1@XZ 000000006101e0b0 f   file_panel.obj
 0001:0001d200       ??4PanelState@@QEAAAEAU0@AEBU0@@Z 000000006101e200 f i file_panel.obj
 0001:0001d2c0       ??1FilePanel@@QEAA@XZ      000000006101e2c0 f i file_panel.obj
 0001:0001d430       ?apply_saved_state@FilePanel@@QEAAXXZ 000000006101e430 f   file_panel.obj
 0001:0001d4b0       ?close@FilePanel@@QEAAXXZ  000000006101e4b0 f   file_panel.obj
 0001:0001d5a0       ?on_close@FilePanel@@QEAAXXZ 000000006101e5a0 f   file_panel.obj
 0001:0001d6e0       ?get_active_panel@FilePanel@@SAPEAV1@XZ 000000006101e6e0 f   file_panel.obj
 0001:0001d7b0       ?do_update_ui@FileListProgress@@MEAAXXZ 000000006101e7b0 f   file_panel.obj
 0001:0001d940       ?fit_col_str@@YAAEAVUnicodeString@col@@AEAV12@_K@Z 000000006101e940 f   file_panel.obj
 0001:0001daa0       ?create_panel_items@FilePanel@@AEAA?AUPluginItemList@@AEBV?$list@UPanelItemData@FilePanel@@V?$allocator@UPanelItemData@FilePanel@@@std@@@std@@_N@Z 000000006101eaa0 f   file_panel.obj
 0001:0001e170       ?clean_item@?$ObjectArray@UPluginItemList@@@col@@CAXPEAUPluginItemList@@@Z 000000006101f170 f i file_panel.obj
 0001:0001e170       ??1PluginItemList@@QEAA@XZ 000000006101f170 f i file_panel.obj
 0001:0001e1b0       ?scan_dir@FilePanel@@AEAAXAEBVUnicodeString@col@@0AEAV?$list@UPanelItemData@FilePanel@@V?$allocator@UPanelItemData@FilePanel@@@std@@@std@@AEAVFileListProgress@@@Z 000000006101f1b0 f   file_panel.obj
 0001:0001f6e0       ?sort_file_list@FilePanel@@AEAAXAEAV?$list@UPanelItemData@FilePanel@@V?$allocator@UPanelItemData@FilePanel@@@std@@@std@@@Z 00000000610206e0 f   file_panel.obj
 0001:0001f7a0       ?new_file_list@FilePanel@@QEAAXAEAPEAUPluginPanelItem@@AEA_K_N@Z 00000000610207a0 f   file_panel.obj
 0001:0001fba0       ?change_directory@FilePanel@@QEAAXAEBVUnicodeString@col@@_N@Z 0000000061020ba0 f   file_panel.obj
 0001:000200b0       ?fill_plugin_info@FilePanel@@QEAAXPEAUOpenPanelInfo@@@Z 00000000610210b0 f   file_panel.obj
 0001:00020400       ?dialog_proc@FilePanelModeDialog@@CA_JPEAX_J10@Z 0000000061021400 f i file_panel.obj
 0001:00020b00       ?show@FilePanelModeDialog@@QEAA_NXZ 0000000061021b00 f i file_panel.obj
 0001:00021810       ?parse_column_spec@FilePanel@@AEAAXAEBVUnicodeString@col@@0AEAV23@1_N@Z 0000000061022810 f   file_panel.obj
 0001:00021eb0       ??0?$Array@UFarDialogItem@@@col@@QEAA@XZ 0000000061022eb0 f i main.obj
 0001:00021eb0       ??0?$Array@UPluginPanelItem@@@col@@QEAA@XZ 0000000061022eb0 f i file_panel.obj
 0001:00021f30       ??1?$ObjectArray@V?$Array@PEB_W@col@@@col@@QEAA@XZ 0000000061022f30 f i file_panel.obj
 0001:00021f30       ?clean@?$ObjectArray@VUnicodeString@col@@@col@@AEAAXXZ 0000000061022f30 f i main.obj
 0001:00021fa0       ??1?$ObjectArray@UPluginItemList@@@col@@QEAA@XZ 0000000061022fa0 f i file_panel.obj
 0001:00021fb0       ??0?$Array@PEAX@col@@QEAA@XZ 0000000061022fb0 f i dlgapi.obj
 0001:00021fb0       ??0?$Array@_K@col@@QEAA@XZ 0000000061022fb0 f i ntfs_file.obj
 0001:00021fb0       ??0?$Array@PEB_W@col@@QEAA@XZ 0000000061022fb0 f i file_panel.obj
 0001:00022030       ?extend@?$Array@PEB_W@col@@QEAAAEAV12@_K@Z 0000000061023030 f i file_panel.obj
 0001:000220f0       ??0?$Array@I@col@@QEAA@XZ  00000000610230f0 f i file_panel.obj
 0001:00022170       ??0?$Array@PEAVFilePanel@@@col@@QEAA@XZ 0000000061023170 f i file_panel.obj
 0001:000221f0       ??1?$ObjectArray@UFileRecord@FilePanel@@@col@@QEAA@XZ 00000000610231f0 f i file_panel.obj
 0001:00022260       ??0?$list@UPanelItemData@FilePanel@@V?$allocator@UPanelItemData@FilePanel@@@std@@@std@@QEAA@XZ 0000000061023260 f i file_panel.obj
 0001:00022280       ??1?$list@UPanelItemData@FilePanel@@V?$allocator@UPanelItemData@FilePanel@@@std@@@std@@QEAA@XZ 0000000061023280 f i file_panel.obj
 0001:000222a0       ?resize@?$Array@UPluginPanelItem@@@col@@AEAAX_K@Z 00000000610232a0 f i file_panel.obj
 0001:00022320       ?create@?$ObjectArray@UPluginItemList@@@col@@CAPEAUBuffer@12@PEBUPluginItemList@@_K@Z 0000000061023320 f i file_panel.obj
 0001:000223f0       ?clean@?$ObjectArray@UPluginItemList@@@col@@AEAAXXZ 00000000610233f0 f i file_panel.obj
 0001:00022570       ?remove@?$Array@PEB_W@col@@QEAAAEAV12@_K0@Z 0000000061023570 f i file_panel.obj
 0001:00022710       ?remove@?$Array@I@col@@QEAAAEAV12@_K0@Z 0000000061023710 f i file_panel.obj
 0001:000228b0       ?remove@?$Array@PEAVFilePanel@@@col@@QEAAAEAV12@_K0@Z 00000000610238b0 f i file_panel.obj
 0001:00022a70       ?create@?$ObjectArray@UFileRecord@FilePanel@@@col@@CAPEAUBuffer@12@PEBUFileRecord@FilePanel@@_K@Z 0000000061023a70 f i file_panel.obj
 0001:00022bb0       ??0?$_List_val@UPanelItemData@FilePanel@@V?$allocator@UPanelItemData@FilePanel@@@std@@@std@@QEAA@V?$allocator@UPanelItemData@FilePanel@@@1@@Z 0000000061023bb0 f i file_panel.obj
 0001:00022c20       ?ref_alloc@?$Array@UPluginPanelItem@@@col@@AEAAPEAUBuffer@12@_K@Z 0000000061023c20 f i file_panel.obj
 0001:00022cc0       ?replace@?$ObjectArray@UPluginItemList@@@col@@QEAAAEAV12@_K0PEBUPluginItemList@@0@Z 0000000061023cc0 f i file_panel.obj
 0001:00023200       ?replace@?$Array@PEB_W@col@@QEAAAEAV12@_K0PEBQEB_W0@Z 0000000061024200 f i file_panel.obj
 0001:00023510       ?replace@?$Array@I@col@@QEAAAEAV12@_K0PEBI0@Z 0000000061024510 f i file_panel.obj
 0001:00023820       ?replace@?$Array@PEAVFilePanel@@@col@@QEAAAEAV12@_K0PEBQEAVFilePanel@@0@Z 0000000061024820 f i file_panel.obj
 0001:00023b10       ?replace@?$ObjectArray@UFileRecord@FilePanel@@@col@@QEAAAEAV12@_K0PEBUFileRecord@FilePanel@@0@Z 0000000061024b10 f i file_panel.obj
 0001:00024140       ?clear@?$list@UPanelItemData@FilePanel@@V?$allocator@UPanelItemData@FilePanel@@@std@@@std@@QEAAXXZ 0000000061025140 f i file_panel.obj
 0001:000241c0       ?_Buynode@?$_List_val@UPanelItemData@FilePanel@@V?$allocator@UPanelItemData@FilePanel@@@std@@@std@@QEAAPEAU_Node@?$_List_nod@UPanelItemData@FilePanel@@V?$allocator@UPanelItemData@FilePanel@@@std@@@2@PEAU342@0AEBUPanelItemData@FilePanel@@@Z 00000000610251c0 f i file_panel.obj
 0001:00024270       ??1FileRecord@FilePanel@@QEAA@XZ 0000000061025270 f i file_panel.obj
 0001:00024290       ?replace@?$Array@UPluginPanelItem@@@col@@QEAAAEAV12@_K0PEBUPluginPanelItem@@0@Z 0000000061025290 f i file_panel.obj
 0001:000245b0       ?replace@?$ObjectArray@V?$Array@PEB_W@col@@@col@@QEAAAEAV12@_K0PEBV?$Array@PEB_W@2@0@Z 00000000610255b0 f i file_panel.obj
 0001:000248f0       ?ref_alloc@?$Array@I@col@@AEAAPEAUBuffer@12@_K@Z 00000000610258f0 f i file_panel.obj
 0001:00024980       ?ref_alloc@?$Array@PEAVFilePanel@@@col@@AEAAPEAUBuffer@12@_K@Z 0000000061025980 f i file_panel.obj
 0001:00024a10       ?ref_alloc@?$ObjectArray@UFileRecord@FilePanel@@@col@@AEAAPEAUBuffer@12@_K@Z 0000000061025a10 f i file_panel.obj
 0001:00024ab0       ??$sort@UDataSizeCmp@?3??sort_file_list@FilePanel@@AEAAXAEAV?$list@UPanelItemData@FilePanel@@V?$allocator@UPanelItemData@FilePanel@@@std@@@std@@@Z@@?$list@UPanelItemData@FilePanel@@V?$allocator@UPanelItemData@FilePanel@@@std@@@std@@QEAAXUDataSizeCmp@?3??sort_file_list@FilePanel@@AEAAXAEAV01@@Z@@Z 0000000061025ab0 f i file_panel.obj
 0001:00024f50       ??$sort@UDiskSizeCmp@?4??sort_file_list@FilePanel@@AEAAXAEAV?$list@UPanelItemData@FilePanel@@V?$allocator@UPanelItemData@FilePanel@@@std@@@std@@@Z@@?$list@UPanelItemData@FilePanel@@V?$allocator@UPanelItemData@FilePanel@@@std@@@std@@QEAAXUDiskSizeCmp@?4??sort_file_list@FilePanel@@AEAAXAEAV01@@Z@@Z 0000000061025f50 f i file_panel.obj
 0001:000253f0       ??$sort@UFragmentsCmp@?5??sort_file_list@FilePanel@@AEAAXAEAV?$list@UPanelItemData@FilePanel@@V?$allocator@UPanelItemData@FilePanel@@@std@@@std@@@Z@@?$list@UPanelItemData@FilePanel@@V?$allocator@UPanelItemData@FilePanel@@@std@@@std@@QEAAXUFragmentsCmp@?5??sort_file_list@FilePanel@@AEAAXAEAV01@@Z@@Z 00000000610263f0 f i file_panel.obj
 0001:00025890       ??$sort@UStreamsCmp@?6??sort_file_list@FilePanel@@AEAAXAEAV?$list@UPanelItemData@FilePanel@@V?$allocator@UPanelItemData@FilePanel@@@std@@@std@@@Z@@?$list@UPanelItemData@FilePanel@@V?$allocator@UPanelItemData@FilePanel@@@std@@@std@@QEAAXUStreamsCmp@?6??sort_file_list@FilePanel@@AEAAXAEAV01@@Z@@Z 0000000061026890 f i file_panel.obj
 0001:00025d30       ??$sort@UHardLinksCmp@?7??sort_file_list@FilePanel@@AEAAXAEAV?$list@UPanelItemData@FilePanel@@V?$allocator@UPanelItemData@FilePanel@@@std@@@std@@@Z@@?$list@UPanelItemData@FilePanel@@V?$allocator@UPanelItemData@FilePanel@@@std@@@std@@QEAAXUHardLinksCmp@?7??sort_file_list@FilePanel@@AEAAXAEAV01@@Z@@Z 0000000061026d30 f i file_panel.obj
 0001:000261d0       ??$sort@UMftRecordsCmp@?8??sort_file_list@FilePanel@@AEAAXAEAV?$list@UPanelItemData@FilePanel@@V?$allocator@UPanelItemData@FilePanel@@@std@@@std@@@Z@@?$list@UPanelItemData@FilePanel@@V?$allocator@UPanelItemData@FilePanel@@@std@@@std@@QEAAXUMftRecordsCmp@?8??sort_file_list@FilePanel@@AEAAXAEAV01@@Z@@Z 00000000610271d0 f i file_panel.obj
 0001:00026670       ??$sort@UFragmLevelCmp@?9??sort_file_list@FilePanel@@AEAAXAEAV?$list@UPanelItemData@FilePanel@@V?$allocator@UPanelItemData@FilePanel@@@std@@@std@@@Z@@?$list@UPanelItemData@FilePanel@@V?$allocator@UPanelItemData@FilePanel@@@std@@@std@@QEAAXUFragmLevelCmp@?9??sort_file_list@FilePanel@@AEAAXAEAV01@@Z@@Z 0000000061027670 f i file_panel.obj
 0001:000269c0       ??$sort@UValidSizeCmp@?L@??sort_file_list@FilePanel@@AEAAXAEAV?$list@UPanelItemData@FilePanel@@V?$allocator@UPanelItemData@FilePanel@@@std@@@std@@@Z@@?$list@UPanelItemData@FilePanel@@V?$allocator@UPanelItemData@FilePanel@@@std@@@std@@QEAAXUValidSizeCmp@?L@??sort_file_list@FilePanel@@AEAAXAEAV01@@Z@@Z 00000000610279c0 f i file_panel.obj
 0001:00026e60       ??$sort@UNameLenCmp@?M@??sort_file_list@FilePanel@@AEAAXAEAV?$list@UPanelItemData@FilePanel@@V?$allocator@UPanelItemData@FilePanel@@@std@@@std@@@Z@@?$list@UPanelItemData@FilePanel@@V?$allocator@UPanelItemData@FilePanel@@@std@@@std@@QEAAXUNameLenCmp@?M@??sort_file_list@FilePanel@@AEAAXAEAV01@@Z@@Z 0000000061027e60 f i file_panel.obj
 0001:00027310       ?_Splice_same@?$list@UPanelItemData@FilePanel@@V?$allocator@UPanelItemData@FilePanel@@@std@@@std@@QEAAXV?$_List_const_iterator@V?$_List_val@UPanelItemData@FilePanel@@V?$allocator@UPanelItemData@FilePanel@@@std@@@std@@@2@AEAV12@00_K@Z 0000000061028310 f i file_panel.obj
 0001:000273c0       ??$merge@UDataSizeCmp@?3??sort_file_list@FilePanel@@AEAAXAEAV?$list@UPanelItemData@FilePanel@@V?$allocator@UPanelItemData@FilePanel@@@std@@@std@@@Z@@?$list@UPanelItemData@FilePanel@@V?$allocator@UPanelItemData@FilePanel@@@std@@@std@@QEAAXAEAV01@UDataSizeCmp@?3??sort_file_list@FilePanel@@AEAAX0@Z@@Z 00000000610283c0 f i file_panel.obj
 0001:00027470       ??$merge@UDiskSizeCmp@?4??sort_file_list@FilePanel@@AEAAXAEAV?$list@UPanelItemData@FilePanel@@V?$allocator@UPanelItemData@FilePanel@@@std@@@std@@@Z@@?$list@UPanelItemData@FilePanel@@V?$allocator@UPanelItemData@FilePanel@@@std@@@std@@QEAAXAEAV01@UDiskSizeCmp@?4??sort_file_list@FilePanel@@AEAAX0@Z@@Z 0000000061028470 f i file_panel.obj
 0001:00027520       ??$merge@UFragmentsCmp@?5??sort_file_list@FilePanel@@AEAAXAEAV?$list@UPanelItemData@FilePanel@@V?$allocator@UPanelItemData@FilePanel@@@std@@@std@@@Z@@?$list@UPanelItemData@FilePanel@@V?$allocator@UPanelItemData@FilePanel@@@std@@@std@@QEAAXAEAV01@UFragmentsCmp@?5??sort_file_list@FilePanel@@AEAAX0@Z@@Z 0000000061028520 f i file_panel.obj
 0001:000275d0       ??$merge@UStreamsCmp@?6??sort_file_list@FilePanel@@AEAAXAEAV?$list@UPanelItemData@FilePanel@@V?$allocator@UPanelItemData@FilePanel@@@std@@@std@@@Z@@?$list@UPanelItemData@FilePanel@@V?$allocator@UPanelItemData@FilePanel@@@std@@@std@@QEAAXAEAV01@UStreamsCmp@?6??sort_file_list@FilePanel@@AEAAX0@Z@@Z 00000000610285d0 f i file_panel.obj
 0001:00027680       ??$merge@UHardLinksCmp@?7??sort_file_list@FilePanel@@AEAAXAEAV?$list@UPanelItemData@FilePanel@@V?$allocator@UPanelItemData@FilePanel@@@std@@@std@@@Z@@?$list@UPanelItemData@FilePanel@@V?$allocator@UPanelItemData@FilePanel@@@std@@@std@@QEAAXAEAV01@UHardLinksCmp@?7??sort_file_list@FilePanel@@AEAAX0@Z@@Z 0000000061028680 f i file_panel.obj
 0001:00027730       ??$merge@UMftRecordsCmp@?8??sort_file_list@FilePanel@@AEAAXAEAV?$list@UPanelItemData@FilePanel@@V?$allocator@UPanelItemData@FilePanel@@@std@@@std@@@Z@@?$list@UPanelItemData@FilePanel@@V?$allocator@UPanelItemData@FilePanel@@@std@@@std@@QEAAXAEAV01@UMftRecordsCmp@?8??sort_file_list@FilePanel@@AEAAX0@Z@@Z 0000000061028730 f i file_panel.obj
 0001:000277e0       ??$merge@UFragmLevelCmp@?9??sort_file_list@FilePanel@@AEAAXAEAV?$list@UPanelItemData@FilePanel@@V?$allocator@UPanelItemData@FilePanel@@@std@@@std@@@Z@@?$list@UPanelItemData@FilePanel@@V?$allocator@UPanelItemData@FilePanel@@@std@@@std@@QEAAXAEAV01@UFragmLevelCmp@?9??sort_file_list@FilePanel@@AEAAX0@Z@@Z 00000000610287e0 f i file_panel.obj
 0001:00027920       ??$merge@UValidSizeCmp@?L@??sort_file_list@FilePanel@@AEAAXAEAV?$list@UPanelItemData@FilePanel@@V?$allocator@UPanelItemData@FilePanel@@@std@@@std@@@Z@@?$list@UPanelItemData@FilePanel@@V?$allocator@UPanelItemData@FilePanel@@@std@@@std@@QEAAXAEAV01@UValidSizeCmp@?L@??sort_file_list@FilePanel@@AEAAX0@Z@@Z 0000000061028920 f i file_panel.obj
 0001:000279d0       ??$merge@UNameLenCmp@?M@??sort_file_list@FilePanel@@AEAAXAEAV?$list@UPanelItemData@FilePanel@@V?$allocator@UPanelItemData@FilePanel@@@std@@@std@@@Z@@?$list@UPanelItemData@FilePanel@@V?$allocator@UPanelItemData@FilePanel@@@std@@@std@@QEAAXAEAV01@UNameLenCmp@?M@??sort_file_list@FilePanel@@AEAAX0@Z@@Z 00000000610289d0 f i file_panel.obj
 0001:00027a90       ??$_Construct@UPanelItemData@FilePanel@@AEBU12@@std@@YAXPEAUPanelItemData@FilePanel@@AEBU12@@Z 0000000061028a90 f i file_panel.obj
 0001:00027b10       ?do_update_ui@CompressOneFileProgress@@MEAAXXZ 0000000061028b10 f i content.obj
 0001:00027b10       ??3@YAXPEAX0@Z             0000000061028b10 f i file_panel.obj
 0001:00027b20       ??Hcol@@YA?AVUnicodeString@0@AEB_WAEBV10@@Z 0000000061028b20 f i file_panel.obj
 0001:00027bb0       ?type_name@AttrInfo@@QEBA?AVUnicodeString@col@@XZ 0000000061028bb0 f   ntfs_file.obj
 0001:00027c80       ?find_full_paths@FileInfo@@QEAAXXZ 0000000061028c80 f   ntfs_file.obj
 0001:000284c0       ?load_mft_record@FileInfo@@AEAA_K_KAEAV?$Array@E@col@@@Z 00000000610294c0 f   ntfs_file.obj
 0001:00028710       ?find_attribute@FileInfo@@AEAAIAEBV?$Array@E@col@@IG@Z 0000000061029710 f   ntfs_file.obj
 0001:00028910       ?decode_data_runs@FileInfo@@AEAA?AV?$Array@UDataRun@FileInfo@@@col@@AEBV?$Array@E@3@I@Z 0000000061029910 f   ntfs_file.obj
 0001:00028bd0       ?process_attribute@FileInfo@@AEAAXAEBV?$Array@E@col@@I@Z 0000000061029bd0 f   ntfs_file.obj
 0001:00029520       ?process_attr_list_entry@FileInfo@@AEAAXPEBUATTR_LIST_ENTRY@@AEAV?$Array@_K@col@@@Z 000000006102a520 f   ntfs_file.obj
 0001:00029680       ?process_base_file_rec@FileInfo@@QEAAXXZ 000000006102a680 f   ntfs_file.obj
 0001:00029ee0       ?buf@?$Array@E@col@@QEAAPEAE_K@Z 000000006102aee0 f i ntfs_file.obj
 0001:00029f60       ?remove@?$Array@E@col@@QEAAAEAV12@_K0@Z 000000006102af60 f i ntfs_file.obj
 0001:0002a0e0       ??0?$Array@UDataRun@FileInfo@@@col@@QEAA@XZ 000000006102b0e0 f i ntfs_file.obj
 0001:0002a160       ?extend@?$Array@UDataRun@FileInfo@@@col@@QEAAAEAV12@_K@Z 000000006102b160 f i ntfs_file.obj
 0001:0002a230       ?resize@?$Array@E@col@@AEAAX_K@Z 000000006102b230 f i ntfs_file.obj
 0001:0002a2b0       ?ref_resize@?$ObjectArray@UAttrInfo@@@col@@AEAAX_K@Z 000000006102b2b0 f i ntfs_file.obj
 0001:0002a380       ?replace@?$ObjectArray@UAttrInfo@@@col@@QEAAAEAV12@_K0PEBUAttrInfo@@0@Z 000000006102b380 f i ntfs_file.obj
 0001:0002a990       ?replace@?$ObjectArray@UFileNameAttr@@@col@@QEAAAEAV12@_K0PEBUFileNameAttr@@0@Z 000000006102b990 f i ntfs_file.obj
 0001:0002aed0       ?ref_alloc@?$ObjectArray@UAttrInfo@@@col@@AEAAPEAUBuffer@12@_K@Z 000000006102bed0 f i ntfs_file.obj
 0001:0002af70       ?ref_alloc@?$ObjectArray@UFileNameAttr@@@col@@AEAAPEAUBuffer@12@_K@Z 000000006102bf70 f i ntfs_file.obj
 0001:0002b010       ?replace@?$Array@UDataRun@FileInfo@@@col@@QEAAAEAV12@_K0PEBUDataRun@FileInfo@@0@Z 000000006102c010 f i ntfs_file.obj
 0001:0002b010       ?replace@?$Array@UClusterChain@@@col@@QEAAAEAV12@_K0PEBUClusterChain@@0@Z 000000006102c010 f i defragment.obj
 0001:0002b2d0       ?replace@?$Array@_K@col@@QEAAAEAV12@_K0PEB_K0@Z 000000006102c2d0 f i ntfs_file.obj
 0001:0002b2d0       ?replace@?$Array@PEAX@col@@QEAAAEAV12@_K0PEBQEAX0@Z 000000006102c2d0 f i content.obj
 0001:0002b540       ?ref_alloc@?$Array@PEB_W@col@@AEAAPEAUBuffer@12@_K@Z 000000006102c540 f i file_panel.obj
 0001:0002b540       ?ref_alloc@?$ObjectArray@VUnicodeString@col@@@col@@AEAAPEAUBuffer@12@_K@Z 000000006102c540 f i main.obj
 0001:0002b540       ?ref_alloc@?$Array@PEAX@col@@AEAAPEAUBuffer@12@_K@Z 000000006102c540 f i content.obj
 0001:0002b540       ?ref_alloc@?$ObjectArray@V?$Array@PEB_W@col@@@col@@AEAAPEAUBuffer@12@_K@Z 000000006102c540 f i file_panel.obj
 0001:0002b540       ?ref_alloc@?$Array@_K@col@@AEAAPEAUBuffer@12@_K@Z 000000006102c540 f i ntfs_file.obj
 0001:0002b5d0       ??1Options@@QEAA@XZ        000000006102c5d0 f i options.obj
 0001:0002b600       ?create@Options@@QEAA_NXZ  000000006102c600 f i options.obj
 0001:0002b6c0       ?get_str@Options@@QEAA?AVUnicodeString@col@@PEB_WAEBV23@@Z 000000006102c6c0 f i options.obj
 0001:0002b7e0       ??0FilePanelMode@@QEAA@XZ  000000006102c7e0 f   options.obj
 0001:0002b8a0       ?load_plugin_options@@YAXXZ 000000006102c8a0 f   options.obj
 0001:0002c620       ?store_plugin_options@@YAXXZ 000000006102d620 f   options.obj
 0001:0002d7f0       ?unicode_to_oem@@YAXAEAVAnsiString@col@@AEBVUnicodeString@2@@Z 000000006102e7f0 f   utils.obj
 0001:0002d8a0       ?oem_to_unicode@@YAXAEAVUnicodeString@col@@AEBVAnsiString@2@@Z 000000006102e8a0 f   utils.obj
 0001:0002d940       ?unicode_to_oem@@YA?AVAnsiString@col@@AEBVUnicodeString@2@@Z 000000006102e940 f   utils.obj
 0001:0002d9a0       ?oem_to_unicode@@YA?AVUnicodeString@col@@AEBVAnsiString@2@@Z 000000006102e9a0 f   utils.obj
 0001:0002da00       ?ansi_to_unicode@@YA?AVUnicodeString@col@@AEBVAnsiString@2@I@Z 000000006102ea00 f   utils.obj
 0001:0002dcc0       ?unicode_to_ansi@@YA?AVAnsiString@col@@AEBVUnicodeString@2@I@Z 000000006102ecc0 f   utils.obj
 0001:0002de70       ?format_inf_amount@@YA?AVUnicodeString@col@@_K@Z 000000006102ee70 f   utils.obj
 0001:0002dfa0       ?format_inf_amount_short@@YA?AVUnicodeString@col@@_K_N@Z 000000006102efa0 f   utils.obj
 0001:0002dfe0       ?load_suffixes@@YAXXZ      000000006102efe0 f   utils.obj
 0001:0002e530       ?format_data_size@@YA?AVUnicodeString@col@@_KAEBV?$ObjectArray@VUnicodeString@col@@@2@@Z 000000006102f530 f   utils.obj
 0001:0002e7b0       ?format_time@@YA?AVUnicodeString@col@@_K@Z 000000006102f7b0 f   utils.obj
 0001:0002e840       ?format_time2@@YA?AVUnicodeString@col@@_K@Z 000000006102f840 f   utils.obj
 0001:0002e980       ?format_hex_array@@YA?AVUnicodeString@col@@AEBV?$Array@E@2@@Z 000000006102f980 f   utils.obj
 0001:0002ea10       ?word_wrap@@YA?AVUnicodeString@col@@AEBV12@_K@Z 000000006102fa10 f   utils.obj
 0001:0002eac0       ?get_module_version@@YA?AUModuleVersion@@PEAUHINSTANCE__@@@Z 000000006102fac0 f   utils.obj
 0001:0002ee00       ?locate_path_root@@YAXAEBVUnicodeString@col@@AEA_KAEA_N@Z 000000006102fe00 f   utils.obj
 0001:0002f010       ?extract_path_root@@YA?AVUnicodeString@col@@AEBV12@@Z 0000000061030010 f   utils.obj
 0001:0002f060       ?extract_file_name@@YA?AVUnicodeString@col@@AEBV12@@Z 0000000061030060 f   utils.obj
 0001:0002f120       ?extract_file_path@@YA?AVUnicodeString@col@@AEBV12@@Z 0000000061030120 f   utils.obj
 0001:0002f1c0       ?remove_path_root@@YA?AVUnicodeString@col@@AEBV12@@Z 00000000610301c0 f   utils.obj
 0001:0002f220       ?long_path@@YA?AVUnicodeString@col@@AEBV12@@Z 0000000061030220 f   utils.obj
 0001:0002f720       ?add_trailing_slash@@YA?AVUnicodeString@col@@AEBV12@@Z 0000000061030720 f   utils.obj
 0001:0002f780       ?del_trailing_slash@@YA?AVUnicodeString@col@@AEBV12@@Z 0000000061030780 f   utils.obj
 0001:0002f7d0       ?add_trailing_slash@@YA?AV?$basic_string@_WU?$char_traits@_W@std@@V?$allocator@_W@2@@std@@AEBV12@@Z 00000000610307d0 f   utils.obj
 0001:0002f840       ?del_trailing_slash@@YA?AV?$basic_string@_WU?$char_traits@_W@std@@V?$allocator@_W@2@@std@@AEBV12@@Z 0000000061030840 f   utils.obj
 0001:0002f8c0       ?int_to_str@@YA?AVUnicodeString@col@@H@Z 00000000610308c0 f   utils.obj
 0001:0002f950       ?center@@YA?AVUnicodeString@col@@AEBV12@_K@Z 0000000061030950 f   utils.obj
 0001:0002f9c0       ?fit_str@@YA?AVUnicodeString@col@@AEBV12@_K@Z 00000000610309c0 f   utils.obj
 0001:0002faa0       ?split_str@@YA?AV?$ObjectArray@VUnicodeString@col@@@col@@AEBVUnicodeString@2@_W@Z 0000000061030aa0 f   utils.obj
 0001:0002fbc0       ?round@@YAHN@Z             0000000061030bc0 f   utils.obj
 0001:0002fc00       ??1ProgressMonitor@@UEAA@XZ 0000000061030c00 f   utils.obj
 0001:0002fc70       ?update_ui@ProgressMonitor@@UEAAX_N@Z 0000000061030c70 f   utils.obj
 0001:0002fdf0       ?show@Log@@QEAAXXZ         0000000061030df0 f   utils.obj
 0001:000303c0       ?far_get_panel_dir@@YA?AVUnicodeString@col@@PEAX@Z 00000000610313c0 f   utils.obj
 0001:00030510       ?far_get_full_path@@YA?AVUnicodeString@col@@AEBV12@@Z 0000000061031510 f   utils.obj
 0001:00030640       ?far_get_panel_item@@YAPEAUPluginPanelItem@@PEAX_K@Z 0000000061031640 f   utils.obj
 0001:00030a40       ?far_get_selected_panel_item@@YAPEAUPluginPanelItem@@PEAX_K@Z 0000000061031a40 f   utils.obj
 0001:00030e40       ?error_dlg@@YAXAEBVError@@@Z 0000000061031e40 f   utils.obj
 0001:000310b0       ?error_dlg@@YAXAEBVexception@std@@@Z 00000000610320b0 f   utils.obj
 0001:000312e0       ?get_temp_path@@YA?AVUnicodeString@col@@XZ 00000000610322e0 f   utils.obj
 0001:000313a0       ??0Event@@QEAA@_N0@Z       00000000610323a0 f   utils.obj
 0001:00031400       ??0Semaphore@@QEAA@II@Z    0000000061032400 f   utils.obj
 0001:00031460       ??1Event@@QEAA@XZ          0000000061032460 f   utils.obj
 0001:00031460       ??1File@@QEAA@XZ           0000000061032460 f   utils.obj
 0001:00031460       ??1Semaphore@@QEAA@XZ      0000000061032460 f   utils.obj
 0001:00031470       ??0File@@QEAA@AEBVUnicodeString@col@@KKKK@Z 0000000061032470 f   utils.obj
 0001:00031520       ?size@File@@QEAA_KXZ       0000000061032520 f   utils.obj
 0001:00031580       ?read@File@@QEAAIPEAXI@Z   0000000061032580 f   utils.obj
 0001:000315e0       ??1FileEnum@@QEAA@XZ       00000000610325e0 f   utils.obj
 0001:00031620       ?next@FileEnum@@QEAA_NXZ   0000000061032620 f   utils.obj
 0001:000317b0       ?get_find_data@@YA?AUFindData@@AEBVUnicodeString@col@@@Z 00000000610327b0 f   utils.obj
 0001:00031840       ?substr@?$basic_string@_WU?$char_traits@_W@std@@V?$allocator@_W@2@@std@@QEBA?AV12@_K0@Z 0000000061032840 f i utils.obj
 0001:00031880       ?buf@?$Array@D@col@@QEAAPEAD_K@Z 0000000061032880 f i utils.obj
 0001:00031950       ??1?$unique_ptr@EU?$default_delete@E@std@@@std@@QEAA@XZ 0000000061032950 f i utils.obj
 0001:00031970       ?ref_alloc@?$Array@D@col@@AEAAPEAUBuffer@12@_K@Z 0000000061032970 f i utils.obj
 0001:00031970       ?ref_alloc@?$Array@E@col@@AEAAPEAUBuffer@12@_K@Z 0000000061032970 f i content.obj
 0001:00031a00       ??$?H_WU?$char_traits@_W@std@@V?$allocator@_W@1@@std@@YA?AV?$basic_string@_WU?$char_traits@_W@std@@V?$allocator@_W@2@@0@AEBV10@_W@Z 0000000061032a00 f i utils.obj
 0001:00031aa0       ?assign@?$basic_string@_WU?$char_traits@_W@std@@V?$allocator@_W@2@@std@@QEAAAEAV12@$$QEAV12@@Z 0000000061032aa0 f i utils.obj
 0001:00031b40       ?append@?$basic_string@_WU?$char_traits@_W@std@@V?$allocator@_W@2@@std@@QEAAAEAV12@_K_W@Z 0000000061032b40 f i utils.obj
 0001:00031c30       ?append@?$basic_string@_WU?$char_traits@_W@std@@V?$allocator@_W@2@@std@@QEAAAEAV12@AEBV12@_K1@Z 0000000061032c30 f i utils.obj
 0001:00031d40       ?compact@UnicodeString@col@@QEAAAEAV12@XZ 0000000061032d40 f i utils.obj
 0001:00031db0       ?right@UnicodeString@col@@QEBA?AV12@_K@Z 0000000061032db0 f i utils.obj
 0001:00031de0       ??1?$basic_string@_WU?$char_traits@_W@std@@V?$allocator@_W@2@@std@@QEAA@XZ 0000000061032de0 f i utils.obj
 0001:00031e10       ?erase@?$basic_string@_WU?$char_traits@_W@std@@V?$allocator@_W@2@@std@@QEAAAEAV12@_K0@Z 0000000061032e10 f i utils.obj
 0001:00031eb0       ?allocate@?$allocator@_W@std@@QEAAPEA_W_K@Z 0000000061032eb0 f i utils.obj
 0001:00031f20       ?_Copy@?$basic_string@_WU?$char_traits@_W@std@@V?$allocator@_W@2@@std@@QEAAX_K0@Z 0000000061032f20 f i utils.obj
 0001:00032070       ?_Grow@?$basic_string@_WU?$char_traits@_W@std@@V?$allocator@_W@2@@std@@QEAA_N_K_N@Z 0000000061033070 f i utils.obj
 0001:00032150       ?assign@?$basic_string@_WU?$char_traits@_W@std@@V?$allocator@_W@2@@std@@QEAAAEAV12@AEBV12@_K1@Z 0000000061033150 f i utils.obj
 0001:00032280       ?slice@UnicodeString@col@@QEBA?AV12@_K@Z 0000000061033280 f i utils.obj
 0001:000322b0       ?equal@UnicodeString@col@@QEBA_N_KPEB_W@Z 00000000610332b0 f i utils.obj
 0001:00032320       ?set_size@AnsiString@col@@QEAAAEAV12@_K@Z 0000000061033320 f i utils.obj
 0001:00032390       ?buf@AnsiString@col@@QEAAPEAD_K@Z 0000000061033390 f i utils.obj
 0001:00032470       ?get_real_path@@YA?AVUnicodeString@col@@AEBV12@@Z 0000000061033470 f   volume.obj
 0001:000325a0       ??0VolumeInfo@@QEAA@AEBVUnicodeString@col@@@Z 00000000610335a0 f   volume.obj
 0001:000326e0       ?get_volume_path@@YA?AVUnicodeString@col@@AEBV12@@Z 00000000610336e0 f   volume.obj
 0001:00032780       ?open@NtfsVolume@@QEAAXAEBVUnicodeString@col@@@Z 0000000061033780 f   volume.obj
 0001:00032a70       ?flush@NtfsVolume@@QEAAXXZ 0000000061033a70 f   volume.obj
 0001:00032b00       ?get_volume_guid@@YA?AVUnicodeString@col@@AEBV12@@Z 0000000061033b00 f   volume.obj
 0001:00032ec0       ?far_get_msg@@YA?AVUnicodeString@col@@H@Z 0000000061033ec0 f   dlgapi.obj
 0001:00032f20       ?get_msg_width@@YA_KXZ     0000000061033f20 f   dlgapi.obj
 0001:00032f70       ?far_menu@@YA_JAEBU_GUID@@AEBVUnicodeString@col@@AEBV?$ObjectArray@VUnicodeString@col@@@3@PEB_W@Z 0000000061033f70 f   dlgapi.obj
 0001:00033140       ?draw_text_box@@YAXAEBVUnicodeString@col@@AEBV?$ObjectArray@VUnicodeString@col@@@2@I@Z 0000000061034140 f   dlgapi.obj
 0001:00033430       ?frame@FarDialog@@AEAAXAEBVUnicodeString@col@@@Z 0000000061034430 f   dlgapi.obj
 0001:00033540       ?calc_frame_size@FarDialog@@AEAAXXZ 0000000061034540 f   dlgapi.obj
 0001:000335f0       ?separator@FarDialog@@QEAA_KXZ 00000000610345f0 f   dlgapi.obj
 0001:000336c0       ?separator@FarDialog@@QEAA_KAEBVUnicodeString@col@@@Z 00000000610346c0 f   dlgapi.obj
 0001:000337d0       ?label@FarDialog@@QEAA_KAEBVUnicodeString@col@@_KK@Z 00000000610347d0 f   dlgapi.obj
 0001:00033940       ?var_edit_box@FarDialog@@QEAA_KAEBVUnicodeString@col@@_KK@Z 0000000061034940 f   dlgapi.obj
 0001:00033a80       ?fix_edit_box@FarDialog@@QEAA_KAEBVUnicodeString@col@@_KK@Z 0000000061034a80 f   dlgapi.obj
 0001:00033bc0       ?button@FarDialog@@QEAA_KAEBVUnicodeString@col@@K_N@Z 0000000061034bc0 f   dlgapi.obj
 0001:00033d30       ?check_box@FarDialog@@QEAA_KAEBVUnicodeString@col@@HK@Z 0000000061034d30 f   dlgapi.obj
 0001:00033e90       ?combo_box@FarDialog@@QEAA_KAEBV?$ObjectArray@VUnicodeString@col@@@col@@_K1K@Z 0000000061034e90 f   dlgapi.obj
 0001:00034210       ?show@FarDialog@@QEAAHP6A_JPEAX_J10@ZPEB_W@Z 0000000061035210 f   dlgapi.obj
 0001:000342e0       ?get_text@FarDialog@@QEAA?AVUnicodeString@col@@_K@Z 00000000610352e0 f   dlgapi.obj
 0001:000343b0       ?link_label@FarDialog@@QEAAX_K0@Z 00000000610353b0 f   dlgapi.obj
 0001:000346a0       ?buf@?$Array@UFarDialogItem@@@col@@QEAAPEAUFarDialogItem@@_K@Z 00000000610356a0 f i dlgapi.obj
 0001:00034780       ?remove@?$Array@UFarDialogItem@@@col@@QEAAAEAV12@_K0@Z 0000000061035780 f i dlgapi.obj
 0001:00034990       ?replace@?$Array@UFarList@@@col@@QEAAAEAV12@_K0PEBUFarList@@0@Z 0000000061035990 f i dlgapi.obj
 0001:00034c30       ?replace@?$Array@UFarMenuItem@@@col@@QEAAAEAV12@_K0PEBUFarMenuItem@@0@Z 0000000061035c30 f i dlgapi.obj
 0001:00034ff0       ?ref_alloc@?$Array@UFarList@@@col@@AEAAPEAUBuffer@12@_K@Z 0000000061035ff0 f i dlgapi.obj
 0001:00034ff0       ?ref_alloc@?$Array@UFarColor@@@col@@AEAAPEAUBuffer@12@_K@Z 0000000061035ff0 f i main.obj
 0001:00035090       ?ref_alloc@?$Array@UFarMenuItem@@@col@@AEAAPEAUBuffer@12@_K@Z 0000000061036090 f i dlgapi.obj
 0001:00035130       ?add@Log@@QEAAXAEBVUnicodeString@col@@0@Z 0000000061036130 f i defragment.obj
 0001:00035220       ?do_update_ui@DefragProgress@@MEAAXXZ 0000000061036220 f i defragment.obj
 0001:00035760       ?update_defrag_ui@DefragProgress@@UEAAX_N@Z 0000000061036760 f i defragment.obj
 0001:00035770       ??_GDefragProgress@@UEAAPEAXI@Z 0000000061036770 f i defragment.obj
 0001:00035770       ??_EDefragProgress@@UEAAPEAXI@Z 0000000061036770 f i  CIL library: CIL module
 0001:000357c0       ??1DefragProgress@@UEAA@XZ 00000000610367c0 f i defragment.obj
 0001:00035800       ?defragment@@YAXAEBVUnicodeString@col@@AEAVIDefragProgress@@@Z 0000000061036800 f   defragment.obj
 0001:00036ca0       ?defragment@@YAXAEBV?$ObjectArray@VUnicodeString@col@@@col@@AEAULog@@@Z 0000000061037ca0 f   defragment.obj
 0001:00036e60       ?extend@?$Array@UClusterChain@@@col@@QEAAAEAV12@_K@Z 0000000061037e60 f i defragment.obj
 0001:00036f20       ?slice@?$Array@UClusterChain@@@col@@QEBA?AV12@_K0@Z 0000000061037f20 f i defragment.obj
 0001:00036f60       ?create@?$Array@UClusterChain@@@col@@CAPEAUBuffer@12@PEBUClusterChain@@_K@Z 0000000061037f60 f i defragment.obj
 0001:00037010       ?ref_alloc@?$ObjectArray@UListData@FarDialog@@@col@@AEAAPEAUBuffer@12@_K@Z 0000000061038010 f i dlgapi.obj
 0001:00037010       ?ref_alloc@?$ObjectArray@UVarVerInfo@@@col@@AEAAPEAUBuffer@12@_K@Z 0000000061038010 f i filever.obj
 0001:00037010       ?ref_alloc@?$ObjectArray@UNameValue@@@col@@AEAAPEAUBuffer@12@_K@Z 0000000061038010 f i filever.obj
 0001:00037010       ?ref_alloc@?$ObjectArray@ULogRecord@@@col@@AEAAPEAUBuffer@12@_K@Z 0000000061038010 f i defragment.obj
 0001:00037010       ?ref_alloc@?$Array@UDataRun@FileInfo@@@col@@AEAAPEAUBuffer@12@_K@Z 0000000061038010 f i ntfs_file.obj
 0001:00037010       ?ref_alloc@?$Array@UClusterChain@@@col@@AEAAPEAUBuffer@12@_K@Z 0000000061038010 f i defragment.obj
 0001:000370a0       ??$_cmp@UClusterChain_CompareCnt@?GA@??defragment@@YAXAEBVUnicodeString@col@@AEAVIDefragProgress@@@Z@UClusterChain@@@?$Array@UClusterChain@@@col@@CAHPEBX0@Z 00000000610380a0 f i defragment.obj
 0001:000370d0       ?add_file_records@FilePanel@@AEAAXAEAV?$list@UFileRecord@FilePanel@@V?$allocator@UFileRecord@FilePanel@@@std@@@std@@AEBVFileInfo@@@Z 00000000610380d0 f   mftindex.obj
 0001:00037760       ?prepare_usn_journal@FilePanel@@AEAAXXZ 0000000061038760 f   mftindex.obj
 0001:00037a10       ?delete_usn_journal@FilePanel@@AEAAXXZ 0000000061038a10 f   mftindex.obj
 0001:00037b30       ?create_mft_index@FilePanel@@AEAAXXZ 0000000061038b30 f   mftindex.obj
 0001:000382e0       ?update_mft_index_from_usn@FilePanel@@AEAAXXZ 00000000610392e0 f   mftindex.obj
 0001:00039320       ??1?$set@_KU?$less@_K@std@@V?$allocator@_K@2@@std@@QEAA@XZ 000000006103a320 f i mftindex.obj
 0001:00039360       ?mft_scan_dir@FilePanel@@AEAAX_KAEBVUnicodeString@col@@AEAV?$list@UPanelItemData@FilePanel@@V?$allocator@UPanelItemData@FilePanel@@@std@@@std@@AEAVFileListProgress@@@Z 000000006103a360 f   mftindex.obj
 0001:000396a0       ?mft_find_root@FilePanel@@AEBA_KXZ 000000006103a6a0 f   mftindex.obj
 0001:00039720       ?mft_find_path@FilePanel@@AEAA_KAEBVUnicodeString@col@@@Z 000000006103a720 f   mftindex.obj
 0001:00039920       ?open_volume@FilePanel@@AEAAXAEBVUnicodeString@col@@@Z 000000006103a920 f   mftindex.obj
 0001:000399f0       ?toggle_mft_mode@FilePanel@@QEAAXXZ 000000006103a9f0 f   mftindex.obj
 0001:00039c10       ?store_mft_index@FilePanel@@AEAAXXZ 000000006103ac10 f   mftindex.obj
 0001:0003b1d0       ?load_mft_index@FilePanel@@AEAAXXZ 000000006103c1d0 f   mftindex.obj
 0001:0003c390       ?get_mft_index_cache_name@FilePanel@@AEAA?AVUnicodeString@col@@XZ 000000006103d390 f   mftindex.obj
 0001:0003c810       ?mft_get_totals@FilePanel@@QEAA?AUTotals@1@AEBV?$ObjectArray@VUnicodeString@col@@@col@@@Z 000000006103d810 f   mftindex.obj
 0001:0003d220       ??1?$map@_KIU?$less@_K@std@@V?$allocator@U?$pair@$$CB_KI@std@@@2@@std@@QEAA@XZ 000000006103e220 f i mftindex.obj
 0001:0003d260       ??1?$list@UFileRecord@FilePanel@@V?$allocator@UFileRecord@FilePanel@@@std@@@std@@QEAA@XZ 000000006103e260 f i mftindex.obj
 0001:0003d2d0       ?count@?$_Tree@V?$_Tset_traits@_KU?$less@_K@std@@V?$allocator@_K@2@$0A@@std@@@std@@QEBA_KAEB_K@Z 000000006103e2d0 f i mftindex.obj
 0001:0003d3c0       ?count@?$_Tree@V?$_Tmap_traits@_KIU?$less@_K@std@@V?$allocator@U?$pair@$$CB_KI@std@@@2@$0A@@std@@@std@@QEBA_KAEB_K@Z 000000006103e3c0 f i mftindex.obj
 0001:0003d4b0       ?resize@?$ObjectArray@UFileRecord@FilePanel@@@col@@AEAAX_K@Z 000000006103e4b0 f i mftindex.obj
 0001:0003d530       ?ref_resize@?$ObjectArray@UFileRecord@FilePanel@@@col@@AEAAX_K@Z 000000006103e530 f i mftindex.obj
 0001:0003d630       ??1?$_Tree_val@V?$_Tmap_traits@V?$basic_string@_WU?$char_traits@_W@std@@V?$allocator@_W@2@@std@@V12@U?$less@V?$basic_string@_WU?$char_traits@_W@std@@V?$allocator@_W@2@@std@@@2@V?$allocator@U?$pair@$$CBV?$basic_string@_WU?$char_traits@_W@std@@V?$allocator@_W@2@@std@@V12@@std@@@2@$0A@@std@@@std@@QEAA@XZ 000000006103e630 f i volume_list.obj
 0001:0003d630       ??1?$_Tree_val@V?$_Tset_traits@_KU?$less@_K@std@@V?$allocator@_K@2@$0A@@std@@@std@@QEAA@XZ 000000006103e630 f i mftindex.obj
 0001:0003d630       ??1?$_Tree_val@V?$_Tmap_traits@_KIU?$less@_K@std@@V?$allocator@U?$pair@$$CB_KI@std@@@2@$0A@@std@@@std@@QEAA@XZ 000000006103e630 f i mftindex.obj
 0001:0003d640       ?_Buynode@?$_List_val@UFileRecord@FilePanel@@V?$allocator@UFileRecord@FilePanel@@@std@@@std@@QEAAPEAU_Node@?$_List_nod@UFileRecord@FilePanel@@V?$allocator@UFileRecord@FilePanel@@@std@@@2@PEAU342@0AEBUFileRecord@FilePanel@@@Z 000000006103e640 f i mftindex.obj
 0001:0003d6f0       ?erase@?$_Tree@V?$_Tset_traits@_KU?$less@_K@std@@V?$allocator@_K@2@$0A@@std@@@std@@QEAA?AV?$_Tree_const_iterator@V?$_Tree_val@V?$_Tset_traits@_KU?$less@_K@std@@V?$allocator@_K@2@$0A@@std@@@std@@@2@V32@0@Z 000000006103e6f0 f i mftindex.obj
 0001:0003d7d0       ?erase@?$_Tree@V?$_Tmap_traits@_KIU?$less@_K@std@@V?$allocator@U?$pair@$$CB_KI@std@@@2@$0A@@std@@@std@@QEAA?AV?$_Tree_iterator@V?$_Tree_val@V?$_Tmap_traits@_KIU?$less@_K@std@@V?$allocator@U?$pair@$$CB_KI@std@@@2@$0A@@std@@@std@@@2@V?$_Tree_const_iterator@V?$_Tree_val@V?$_Tmap_traits@_KIU?$less@_K@std@@V?$allocator@U?$pair@$$CB_KI@std@@@2@$0A@@std@@@std@@@2@0@Z 000000006103e7d0 f i mftindex.obj
 0001:0003d8b0       ?erase@?$_Tree@V?$_Tset_traits@_KU?$less@_K@std@@V?$allocator@_K@2@$0A@@std@@@std@@QEAA?AV?$_Tree_const_iterator@V?$_Tree_val@V?$_Tset_traits@_KU?$less@_K@std@@V?$allocator@_K@2@$0A@@std@@@std@@@2@V32@@Z 000000006103e8b0 f i mftindex.obj
 0001:0003dc10       ?clear@?$_Tree@V?$_Tset_traits@_KU?$less@_K@std@@V?$allocator@_K@2@$0A@@std@@@std@@QEAAXXZ 000000006103ec10 f i mftindex.obj
 0001:0003dc90       ?erase@?$_Tree@V?$_Tmap_traits@_KIU?$less@_K@std@@V?$allocator@U?$pair@$$CB_KI@std@@@2@$0A@@std@@@std@@QEAA?AV?$_Tree_iterator@V?$_Tree_val@V?$_Tmap_traits@_KIU?$less@_K@std@@V?$allocator@U?$pair@$$CB_KI@std@@@2@$0A@@std@@@std@@@2@V?$_Tree_const_iterator@V?$_Tree_val@V?$_Tmap_traits@_KIU?$less@_K@std@@V?$allocator@U?$pair@$$CB_KI@std@@@2@$0A@@std@@@std@@@2@@Z 000000006103ec90 f i mftindex.obj
 0001:0003dff0       ?clear@?$_Tree@V?$_Tmap_traits@_KIU?$less@_K@std@@V?$allocator@U?$pair@$$CB_KI@std@@@2@$0A@@std@@@std@@QEAAXXZ 000000006103eff0 f i mftindex.obj
 0001:0003e070       ?_Erase@?$_Tree@V?$_Tset_traits@_KU?$less@_K@std@@V?$allocator@_K@2@$0A@@std@@@std@@IEAAXPEAU_Node@?$_Tree_nod@V?$_Tset_traits@_KU?$less@_K@std@@V?$allocator@_K@2@$0A@@std@@@2@@Z 000000006103f070 f i mftindex.obj
 0001:0003e0c0       ?_Lrotate@?$_Tree@V?$_Tset_traits@_KU?$less@_K@std@@V?$allocator@_K@2@$0A@@std@@@std@@IEAAXPEAU_Node@?$_Tree_nod@V?$_Tset_traits@_KU?$less@_K@std@@V?$allocator@_K@2@$0A@@std@@@2@@Z 000000006103f0c0 f i mftindex.obj
 0001:0003e120       ?_Rrotate@?$_Tree@V?$_Tset_traits@_KU?$less@_K@std@@V?$allocator@_K@2@$0A@@std@@@std@@IEAAXPEAU_Node@?$_Tree_nod@V?$_Tset_traits@_KU?$less@_K@std@@V?$allocator@_K@2@$0A@@std@@@2@@Z 000000006103f120 f i mftindex.obj
 0001:0003e180       ?_Erase@?$_Tree@V?$_Tmap_traits@_KIU?$less@_K@std@@V?$allocator@U?$pair@$$CB_KI@std@@@2@$0A@@std@@@std@@IEAAXPEAU_Node@?$_Tree_nod@V?$_Tmap_traits@_KIU?$less@_K@std@@V?$allocator@U?$pair@$$CB_KI@std@@@2@$0A@@std@@@2@@Z 000000006103f180 f i mftindex.obj
 0001:0003e1d0       ?_Lrotate@?$_Tree@V?$_Tmap_traits@_KIU?$less@_K@std@@V?$allocator@U?$pair@$$CB_KI@std@@@2@$0A@@std@@@std@@IEAAXPEAU_Node@?$_Tree_nod@V?$_Tmap_traits@_KIU?$less@_K@std@@V?$allocator@U?$pair@$$CB_KI@std@@@2@$0A@@std@@@2@@Z 000000006103f1d0 f i mftindex.obj
 0001:0003e230       ?_Rrotate@?$_Tree@V?$_Tmap_traits@_KIU?$less@_K@std@@V?$allocator@U?$pair@$$CB_KI@std@@@2@$0A@@std@@@std@@IEAAXPEAU_Node@?$_Tree_nod@V?$_Tmap_traits@_KIU?$less@_K@std@@V?$allocator@U?$pair@$$CB_KI@std@@@2@$0A@@std@@@2@@Z 000000006103f230 f i mftindex.obj
 0001:0003e290       ??$swap@UFileRecord@FilePanel@@@std@@YAXAEAUFileRecord@FilePanel@@0@Z 000000006103f290 f i mftindex.obj
 0001:0003e3d0       ??4FileRecord@FilePanel@@QEAAAEAU01@AEBU01@@Z 000000006103f3d0 f i mftindex.obj
 0001:0003e480       ?_Linsert@?$_Tree@V?$_Tmap_traits@_KIU?$less@_K@std@@V?$allocator@U?$pair@$$CB_KI@std@@@2@$0A@@std@@@std@@QEAA?AU?$pair@V?$_Tree_iterator@V?$_Tree_val@V?$_Tmap_traits@_KIU?$less@_K@std@@V?$allocator@U?$pair@$$CB_KI@std@@@2@$0A@@std@@@std@@@std@@_N@2@PEAU_Node@?$_Tree_nod@V?$_Tmap_traits@_KIU?$less@_K@std@@V?$allocator@U?$pair@$$CB_KI@std@@@2@$0A@@std@@@2@_N@Z 000000006103f480 f i mftindex.obj
 0001:0003e5a0       ?_Insert@?$_Tree@V?$_Tset_traits@_KU?$less@_K@std@@V?$allocator@_K@2@$0A@@std@@@std@@IEAA?AV?$_Tree_const_iterator@V?$_Tree_val@V?$_Tset_traits@_KU?$less@_K@std@@V?$allocator@_K@2@$0A@@std@@@std@@@2@_NPEAU_Node@?$_Tree_nod@V?$_Tset_traits@_KU?$less@_K@std@@V?$allocator@_K@2@$0A@@std@@@2@1@Z 000000006103f5a0 f i mftindex.obj
 0001:0003e840       ?_Insert@?$_Tree@V?$_Tmap_traits@_KIU?$less@_K@std@@V?$allocator@U?$pair@$$CB_KI@std@@@2@$0A@@std@@@std@@IEAA?AV?$_Tree_iterator@V?$_Tree_val@V?$_Tmap_traits@_KIU?$less@_K@std@@V?$allocator@U?$pair@$$CB_KI@std@@@2@$0A@@std@@@std@@@2@_NPEAU_Node@?$_Tree_nod@V?$_Tmap_traits@_KIU?$less@_K@std@@V?$allocator@U?$pair@$$CB_KI@std@@@2@$0A@@std@@@2@1@Z 000000006103f840 f i mftindex.obj
 0001:0003eae0       ??$_cmp@UFileRecordCompare@FilePanel@@UFileRecord@2@@?$ObjectArray@UFileRecord@FilePanel@@@col@@CAHPEBX0@Z 000000006103fae0 f i mftindex.obj
 0001:0003eb10       ??$_cmp@UParentFileIndexCompare@?1??mft_scan_dir@FilePanel@@AEAAX_KAEBVUnicodeString@col@@AEAV?$list@UPanelItemData@FilePanel@@V?$allocator@UPanelItemData@FilePanel@@@std@@@std@@AEAVFileListProgress@@@Z@_K@?$ObjectArray@UFileRecord@FilePanel@@@col@@CAHPEBX0@Z 000000006103fb10 f i mftindex.obj
 0001:0003eb30       ??$_Buynode@$$CB_K@?$_Tree_val@V?$_Tset_traits@_KU?$less@_K@std@@V?$allocator@_K@2@$0A@@std@@@std@@QEAAPEAU_Node@?$_Tree_nod@V?$_Tset_traits@_KU?$less@_K@std@@V?$allocator@_K@2@$0A@@std@@@1@$$QEB_K@Z 000000006103fb30 f i mftindex.obj
 0001:0003eb30       ??$_Buynode@_K@?$_Tree_val@V?$_Tset_traits@_KU?$less@_K@std@@V?$allocator@_K@2@$0A@@std@@@std@@QEAAPEAU_Node@?$_Tree_nod@V?$_Tset_traits@_KU?$less@_K@std@@V?$allocator@_K@2@$0A@@std@@@1@$$QEA_K@Z 000000006103fb30 f i mftindex.obj
 0001:0003eb70       ??$_Buynode@U?$pair@_KI@std@@@?$_Tree_val@V?$_Tmap_traits@_KIU?$less@_K@std@@V?$allocator@U?$pair@$$CB_KI@std@@@2@$0A@@std@@@std@@QEAAPEAU_Node@?$_Tree_nod@V?$_Tmap_traits@_KIU?$less@_K@std@@V?$allocator@U?$pair@$$CB_KI@std@@@2@$0A@@std@@@1@$$QEAU?$pair@_KI@1@@Z 000000006103fb70 f i mftindex.obj
 0001:0003ebb0       ?copy_item@?$ObjectArray@UFileRecord@FilePanel@@@col@@CAXPEAUFileRecord@FilePanel@@PEBU34@@Z 000000006103fbb0 f i file_panel.obj
 0001:0003ebb0       ??$_Construct@UFileRecord@FilePanel@@AEBU12@@std@@YAXPEAUFileRecord@FilePanel@@AEBU12@@Z 000000006103fbb0 f i mftindex.obj
 0001:0003ec30       ?_Buynode@?$_Tree_val@V?$_Tset_traits@_KU?$less@_K@std@@V?$allocator@_K@2@$0A@@std@@@std@@QEAAPEAU_Node@?$_Tree_nod@V?$_Tset_traits@_KU?$less@_K@std@@V?$allocator@_K@2@$0A@@std@@@2@XZ 000000006103fc30 f i mftindex.obj
 0001:0003ecb0       ?_Buynode@?$_Tree_val@V?$_Tmap_traits@_KIU?$less@_K@std@@V?$allocator@U?$pair@$$CB_KI@std@@@2@$0A@@std@@@std@@QEAAPEAU_Node@?$_Tree_nod@V?$_Tmap_traits@_KIU?$less@_K@std@@V?$allocator@U?$pair@$$CB_KI@std@@@2@$0A@@std@@@2@XZ 000000006103fcb0 f i mftindex.obj
 0001:0003ed30       ?get_version_info@@YA?AUVersionData@@AEBVUnicodeString@col@@@Z 000000006103fd30 f   filever.obj
 0001:000418c0       ??1VersionData@@QEAA@XZ    00000000610428c0 f i filever.obj
 0001:00041950       ??1VarVerInfo@@QEAA@XZ     0000000061042950 f i filever.obj
 0001:00041960       ?get_certificate_info@@YA?AUCertificateInfo@@PEAXPEBU_CMSG_SIGNER_INFO@@@Z 0000000061042960 f   filever.obj
 0001:00041b10       ?get_signature_info@@YA?AV?$ObjectArray@UNameValue@@@col@@AEBVUnicodeString@2@@Z 0000000061042b10 f   filever.obj
 0001:00043270       ?verify_signature@@YAJAEBVUnicodeString@col@@@Z 0000000061044270 f   filever.obj
 0001:00043360       ?get_prop_list@@YA?AV?$ObjectArray@UNameValue@@@col@@AEBVUnicodeString@2@@Z 0000000061044360 f   filever.obj
 0001:00043860       ?file_version_dialog_proc@@YA_JPEAX_J10@Z 0000000061044860 f   filever.obj
 0001:00043e50       ?show_file_version_dialog@@YAXAEBVUnicodeString@col@@AEBUVersionData@@@Z 0000000061044e50 f   filever.obj
 0001:00045060       ?plugin_show_file_version@@YAXAEBVUnicodeString@col@@@Z 0000000061046060 f   filever.obj
 0001:000452f0       ??1?$ObjectArray@UListData@FarDialog@@@col@@QEAA@XZ 00000000610462f0 f i content.obj
 0001:000452f0       ??1?$ObjectArray@UNameValue@@@col@@QEAA@XZ 00000000610462f0 f i filever.obj
 0001:000452f0       ??1Log@@QEAA@XZ            00000000610462f0 f i main.obj
 0001:00045300       ??1?$ObjectArray@UVarVerInfo@@@col@@QEAA@XZ 0000000061046300 f i filever.obj
 0001:00045370       ??1?$_com_ptr_t@V?$_com_IIID@UIPropertySetStorage@@$1?_GUID_0000013a_0000_0000_c000_000000000046@@3U__s_GUID@@B@@@@QEAA@XZ 0000000061046370 f i filever.obj
 0001:00045370       ??1?$_com_ptr_t@V?$_com_IIID@UIPropertyStorage@@$1?_GUID_00000138_0000_0000_c000_000000000046@@3U__s_GUID@@B@@@@QEAA@XZ 0000000061046370 f i filever.obj
 0001:00045390       ?clean@?$ObjectArray@UListData@FarDialog@@@col@@AEAAXXZ 0000000061046390 f i content.obj
 0001:00045390       ?clean@?$ObjectArray@ULogRecord@@@col@@AEAAXXZ 0000000061046390 f i main.obj
 0001:00045390       ?clean@?$ObjectArray@UNameValue@@@col@@AEAAXXZ 0000000061046390 f i filever.obj
 0001:00045430       ?create@?$ObjectArray@UVarVerInfo@@@col@@CAPEAUBuffer@12@PEBUVarVerInfo@@_K@Z 0000000061046430 f i filever.obj
 0001:00045500       ?replace@?$ObjectArray@UListData@FarDialog@@@col@@QEAAAEAV12@_K0PEBUListData@FarDialog@@0@Z 0000000061046500 f i dlgapi.obj
 0001:00045500       ?replace@?$ObjectArray@UNameValue@@@col@@QEAAAEAV12@_K0PEBUNameValue@@0@Z 0000000061046500 f i filever.obj
 0001:00045500       ?replace@?$ObjectArray@ULogRecord@@@col@@QEAAAEAV12@_K0PEBULogRecord@@0@Z 0000000061046500 f i defragment.obj
 0001:000458f0       ?replace@?$ObjectArray@UVarVerInfo@@@col@@QEAAAEAV12@_K0PEBUVarVerInfo@@0@Z 00000000610468f0 f i filever.obj
 0001:00045d40       ??1CriticalSection@@UEAA@XZ 0000000061046d40 f i compress_files.obj
 0001:00045d60       ??_GCriticalSection@@UEAAPEAXI@Z 0000000061046d60 f i compress_files.obj
 0001:00045d60       ??_ECriticalSection@@UEAAPEAXI@Z 0000000061046d60 f i  CIL library: CIL module
 0001:00045da0       ?init_comp_api@@YAXXZ      0000000061046da0 f   compress_files.obj
 0001:00045e60       ?get_comp_work_buffer_size@@YAIXZ 0000000061046e60 f   compress_files.obj
 0001:00045ed0       ?get_cluster_size@@YAIAEBVUnicodeString@col@@@Z 0000000061046ed0 f   compress_files.obj
 0001:00045f20       ?get_time@@YA_KXZ          0000000061046f20 f   compress_files.obj
 0001:00045f70       ?get_time_freq@@YA_KXZ     0000000061046f70 f   compress_files.obj
 0001:00045fc0       ??0Buffer@@QEAA@XZ         0000000061046fc0 f i compress_files.obj
 0001:00045fe0       ??1Buffer@@QEAA@XZ         0000000061046fe0 f i compress_files.obj
 0001:00046030       ?allocate@Buffer@@QEAAXIII@Z 0000000061047030 f i compress_files.obj
 0001:000460c0       ??0BufferArray@@QEAA@II@Z  00000000610470c0 f i compress_files.obj
 0001:000461a0       ??1BufferArray@@QEAA@XZ    00000000610471a0 f i compress_files.obj
 0001:000461e0       ?update_defrag_ui@CompressFiles@@UEAAX_N@Z 00000000610471e0 f i compress_files.obj
 0001:00046200       ??0CompressFiles@@QEAA@AEBUCompressFilesParams@@AEAULog@@II@Z 0000000061047200 f i compress_files.obj
 0001:00046350       ??_GCompressFiles@@UEAAPEAXI@Z 0000000061047350 f i compress_files.obj
 0001:00046350       ??_ECompressFiles@@UEAAPEAXI@Z 0000000061047350 f i  CIL library: CIL module
 0001:00046380       ??1CompressFiles@@UEAA@XZ  0000000061047380 f i compress_files.obj
 0001:00046460       ?stop_threads@WorkerThreads@@AEAAXXZ 0000000061047460 f i compress_files.obj
 0001:00046510       ?thread_proc@WorkerThreads@@CAIPEAX@Z 0000000061047510 f i compress_files.obj
 0001:00046540       ??0WorkerThreads@@QEAA@AEAUCompressFiles@@@Z 0000000061047540 f i compress_files.obj
 0001:00046690       ??1WorkerThreads@@QEAA@XZ  0000000061047690 f i compress_files.obj
 0001:000466d0       ?do_update_ui@CompressFiles@@UEAAXXZ 00000000610476d0 f   compress_files.obj
 0001:00047820       ?estimate_file_size@CompressFiles@@QEAAXAEBUFindData@@@Z 0000000061048820 f   compress_files.obj
 0001:000478c0       ?estimate_directory_size@CompressFiles@@QEAAXAEBVUnicodeString@col@@@Z 00000000610488c0 f   compress_files.obj
 0001:00047a60       ?run_compression_thread@CompressFiles@@QEAAXXZ 0000000061048a60 f   compress_files.obj
 0001:00047ce0       ??0ReadOnlyFileAccess@@QEAA@AEBVUnicodeString@col@@@Z 0000000061048ce0 f i compress_files.obj
 0001:00047df0       ??1ReadOnlyFileAccess@@QEAA@XZ 0000000061048df0 f i compress_files.obj
 0001:00047e40       ?compress_file@CompressFiles@@QEAAXAEBVUnicodeString@col@@AEBUFindData@@@Z 0000000061048e40 f   compress_files.obj
 0001:00048420       ?compress_directory@CompressFiles@@QEAAXAEBVUnicodeString@col@@@Z 0000000061049420 f   compress_files.obj
 0001:000485b0       ?process@CompressFiles@@QEAAXAEBV?$ObjectArray@VUnicodeString@col@@@col@@@Z 00000000610495b0 f   compress_files.obj
 0001:00048a80       ?dialog_proc@CompressFilesDialog@@CA_JPEAX_J10@Z 0000000061049a80 f i compress_files.obj
 0001:00048bf0       ??0CompressFilesDialog@@QEAA@AEAUCompressFilesParams@@@Z 0000000061049bf0 f i compress_files.obj
 0001:00048cb0       ?show@CompressFilesDialog@@QEAA_NXZ 0000000061049cb0 f i compress_files.obj
 0001:00048fb0       ?show_compress_files_dialog@@YA_NAEAUCompressFilesParams@@@Z 0000000061049fb0 f   compress_files.obj
 0001:00049040       ??1?$vector@PEAXV?$allocator@PEAX@std@@@std@@QEAA@XZ 000000006104a040 f i compress_files.obj
 0001:00049070       ?reserve@?$vector@PEAXV?$allocator@PEAX@std@@@std@@QEAAX_K@Z 000000006104a070 f i compress_files.obj
 0001:00049130       ?_Reserve@?$vector@PEAXV?$allocator@PEAX@std@@@std@@IEAAX_K@Z 000000006104a130 f i compress_files.obj
 0001:000491c0       ?allocate@?$allocator@PEAX@std@@QEAAPEAPEAX_K@Z 000000006104a1c0 f i compress_files.obj
 0001:00049230       ??$_Insert@V?$_Vector_iterator@V?$_Vector_val@PEAXV?$allocator@PEAX@std@@@std@@@std@@@?$vector@PEAXV?$allocator@PEAX@std@@@std@@QEAAXV?$_Vector_const_iterator@V?$_Vector_val@PEAXV?$allocator@PEAX@std@@@std@@@1@V?$_Vector_iterator@V?$_Vector_val@PEAXV?$allocator@PEAX@std@@@std@@@1@1Uforward_iterator_tag@1@@Z 000000006104a230 f i compress_files.obj
 0001:000493b0       ??$_Uninit_copy@V?$_Vector_iterator@V?$_Vector_val@PEAXV?$allocator@PEAX@std@@@std@@@std@@PEAPEAXV?$allocator@PEAX@2@@std@@YAPEAPEAXV?$_Vector_iterator@V?$_Vector_val@PEAXV?$allocator@PEAX@std@@@std@@@0@0PEAPEAXAEAV?$allocator@PEAX@0@U_Nonscalar_ptr_iterator_tag@0@@Z 000000006104a3b0 f i compress_files.obj
 0001:000493f0       ??$_Rotate@PEAPEAX_JPEAX@std@@YAXPEAPEAX00PEA_J0@Z 000000006104a3f0 f i compress_files.obj
 0001:000494b0       ??1VolumeEnum@@QEAA@XZ     000000006104a4b0 f i volume_list.obj
 0001:000494e0       ?next@VolumeEnum@@QEAA_NXZ 000000006104a4e0 f i volume_list.obj
 0001:000495a0       ?get_volume_path@VolumeEnum@@QEBA?AV?$basic_string@_WU?$char_traits@_W@std@@V?$allocator@_W@2@@std@@XZ 000000006104a5a0 f i volume_list.obj
 0001:000495f0       ?next@LogicalDrivesEnum@@QEAA_NXZ 000000006104a5f0 f i volume_list.obj
 0001:00049710       ?get_drive@LogicalDrivesEnum@@QEBA?AV?$basic_string@_WU?$char_traits@_W@std@@V?$allocator@_W@2@@std@@XZ 000000006104a710 f i volume_list.obj
 0001:00049760       ?get_volume_mount_points@@YA?AV?$list@V?$basic_string@_WU?$char_traits@_W@std@@V?$allocator@_W@2@@std@@V?$allocator@V?$basic_string@_WU?$char_traits@_W@std@@V?$allocator@_W@2@@std@@@2@@std@@AEBV?$basic_string@_WU?$char_traits@_W@std@@V?$allocator@_W@2@@2@@Z 000000006104a760 f   volume_list.obj
 0001:00049aa0       ?get_device_path@@YA_NAEBV?$basic_string@_WU?$char_traits@_W@std@@V?$allocator@_W@2@@std@@AEAV12@@Z 000000006104aaa0 f   volume_list.obj
 0001:00049d00       ?enum_volumes@@YA?AV?$list@UVolumeItem@@V?$allocator@UVolumeItem@@@std@@@std@@XZ 000000006104ad00 f   volume_list.obj
 0001:0004a570       ??1LogicalDrivesEnum@@QEAA@XZ 000000006104b570 f i volume_list.obj
 0001:0004a580       ??1?$map@V?$basic_string@_WU?$char_traits@_W@std@@V?$allocator@_W@2@@std@@V12@U?$less@V?$basic_string@_WU?$char_traits@_W@std@@V?$allocator@_W@2@@std@@@2@V?$allocator@U?$pair@$$CBV?$basic_string@_WU?$char_traits@_W@std@@V?$allocator@_W@2@@std@@V12@@std@@@2@@std@@QEAA@XZ 000000006104b580 f i volume_list.obj
 0001:0004a5c0       ??1VolumeItem@@QEAA@XZ     000000006104b5c0 f i volume_list.obj
 0001:0004a650       ?create_volume_items@FilePanel@@AEAA?AUPluginItemList@@XZ 000000006104b650 f   volume_list.obj
 0001:0004ab50       ??1?$unique_ptr@$$BY0A@_WU?$default_delete@$$BY0A@_W@std@@@std@@QEAA@XZ 000000006104bb50 f i volume_list.obj
 0001:0004ab60       ??0?$list@V?$basic_string@_WU?$char_traits@_W@std@@V?$allocator@_W@2@@std@@V?$allocator@V?$basic_string@_WU?$char_traits@_W@std@@V?$allocator@_W@2@@std@@@2@@std@@QEAA@$$QEAV01@@Z 000000006104bb60 f i volume_list.obj
 0001:0004ac30       ??1?$list@V?$basic_string@_WU?$char_traits@_W@std@@V?$allocator@_W@2@@std@@V?$allocator@V?$basic_string@_WU?$char_traits@_W@std@@V?$allocator@_W@2@@std@@@2@@std@@QEAA@XZ 000000006104bc30 f i volume_list.obj
 0001:0004ac50       ??1?$list@UVolumeItem@@V?$allocator@UVolumeItem@@@std@@@std@@QEAA@XZ 000000006104bc50 f i volume_list.obj
 0001:0004ac70       ??A?$map@V?$basic_string@_WU?$char_traits@_W@std@@V?$allocator@_W@2@@std@@V12@U?$less@V?$basic_string@_WU?$char_traits@_W@std@@V?$allocator@_W@2@@std@@@2@V?$allocator@U?$pair@$$CBV?$basic_string@_WU?$char_traits@_W@std@@V?$allocator@_W@2@@std@@V12@@std@@@2@@std@@QEAAAEAV?$basic_string@_WU?$char_traits@_W@std@@V?$allocator@_W@2@@1@AEBV21@@Z 000000006104bc70 f i volume_list.obj
 0001:0004adc0       ??1?$pair@$$CBV?$basic_string@_WU?$char_traits@_W@std@@V?$allocator@_W@2@@std@@V12@@std@@QEAA@XZ 000000006104bdc0 f i volume_list.obj
 0001:0004adc0       ??$_Dest_val@V?$allocator@U?$pair@$$CBV?$basic_string@_WU?$char_traits@_W@std@@V?$allocator@_W@2@@std@@V12@@std@@@std@@U?$pair@$$CBV?$basic_string@_WU?$char_traits@_W@std@@V?$allocator@_W@2@@std@@V12@@2@@std@@YAXAEAV?$allocator@U?$pair@$$CBV?$basic_string@_WU?$char_traits@_W@std@@V?$allocator@_W@2@@std@@V12@@std@@@0@PEAU?$pair@$$CBV?$basic_string@_WU?$char_traits@_W@std@@V?$allocator@_W@2@@std@@V12@@0@@Z 000000006104bdc0 f i volume_list.obj
 0001:0004ae20       ??1?$_List_val@V?$basic_string@_WU?$char_traits@_W@std@@V?$allocator@_W@2@@std@@V?$allocator@V?$basic_string@_WU?$char_traits@_W@std@@V?$allocator@_W@2@@std@@@2@@std@@QEAA@XZ 000000006104be20 f i volume_list.obj
 0001:0004ae30       ??0?$_List_val@UVolumeItem@@V?$allocator@UVolumeItem@@@std@@@std@@QEAA@V?$allocator@UVolumeItem@@@1@@Z 000000006104be30 f i volume_list.obj
 0001:0004aea0       ?clear@?$list@V?$basic_string@_WU?$char_traits@_W@std@@V?$allocator@_W@2@@std@@V?$allocator@V?$basic_string@_WU?$char_traits@_W@std@@V?$allocator@_W@2@@std@@@2@@std@@QEAAXXZ 000000006104bea0 f i volume_list.obj
 0001:0004af20       ?clear@?$list@UVolumeItem@@V?$allocator@UVolumeItem@@@std@@@std@@QEAAXXZ 000000006104bf20 f i volume_list.obj
 0001:0004b070       ?_Buynode@?$_List_val@UVolumeItem@@V?$allocator@UVolumeItem@@@std@@@std@@QEAAPEAU_Node@?$_List_nod@UVolumeItem@@V?$allocator@UVolumeItem@@@std@@@2@PEAU342@0AEBUVolumeItem@@@Z 000000006104c070 f i volume_list.obj
 0001:0004b130       ?erase@?$_Tree@V?$_Tmap_traits@V?$basic_string@_WU?$char_traits@_W@std@@V?$allocator@_W@2@@std@@V12@U?$less@V?$basic_string@_WU?$char_traits@_W@std@@V?$allocator@_W@2@@std@@@2@V?$allocator@U?$pair@$$CBV?$basic_string@_WU?$char_traits@_W@std@@V?$allocator@_W@2@@std@@V12@@std@@@2@$0A@@std@@@std@@QEAA?AV?$_Tree_iterator@V?$_Tree_val@V?$_Tmap_traits@V?$basic_string@_WU?$char_traits@_W@std@@V?$allocator@_W@2@@std@@V12@U?$less@V?$basic_string@_WU?$char_traits@_W@std@@V?$allocator@_W@2@@std@@@2@V?$allocator@U?$pair@$$CBV?$basic_string@_WU?$char_traits@_W@std@@V?$allocator@_W@2@@std@@V12@@std@@@2@$0A@@std@@@std@@@2@V?$_Tree_const_iterator@V?$_Tree_val@V?$_Tmap_traits@V?$basic_string@_WU?$char_traits@_W@std@@V?$allocator@_W@2@@std@@V12@U?$less@V?$basic_string@_WU?$char_traits@_W@std@@V?$allocator@_W@2@@std@@@2@V?$allocator@U?$pair@$$CBV?$basic_string@_WU?$char_traits@_W@std@@V?$allocator@_W@2@@std@@V12@@std@@@2@$0A@@std@@@std@@@2@0@Z 000000006104c130 f i volume_list.obj
 0001:0004b230       ?_Lbound@?$_Tree@V?$_Tmap_traits@V?$basic_string@_WU?$char_traits@_W@std@@V?$allocator@_W@2@@std@@V12@U?$less@V?$basic_string@_WU?$char_traits@_W@std@@V?$allocator@_W@2@@std@@@2@V?$allocator@U?$pair@$$CBV?$basic_string@_WU?$char_traits@_W@std@@V?$allocator@_W@2@@std@@V12@@std@@@2@$0A@@std@@@std@@IEAAPEAU_Node@?$_Tree_nod@V?$_Tmap_traits@V?$basic_string@_WU?$char_traits@_W@std@@V?$allocator@_W@2@@std@@V12@U?$less@V?$basic_string@_WU?$char_traits@_W@std@@V?$allocator@_W@2@@std@@@2@V?$allocator@U?$pair@$$CBV?$basic_string@_WU?$char_traits@_W@std@@V?$allocator@_W@2@@std@@V12@@std@@@2@$0A@@std@@@2@AEBV?$basic_string@_WU?$char_traits@_W@std@@V?$allocator@_W@2@@2@@Z 000000006104c230 f i volume_list.obj
 0001:0004b300       ?_Splice_same@?$list@V?$basic_string@_WU?$char_traits@_W@std@@V?$allocator@_W@2@@std@@V?$allocator@V?$basic_string@_WU?$char_traits@_W@std@@V?$allocator@_W@2@@std@@@2@@std@@QEAAXV?$_List_const_iterator@V?$_List_val@V?$basic_string@_WU?$char_traits@_W@std@@V?$allocator@_W@2@@std@@V?$allocator@V?$basic_string@_WU?$char_traits@_W@std@@V?$allocator@_W@2@@std@@@2@@std@@@2@AEAV12@00_K@Z 000000006104c300 f i volume_list.obj
 0001:0004b3b0       ?erase@?$_Tree@V?$_Tmap_traits@V?$basic_string@_WU?$char_traits@_W@std@@V?$allocator@_W@2@@std@@V12@U?$less@V?$basic_string@_WU?$char_traits@_W@std@@V?$allocator@_W@2@@std@@@2@V?$allocator@U?$pair@$$CBV?$basic_string@_WU?$char_traits@_W@std@@V?$allocator@_W@2@@std@@V12@@std@@@2@$0A@@std@@@std@@QEAA?AV?$_Tree_iterator@V?$_Tree_val@V?$_Tmap_traits@V?$basic_string@_WU?$char_traits@_W@std@@V?$allocator@_W@2@@std@@V12@U?$less@V?$basic_string@_WU?$char_traits@_W@std@@V?$allocator@_W@2@@std@@@2@V?$allocator@U?$pair@$$CBV?$basic_string@_WU?$char_traits@_W@std@@V?$allocator@_W@2@@std@@V12@@std@@@2@$0A@@std@@@std@@@2@V?$_Tree_const_iterator@V?$_Tree_val@V?$_Tmap_traits@V?$basic_string@_WU?$char_traits@_W@std@@V?$allocator@_W@2@@std@@V12@U?$less@V?$basic_string@_WU?$char_traits@_W@std@@V?$allocator@_W@2@@std@@@2@V?$allocator@U?$pair@$$CBV?$basic_string@_WU?$char_traits@_W@std@@V?$allocator@_W@2@@std@@V12@@std@@@2@$0A@@std@@@std@@@2@@Z 000000006104c3b0 f i volume_list.obj
 0001:0004b740       ?_Erase@?$_Tree@V?$_Tmap_traits@V?$basic_string@_WU?$char_traits@_W@std@@V?$allocator@_W@2@@std@@V12@U?$less@V?$basic_string@_WU?$char_traits@_W@std@@V?$allocator@_W@2@@std@@@2@V?$allocator@U?$pair@$$CBV?$basic_string@_WU?$char_traits@_W@std@@V?$allocator@_W@2@@std@@V12@@std@@@2@$0A@@std@@@std@@IEAAXPEAU_Node@?$_Tree_nod@V?$_Tmap_traits@V?$basic_string@_WU?$char_traits@_W@std@@V?$allocator@_W@2@@std@@V12@U?$less@V?$basic_string@_WU?$char_traits@_W@std@@V?$allocator@_W@2@@std@@@2@V?$allocator@U?$pair@$$CBV?$basic_string@_WU?$char_traits@_W@std@@V?$allocator@_W@2@@std@@V12@@std@@@2@$0A@@std@@@2@@Z 000000006104c740 f i volume_list.obj
 0001:0004b7f0       ?_Lrotate@?$_Tree@V?$_Tmap_traits@V?$basic_string@_WU?$char_traits@_W@std@@V?$allocator@_W@2@@std@@V12@U?$less@V?$basic_string@_WU?$char_traits@_W@std@@V?$allocator@_W@2@@std@@@2@V?$allocator@U?$pair@$$CBV?$basic_string@_WU?$char_traits@_W@std@@V?$allocator@_W@2@@std@@V12@@std@@@2@$0A@@std@@@std@@IEAAXPEAU_Node@?$_Tree_nod@V?$_Tmap_traits@V?$basic_string@_WU?$char_traits@_W@std@@V?$allocator@_W@2@@std@@V12@U?$less@V?$basic_string@_WU?$char_traits@_W@std@@V?$allocator@_W@2@@std@@@2@V?$allocator@U?$pair@$$CBV?$basic_string@_WU?$char_traits@_W@std@@V?$allocator@_W@2@@std@@V12@@std@@@2@$0A@@std@@@2@@Z 000000006104c7f0 f i volume_list.obj
 0001:0004b850       ?_Rrotate@?$_Tree@V?$_Tmap_traits@V?$basic_string@_WU?$char_traits@_W@std@@V?$allocator@_W@2@@std@@V12@U?$less@V?$basic_string@_WU?$char_traits@_W@std@@V?$allocator@_W@2@@std@@@2@V?$allocator@U?$pair@$$CBV?$basic_string@_WU?$char_traits@_W@std@@V?$allocator@_W@2@@std@@V12@@std@@@2@$0A@@std@@@std@@IEAAXPEAU_Node@?$_Tree_nod@V?$_Tmap_traits@V?$basic_string@_WU?$char_traits@_W@std@@V?$allocator@_W@2@@std@@V12@U?$less@V?$basic_string@_WU?$char_traits@_W@std@@V?$allocator@_W@2@@std@@@2@V?$allocator@U?$pair@$$CBV?$basic_string@_WU?$char_traits@_W@std@@V?$allocator@_W@2@@std@@V12@@std@@@2@$0A@@std@@@2@@Z 000000006104c850 f i volume_list.obj
 0001:0004b8b0       ?compare@?$basic_string@_WU?$char_traits@_W@std@@V?$allocator@_W@2@@std@@QEBAHAEBV12@@Z 000000006104c8b0 f i volume_list.obj
 0001:0004b940       ?_Insert@?$_Tree@V?$_Tmap_traits@V?$basic_string@_WU?$char_traits@_W@std@@V?$allocator@_W@2@@std@@V12@U?$less@V?$basic_string@_WU?$char_traits@_W@std@@V?$allocator@_W@2@@std@@@2@V?$allocator@U?$pair@$$CBV?$basic_string@_WU?$char_traits@_W@std@@V?$allocator@_W@2@@std@@V12@@std@@@2@$0A@@std@@@std@@QEAA?AV?$_Tree_iterator@V?$_Tree_val@V?$_Tmap_traits@V?$basic_string@_WU?$char_traits@_W@std@@V?$allocator@_W@2@@std@@V12@U?$less@V?$basic_string@_WU?$char_traits@_W@std@@V?$allocator@_W@2@@std@@@2@V?$allocator@U?$pair@$$CBV?$basic_string@_WU?$char_traits@_W@std@@V?$allocator@_W@2@@std@@V12@@std@@@2@$0A@@std@@@std@@@2@V?$_Tree_const_iterator@V?$_Tree_val@V?$_Tmap_traits@V?$basic_string@_WU?$char_traits@_W@std@@V?$allocator@_W@2@@std@@V12@U?$less@V?$basic_string@_WU?$char_traits@_W@std@@V?$allocator@_W@2@@std@@@2@V?$allocator@U?$pair@$$CBV?$basic_string@_WU?$char_traits@_W@std@@V?$allocator@_W@2@@std@@V12@@std@@@2@$0A@@std@@@std@@@2@PEAU_Node@?$_Tree_nod@V?$_Tmap_traits@V?$basic_string@_WU?$char_traits@_W@std@@V?$allocator@_W@2@@std@@V12@U?$less@V?$basic_string@_WU?$char_traits@_W@std@@V?$allocator@_W@2@@std@@@2@V?$allocator@U?$pair@$$CBV?$basic_string@_WU?$char_traits@_W@std@@V?$allocator@_W@2@@std@@V12@@std@@@2@$0A@@std@@@2@@Z 000000006104c940 f i volume_list.obj
 0001:0004bbb0       ?_Linsert@?$_Tree@V?$_Tmap_traits@V?$basic_string@_WU?$char_traits@_W@std@@V?$allocator@_W@2@@std@@V12@U?$less@V?$basic_string@_WU?$char_traits@_W@std@@V?$allocator@_W@2@@std@@@2@V?$allocator@U?$pair@$$CBV?$basic_string@_WU?$char_traits@_W@std@@V?$allocator@_W@2@@std@@V12@@std@@@2@$0A@@std@@@std@@QEAA?AU?$pair@V?$_Tree_iterator@V?$_Tree_val@V?$_Tmap_traits@V?$basic_string@_WU?$char_traits@_W@std@@V?$allocator@_W@2@@std@@V12@U?$less@V?$basic_string@_WU?$char_traits@_W@std@@V?$allocator@_W@2@@std@@@2@V?$allocator@U?$pair@$$CBV?$basic_string@_WU?$char_traits@_W@std@@V?$allocator@_W@2@@std@@V12@@std@@@2@$0A@@std@@@std@@@std@@_N@2@PEAU_Node@?$_Tree_nod@V?$_Tmap_traits@V?$basic_string@_WU?$char_traits@_W@std@@V?$allocator@_W@2@@std@@V12@U?$less@V?$basic_string@_WU?$char_traits@_W@std@@V?$allocator@_W@2@@std@@@2@V?$allocator@U?$pair@$$CBV?$basic_string@_WU?$char_traits@_W@std@@V?$allocator@_W@2@@std@@V12@@std@@@2@$0A@@std@@@2@_N@Z 000000006104cbb0 f i volume_list.obj
 0001:0004bd90       ?_Insert@?$_Tree@V?$_Tmap_traits@V?$basic_string@_WU?$char_traits@_W@std@@V?$allocator@_W@2@@std@@V12@U?$less@V?$basic_string@_WU?$char_traits@_W@std@@V?$allocator@_W@2@@std@@@2@V?$allocator@U?$pair@$$CBV?$basic_string@_WU?$char_traits@_W@std@@V?$allocator@_W@2@@std@@V12@@std@@@2@$0A@@std@@@std@@IEAA?AV?$_Tree_iterator@V?$_Tree_val@V?$_Tmap_traits@V?$basic_string@_WU?$char_traits@_W@std@@V?$allocator@_W@2@@std@@V12@U?$less@V?$basic_string@_WU?$char_traits@_W@std@@V?$allocator@_W@2@@std@@@2@V?$allocator@U?$pair@$$CBV?$basic_string@_WU?$char_traits@_W@std@@V?$allocator@_W@2@@std@@V12@@std@@@2@$0A@@std@@@std@@@2@_NPEAU_Node@?$_Tree_nod@V?$_Tmap_traits@V?$basic_string@_WU?$char_traits@_W@std@@V?$allocator@_W@2@@std@@V12@U?$less@V?$basic_string@_WU?$char_traits@_W@std@@V?$allocator@_W@2@@std@@@2@V?$allocator@U?$pair@$$CBV?$basic_string@_WU?$char_traits@_W@std@@V?$allocator@_W@2@@std@@V12@@std@@@2@$0A@@std@@@2@1@Z 000000006104cd90 f i volume_list.obj
 0001:0004c080       ??$_Buynode@V?$basic_string@_WU?$char_traits@_W@std@@V?$allocator@_W@2@@std@@@?$_List_val@V?$basic_string@_WU?$char_traits@_W@std@@V?$allocator@_W@2@@std@@V?$allocator@V?$basic_string@_WU?$char_traits@_W@std@@V?$allocator@_W@2@@std@@@2@@std@@QEAAPEAU_Node@?$_List_nod@V?$basic_string@_WU?$char_traits@_W@std@@V?$allocator@_W@2@@std@@V?$allocator@V?$basic_string@_WU?$char_traits@_W@std@@V?$allocator@_W@2@@std@@@2@@1@PEAU231@0$$QEAV?$basic_string@_WU?$char_traits@_W@std@@V?$allocator@_W@2@@1@@Z 000000006104d080 f i volume_list.obj
 0001:0004c140       ??$_Buynode@U?$pair@$$CBV?$basic_string@_WU?$char_traits@_W@std@@V?$allocator@_W@2@@std@@V12@@std@@@?$_Tree_val@V?$_Tmap_traits@V?$basic_string@_WU?$char_traits@_W@std@@V?$allocator@_W@2@@std@@V12@U?$less@V?$basic_string@_WU?$char_traits@_W@std@@V?$allocator@_W@2@@std@@@2@V?$allocator@U?$pair@$$CBV?$basic_string@_WU?$char_traits@_W@std@@V?$allocator@_W@2@@std@@V12@@std@@@2@$0A@@std@@@std@@QEAAPEAU_Node@?$_Tree_nod@V?$_Tmap_traits@V?$basic_string@_WU?$char_traits@_W@std@@V?$allocator@_W@2@@std@@V12@U?$less@V?$basic_string@_WU?$char_traits@_W@std@@V?$allocator@_W@2@@std@@@2@V?$allocator@U?$pair@$$CBV?$basic_string@_WU?$char_traits@_W@std@@V?$allocator@_W@2@@std@@V12@@std@@@2@$0A@@std@@@1@$$QEAU?$pair@$$CBV?$basic_string@_WU?$char_traits@_W@std@@V?$allocator@_W@2@@std@@V12@@1@@Z 000000006104d140 f i volume_list.obj
 0001:0004c180       ??0VolumeItem@@QEAA@AEBU0@@Z 000000006104d180 f i volume_list.obj
 0001:0004c230       ??0?$list@V?$basic_string@_WU?$char_traits@_W@std@@V?$allocator@_W@2@@std@@V?$allocator@V?$basic_string@_WU?$char_traits@_W@std@@V?$allocator@_W@2@@std@@@2@@std@@QEAA@AEBV01@@Z 000000006104d230 f i volume_list.obj
 0001:0004c2d0       ?_Buynode@?$_Tree_val@V?$_Tmap_traits@V?$basic_string@_WU?$char_traits@_W@std@@V?$allocator@_W@2@@std@@V12@U?$less@V?$basic_string@_WU?$char_traits@_W@std@@V?$allocator@_W@2@@std@@@2@V?$allocator@U?$pair@$$CBV?$basic_string@_WU?$char_traits@_W@std@@V?$allocator@_W@2@@std@@V12@@std@@@2@$0A@@std@@@std@@QEAAPEAU_Node@?$_Tree_nod@V?$_Tmap_traits@V?$basic_string@_WU?$char_traits@_W@std@@V?$allocator@_W@2@@std@@V12@U?$less@V?$basic_string@_WU?$char_traits@_W@std@@V?$allocator@_W@2@@std@@@2@V?$allocator@U?$pair@$$CBV?$basic_string@_WU?$char_traits@_W@std@@V?$allocator@_W@2@@std@@V12@@std@@@2@$0A@@std@@@2@XZ 000000006104d2d0 f i volume_list.obj
 0001:0004c350       ??$_Cons_val@V?$allocator@U?$pair@$$CBV?$basic_string@_WU?$char_traits@_W@std@@V?$allocator@_W@2@@std@@V12@@std@@@std@@U?$pair@$$CBV?$basic_string@_WU?$char_traits@_W@std@@V?$allocator@_W@2@@std@@V12@@2@U32@@std@@YAXAEAV?$allocator@U?$pair@$$CBV?$basic_string@_WU?$char_traits@_W@std@@V?$allocator@_W@2@@std@@V12@@std@@@0@PEAU?$pair@$$CBV?$basic_string@_WU?$char_traits@_W@std@@V?$allocator@_W@2@@std@@V12@@0@$$QEAU20@@Z 000000006104d350 f i volume_list.obj
 0001:0004c3d0       ??$_Insert@V?$_List_const_iterator@V?$_List_val@V?$basic_string@_WU?$char_traits@_W@std@@V?$allocator@_W@2@@std@@V?$allocator@V?$basic_string@_WU?$char_traits@_W@std@@V?$allocator@_W@2@@std@@@2@@std@@@std@@@?$list@V?$basic_string@_WU?$char_traits@_W@std@@V?$allocator@_W@2@@std@@V?$allocator@V?$basic_string@_WU?$char_traits@_W@std@@V?$allocator@_W@2@@std@@@2@@std@@QEAAXV?$_List_const_iterator@V?$_List_val@V?$basic_string@_WU?$char_traits@_W@std@@V?$allocator@_W@2@@std@@V?$allocator@V?$basic_string@_WU?$char_traits@_W@std@@V?$allocator@_W@2@@std@@@2@@std@@@1@00Uforward_iterator_tag@1@@Z 000000006104d3d0 f i volume_list.obj
 0001:0004c480       ?_Buynode@?$_List_val@V?$basic_string@_WU?$char_traits@_W@std@@V?$allocator@_W@2@@std@@V?$allocator@V?$basic_string@_WU?$char_traits@_W@std@@V?$allocator@_W@2@@std@@@2@@std@@QEAAPEAU_Node@?$_List_nod@V?$basic_string@_WU?$char_traits@_W@std@@V?$allocator@_W@2@@std@@V?$allocator@V?$basic_string@_WU?$char_traits@_W@std@@V?$allocator@_W@2@@std@@@2@@2@PEAU342@0AEBV?$basic_string@_WU?$char_traits@_W@std@@V?$allocator@_W@2@@2@@Z 000000006104d480 f i volume_list.obj
 0001:0004c550       ?assign@?$basic_string@_WU?$char_traits@_W@std@@V?$allocator@_W@2@@std@@QEAAAEAV12@PEB_W_K@Z 000000006104d550 f i volume_list.obj
 0001:0004c6b0       lzo_crc32                  000000006104d6b0 f   lzo_crc.obj
 0001:0004cbe0       lzo1x_1_compress           000000006104dbe0 f   lzo1x_1.obj
 0001:0004cdf0       lzo1x_decompress           000000006104ddf0 f   lzo1x_d1.obj
 0001:0004d1c0       MD4_Update                 000000006104e1c0 f   md4_dgst.obj
 0001:0004d2e0       MD4_Final                  000000006104e2e0 f   md4_dgst.obj
 0001:0004d440       md4_block_data_order       000000006104e440 f   md4_dgst.obj
 0001:0004dc10       MD5_Update                 000000006104ec10 f   md5_dgst.obj
 0001:0004dd40       MD5_Final                  000000006104ed40 f   md5_dgst.obj
 0001:0004dea0       SHA1_Update                000000006104eea0 f   sha1dgst.obj
 0001:0004dfd0       SHA1_Final                 000000006104efd0 f   sha1dgst.obj
 0001:0004e150       SHA256_Update              000000006104f150 f   sha256.obj
 0001:0004e280       SHA256_Final               000000006104f280 f   sha256.obj
 0001:0004e5a0       ?_com_issue_error@@YAXJ@Z  000000006104f5a0 f   comsuppw:comsupp.obj
 0001:0004e5b0       ??1_com_error@@UEAA@XZ     000000006104f5b0 f i comsuppw:comraise.obj
 0001:0004e5f0       ?_com_raise_error@@YAXJPEAUIErrorInfo@@@Z 000000006104f5f0 f   comsuppw:comraise.obj
 0001:0004e630       ??0_com_error@@QEAA@AEBV0@@Z 000000006104f630 f i comsuppw:comraise.obj
 0001:0004e670       ??_G_com_error@@UEAAPEAXI@Z 000000006104f670 f i comsuppw:comraise.obj
 0001:0004e670       ??_E_com_error@@UEAAPEAXI@Z 000000006104f670 f i comsuppw:comraise.obj
 0001:0004e6c4       ??_U@YAPEAX_K@Z            000000006104f6c4 f   libcpmt:newaop.obj
 0001:0004e6cc       ??1out_of_range@std@@UEAA@XZ 000000006104f6cc f i libcpmt:xthrow.obj
 0001:0004e6cc       ??1length_error@std@@UEAA@XZ 000000006104f6cc f i libcpmt:xthrow.obj
 0001:0004e6d4       ??0logic_error@std@@QEAA@AEBV01@@Z 000000006104f6d4 f i libcpmt:xthrow.obj
 0001:0004e6f8       ?_Xlength_error@std@@YAXPEBD@Z 000000006104f6f8 f   libcpmt:xthrow.obj
 0001:0004e730       ??0length_error@std@@QEAA@AEBV01@@Z 000000006104f730 f i libcpmt:xthrow.obj
 0001:0004e754       ?_Xout_of_range@std@@YAXPEBD@Z 000000006104f754 f   libcpmt:xthrow.obj
 0001:0004e78c       ??0out_of_range@std@@QEAA@AEBV01@@Z 000000006104f78c f i libcpmt:xthrow.obj
 0001:0004e7b0       ??_Elogic_error@std@@UEAAPEAXI@Z 000000006104f7b0 f i libcpmt:xthrow.obj
 0001:0004e7b0       ??_Elength_error@std@@UEAAPEAXI@Z 000000006104f7b0 f i libcpmt:xthrow.obj
 0001:0004e7b0       ??_Glength_error@std@@UEAAPEAXI@Z 000000006104f7b0 f i libcpmt:xthrow.obj
 0001:0004e7b0       ??_Gout_of_range@std@@UEAAPEAXI@Z 000000006104f7b0 f i libcpmt:xthrow.obj
 0001:0004e7b0       ??_Eout_of_range@std@@UEAAPEAXI@Z 000000006104f7b0 f i libcpmt:xthrow.obj
 0001:0004e7b0       ??_Glogic_error@std@@UEAAPEAXI@Z 000000006104f7b0 f i libcpmt:xthrow.obj
 0001:0004e7f0       __security_check_cookie    000000006104f7f0 f   LIBCMT:amdsecgs.obj
 0001:0004e810       free                       000000006104f810 f   LIBCMT:free.obj
 0001:0004e850       ??0exception@std@@QEAA@AEBQEBDH@Z 000000006104f850 f   LIBCMT:stdexcpt.obj
 0001:0004e86c       ?what@exception@std@@UEBAPEBDXZ 000000006104f86c f   LIBCMT:stdexcpt.obj
 0001:0004e880       ?_Copy_str@exception@std@@AEAAXPEBD@Z 000000006104f880 f   LIBCMT:stdexcpt.obj
 0001:0004e8dc       ?_Tidy@exception@std@@AEAAXXZ 000000006104f8dc f   LIBCMT:stdexcpt.obj
 0001:0004e904       ??0exception@std@@QEAA@AEBQEBD@Z 000000006104f904 f   LIBCMT:stdexcpt.obj
 0001:0004e934       ??4exception@std@@QEAAAEAV01@AEBV01@@Z 000000006104f934 f   LIBCMT:stdexcpt.obj
 0001:0004e978       ??1exception@std@@UEAA@XZ  000000006104f978 f   LIBCMT:stdexcpt.obj
 0001:0004e988       ??_Gexception@std@@UEAAPEAXI@Z 000000006104f988 f i LIBCMT:stdexcpt.obj
 0001:0004e988       ??_Eexception@std@@UEAAPEAXI@Z 000000006104f988 f i LIBCMT:stdexcpt.obj
 0001:0004e9c4       ??0exception@std@@QEAA@AEBV01@@Z 000000006104f9c4 f   LIBCMT:stdexcpt.obj
 0001:0004e9f0       ??_Gtype_info@@UEAAPEAXI@Z 000000006104f9f0 f i LIBCMT:typinfo.obj
 0001:0004e9f0       ??_Etype_info@@UEAAPEAXI@Z 000000006104f9f0 f i LIBCMT:typinfo.obj
 0001:0004ea2c       ??8type_info@@QEBA_NAEBV0@@Z 000000006104fa2c f   LIBCMT:typinfo.obj
 0001:0004ea4c       malloc                     000000006104fa4c f   LIBCMT:malloc.obj
 0001:0004eb20       memcpy                     000000006104fb20 f   LIBCMT:memcpy.obj
 0001:0004eb20       memmove                    000000006104fb20     LIBCMT:memcpy.obj
 0001:0004ee54       realloc                    000000006104fe54 f   LIBCMT:realloc.obj
 0001:0004ef28       ??3@YAXPEAX@Z              000000006104ff28 f   LIBCMT:delete.obj
 0001:0004ef30       __onexitinit               000000006104ff30 f   LIBCMT:onexit.obj
 0001:0004ef74       _onexit                    000000006104ff74 f   LIBCMT:onexit.obj
 0001:0004f080       atexit                     0000000061050080 f   LIBCMT:onexit.obj
 0001:0004f098       _time64                    0000000061050098 f   LIBCMT:time64.obj
 0001:0004f0f8       _endthreadex               00000000610500f8 f   LIBCMT:threadex.obj
 0001:0004f1c8       _beginthreadex             00000000610501c8 f   LIBCMT:threadex.obj
 0001:0004f380       qsort                      0000000061050380 f   LIBCMT:qsort.obj
 0001:0004f678       bsearch                    0000000061050678 f   LIBCMT:bsearch.obj
 0001:0004f768       _purecall                  0000000061050768 f   LIBCMT:purevirt.obj
 0001:0004f7a0       ??_V@YAXPEAX@Z             00000000610507a0 f   LIBCMT:delete2.obj
 0001:0004f7a8       ??0_LocaleUpdate@@QEAA@PEAUlocaleinfo_struct@@@Z 00000000610507a8 f i LIBCMT:wcsnicmp.obj
 0001:0004f84c       _wcsnicmp_l                000000006105084c f   LIBCMT:wcsnicmp.obj
 0001:0004f964       _wcsnicmp                  0000000061050964 f   LIBCMT:wcsnicmp.obj
 0001:0004f9fc       ??2@YAPEAX_K@Z             00000000610509fc f   LIBCMT:new.obj
 0001:0004faa0       ??_L@YAXPEAX_KHP6AX0@Z2@Z  0000000061050aa0 f   LIBCMT:ehvecctr.obj
 0001:0004fb04       ?__ArrayUnwind@@YAXPEAX_KHP6AX0@Z@Z 0000000061050b04 f   LIBCMT:ehvecdtr.obj
 0001:0004fb50       ??_M@YAXPEAX_KHP6AX0@Z@Z   0000000061050b50 f   LIBCMT:ehvecdtr.obj
 0001:0004fc24       _ui64tow                   0000000061050c24 f   LIBCMT:xtow.obj
 0001:0004fc40       _wtoi                      0000000061050c40 f   LIBCMT:wtox.obj
 0001:0004fc4c       _heap_init                 0000000061050c4c f   LIBCMT:heapinit.obj
 0001:0004fca4       _heap_term                 0000000061050ca4 f   LIBCMT:heapinit.obj
 0001:0004fcc4       _get_heap_handle           0000000061050cc4 f   LIBCMT:heapinit.obj
 0001:0004fdd8       _itow_s                    0000000061050dd8 f   LIBCMT:xtows.obj
 0001:0004fe00       _wcsicmp_l                 0000000061050e00 f   LIBCMT:wcsicmp.obj
 0001:0004ff04       _wcsicmp                   0000000061050f04 f   LIBCMT:wcsicmp.obj
 0001:0004ff8c       _CRT_INIT                  0000000061050f8c f   LIBCMT:dllcrt0.obj
 0001:000501fc       _DllMainCRTStartup         00000000610511fc f   LIBCMT:dllcrt0.obj
 0001:0005023c       _CxxThrowException         000000006105123c f   LIBCMT:throw.obj
 0001:000502d0       _cfltcvt_init              00000000610512d0 f   LIBCMT:_fpinit_.obj
 0001:00050358       _fpmath                    0000000061051358 f   LIBCMT:_fpinit_.obj
 0001:00050370       __chkstk                   0000000061051370 f   LIBCMT:chkstk.obj
 0001:00050370       _alloca_probe              0000000061051370     LIBCMT:chkstk.obj
 0001:000503d0       memset                     00000000610513d0 f   LIBCMT:memset.obj
 0001:000504bc       __report_gsfailure         00000000610514bc f   LIBCMT:gs_report.obj
 0001:00050608       _get_errno_from_oserr      0000000061051608 f   LIBCMT:dosmap.obj
 0001:00050650       _errno                     0000000061051650 f   LIBCMT:dosmap.obj
 0001:00050670       _dosmaperr                 0000000061051670 f   LIBCMT:dosmap.obj
 0001:000506b8       strcpy_s                   00000000610516b8 f   LIBCMT:strcpy_s.obj
 0001:00050730       strlen                     0000000061051730 f   LIBCMT:strlen.obj
 0001:000507d8       ?_Type_info_dtor@type_info@@CAXPEAV1@@Z 00000000610517d8 f   LIBCMT:typname.obj
 0001:00050860       strcmp                     0000000061051860 f   LIBCMT:strcmp.obj
 0001:00050910       __crtCorExitProcess        0000000061051910 f   LIBCMT:crt0dat.obj
 0001:0005094c       __crtExitProcess           000000006105194c f   LIBCMT:crt0dat.obj
 0001:00050964       _lockexit                  0000000061051964 f   LIBCMT:crt0dat.obj
 0001:00050970       _unlockexit                0000000061051970 f   LIBCMT:crt0dat.obj
 0001:0005097c       _init_pointers             000000006105197c f   LIBCMT:crt0dat.obj
 0001:000509f4       _initterm_e                00000000610519f4 f   LIBCMT:crt0dat.obj
 0001:00050a30       _cinit                     0000000061051a30 f   LIBCMT:crt0dat.obj
 0001:00050c70       _exit                      0000000061051c70 f   LIBCMT:crt0dat.obj
 0001:00050c7c       _cexit                     0000000061051c7c f   LIBCMT:crt0dat.obj
 0001:00050c8c       _amsg_exit                 0000000061051c8c f   LIBCMT:crt0dat.obj
 0001:00050cb4       _GET_RTERRMSG              0000000061051cb4 f   LIBCMT:crt0msg.obj
 0001:00050ce0       _NMSG_WRITE                0000000061051ce0 f   LIBCMT:crt0msg.obj
 0001:00050f40       _FF_MSGBANNER              0000000061051f40 f   LIBCMT:crt0msg.obj
 0001:00050f84       _initp_heap_handler        0000000061051f84 f   LIBCMT:handler.obj
 0001:00050f8c       _callnewh                  0000000061051f8c f   LIBCMT:handler.obj
 0001:00050fc0       _malloc_crt                0000000061051fc0 f   LIBCMT:crtheap.obj
 0001:00051040       _calloc_crt                0000000061052040 f   LIBCMT:crtheap.obj
 0001:000510c4       _realloc_crt               00000000610520c4 f   LIBCMT:crtheap.obj
 0001:0005114c       _msize                     000000006105214c f   LIBCMT:msize.obj
 0001:00051188       __C_specific_handler       0000000061052188 f   LIBCMT:chandler.obj
 0001:00051388       _encoded_null              0000000061052388 f   LIBCMT:tidtable.obj
 0001:00051394       __fls_getvalue             0000000061052394 f   LIBCMT:tidtable.obj
 0001:0005139c       __get_flsindex             000000006105239c f   LIBCMT:tidtable.obj
 0001:000513a4       __set_flsgetvalue          00000000610523a4 f   LIBCMT:tidtable.obj
 0001:000513a8       __fls_setvalue             00000000610523a8 f   LIBCMT:tidtable.obj
 0001:000513b0       _mtterm                    00000000610523b0 f   LIBCMT:tidtable.obj
 0001:000513d8       _initptd                   00000000610523d8 f   LIBCMT:tidtable.obj
 0001:00051490       _getptd_noexit             0000000061052490 f   LIBCMT:tidtable.obj
 0001:00051514       _getptd                    0000000061052514 f   LIBCMT:tidtable.obj
 0001:00051538       _freefls                   0000000061052538 f   LIBCMT:tidtable.obj
 0001:0005166c       _freeptd                   000000006105266c f   LIBCMT:tidtable.obj
 0001:000516ac       _mtinit                    00000000610526ac f   LIBCMT:tidtable.obj
 0001:00051730       _XcptFilter                0000000061052730 f   LIBCMT:winxfltr.obj
 0001:00051900       __CppXcptFilter            0000000061052900 f   LIBCMT:winxfltr.obj
 0001:00051914       _initp_misc_invarg         0000000061052914 f   LIBCMT:invarg.obj
 0001:0005191c       _call_reportfault          000000006105291c f   LIBCMT:invarg.obj
 0001:00051a68       _invoke_watson             0000000061052a68 f   LIBCMT:invarg.obj
 0001:00051a9c       _invalid_parameter         0000000061052a9c f   LIBCMT:invarg.obj
 0001:00051b0c       _invalid_parameter_noinfo  0000000061052b0c f   LIBCMT:invarg.obj
 0001:00051b2c       abort                      0000000061052b2c f   LIBCMT:abort.obj
 0001:00051b6c       _set_abort_behavior        0000000061052b6c f   LIBCMT:abort.obj
 0001:00051b88       _initp_misc_purevirt       0000000061052b88 f   LIBCMT:inithelp.obj
 0001:00051e0c       __updatetmbcinfo           0000000061052e0c f   LIBCMT:mbctype.obj
 0001:00051f58       _setmbcp_nolock            0000000061052f58 f   LIBCMT:mbctype.obj
 0001:000521d0       _setmbcp                   00000000610531d0 f   LIBCMT:mbctype.obj
 0001:000523b0       __initmbctable             00000000610533b0 f   LIBCMT:mbctype.obj
 0001:000523d8       __addlocaleref             00000000610533d8 f   LIBCMT:localref.obj
 0001:00052464       __removelocaleref          0000000061053464 f   LIBCMT:localref.obj
 0001:00052508       __freetlocinfo             0000000061053508 f   LIBCMT:localref.obj
 0001:00052684       _updatetlocinfoEx_nolock   0000000061053684 f   LIBCMT:localref.obj
 0001:000526dc       __updatetlocinfo           00000000610536dc f   LIBCMT:localref.obj
 0001:00052754       _towlower_l                0000000061053754 f   LIBCMT:towlower.obj
 0001:0005282c       ?terminate@@YAXXZ          000000006105382c f   LIBCMT:hooks.obj
 0001:00052850       ?_inconsistency@@YAXXZ     0000000061053850 f   LIBCMT:hooks.obj
 0001:00052878       _initp_eh_hooks            0000000061053878 f   LIBCMT:hooks.obj
 0001:00052a80       wcstol                     0000000061053a80 f   LIBCMT:wcstol.obj
 0001:00052a88       _ioinit                    0000000061053a88 f   LIBCMT:ioinit.obj
 0001:00052d5c       _ioterm                    0000000061053d5c f   LIBCMT:ioinit.obj
 0001:00052dd0       _setenvp                   0000000061053dd0 f   LIBCMT:stdenvp.obj
 0001:000530d0       _setargv                   00000000610540d0 f   LIBCMT:stdargv.obj
 0001:000531c8       __crtGetEnvironmentStringsA 00000000610541c8 f   LIBCMT:a_env.obj
 0001:000532bc       _RTC_Initialize            00000000610542bc f   LIBCMT:_initsect_.obj
 0001:000532f4       _RTC_Terminate             00000000610542f4 f   LIBCMT:_initsect_.obj
 0001:0005332c       __security_init_cookie     000000006105432c f   LIBCMT:gs_support.obj
 0001:000533e0       __GSHandlerCheckCommon     00000000610543e0 f   LIBCMT:gshandler.obj
 0001:00053444       __GSHandlerCheck           0000000061054444 f   LIBCMT:gshandler.obj
 0001:00053464       _forcdecpt_l               0000000061054464 f   LIBCMT:cvt.obj
 0001:000534e4       _cropzeros_l               00000000610544e4 f   LIBCMT:cvt.obj
 0001:00053584       _positive                  0000000061054584 f   LIBCMT:cvt.obj
 0001:0005359c       _fassign_l                 000000006105459c f   LIBCMT:cvt.obj
 0001:000535e0       _fassign                   00000000610545e0 f   LIBCMT:cvt.obj
 0001:000535e8       _forcdecpt                 00000000610545e8 f   LIBCMT:cvt.obj
 0001:000535f0       _cropzeros                 00000000610545f0 f   LIBCMT:cvt.obj
 0001:0005382c       _cftoe_l                   000000006105482c f   LIBCMT:cvt.obj
 0001:00053924       _cftoa_l                   0000000061054924 f   LIBCMT:cvt.obj
 0001:00053ea0       _cftof_l                   0000000061054ea0 f   LIBCMT:cvt.obj
 0001:00053f74       _cftog_l                   0000000061054f74 f   LIBCMT:cvt.obj
 0001:000540a8       _cfltcvt_l                 00000000610550a8 f   LIBCMT:cvt.obj
 0001:00054140       _cfltcvt                   0000000061055140 f   LIBCMT:cvt.obj
 0001:00054164       _initp_misc_cfltcvt_tab    0000000061055164 f   LIBCMT:cmiscdat.obj
 0001:0005419c       __crt_debugger_hook        000000006105519c f   LIBCMT:dbghook.obj
 0001:000541a4       _mtinitlocks               00000000610551a4 f   LIBCMT:mlock.obj
 0001:00054228       _mtdeletelocks             0000000061055228 f   LIBCMT:mlock.obj
 0001:000542b0       _unlock                    00000000610552b0 f   LIBCMT:mlock.obj
 0001:000542c8       _mtinitlocknum             00000000610552c8 f   LIBCMT:mlock.obj
 0001:000543b0       _lock                      00000000610553b0 f   LIBCMT:mlock.obj
 0001:00054410       _local_unwind              0000000061055410 f   LIBCMT:jmpuwind.obj
 0001:00054440       _NLG_Notify                0000000061055440 f   LIBCMT:jmpuwind.obj
 0001:00054460       __NLG_Dispatch2            0000000061055460 f   LIBCMT:jmpuwind.obj
 0001:00054470       __NLG_Return2              0000000061055470 f   LIBCMT:jmpuwind.obj
 0001:00054474       _initp_misc_winsig         0000000061055474 f   LIBCMT:winsig.obj
 0001:00054494       __get_sigabrt              0000000061055494 f   LIBCMT:winsig.obj
 0001:000544a4       raise                      00000000610554a4 f   LIBCMT:winsig.obj
 0001:000546d8       _initp_misc_rand_s         00000000610556d8 f   LIBCMT:rand_s.obj
 0001:000546e0       _ValidateImageBase         00000000610556e0 f   LIBCMT:pesect.obj
 0001:00054710       _FindPESection             0000000061055710 f   LIBCMT:pesect.obj
 0001:00054760       _IsNonwritableInCurrentImage 0000000061055760 f   LIBCMT:pesect.obj
 0001:000547a4       __crtMessageBoxW           00000000610557a4 f   LIBCMT:crtmboxw.obj
 0001:000549ac       wcscat_s                   00000000610559ac f   LIBCMT:wcscat_s.obj
 0001:00054a34       wcsncpy_s                  0000000061055a34 f   LIBCMT:wcsncpy_s.obj
 0001:00054b04       wcslen                     0000000061055b04 f   LIBCMT:wcslen.obj
 0001:00054b20       wcscpy_s                   0000000061055b20 f   LIBCMT:wcscpy_s.obj
 0001:00054b8c       _set_error_mode            0000000061055b8c f   LIBCMT:errmode.obj
 0001:00054bcc       _calloc_impl               0000000061055bcc f   LIBCMT:calloc_impl.obj
 0001:00054f34       __crtLCMapStringA          0000000061055f34 f   LIBCMT:a_map.obj
 0001:0005512c       __crtGetStringTypeA        000000006105612c f   LIBCMT:a_str.obj
 0001:000551ac       __free_lc_time             00000000610561ac f   LIBCMT:inittime.obj
 0001:0005559c       __free_lconv_num           000000006105659c f   LIBCMT:initnum.obj
 0001:00055608       __free_lconv_mon           0000000061056608 f   LIBCMT:initmon.obj
 0001:00055714       __crtLCMapStringW          0000000061056714 f   LIBCMT:w_map.obj
 0001:00055774       iswctype                   0000000061056774 f   LIBCMT:iswctype.obj
 0001:000557f0       memcmp                     00000000610567f0 f   LIBCMT:memcmp.obj
 0001:000558d0       strncmp                    00000000610568d0 f   LIBCMT:strncmp.obj
 0001:00055988       _wchartodigit              0000000061056988 f   LIBCMT:wchtodig.obj
 0001:00055b9c       _ismbblead                 0000000061056b9c f   LIBCMT:ismbbyte.obj
 0001:00055bb0       strrchr                    0000000061056bb0 f   LIBCMT:strrchr.obj
 0001:00055bd8       isdigit                    0000000061056bd8 f i LIBCMT:_ctype.obj
 0001:00055c58       _tolower_l                 0000000061056c58 f   LIBCMT:tolower.obj
 0001:00055da8       tolower                    0000000061056da8 f   LIBCMT:tolower.obj
 0001:00055dc8       _atodbl_l                  0000000061056dc8 f   LIBCMT:atodbl.obj
 0001:00055ec8       _atoflt_l                  0000000061056ec8 f   LIBCMT:atodbl.obj
 0001:00055fc8       _fptostr                   0000000061056fc8 f   LIBCMT:_fptostr.obj
 0001:00056094       __dtold                    0000000061057094 f   LIBCMT:_cfout_.obj
 0001:0005615c       _fltout2                   000000006105715c f   LIBCMT:_cfout_.obj
 0001:00056214       _fptrap                    0000000061057214 f   LIBCMT:crt0fp.obj
 0001:00056220       wcsnlen                    0000000061057220 f   LIBCMT:wcslen_s.obj
 0001:00056240       _isctype_l                 0000000061057240 f   LIBCMT:isctype.obj
 0001:00056328       _isleadbyte_l              0000000061057328 f i LIBCMT:_wctype.obj
 0001:00056370       _ld12tod                   0000000061057370 f   LIBCMT:_intrncvt_.obj
 0001:0005693c       _ld12tof                   000000006105793c f   LIBCMT:_intrncvt_.obj
 0001:00056f08       __strgtold12_l             0000000061057f08 f   LIBCMT:_strgtold_.obj
 0001:0005776c       $I10_OUTPUT                000000006105876c f   LIBCMT:_x10fout_.obj
 0001:00058218       __mtold12                  0000000061059218 f   LIBCMT:_mantold_.obj
 0001:00058440       RtlVirtualUnwind           0000000061059440 f   kernel32:KERNEL32.dll
 0001:00058446       RtlPcToFileHeader          0000000061059446 f   kernel32:KERNEL32.dll
 0001:0005844c       RtlLookupFunctionEntry     000000006105944c f   kernel32:KERNEL32.dll
 0001:00058452       RtlUnwindEx                0000000061059452 f   kernel32:KERNEL32.dll
 0001:00058458       ?_GetEstablisherFrame@@YAPEA_KPEA_KPEAU_xDISPATCHER_CONTEXT@@PEBU_s_FuncInfo@@0@Z 0000000061059458 f   LIBCMT:trnsctrl.obj
 0001:00058544       _GetImageBase              0000000061059544 f   LIBCMT:trnsctrl.obj
 0001:0005855c       _GetThrowImageBase         000000006105955c f   LIBCMT:trnsctrl.obj
 0001:00058574       _SetImageBase              0000000061059574 f   LIBCMT:trnsctrl.obj
 0001:00058590       _SetThrowImageBase         0000000061059590 f   LIBCMT:trnsctrl.obj
 0001:000585ac       ?__FrameUnwindToEmptyState@@YAXPEA_KPEAU_xDISPATCHER_CONTEXT@@PEBU_s_FuncInfo@@@Z 00000000610595ac f   LIBCMT:trnsctrl.obj
 0001:00058658       __CxxFrameHandler3         0000000061059658 f   LIBCMT:trnsctrl.obj
 0001:000586e0       ?__SehTransFilter@@YAHPEAU_EXCEPTION_POINTERS@@PEAUEHExceptionRecord@@PEA_KPEAU_CONTEXT@@PEAU_xDISPATCHER_CONTEXT@@PEBU_s_FuncInfo@@PEAH@Z 00000000610596e0 f   LIBCMT:trnsctrl.obj
 0001:00058784       _CallSETranslator          0000000061059784 f   LIBCMT:trnsctrl.obj
 0001:000587d8       ?_GetRangeOfTrysToCheck@@YAPEBU_s_TryBlockMapEntry@@PEA_KPEBU_s_FuncInfo@@HHPEAI2PEAU_xDISPATCHER_CONTEXT@@@Z 00000000610597d8 f   LIBCMT:trnsctrl.obj
 0001:00058904       _CreateFrameInfo           0000000061059904 f   LIBCMT:trnsctrl.obj
 0001:00058948       _IsExceptionObjectToBeDestroyed 0000000061059948 f   LIBCMT:trnsctrl.obj
 0001:0005897c       _FindAndUnlinkFrame        000000006105997c f   LIBCMT:trnsctrl.obj
 0001:000589dc       _UnwindNestedFrames        00000000610599dc f   LIBCMT:trnsctrl.obj
 0001:00058acc       __GSHandlerCheck_EH        0000000061059acc f   LIBCMT:gshandlereh.obj
 0001:00058b5c       ?__StateFromIp@@YAHPEBU_s_FuncInfo@@PEAU_xDISPATCHER_CONTEXT@@_J@Z 0000000061059b5c f   LIBCMT:ehstate.obj
 0001:00058be8       ?__StateFromControlPc@@YAHPEBU_s_FuncInfo@@PEAU_xDISPATCHER_CONTEXT@@@Z 0000000061059be8 f   LIBCMT:ehstate.obj
 0001:00058bf0       ?__GetCurrentState@@YAHPEA_KPEAU_xDISPATCHER_CONTEXT@@PEBU_s_FuncInfo@@@Z 0000000061059bf0 f   LIBCMT:ehstate.obj
 0001:00058c18       ?__SetState@@YAXPEA_KPEAU_xDISPATCHER_CONTEXT@@PEBU_s_FuncInfo@@H@Z 0000000061059c18 f   LIBCMT:ehstate.obj
 0001:00058c24       ?__SetUnwindTryBlock@@YAXPEA_KPEAU_xDISPATCHER_CONTEXT@@PEBU_s_FuncInfo@@H@Z 0000000061059c24 f   LIBCMT:ehstate.obj
 0001:00058c60       ?__GetUnwindTryBlock@@YAHPEA_KPEAU_xDISPATCHER_CONTEXT@@PEBU_s_FuncInfo@@@Z 0000000061059c60 f   LIBCMT:ehstate.obj
 0001:00058c8c       ??1bad_exception@std@@UEAA@XZ 0000000061059c8c f i LIBCMT:frame.obj
 0001:00058c9c       ??_Ebad_exception@std@@UEAAPEAXI@Z 0000000061059c9c f i LIBCMT:frame.obj
 0001:00058c9c       ??_Gbad_exception@std@@UEAAPEAXI@Z 0000000061059c9c f i LIBCMT:frame.obj
 0001:00058cd8       __TypeMatch                0000000061059cd8 f   LIBCMT:frame.obj
 0001:00058dfc       __FrameUnwindFilter        0000000061059dfc f   LIBCMT:frame.obj
 0001:00058e50       __FrameUnwindToState       0000000061059e50 f   LIBCMT:frame.obj
 0001:00058fdc       __DestructExceptionObject  0000000061059fdc f   LIBCMT:frame.obj
 0001:00059020       __AdjustPointer            000000006105a020 f   LIBCMT:frame.obj
 0001:00059118       __CxxCallCatchBlock        000000006105a118 f   LIBCMT:frame.obj
 0001:0005932c       __BuildCatchObjectHelper   000000006105a32c f   LIBCMT:frame.obj
 0001:00059530       __BuildCatchObject         000000006105a530 f   LIBCMT:frame.obj
 0001:00059dac       ??0bad_exception@std@@QEAA@AEBV01@@Z 000000006105adac f i LIBCMT:frame.obj
 0001:00059dd0       __InternalCxxFrameHandler  000000006105add0 f   LIBCMT:frame.obj
 0001:0005a010       _CallSettingFrame          000000006105b010 f   LIBCMT:handlers.obj
 0001:0005a050       _GetNextInstrOffset        000000006105b050 f   LIBCMT:handlers.obj
 0001:0005a058       ?_ValidateRead@@YAHPEBXI@Z 000000006105b058 f   LIBCMT:validate.obj
 0001:0005a058       ?_ValidateExecute@@YAHP6A_JXZ@Z 000000006105b058 f   LIBCMT:validate.obj
 0001:0005a058       ?_ValidateWrite@@YAHPEAXI@Z 000000006105b058 f   LIBCMT:validate.obj
 0001:0005a100       OPENSSL_atomic_add         000000006105b100 f   x86_64cpuid.obj
 0001:0005a120       OPENSSL_rdtsc              000000006105b120 f   x86_64cpuid.obj
 0001:0005a130       OPENSSL_ia32_cpuid         000000006105b130 f   x86_64cpuid.obj
 0001:0005a340       OPENSSL_cleanse            000000006105b340 f   x86_64cpuid.obj
 0001:0005a3a0       CRYPTO_memcmp              000000006105b3a0 f   x86_64cpuid.obj
 0001:0005a3f0       OPENSSL_wipe_cpu           000000006105b3f0 f   x86_64cpuid.obj
 0001:0005a430       OPENSSL_instrument_bus     000000006105b430 f   x86_64cpuid.obj
 0001:0005a480       OPENSSL_instrument_bus2    000000006105b480 f   x86_64cpuid.obj
 0001:0005a4f0       OPENSSL_ia32_rdrand_bytes  000000006105b4f0 f   x86_64cpuid.obj
 0001:0005a550       OPENSSL_ia32_rdseed_bytes  000000006105b550 f   x86_64cpuid.obj
 0001:0005a600       md5_block_asm_data_order   000000006105b600 f   md5-x86_64.obj
 0001:0005b100       sha1_block_data_order      000000006105c100 f   sha1-x86_64.obj
 0001:0005d600       sha256_block_data_order    000000006105e600 f   sha256-x86_64.obj
 0001:00060360       SHA3_absorb                0000000061061360 f   keccak1600-x86_64.obj
 0001:00060440       SHA3_squeeze               0000000061061440 f   keccak1600-x86_64.obj
 0002:00000000       __imp_CertGetNameStringW   000000006106c000     crypt32:CRYPT32.dll
 0002:00000008       __imp_CryptMsgClose        000000006106c008     crypt32:CRYPT32.dll
 0002:00000010       __imp_CertCloseStore       000000006106c010     crypt32:CRYPT32.dll
 0002:00000018       __imp_CryptDecodeObject    000000006106c018     crypt32:CRYPT32.dll
 0002:00000020       __imp_CryptMsgGetParam     000000006106c020     crypt32:CRYPT32.dll
 0002:00000028       __imp_CryptQueryObject     000000006106c028     crypt32:CRYPT32.dll
 0002:00000030       __imp_CertFreeCertificateContext 000000006106c030     crypt32:CRYPT32.dll
 0002:00000038       __imp_CertFindCertificateInStore 000000006106c038     crypt32:CRYPT32.dll
 0002:00000040       \177CRYPT32_NULL_THUNK_DATA 000000006106c040     crypt32:CRYPT32.dll
 0002:00000048       __imp_GetStringTypeW       000000006106c048     kernel32:KERNEL32.dll
 0002:00000050       __imp_SetFilePointer       000000006106c050     kernel32:KERNEL32.dll
 0002:00000058       __imp_LCMapStringW         000000006106c058     kernel32:KERNEL32.dll
 0002:00000060       __imp_LoadLibraryW         000000006106c060     kernel32:KERNEL32.dll
 0002:00000068       __imp_GetCurrentProcessId  000000006106c068     kernel32:KERNEL32.dll
 0002:00000070       __imp_GetTickCount         000000006106c070     kernel32:KERNEL32.dll
 0002:00000078       __imp_GetEnvironmentStringsW 000000006106c078     kernel32:KERNEL32.dll
 0002:00000080       __imp_FreeEnvironmentStringsW 000000006106c080     kernel32:KERNEL32.dll
 0002:00000088       __imp_GetModuleFileNameA   000000006106c088     kernel32:KERNEL32.dll
 0002:00000090       __imp_GetStartupInfoW      000000006106c090     kernel32:KERNEL32.dll
 0002:00000098       __imp_GetFileType          000000006106c098     kernel32:KERNEL32.dll
 0002:000000a0       __imp_InitializeCriticalSectionAndSpinCount 000000006106c0a0     kernel32:KERNEL32.dll
 0002:000000a8       __imp_SetHandleCount       000000006106c0a8     kernel32:KERNEL32.dll
 0002:000000b0       __imp_FormatMessageW       000000006106c0b0     kernel32:KERNEL32.dll
 0002:000000b8       __imp_LocalFree            000000006106c0b8     kernel32:KERNEL32.dll
 0002:000000c0       __imp_GetLastError         000000006106c0c0     kernel32:KERNEL32.dll
 0002:000000c8       __imp_CloseHandle          000000006106c0c8     kernel32:KERNEL32.dll
 0002:000000d0       __imp_CreateFileW          000000006106c0d0     kernel32:KERNEL32.dll
 0002:000000d8       __imp_GetFileInformationByHandle 000000006106c0d8     kernel32:KERNEL32.dll
 0002:000000e0       __imp_FindFirstFileW       000000006106c0e0     kernel32:KERNEL32.dll
 0002:000000e8       __imp_WaitForSingleObject  000000006106c0e8     kernel32:KERNEL32.dll
 0002:000000f0       __imp_FindNextFileW        000000006106c0f0     kernel32:KERNEL32.dll
 0002:000000f8       __imp_FindClose            000000006106c0f8     kernel32:KERNEL32.dll
 0002:00000100       __imp_CreateEventA         000000006106c100     kernel32:KERNEL32.dll
 0002:00000108       __imp_SetEvent             000000006106c108     kernel32:KERNEL32.dll
 0002:00000110       __imp_GetFileAttributesW   000000006106c110     kernel32:KERNEL32.dll
 0002:00000118       __imp_InitializeCriticalSection 000000006106c118     kernel32:KERNEL32.dll
 0002:00000120       __imp_DeleteCriticalSection 000000006106c120     kernel32:KERNEL32.dll
 0002:00000128       __imp_EnterCriticalSection 000000006106c128     kernel32:KERNEL32.dll
 0002:00000130       __imp_LeaveCriticalSection 000000006106c130     kernel32:KERNEL32.dll
 0002:00000138       __imp_WriteFile            000000006106c138     kernel32:KERNEL32.dll
 0002:00000140       __imp_WaitForMultipleObjects 000000006106c140     kernel32:KERNEL32.dll
 0002:00000148       __imp_CancelIo             000000006106c148     kernel32:KERNEL32.dll
 0002:00000150       __imp_ReadFile             000000006106c150     kernel32:KERNEL32.dll
 0002:00000158       __imp_GetOverlappedResult  000000006106c158     kernel32:KERNEL32.dll
 0002:00000160       __imp_VirtualAlloc         000000006106c160     kernel32:KERNEL32.dll
 0002:00000168       __imp_VirtualFree          000000006106c168     kernel32:KERNEL32.dll
 0002:00000170       __imp_GetFileSizeEx        000000006106c170     kernel32:KERNEL32.dll
 0002:00000178       __imp_CreateEventW         000000006106c178     kernel32:KERNEL32.dll
 0002:00000180       __imp_CreateThread         000000006106c180     kernel32:KERNEL32.dll
 0002:00000188       __imp_SetLastError         000000006106c188     kernel32:KERNEL32.dll
 0002:00000190       __imp_SetConsoleTitleW     000000006106c190     kernel32:KERNEL32.dll
 0002:00000198       __imp_SetCurrentDirectoryW 000000006106c198     kernel32:KERNEL32.dll
 0002:000001a0       __imp_DeviceIoControl      000000006106c1a0     kernel32:KERNEL32.dll
 0002:000001a8       __imp_SetFilePointerEx     000000006106c1a8     kernel32:KERNEL32.dll
 0002:000001b0       __imp_WideCharToMultiByte  000000006106c1b0     kernel32:KERNEL32.dll
 0002:000001b8       __imp_MultiByteToWideChar  000000006106c1b8     kernel32:KERNEL32.dll
 0002:000001c0       __imp_GetStdHandle         000000006106c1c0     kernel32:KERNEL32.dll
 0002:000001c8       __imp_PeekConsoleInputA    000000006106c1c8     kernel32:KERNEL32.dll
 0002:000001d0       __imp_ReadConsoleInputA    000000006106c1d0     kernel32:KERNEL32.dll
 0002:000001d8       __imp_GetModuleFileNameW   000000006106c1d8     kernel32:KERNEL32.dll
 0002:000001e0       __imp_QueryPerformanceCounter 000000006106c1e0     kernel32:KERNEL32.dll
 0002:000001e8       __imp_QueryPerformanceFrequency 000000006106c1e8     kernel32:KERNEL32.dll
 0002:000001f0       __imp_GetConsoleTitleW     000000006106c1f0     kernel32:KERNEL32.dll
 0002:000001f8       __imp_GetTempFileNameW     000000006106c1f8     kernel32:KERNEL32.dll
 0002:00000200       __imp_DeleteFileW          000000006106c200     kernel32:KERNEL32.dll
 0002:00000208       __imp_GetTempPathW         000000006106c208     kernel32:KERNEL32.dll
 0002:00000210       __imp_CreateSemaphoreA     000000006106c210     kernel32:KERNEL32.dll
 0002:00000218       __imp_GetProcAddress       000000006106c218     kernel32:KERNEL32.dll
 0002:00000220       __imp_GetModuleHandleA     000000006106c220     kernel32:KERNEL32.dll
 0002:00000228       __imp_GetDiskFreeSpaceW    000000006106c228     kernel32:KERNEL32.dll
 0002:00000230       __imp_GetVolumeInformationW 000000006106c230     kernel32:KERNEL32.dll
 0002:00000238       __imp_FlushFileBuffers     000000006106c238     kernel32:KERNEL32.dll
 0002:00000240       __imp_GetVolumeNameForVolumeMountPointW 000000006106c240     kernel32:KERNEL32.dll
 0002:00000248       __imp_SetEndOfFile         000000006106c248     kernel32:KERNEL32.dll
 0002:00000250       __imp_ExpandEnvironmentStringsW 000000006106c250     kernel32:KERNEL32.dll
 0002:00000258       __imp_GetThreadLocale      000000006106c258     kernel32:KERNEL32.dll
 0002:00000260       __imp_SetThreadLocale      000000006106c260     kernel32:KERNEL32.dll
 0002:00000268       __imp_FileTimeToLocalFileTime 000000006106c268     kernel32:KERNEL32.dll
 0002:00000270       __imp_FileTimeToSystemTime 000000006106c270     kernel32:KERNEL32.dll
 0002:00000278       __imp_GetDateFormatW       000000006106c278     kernel32:KERNEL32.dll
 0002:00000280       __imp_GetTimeFormatW       000000006106c280     kernel32:KERNEL32.dll
 0002:00000288       __imp_VerLanguageNameW     000000006106c288     kernel32:KERNEL32.dll
 0002:00000290       __imp_GetSystemInfo        000000006106c290     kernel32:KERNEL32.dll
 0002:00000298       __imp_ReleaseSemaphore     000000006106c298     kernel32:KERNEL32.dll
 0002:000002a0       __imp_SetFileAttributesW   000000006106c2a0     kernel32:KERNEL32.dll
 0002:000002a8       __imp_GetSystemTime        000000006106c2a8     kernel32:KERNEL32.dll
 0002:000002b0       __imp_SystemTimeToFileTime 000000006106c2b0     kernel32:KERNEL32.dll
 0002:000002b8       __imp_FindVolumeClose      000000006106c2b8     kernel32:KERNEL32.dll
 0002:000002c0       __imp_FindFirstVolumeW     000000006106c2c0     kernel32:KERNEL32.dll
 0002:000002c8       __imp_FindNextVolumeW      000000006106c2c8     kernel32:KERNEL32.dll
 0002:000002d0       __imp_GetLogicalDriveStringsW 000000006106c2d0     kernel32:KERNEL32.dll
 0002:000002d8       __imp_GetVolumePathNamesForVolumeNameW 000000006106c2d8     kernel32:KERNEL32.dll
 0002:000002e0       __imp_QueryDosDeviceW      000000006106c2e0     kernel32:KERNEL32.dll
 0002:000002e8       __imp_RtlVirtualUnwind     000000006106c2e8     kernel32:KERNEL32.dll
 0002:000002f0       __imp_HeapFree             000000006106c2f0     kernel32:KERNEL32.dll
 0002:000002f8       __imp_HeapAlloc            000000006106c2f8     kernel32:KERNEL32.dll
 0002:00000300       __imp_HeapReAlloc          000000006106c300     kernel32:KERNEL32.dll
 0002:00000308       __imp_EncodePointer        000000006106c308     kernel32:KERNEL32.dll
 0002:00000310       __imp_DecodePointer        000000006106c310     kernel32:KERNEL32.dll
 0002:00000318       __imp_GetSystemTimeAsFileTime 000000006106c318     kernel32:KERNEL32.dll
 0002:00000320       __imp_ExitThread           000000006106c320     kernel32:KERNEL32.dll
 0002:00000328       __imp_GetCurrentThreadId   000000006106c328     kernel32:KERNEL32.dll
 0002:00000330       __imp_HeapSetInformation   000000006106c330     kernel32:KERNEL32.dll
 0002:00000338       __imp_GetVersion           000000006106c338     kernel32:KERNEL32.dll
 0002:00000340       __imp_HeapCreate           000000006106c340     kernel32:KERNEL32.dll
 0002:00000348       __imp_HeapDestroy          000000006106c348     kernel32:KERNEL32.dll
 0002:00000350       __imp_FlsSetValue          000000006106c350     kernel32:KERNEL32.dll
 0002:00000358       __imp_GetCommandLineA      000000006106c358     kernel32:KERNEL32.dll
 0002:00000360       __imp_RaiseException       000000006106c360     kernel32:KERNEL32.dll
 0002:00000368       __imp_RtlPcToFileHeader    000000006106c368     kernel32:KERNEL32.dll
 0002:00000370       __imp_TerminateProcess     000000006106c370     kernel32:KERNEL32.dll
 0002:00000378       __imp_GetCurrentProcess    000000006106c378     kernel32:KERNEL32.dll
 0002:00000380       __imp_UnhandledExceptionFilter 000000006106c380     kernel32:KERNEL32.dll
 0002:00000388       __imp_SetUnhandledExceptionFilter 000000006106c388     kernel32:KERNEL32.dll
 0002:00000390       __imp_IsDebuggerPresent    000000006106c390     kernel32:KERNEL32.dll
 0002:00000398       __imp_RtlLookupFunctionEntry 000000006106c398     kernel32:KERNEL32.dll
 0002:000003a0       __imp_RtlCaptureContext    000000006106c3a0     kernel32:KERNEL32.dll
 0002:000003a8       __imp_GetModuleHandleW     000000006106c3a8     kernel32:KERNEL32.dll
 0002:000003b0       __imp_ExitProcess          000000006106c3b0     kernel32:KERNEL32.dll
 0002:000003b8       __imp_Sleep                000000006106c3b8     kernel32:KERNEL32.dll
 0002:000003c0       __imp_HeapSize             000000006106c3c0     kernel32:KERNEL32.dll
 0002:000003c8       __imp_RtlUnwindEx          000000006106c3c8     kernel32:KERNEL32.dll
 0002:000003d0       __imp_FlsGetValue          000000006106c3d0     kernel32:KERNEL32.dll
 0002:000003d8       __imp_FlsFree              000000006106c3d8     kernel32:KERNEL32.dll
 0002:000003e0       __imp_FlsAlloc             000000006106c3e0     kernel32:KERNEL32.dll
 0002:000003e8       __imp_GetCPInfo            000000006106c3e8     kernel32:KERNEL32.dll
 0002:000003f0       __imp_GetACP               000000006106c3f0     kernel32:KERNEL32.dll
 0002:000003f8       __imp_GetOEMCP             000000006106c3f8     kernel32:KERNEL32.dll
 0002:00000400       __imp_IsValidCodePage      000000006106c400     kernel32:KERNEL32.dll
 0002:00000408       \177KERNEL32_NULL_THUNK_DATA 000000006106c408     kernel32:KERNEL32.dll
 0002:00000410       __imp_GetFileVersionInfoW  000000006106c410     version:VERSION.dll
 0002:00000418       __imp_VerQueryValueW       000000006106c418     version:VERSION.dll
 0002:00000420       __imp_GetFileVersionInfoSizeW 000000006106c420     version:VERSION.dll
 0002:00000428       \177VERSION_NULL_THUNK_DATA 000000006106c428     version:VERSION.dll
 0002:00000430       __imp_WinVerifyTrust       000000006106c430     wintrust:WINTRUST.dll
 0002:00000438       \177WINTRUST_NULL_THUNK_DATA 000000006106c438     wintrust:WINTRUST.dll
 0002:00000440       __imp_ImageLoad            000000006106c440     imagehlp:imagehlp.dll
 0002:00000448       __imp_ImageUnload          000000006106c448     imagehlp:imagehlp.dll
 0002:00000450       \177imagehlp_NULL_THUNK_DATA 000000006106c450     imagehlp:imagehlp.dll
 0002:00000458       __imp_StgOpenStorageEx     000000006106c458     ole32:ole32.dll
 0002:00000460       __imp_PropVariantClear     000000006106c460     ole32:ole32.dll
 0002:00000468       \177ole32_NULL_THUNK_DATA  000000006106c468     ole32:ole32.dll
 0002:00000470       __xc_a                     000000006106c470     LIBCMT:crt0init.obj
 0002:000004b0       __xc_z                     000000006106c4b0     LIBCMT:crt0init.obj
 0002:000004b8       __xi_a                     000000006106c4b8     LIBCMT:crt0init.obj
 0002:000004d0       __xi_z                     000000006106c4d0     LIBCMT:crt0init.obj
 0002:000004d8       __xp_a                     000000006106c4d8     LIBCMT:crt0init.obj
 0002:000004e0       __xp_z                     000000006106c4e0     LIBCMT:crt0init.obj
 0002:000004e8       __xt_a                     000000006106c4e8     LIBCMT:crt0init.obj
 0002:000004f0       __xt_z                     000000006106c4f0     LIBCMT:crt0init.obj
 0002:00000520       IID_IPropertySetStorage    000000006106c520     uuid:propidl_i.obj
 0002:00000530       FMTID_SummaryInformation   000000006106c530     uuid:sifmt_i.obj
 0002:00000540       ??_7_com_error@@6B@        000000006106c540     comsuppw:comraise.obj
 0002:00000550       ??_7logic_error@std@@6B@   000000006106c550     libcpmt:xthrow.obj
 0002:00000568       ??_7length_error@std@@6B@  000000006106c568     libcpmt:xthrow.obj
 0002:00000580       ??_7out_of_range@std@@6B@  000000006106c580     libcpmt:xthrow.obj
 0002:00000598       ??_7exception@std@@6B@     000000006106c598     LIBCMT:stdexcpt.obj
 0002:000005a8       ??_C@_0BC@EOODALEL@Unknown?5exception?$AA@ 000000006106c5a8     LIBCMT:stdexcpt.obj
 0002:000005c8       ??_7type_info@@6B@         000000006106c5c8     LIBCMT:typinfo.obj
 0002:000005d8       ??_7bad_alloc@std@@6B@     000000006106c5d8     LIBCMT:new.obj
 0002:000005e8       _pDefaultRawDllMain        000000006106c5e8     LIBCMT:dllcrt0.obj
 0002:000005e8       _pRawDllMain               000000006106c5e8     LIBCMT:dllcrt0.obj
 0002:00000630       _FPinit                    000000006106c630     LIBCMT:_fpinit_.obj
 0002:00000648       ??_C@_0P@MIGLKIOC@CorExitProcess?$AA@ 000000006106c648     LIBCMT:crt0dat.obj
 0002:00000658       ??_C@_1BI@BGOHAHKC@?$AAm?$AAs?$AAc?$AAo?$AAr?$AAe?$AAe?$AA?4?$AAd?$AAl?$AAl?$AA?$AA@ 000000006106c658     LIBCMT:crt0dat.obj
 0002:00000670       ??_C@_1BO@BKOMIGKJ@?$AAr?$AAu?$AAn?$AAt?$AAi?$AAm?$AAe?$AA?5?$AAe?$AAr?$AAr?$AAo?$AAr?$AA?5?$AA?$AA@ 000000006106c670     LIBCMT:crt0msg.obj
 0002:00000690       ??_C@_15JNBOKNOG@?$AA?$AN?$AA?6?$AA?$AA@ 000000006106c690     LIBCMT:crt0msg.obj
 0002:00000698       ??_C@_1BM@JBBEPPHI@?$AAT?$AAL?$AAO?$AAS?$AAS?$AA?5?$AAe?$AAr?$AAr?$AAo?$AAr?$AA?$AN?$AA?6?$AA?$AA@ 000000006106c698     LIBCMT:crt0msg.obj
 0002:000006b8       ??_C@_1BK@KMOMNAAI@?$AAS?$AAI?$AAN?$AAG?$AA?5?$AAe?$AAr?$AAr?$AAo?$AAr?$AA?$AN?$AA?6?$AA?$AA@ 000000006106c6b8     LIBCMT:crt0msg.obj
 0002:000006d8       ??_C@_1BO@BFCDCGC@?$AAD?$AAO?$AAM?$AAA?$AAI?$AAN?$AA?5?$AAe?$AAr?$AAr?$AAo?$AAr?$AA?$AN?$AA?6?$AA?$AA@ 000000006106c6d8     LIBCMT:crt0msg.obj
 0002:00000700       ??_C@_1BOO@KGEDBGAJ@?$AAR?$AA6?$AA0?$AA3?$AA3?$AA?$AN?$AA?6?$AA?9?$AA?5?$AAA?$AAt?$AAt?$AAe?$AAm?$AAp?$AAt?$AA?5?$AAt?$AAo?$AA?5?$AAu?$AAs?$AAe?$AA?5?$AAM?$AAS?$AAI?$AAL?$AA?5?$AAc?$AAo?$AAd@ 000000006106c700     LIBCMT:crt0msg.obj
 0002:000008f0       ??_C@_1GG@GOPILAJP@?$AAR?$AA6?$AA0?$AA3?$AA2?$AA?$AN?$AA?6?$AA?9?$AA?5?$AAn?$AAo?$AAt?$AA?5?$AAe?$AAn?$AAo?$AAu?$AAg?$AAh?$AA?5?$AAs?$AAp?$AAa?$AAc?$AAe?$AA?5?$AAf?$AAo?$AAr?$AA?5?$AAl?$AAo@ 000000006106c8f0     LIBCMT:crt0msg.obj
 0002:00000960       ??_C@_1MG@ENCOOIDF@?$AAR?$AA6?$AA0?$AA3?$AA1?$AA?$AN?$AA?6?$AA?9?$AA?5?$AAA?$AAt?$AAt?$AAe?$AAm?$AAp?$AAt?$AA?5?$AAt?$AAo?$AA?5?$AAi?$AAn?$AAi?$AAt?$AAi?$AAa?$AAl?$AAi?$AAz?$AAe?$AA?5?$AAt@ 000000006106c960     LIBCMT:crt0msg.obj
 0002:00000a28       ??_C@_1DO@BMFCDCD@?$AAR?$AA6?$AA0?$AA3?$AA0?$AA?$AN?$AA?6?$AA?9?$AA?5?$AAC?$AAR?$AAT?$AA?5?$AAn?$AAo?$AAt?$AA?5?$AAi?$AAn?$AAi?$AAt?$AAi?$AAa?$AAl?$AAi?$AAz?$AAe?$AAd?$AA?$AN?$AA?6?$AA?$AA@ 000000006106ca28     LIBCMT:crt0msg.obj
 0002:00000a70       ??_C@_1EK@HHFLMAOL@?$AAR?$AA6?$AA0?$AA2?$AA8?$AA?$AN?$AA?6?$AA?9?$AA?5?$AAu?$AAn?$AAa?$AAb?$AAl?$AAe?$AA?5?$AAt?$AAo?$AA?5?$AAi?$AAn?$AAi?$AAt?$AAi?$AAa?$AAl?$AAi?$AAz?$AAe?$AA?5?$AAh?$AAe@ 000000006106ca70     LIBCMT:crt0msg.obj
 0002:00000ac0       ??_C@_1GK@MFGOKLAG@?$AAR?$AA6?$AA0?$AA2?$AA7?$AA?$AN?$AA?6?$AA?9?$AA?5?$AAn?$AAo?$AAt?$AA?5?$AAe?$AAn?$AAo?$AAu?$AAg?$AAh?$AA?5?$AAs?$AAp?$AAa?$AAc?$AAe?$AA?5?$AAf?$AAo?$AAr?$AA?5?$AAl?$AAo@ 000000006106cac0     LIBCMT:crt0msg.obj
 0002:00000b30       ??_C@_1GK@MCAAGJMO@?$AAR?$AA6?$AA0?$AA2?$AA6?$AA?$AN?$AA?6?$AA?9?$AA?5?$AAn?$AAo?$AAt?$AA?5?$AAe?$AAn?$AAo?$AAu?$AAg?$AAh?$AA?5?$AAs?$AAp?$AAa?$AAc?$AAe?$AA?5?$AAf?$AAo?$AAr?$AA?5?$AAs?$AAt@ 000000006106cb30     LIBCMT:crt0msg.obj
 0002:00000ba0       ??_C@_1EM@MAADIHMB@?$AAR?$AA6?$AA0?$AA2?$AA5?$AA?$AN?$AA?6?$AA?9?$AA?5?$AAp?$AAu?$AAr?$AAe?$AA?5?$AAv?$AAi?$AAr?$AAt?$AAu?$AAa?$AAl?$AA?5?$AAf?$AAu?$AAn?$AAc?$AAt?$AAi?$AAo?$AAn?$AA?5?$AAc@ 000000006106cba0     LIBCMT:crt0msg.obj
 0002:00000bf0       ??_C@_1GK@FHCKBEFA@?$AAR?$AA6?$AA0?$AA2?$AA4?$AA?$AN?$AA?6?$AA?9?$AA?5?$AAn?$AAo?$AAt?$AA?5?$AAe?$AAn?$AAo?$AAu?$AAg?$AAh?$AA?5?$AAs?$AAp?$AAa?$AAc?$AAe?$AA?5?$AAf?$AAo?$AAr?$AA?5?$AA_?$AAo@ 000000006106cbf0     LIBCMT:crt0msg.obj
 0002:00000c60       ??_C@_1FC@ECHBIFBC@?$AAR?$AA6?$AA0?$AA1?$AA9?$AA?$AN?$AA?6?$AA?9?$AA?5?$AAu?$AAn?$AAa?$AAb?$AAl?$AAe?$AA?5?$AAt?$AAo?$AA?5?$AAo?$AAp?$AAe?$AAn?$AA?5?$AAc?$AAo?$AAn?$AAs?$AAo?$AAl?$AAe?$AA?5@ 000000006106cc60     LIBCMT:crt0msg.obj
 0002:00000cc0       ??_C@_1EC@JIBHAOPH@?$AAR?$AA6?$AA0?$AA1?$AA8?$AA?$AN?$AA?6?$AA?9?$AA?5?$AAu?$AAn?$AAe?$AAx?$AAp?$AAe?$AAc?$AAt?$AAe?$AAd?$AA?5?$AAh?$AAe?$AAa?$AAp?$AA?5?$AAe?$AAr?$AAr?$AAo?$AAr?$AA?$AN?$AA?6@ 000000006106ccc0     LIBCMT:crt0msg.obj
 0002:00000d10       ??_C@_1FK@BEOGODMC@?$AAR?$AA6?$AA0?$AA1?$AA7?$AA?$AN?$AA?6?$AA?9?$AA?5?$AAu?$AAn?$AAe?$AAx?$AAp?$AAe?$AAc?$AAt?$AAe?$AAd?$AA?5?$AAm?$AAu?$AAl?$AAt?$AAi?$AAt?$AAh?$AAr?$AAe?$AAa?$AAd?$AA?5@ 000000006106cd10     LIBCMT:crt0msg.obj
 0002:00000d70       ??_C@_1FI@LOGNIKDM@?$AAR?$AA6?$AA0?$AA1?$AA6?$AA?$AN?$AA?6?$AA?9?$AA?5?$AAn?$AAo?$AAt?$AA?5?$AAe?$AAn?$AAo?$AAu?$AAg?$AAh?$AA?5?$AAs?$AAp?$AAa?$AAc?$AAe?$AA?5?$AAf?$AAo?$AAr?$AA?5?$AAt?$AAh@ 000000006106cd70     LIBCMT:crt0msg.obj
 0002:00000dd0       ??_C@_1EG@BEHAGFJD@?$AAR?$AA6?$AA0?$AA1?$AA0?$AA?$AN?$AA?6?$AA?9?$AA?5?$AAa?$AAb?$AAo?$AAr?$AAt?$AA?$CI?$AA?$CJ?$AA?5?$AAh?$AAa?$AAs?$AA?5?$AAb?$AAe?$AAe?$AAn?$AA?5?$AAc?$AAa?$AAl?$AAl?$AAe?$AAd@ 000000006106cdd0     LIBCMT:crt0msg.obj
 0002:00000e20       ??_C@_1FI@HONFMGBI@?$AAR?$AA6?$AA0?$AA0?$AA9?$AA?$AN?$AA?6?$AA?9?$AA?5?$AAn?$AAo?$AAt?$AA?5?$AAe?$AAn?$AAo?$AAu?$AAg?$AAh?$AA?5?$AAs?$AAp?$AAa?$AAc?$AAe?$AA?5?$AAf?$AAo?$AAr?$AA?5?$AAe?$AAn@ 000000006106ce20     LIBCMT:crt0msg.obj
 0002:00000e80       ??_C@_1FE@LLNEDJMD@?$AAR?$AA6?$AA0?$AA0?$AA8?$AA?$AN?$AA?6?$AA?9?$AA?5?$AAn?$AAo?$AAt?$AA?5?$AAe?$AAn?$AAo?$AAu?$AAg?$AAh?$AA?5?$AAs?$AAp?$AAa?$AAc?$AAe?$AA?5?$AAf?$AAo?$AAr?$AA?5?$AAa?$AAr@ 000000006106ce80     LIBCMT:crt0msg.obj
 0002:00000ee0       ??_C@_1FK@PGACCAFB@?$AAR?$AA6?$AA0?$AA0?$AA2?$AA?$AN?$AA?6?$AA?9?$AA?5?$AAf?$AAl?$AAo?$AAa?$AAt?$AAi?$AAn?$AAg?$AA?5?$AAp?$AAo?$AAi?$AAn?$AAt?$AA?5?$AAs?$AAu?$AAp?$AAp?$AAo?$AAr?$AAt?$AA?5@ 000000006106cee0     LIBCMT:crt0msg.obj
 0002:000010a0       ??_C@_1EK@MBDPDCGA@?$AAM?$AAi?$AAc?$AAr?$AAo?$AAs?$AAo?$AAf?$AAt?$AA?5?$AAV?$AAi?$AAs?$AAu?$AAa?$AAl?$AA?5?$AAC?$AA?$CL?$AA?$CL?$AA?5?$AAR?$AAu?$AAn?$AAt?$AAi?$AAm?$AAe?$AA?5?$AAL?$AAi?$AAb@ 000000006106d0a0     LIBCMT:crt0msg.obj
 0002:000010ec       ??_C@_15IABLJNFO@?$AA?6?$AA?6?$AA?$AA@ 000000006106d0ec     LIBCMT:crt0msg.obj
 0002:000010f8       ??_C@_1CO@EAEJAADC@?$AA?$DM?$AAp?$AAr?$AAo?$AAg?$AAr?$AAa?$AAm?$AA?5?$AAn?$AAa?$AAm?$AAe?$AA?5?$AAu?$AAn?$AAk?$AAn?$AAo?$AAw?$AAn?$AA?$DO?$AA?$AA@ 000000006106d0f8     LIBCMT:crt0msg.obj
 0002:00001128       ??_C@_1DE@JNGNBFGO@?$AAR?$AAu?$AAn?$AAt?$AAi?$AAm?$AAe?$AA?5?$AAE?$AAr?$AAr?$AAo?$AAr?$AA?$CB?$AA?6?$AA?6?$AAP?$AAr?$AAo?$AAg?$AAr?$AAa?$AAm?$AA?3?$AA?5?$AA?$AA@ 000000006106d128     LIBCMT:crt0msg.obj
 0002:00001160       _XcptActTab                000000006106d160     LIBCMT:winxfltr.obj
 0002:00001220       _First_FPE_Indx            000000006106d220     LIBCMT:winxfltr.obj
 0002:00001224       _Num_FPE                   000000006106d224     LIBCMT:winxfltr.obj
 0002:00001228       _XcptActTabSize            000000006106d228     LIBCMT:winxfltr.obj
 0002:0000122c       _XcptActTabCount           000000006106d22c     LIBCMT:winxfltr.obj
 0002:00001230       ??_C@_1BC@GDGBMEMK@?$AAH?$AAH?$AA?3?$AAm?$AAm?$AA?3?$AAs?$AAs?$AA?$AA@ 000000006106d230     LIBCMT:nlsdata2.obj
 0002:00001248       ??_C@_1CI@KNAKOEBC@?$AAd?$AAd?$AAd?$AAd?$AA?0?$AA?5?$AAM?$AAM?$AAM?$AAM?$AA?5?$AAd?$AAd?$AA?0?$AA?5?$AAy?$AAy?$AAy?$AAy?$AA?$AA@ 000000006106d248     LIBCMT:nlsdata2.obj
 0002:00001270       ??_C@_1BC@IEBCMHCM@?$AAM?$AAM?$AA?1?$AAd?$AAd?$AA?1?$AAy?$AAy?$AA?$AA@ 000000006106d270     LIBCMT:nlsdata2.obj
 0002:00001284       ??_C@_15CLMNNGEL@?$AAP?$AAM?$AA?$AA@ 000000006106d284     LIBCMT:nlsdata2.obj
 0002:0000128c       ??_C@_15ODEHAHHF@?$AAA?$AAM?$AA?$AA@ 000000006106d28c     LIBCMT:nlsdata2.obj
 0002:00001298       ??_C@_1BC@FEMKIFH@?$AAD?$AAe?$AAc?$AAe?$AAm?$AAb?$AAe?$AAr?$AA?$AA@ 000000006106d298     LIBCMT:nlsdata2.obj
 0002:000012b0       ??_C@_1BC@BGLIFPF@?$AAN?$AAo?$AAv?$AAe?$AAm?$AAb?$AAe?$AAr?$AA?$AA@ 000000006106d2b0     LIBCMT:nlsdata2.obj
 0002:000012c8       ??_C@_1BA@EPANDLNG@?$AAO?$AAc?$AAt?$AAo?$AAb?$AAe?$AAr?$AA?$AA@ 000000006106d2c8     LIBCMT:nlsdata2.obj
 0002:000012d8       ??_C@_1BE@DKAAMBJL@?$AAS?$AAe?$AAp?$AAt?$AAe?$AAm?$AAb?$AAe?$AAr?$AA?$AA@ 000000006106d2d8     LIBCMT:nlsdata2.obj
 0002:000012f0       ??_C@_1O@PAHLKOAC@?$AAA?$AAu?$AAg?$AAu?$AAs?$AAt?$AA?$AA@ 000000006106d2f0     LIBCMT:nlsdata2.obj
 0002:00001300       ??_C@_19BIFMLPCD@?$AAJ?$AAu?$AAl?$AAy?$AA?$AA@ 000000006106d300     LIBCMT:nlsdata2.obj
 0002:00001310       ??_C@_19EPFLPGAP@?$AAJ?$AAu?$AAn?$AAe?$AA?$AA@ 000000006106d310     LIBCMT:nlsdata2.obj
 0002:00001320       ??_C@_1M@GJNLMHFD@?$AAA?$AAp?$AAr?$AAi?$AAl?$AA?$AA@ 000000006106d320     LIBCMT:nlsdata2.obj
 0002:00001330       ??_C@_1M@IKEENEDF@?$AAM?$AAa?$AAr?$AAc?$AAh?$AA?$AA@ 000000006106d330     LIBCMT:nlsdata2.obj
 0002:00001340       ??_C@_1BC@JGDDFFAM@?$AAF?$AAe?$AAb?$AAr?$AAu?$AAa?$AAr?$AAy?$AA?$AA@ 000000006106d340     LIBCMT:nlsdata2.obj
 0002:00001358       ??_C@_1BA@EFMEIEBA@?$AAJ?$AAa?$AAn?$AAu?$AAa?$AAr?$AAy?$AA?$AA@ 000000006106d358     LIBCMT:nlsdata2.obj
 0002:00001368       ??_C@_17EGKACKIF@?$AAD?$AAe?$AAc?$AA?$AA@ 000000006106d368     LIBCMT:nlsdata2.obj
 0002:00001370       ??_C@_17BBDMLCIG@?$AAN?$AAo?$AAv?$AA?$AA@ 000000006106d370     LIBCMT:nlsdata2.obj
 0002:00001378       ??_C@_17FNLKOI@?$AAO?$AAc?$AAt?$AA?$AA@ 000000006106d378     LIBCMT:nlsdata2.obj
 0002:00001380       ??_C@_17HCHCOKMG@?$AAS?$AAe?$AAp?$AA?$AA@ 000000006106d380     LIBCMT:nlsdata2.obj
 0002:00001388       ??_C@_17ICPELBCN@?$AAA?$AAu?$AAg?$AA?$AA@ 000000006106d388     LIBCMT:nlsdata2.obj
 0002:00001390       ??_C@_17IJPCKHK@?$AAJ?$AAu?$AAl?$AA?$AA@ 000000006106d390     LIBCMT:nlsdata2.obj
 0002:00001398       ??_C@_17KCJGOCPB@?$AAJ?$AAu?$AAn?$AA?$AA@ 000000006106d398     LIBCMT:nlsdata2.obj
 0002:000013a0       ??_C@_17PNNKMEED@?$AAM?$AAa?$AAy?$AA?$AA@ 000000006106d3a0     LIBCMT:nlsdata2.obj
 0002:000013a8       ??_C@_17LFPOIHDD@?$AAA?$AAp?$AAr?$AA?$AA@ 000000006106d3a8     LIBCMT:nlsdata2.obj
 0002:000013b0       ??_C@_17CKNLEDEC@?$AAM?$AAa?$AAr?$AA?$AA@ 000000006106d3b0     LIBCMT:nlsdata2.obj
 0002:000013b8       ??_C@_17LMDJEKJN@?$AAF?$AAe?$AAb?$AA?$AA@ 000000006106d3b8     LIBCMT:nlsdata2.obj
 0002:000013c0       ??_C@_17DKNBKCHM@?$AAJ?$AAa?$AAn?$AA?$AA@ 000000006106d3c0     LIBCMT:nlsdata2.obj
 0002:000013c8       ??_C@_1BC@ENMNNPAJ@?$AAS?$AAa?$AAt?$AAu?$AAr?$AAd?$AAa?$AAy?$AA?$AA@ 000000006106d3c8     LIBCMT:nlsdata2.obj
 0002:000013e0       ??_C@_1O@PDICJHAG@?$AAF?$AAr?$AAi?$AAd?$AAa?$AAy?$AA?$AA@ 000000006106d3e0     LIBCMT:nlsdata2.obj
 0002:000013f0       ??_C@_1BC@HHMNLIHE@?$AAT?$AAh?$AAu?$AAr?$AAs?$AAd?$AAa?$AAy?$AA?$AA@ 000000006106d3f0     LIBCMT:nlsdata2.obj
 0002:00001408       ??_C@_1BE@EBOGMDOH@?$AAW?$AAe?$AAd?$AAn?$AAe?$AAs?$AAd?$AAa?$AAy?$AA?$AA@ 000000006106d408     LIBCMT:nlsdata2.obj
 0002:00001420       ??_C@_1BA@ENFBFFEK@?$AAT?$AAu?$AAe?$AAs?$AAd?$AAa?$AAy?$AA?$AA@ 000000006106d420     LIBCMT:nlsdata2.obj
 0002:00001430       ??_C@_1O@MMNBFLIA@?$AAM?$AAo?$AAn?$AAd?$AAa?$AAy?$AA?$AA@ 000000006106d430     LIBCMT:nlsdata2.obj
 0002:00001440       ??_C@_1O@IHNHDHPB@?$AAS?$AAu?$AAn?$AAd?$AAa?$AAy?$AA?$AA@ 000000006106d440     LIBCMT:nlsdata2.obj
 0002:00001450       ??_C@_17GGIBDPIH@?$AAS?$AAa?$AAt?$AA?$AA@ 000000006106d450     LIBCMT:nlsdata2.obj
 0002:00001458       ??_C@_17HFOLPPLP@?$AAF?$AAr?$AAi?$AA?$AA@ 000000006106d458     LIBCMT:nlsdata2.obj
 0002:00001460       ??_C@_17PDPHAADD@?$AAT?$AAh?$AAu?$AA?$AA@ 000000006106d460     LIBCMT:nlsdata2.obj
 0002:00001468       ??_C@_17CJEDCEPE@?$AAW?$AAe?$AAd?$AA?$AA@ 000000006106d468     LIBCMT:nlsdata2.obj
 0002:00001470       ??_C@_17BMKGEGOJ@?$AAT?$AAu?$AAe?$AA?$AA@ 000000006106d470     LIBCMT:nlsdata2.obj
 0002:00001478       ??_C@_17KBOMKBF@?$AAM?$AAo?$AAn?$AA?$AA@ 000000006106d478     LIBCMT:nlsdata2.obj
 0002:00001480       ??_C@_17MBGCMIPB@?$AAS?$AAu?$AAn?$AA?$AA@ 000000006106d480     LIBCMT:nlsdata2.obj
 0002:00001488       ??_C@_08JCCMCCIL@HH?3mm?3ss?$AA@ 000000006106d488     LIBCMT:nlsdata2.obj
 0002:00001498       ??_C@_0BE@CKGJFCPC@dddd?0?5MMMM?5dd?0?5yyyy?$AA@ 000000006106d498     LIBCMT:nlsdata2.obj
 0002:000014b0       ??_C@_08BPBNCDIB@MM?1dd?1yy?$AA@ 000000006106d4b0     LIBCMT:nlsdata2.obj
 0002:000014bc       ??_C@_02CJNFDJBF@PM?$AA@   000000006106d4bc     LIBCMT:nlsdata2.obj
 0002:000014c0       ??_C@_02DEDBPAFC@AM?$AA@   000000006106d4c0     LIBCMT:nlsdata2.obj
 0002:000014c8       ??_C@_08EDHMEBNP@December?$AA@ 000000006106d4c8     LIBCMT:nlsdata2.obj
 0002:000014d8       ??_C@_08HCHEGEOA@November?$AA@ 000000006106d4d8     LIBCMT:nlsdata2.obj
 0002:000014e8       ??_C@_07JJNFCEND@October?$AA@ 000000006106d4e8     LIBCMT:nlsdata2.obj
 0002:000014f0       ??_C@_09BHHEALKD@September?$AA@ 000000006106d4f0     LIBCMT:nlsdata2.obj
 0002:000014fc       ??_C@_06LBBHFDDG@August?$AA@ 000000006106d4fc     LIBCMT:nlsdata2.obj
 0002:00001504       ??_C@_04MIEPOIFP@July?$AA@ 000000006106d504     LIBCMT:nlsdata2.obj
 0002:0000150c       ??_C@_04CNLMGBGM@June?$AA@ 000000006106d50c     LIBCMT:nlsdata2.obj
 0002:00001514       ??_C@_05DMJDNLEJ@April?$AA@ 000000006106d514     LIBCMT:nlsdata2.obj
 0002:0000151c       ??_C@_05HPCKOFNC@March?$AA@ 000000006106d51c     LIBCMT:nlsdata2.obj
 0002:00001528       ??_C@_08GNJGEPFN@February?$AA@ 000000006106d528     LIBCMT:nlsdata2.obj
 0002:00001538       ??_C@_07CGJPFGJA@January?$AA@ 000000006106d538     LIBCMT:nlsdata2.obj
 0002:00001540       ??_C@_03MKABNOCG@Dec?$AA@  000000006106d540     LIBCMT:nlsdata2.obj
 0002:00001544       ??_C@_03JPJOFNIA@Nov?$AA@  000000006106d544     LIBCMT:nlsdata2.obj
 0002:00001548       ??_C@_03BMAOKBAD@Oct?$AA@  000000006106d548     LIBCMT:nlsdata2.obj
 0002:0000154c       ??_C@_03GGCAPAJC@Sep?$AA@  000000006106d54c     LIBCMT:nlsdata2.obj
 0002:00001550       ??_C@_03IFJFEIGA@Aug?$AA@  000000006106d550     LIBCMT:nlsdata2.obj
 0002:00001554       ??_C@_03LBGABGKK@Jul?$AA@  000000006106d554     LIBCMT:nlsdata2.obj
 0002:00001558       ??_C@_03IDFGHECI@Jun?$AA@  000000006106d558     LIBCMT:nlsdata2.obj
 0002:0000155c       ??_C@_03CNMDKL@May?$AA@    000000006106d55c     LIBCMT:nlsdata2.obj
 0002:00001560       ??_C@_03LEOLGMJP@Apr?$AA@  000000006106d560     LIBCMT:nlsdata2.obj
 0002:00001564       ??_C@_03ODNJBKGA@Mar?$AA@  000000006106d564     LIBCMT:nlsdata2.obj
 0002:00001568       ??_C@_03HJBDCHOM@Feb?$AA@  000000006106d568     LIBCMT:nlsdata2.obj
 0002:0000156c       ??_C@_03JIHJHPIE@Jan?$AA@  000000006106d56c     LIBCMT:nlsdata2.obj
 0002:00001570       ??_C@_08INBOOONO@Saturday?$AA@ 000000006106d570     LIBCMT:nlsdata2.obj
 0002:0000157c       ??_C@_06JECMNKMI@Friday?$AA@ 000000006106d57c     LIBCMT:nlsdata2.obj
 0002:00001588       ??_C@_08HACCIKIA@Thursday?$AA@ 000000006106d588     LIBCMT:nlsdata2.obj
 0002:00001598       ??_C@_09DLIGFAKA@Wednesday?$AA@ 000000006106d598     LIBCMT:nlsdata2.obj
 0002:000015a8       ??_C@_07BAAGCFCM@Tuesday?$AA@ 000000006106d5a8     LIBCMT:nlsdata2.obj
 0002:000015b0       ??_C@_06JLEDEDGH@Monday?$AA@ 000000006106d5b0     LIBCMT:nlsdata2.obj
 0002:000015b8       ??_C@_06OOPIFAJ@Sunday?$AA@ 000000006106d5b8     LIBCMT:nlsdata2.obj
 0002:000015c0       ??_C@_03FEFJNEK@Sat?$AA@   000000006106d5c0     LIBCMT:nlsdata2.obj
 0002:000015c4       ??_C@_03IDIOELNC@Fri?$AA@  000000006106d5c4     LIBCMT:nlsdata2.obj
 0002:000015c8       ??_C@_03IOFIKPDN@Thu?$AA@  000000006106d5c8     LIBCMT:nlsdata2.obj
 0002:000015cc       ??_C@_03MHOMLAJA@Wed?$AA@  000000006106d5cc     LIBCMT:nlsdata2.obj
 0002:000015d0       ??_C@_03NAGEINEP@Tue?$AA@  000000006106d5d0     LIBCMT:nlsdata2.obj
 0002:000015d4       ??_C@_03PDAGKDH@Mon?$AA@   000000006106d5d4     LIBCMT:nlsdata2.obj
 0002:000015d8       ??_C@_03KOEHGMDN@Sun?$AA@  000000006106d5d8     LIBCMT:nlsdata2.obj
 0002:00001660       ??_C@_01NEMOKFLO@?$DN?$AA@ 000000006106d660     LIBCMT:setlocal.obj
 0002:00001662       ??_C@_00CNPNBAHC@?$AA@     000000006106d662     LIBCMT:setlocal.obj
 0002:00001664       ??_C@_05KLBDPFGC@e?$CL000?$AA@ 000000006106d664     LIBCMT:cvt.obj
 0002:00001670       ??_C@_0BK@CFCOFLF@?5Complete?5Object?5Locator?8?$AA@ 000000006106d670     LIBCMT:undname.obj
 0002:00001690       ??_C@_0BN@MECKDCOJ@?5Class?5Hierarchy?5Descriptor?8?$AA@ 000000006106d690     LIBCMT:undname.obj
 0002:000016b0       ??_C@_0BD@LGICGFMM@?5Base?5Class?5Array?8?$AA@ 000000006106d6b0     LIBCMT:undname.obj
 0002:000016c8       ??_C@_0BM@LDKODKLH@?5Base?5Class?5Descriptor?5at?5?$CI?$AA@ 000000006106d6c8     LIBCMT:undname.obj
 0002:000016e8       ??_C@_0BC@DAFEJGAK@?5Type?5Descriptor?8?$AA@ 000000006106d6e8     LIBCMT:undname.obj
 0002:00001700       ??_C@_0BM@PMGGMLDN@?$GAlocal?5static?5thread?5guard?8?$AA@ 000000006106d700     LIBCMT:undname.obj
 0002:00001720       ??_C@_0CL@FGIJHLCE@?$GAmanaged?5vector?5copy?5constructor@ 000000006106d720     LIBCMT:undname.obj
 0002:00001750       ??_C@_0CJ@GJELGAMM@?$GAvector?5vbase?5copy?5constructor?5i@ 000000006106d750     LIBCMT:undname.obj
 0002:00001780       ??_C@_0CD@CGAJBKEJ@?$GAvector?5copy?5constructor?5iterato@ 000000006106d780     LIBCMT:undname.obj
 0002:000017a8       ??_C@_0CB@PDBIFEP@?$GAdynamic?5atexit?5destructor?5for?5?8@ 000000006106d7a8     LIBCMT:undname.obj
 0002:000017d0       ??_C@_0BL@CLIPGLGB@?$GAdynamic?5initializer?5for?5?8?$AA@ 000000006106d7d0     LIBCMT:undname.obj
 0002:000017f0       ??_C@_0CM@FCBBDIGB@?$GAeh?5vector?5vbase?5copy?5constructo@ 000000006106d7f0     LIBCMT:undname.obj
 0002:00001820       ??_C@_0CG@HLDDJMAG@?$GAeh?5vector?5copy?5constructor?5iter@ 000000006106d820     LIBCMT:undname.obj
 0002:00001848       ??_C@_0CF@IMGKMJNO@?$GAmanaged?5vector?5destructor?5itera@ 000000006106d848     LIBCMT:undname.obj
 0002:00001870       ??_C@_0CG@CFDHKGGD@?$GAmanaged?5vector?5constructor?5iter@ 000000006106d870     LIBCMT:undname.obj
 0002:00001898       ??_C@_0BN@CKNJLHMB@?$GAplacement?5delete?$FL?$FN?5closure?8?$AA@ 000000006106d898     LIBCMT:undname.obj
 0002:000018b8       ??_C@_0BL@CNOONJFP@?$GAplacement?5delete?5closure?8?$AA@ 000000006106d8b8     LIBCMT:undname.obj
 0002:000018d8       ??_C@_0P@HJKNJFNN@?$GAomni?5callsig?8?$AA@ 000000006106d8d8     LIBCMT:undname.obj
 0002:000018e8       ??_C@_09LBNFPBCA@?5delete?$FL?$FN?$AA@ 000000006106d8e8     LIBCMT:undname.obj
 0002:000018f4       ??_C@_06FHBGPFGH@?5new?$FL?$FN?$AA@ 000000006106d8f4     LIBCMT:undname.obj
 0002:00001900       ??_C@_0CE@IIHCMGGL@?$GAlocal?5vftable?5constructor?5closu@ 000000006106d900     LIBCMT:undname.obj
 0002:00001928       ??_C@_0BA@KKLDJDLB@?$GAlocal?5vftable?8?$AA@ 000000006106d928     LIBCMT:undname.obj
 0002:00001938       ??_C@_05KHLCHHI@?$GARTTI?$AA@ 000000006106d938     LIBCMT:undname.obj
 0002:00001940       ??_C@_03KLGMFNMG@?$GAEH?$AA@ 000000006106d940     LIBCMT:undname.obj
 0002:00001948       ??_C@_0BA@KBCDOMBN@?$GAudt?5returning?8?$AA@ 000000006106d948     LIBCMT:undname.obj
 0002:00001958       ??_C@_0BL@LLKPOHJI@?$GAcopy?5constructor?5closure?8?$AA@ 000000006106d958     LIBCMT:undname.obj
 0002:00001978       ??_C@_0CH@OOJPLCPH@?$GAeh?5vector?5vbase?5constructor?5ite@ 000000006106d978     LIBCMT:undname.obj
 0002:000019a0       ??_C@_0CA@GCEOPDGL@?$GAeh?5vector?5destructor?5iterator?8?$AA@ 000000006106d9a0     LIBCMT:undname.obj
 0002:000019c0       ??_C@_0CB@JONCMFFK@?$GAeh?5vector?5constructor?5iterator?8@ 000000006106d9c0     LIBCMT:undname.obj
 0002:000019e8       ??_C@_0BL@NILFHHPC@?$GAvirtual?5displacement?5map?8?$AA@ 000000006106d9e8     LIBCMT:undname.obj
 0002:00001a08       ??_C@_0CE@IKBNEHA@?$GAvector?5vbase?5constructor?5iterat@ 000000006106da08     LIBCMT:undname.obj
 0002:00001a30       ??_C@_0BN@LFPFMEDL@?$GAvector?5destructor?5iterator?8?$AA@ 000000006106da30     LIBCMT:undname.obj
 0002:00001a50       ??_C@_0BO@PFGOCPJJ@?$GAvector?5constructor?5iterator?8?$AA@ 000000006106da50     LIBCMT:undname.obj
 0002:00001a70       ??_C@_0BN@IMDCHIKM@?$GAscalar?5deleting?5destructor?8?$AA@ 000000006106da70     LIBCMT:undname.obj
 0002:00001a90       ??_C@_0BO@OBMKPJIG@?$GAdefault?5constructor?5closure?8?$AA@ 000000006106da90     LIBCMT:undname.obj
 0002:00001ab0       ??_C@_0BN@DEGPLNFK@?$GAvector?5deleting?5destructor?8?$AA@ 000000006106dab0     LIBCMT:undname.obj
 0002:00001ad0       ??_C@_0BD@JDLKDPAB@?$GAvbase?5destructor?8?$AA@ 000000006106dad0     LIBCMT:undname.obj
 0002:00001ae8       ??_C@_08OBABFOLI@?$GAstring?8?$AA@ 000000006106dae8     LIBCMT:undname.obj
 0002:00001af8       ??_C@_0BF@KDPPACIK@?$GAlocal?5static?5guard?8?$AA@ 000000006106daf8     LIBCMT:undname.obj
 0002:00001b10       ??_C@_08LLFFHHDJ@?$GAtypeof?8?$AA@ 000000006106db10     LIBCMT:undname.obj
 0002:00001b20       ??_C@_07FEEIOKP@?$GAvcall?8?$AA@ 000000006106db20     LIBCMT:undname.obj
 0002:00001b28       ??_C@_09BLBHBJP@?$GAvbtable?8?$AA@ 000000006106db28     LIBCMT:undname.obj
 0002:00001b38       ??_C@_09IFPLHPGF@?$GAvftable?8?$AA@ 000000006106db38     LIBCMT:undname.obj
 0002:00001b44       ??_C@_02MHEGNOJ@?$FO?$DN?$AA@ 000000006106db44     LIBCMT:undname.obj
 0002:00001b48       ??_C@_02DHLNPPGH@?$HM?$DN?$AA@ 000000006106db48     LIBCMT:undname.obj
 0002:00001b4c       ??_C@_02FGJGFEAB@?$CG?$DN?$AA@ 000000006106db4c     LIBCMT:undname.obj
 0002:00001b50       ??_C@_03CDNPDDLA@?$DM?$DM?$DN?$AA@ 000000006106db50     LIBCMT:undname.obj
 0002:00001b54       ??_C@_03IKFCCPFF@?$DO?$DO?$DN?$AA@ 000000006106db54     LIBCMT:undname.obj
 0002:00001b58       ??_C@_02FENAOKFI@?$CF?$DN?$AA@ 000000006106db58     LIBCMT:undname.obj
 0002:00001b5c       ??_C@_02FJEHGPIO@?1?$DN?$AA@ 000000006106db5c     LIBCMT:undname.obj
 0002:00001b60       ??_C@_02FKMDLLOA@?9?$DN?$AA@ 000000006106db60     LIBCMT:undname.obj
 0002:00001b64       ??_C@_02FOEOMHFC@?$CL?$DN?$AA@ 000000006106db64     LIBCMT:undname.obj
 0002:00001b68       ??_C@_02FPIMKNGF@?$CK?$DN?$AA@ 000000006106db68     LIBCMT:undname.obj
 0002:00001b6c       ??_C@_02NONPIBCD@?$HM?$HM?$AA@ 000000006106db6c     LIBCMT:undname.obj
 0002:00001b70       ??_C@_02PPKAJPJL@?$CG?$CG?$AA@ 000000006106db70     LIBCMT:undname.obj
 0002:00001b74       ??_C@_01DNKMNLPK@?$HM?$AA@ 000000006106db74     LIBCMT:undname.obj
 0002:00001b78       ??_C@_01JKBOJNNK@?$FO?$AA@ 000000006106db78     LIBCMT:undname.obj
 0002:00001b7c       ??_C@_01PJKLJHI@?$HO?$AA@  000000006106db7c     LIBCMT:undname.obj
 0002:00001b80       ??_C@_02HCKGKOFO@?$CI?$CJ?$AA@ 000000006106db80     LIBCMT:undname.obj
 0002:00001b84       ??_C@_01IHBHIGKO@?0?$AA@   000000006106db84     LIBCMT:undname.obj
 0002:00001b88       ??_C@_02EEKDKGMJ@?$DO?$DN?$AA@ 000000006106db88     LIBCMT:undname.obj
 0002:00001b8c       ??_C@_01PPODPGHN@?$DO?$AA@ 000000006106db8c     LIBCMT:undname.obj
 0002:00001b90       ??_C@_02EHCHHCKH@?$DM?$DN?$AA@ 000000006106db90     LIBCMT:undname.obj
 0002:00001b94       ??_C@_01MNNFJEPP@?$DM?$AA@ 000000006106db94     LIBCMT:undname.obj
 0002:00001b98       ??_C@_01FGNFDNOH@?$CF?$AA@ 000000006106db98     LIBCMT:undname.obj
 0002:00001b9c       ??_C@_01KMDKNFGN@?1?$AA@   000000006106db9c     LIBCMT:undname.obj
 0002:00001ba0       ??_C@_03MNHNFDLC@?9?$DO?$CK?$AA@ 000000006106dba0     LIBCMT:undname.obj
 0002:00001ba4       ??_C@_01HNPIGOCE@?$CG?$AA@ 000000006106dba4     LIBCMT:undname.obj
 0002:00001ba8       ??_C@_01MIFGBAGJ@?$CL?$AA@ 000000006106dba8     LIBCMT:undname.obj
 0002:00001bac       ??_C@_01JOAMLHOP@?9?$AA@   000000006106dbac     LIBCMT:undname.obj
 0002:00001bb0       ??_C@_02BAABKJLB@?9?9?$AA@ 000000006106dbb0     LIBCMT:undname.obj
 0002:00001bb4       ??_C@_02ECNGHCIF@?$CL?$CL?$AA@ 000000006106dbb4     LIBCMT:undname.obj
 0002:00001bb8       ??_C@_01NBENCBCI@?$CK?$AA@ 000000006106dbb8     LIBCMT:undname.obj
 0002:00001bbc       ??_C@_02HBOOOICD@?9?$DO?$AA@ 000000006106dbbc     LIBCMT:undname.obj
 0002:00001bc0       ??_C@_08LHJFAFGD@operator?$AA@ 000000006106dbc0     LIBCMT:undname.obj
 0002:00001bcc       ??_C@_02GPECMEKF@?$FL?$FN?$AA@ 000000006106dbcc     LIBCMT:undname.obj
 0002:00001bd0       ??_C@_02FDNJECIE@?$CB?$DN?$AA@ 000000006106dbd0     LIBCMT:undname.obj
 0002:00001bd4       ??_C@_02EGOFBIJA@?$DN?$DN?$AA@ 000000006106dbd4     LIBCMT:undname.obj
 0002:00001bd8       ??_C@_01DCLJPIOD@?$CB?$AA@ 000000006106dbd8     LIBCMT:undname.obj
 0002:00001bdc       ??_C@_02FODMEDOG@?$DM?$DM?$AA@ 000000006106dbdc     LIBCMT:undname.obj
 0002:00001be0       ??_C@_02GPIOPFAK@?$DO?$DO?$AA@ 000000006106dbe0     LIBCMT:undname.obj
 0002:00001be8       ??_C@_07FPCDHGMM@?5delete?$AA@ 000000006106dbe8     LIBCMT:undname.obj
 0002:00001bf0       ??_C@_04NIHEBCM@?5new?$AA@ 000000006106dbf0     LIBCMT:undname.obj
 0002:00001bf8       ??_C@_0M@GFIIJFMG@__unaligned?$AA@ 000000006106dbf8     LIBCMT:undname.obj
 0002:00001c08       ??_C@_0L@PILCLIHE@__restrict?$AA@ 000000006106dc08     LIBCMT:undname.obj
 0002:00001c18       ??_C@_07JOMMBBKO@__ptr64?$AA@ 000000006106dc18     LIBCMT:undname.obj
 0002:00001c20       ??_C@_06GHPCKEAG@__eabi?$AA@ 000000006106dc20     LIBCMT:undname.obj
 0002:00001c28       ??_C@_09HIJEGCPM@__clrcall?$AA@ 000000006106dc28     LIBCMT:undname.obj
 0002:00001c38       ??_C@_0L@JMKHOMEK@__fastcall?$AA@ 000000006106dc38     LIBCMT:undname.obj
 0002:00001c48       ??_C@_0L@NPHFGOKO@__thiscall?$AA@ 000000006106dc48     LIBCMT:undname.obj
 0002:00001c58       ??_C@_09IFJBGAPI@__stdcall?$AA@ 000000006106dc58     LIBCMT:undname.obj
 0002:00001c68       ??_C@_08GHMPAG@__pascal?$AA@ 000000006106dc68     LIBCMT:undname.obj
 0002:00001c78       ??_C@_07KOLFKCDI@__cdecl?$AA@ 000000006106dc78     LIBCMT:undname.obj
 0002:00001c80       ??_C@_08EHJDFFNH@__based?$CI?$AA@ 000000006106dc80     LIBCMT:undname.obj
 0002:00001f98       ??_C@_0BI@DFKBFLJE@GetProcessWindowStation?$AA@ 000000006106df98     LIBCMT:crtmboxw.obj
 0002:00001fb0       ??_C@_0BK@DEKFELLI@GetUserObjectInformationW?$AA@ 000000006106dfb0     LIBCMT:crtmboxw.obj
 0002:00001fd0       ??_C@_0BD@HHGDFDBJ@GetLastActivePopup?$AA@ 000000006106dfd0     LIBCMT:crtmboxw.obj
 0002:00001fe8       ??_C@_0BA@HNOPNCHB@GetActiveWindow?$AA@ 000000006106dfe8     LIBCMT:crtmboxw.obj
 0002:00001ff8       ??_C@_0M@DLDCCGNP@MessageBoxW?$AA@ 000000006106dff8     LIBCMT:crtmboxw.obj
 0002:00002008       ??_C@_1BG@GOEBHBDC@?$AAU?$AAS?$AAE?$AAR?$AA3?$AA2?$AA?4?$AAD?$AAL?$AAL?$AA?$AA@ 000000006106e008     LIBCMT:crtmboxw.obj
 0002:00002020       __newctype                 000000006106e020     LIBCMT:ctype.obj
 0002:00002320       _wctype                    000000006106e320     LIBCMT:ctype.obj
 0002:00002530       __newclmap                 000000006106e530     LIBCMT:ctype.obj
 0002:000026b0       __newcumap                 000000006106e6b0     LIBCMT:ctype.obj
 0002:00002830       ??_C@_06IMKFLFPG@1?$CDQNAN?$AA@ 000000006106e830     LIBCMT:_x10fout_.obj
 0002:00002838       ??_C@_05DNEBIAHO@1?$CDINF?$AA@ 000000006106e838     LIBCMT:_x10fout_.obj
 0002:00002840       ??_C@_05PHHOCPM@1?$CDIND?$AA@ 000000006106e840     LIBCMT:_x10fout_.obj
 0002:00002848       ??_C@_06PGGFOGJG@1?$CDSNAN?$AA@ 000000006106e848     LIBCMT:_x10fout_.obj
 0002:00002850       ??_C@_1M@PHNCLBLI@?$AA?5?$AA?$CI?$AA?$CF?$AAu?$AA?$CJ?$AA?$AA@ 000000006106e850     main.obj
 0002:00002860       c_plugin_guid              000000006106e860     main.obj
 0002:00002870       c_metadata_dialog_guid     000000006106e870     main.obj
 0002:00002880       c_plugin_menu_guid         000000006106e880     main.obj
 0002:00002890       c_plugin_config_guid       000000006106e890     main.obj
 0002:000028a0       c_error_dialog_guid        000000006106e8a0     main.obj
 0002:000028b0       c_file_exists_dialog_guid  000000006106e8b0     main.obj
 0002:000028c0       c_file_saved_dialog_guid   000000006106e8c0     main.obj
 0002:000028d0       c_content_options_dialog_guid 000000006106e8d0     main.obj
 0002:000028e0       c_content_result_dialog_guid 000000006106e8e0     main.obj
 0002:000028f0       c_compress_files_dialog_guid 000000006106e8f0     main.obj
 0002:00002900       c_file_panel_mode_dialog_guid 000000006106e900     main.obj
 0002:00002910       c_file_version_dialog_guid 000000006106e910     main.obj
 0002:00002920       c_no_file_version_dialog_guid 000000006106e920     main.obj
 0002:00002930       c_main_menu_guid           000000006106e930     main.obj
 0002:00002940       c_defrag_errors_dialog_guid 000000006106e940     main.obj
 0002:00002950       c_compress_errors_dialog_guid 000000006106e950     main.obj
 0002:00002960       c_show_totals_dialog_guid  000000006106e960     main.obj
 0002:00002970       c_progress_dialog_guid     000000006106e970     main.obj
 0002:00002980       ??_C@_0DO@LBMPJGGJ@c?3?2projects?2far?2artemsen?2chupaka@ 000000006106e980     main.obj
 0002:000029c0       ??_C@_1II@HDDGFLKE@?$AAg?$AA_?$AAf?$AAa?$AAr?$AA?4?$AAA?$AAd?$AAv?$AAC?$AAo?$AAn?$AAt?$AAr?$AAo?$AAl?$AA?$CI?$AA?$CG?$AAc?$AA_?$AAp?$AAl?$AAu?$AAg?$AAi?$AAn?$AA_?$AAg?$AAu?$AAi?$AAd?$AA?0@ 000000006106e9c0     main.obj
 0002:00002a48       ??_C@_08KIOHJCLF@main?4cpp?$AA@ 000000006106ea48     main.obj
 0002:00002a54       ??_C@_13HOIJIPNN@?$AA?5?$AA?$AA@ 000000006106ea54     main.obj
 0002:00002a60       ??_C@_1EC@IHMLPEMH@?$AAC?$AAo?$AAn?$AAs?$AAo?$AAl?$AAe?$AA?5?$AAw?$AAi?$AAn?$AAd?$AAo?$AAw?$AA?5?$AAs?$AAi?$AAz?$AAe?$AA?5?$AAi?$AAs?$AA?5?$AAt?$AAo?$AAo?$AA?5?$AAs?$AAm?$AAa?$AAl?$AAl@ 000000006106ea60     main.obj
 0002:00002aa8       ??_C@_1M@NFKDLDLC@?$AA?$AB?$AA?$CF?$AA?4?$AA?$CK?$AAc?$AA?$AA@ 000000006106eaa8     main.obj
 0002:00002ac0       ??_C@_1EA@JJOIOIOL@?$AA?$AB?$AA?$CF?$AA?4?$AA?$CK?$AAc?$AA?$AB?$AA?$CF?$AAc?$AA?$CF?$AA?4?$AA?$CK?$AAc?$AA?5?$AA?$AB?$AA?$CF?$AA?4?$AA?$CK?$AAs?$AA?$AB?$AA?5?$AA?$CF?$AA?4?$AA?$CK?$AAc?$AA?$CF?$AAc?$AA?$AB?$AA?$CF?$AA?4?$AA?$CK?$AAc?$AA?$AA@ 000000006106eac0     main.obj
 0002:00002b00       ??_C@_1DA@BHDKANBK@?$AA?$AB?$AA?$CF?$AA?4?$AA?$CK?$AAc?$AA?$AB?$AA?$CF?$AAc?$AA?$AB?$AA?$CF?$AA?9?$AA?$CK?$AA?4?$AA?$CK?$AAS?$AA?$AB?$AA?$CF?$AAc?$AA?$AB?$AA?$CF?$AA?4?$AA?$CK?$AAc?$AA?$AA@ 000000006106eb00     main.obj
 0002:00002b30       ??_C@_1GE@DADKGJJC@?$AA?$AB?$AA?$CF?$AA?4?$AA?$CK?$AAc?$AA?$AB?$AA?$CF?$AAc?$AA?$CF?$AA?4?$AA?$CK?$AAc?$AA?$CF?$AAc?$AA?$CF?$AA?4?$AA?$CK?$AAc?$AA?$CF?$AAc?$AA?$CF?$AA?4?$AA?$CK?$AAc?$AA?$CF?$AAc?$AA?$CF?$AA?4?$AA?$CK?$AAc?$AA?$CF?$AAc@ 000000006106eb30     main.obj
 0002:00002ba0       ??_C@_1GA@FPFNFEC@?$AA?$CF?$AA?$CK?$AAS?$AA?$AB?$AA?$CF?$AAc?$AA?$AB?$AA?$CF?$AA?$CK?$AAS?$AA?$AB?$AA?$CF?$AAc?$AA?$AB?$AA?$CF?$AA?$CK?$AA?4?$AA?$CK?$AAS?$AA?$AB?$AA?$CF?$AAc?$AA?$AB?$AA?$CF?$AA?$CK?$AA?4?$AA?$CK?$AAS?$AA?$AB?$AA?$CF?$AAc?$AA?$AB@ 000000006106eba0     main.obj
 0002:00002c00       ??_C@_17KOEEIPGM@?$AA?$CG?$AA?$CF?$AAu?$AA?$AA@ 000000006106ec00     main.obj
 0002:00002c08       ??_C@_19IBAJNFPC@?$AA?5?$AA?$AB?$AA?$CK?$AA?$AB?$AA?$AA@ 000000006106ec08     main.obj
 0002:00002c18       ??_C@_19KBHCGLJC@?$AA?$AB?$AA?$CF?$AAu?$AA?$AB?$AA?$AA@ 000000006106ec18     main.obj
 0002:00002c24       ??_C@_15GPODEANG@?$AA?$CG?$AA0?$AA?$AA@ 000000006106ec24     main.obj
 0002:00002c30       ??_C@_1BC@FIMMKADP@?$AAm?$AAe?$AAt?$AAa?$AAd?$AAa?$AAt?$AAa?$AA?$AA@ 000000006106ec30     main.obj
 0002:00002c44       ??_C@_13BBDEGPLJ@?$AA?$CK?$AA?$AA@ 000000006106ec44     main.obj
 0002:00002c48       ??_C@_15PKPONJIK@?$AA?2?$AA?$CK?$AA?$AA@ 000000006106ec48     main.obj
 0002:00002c50       ??_C@_13JOFGPIOO@?$AA?4?$AA?$AA@ 000000006106ec50     main.obj
 0002:00002c54       ??_C@_15DDHGOCBH@?$AA?4?$AA?4?$AA?$AA@ 000000006106ec54     main.obj
 0002:00002c5c       ??_C@_11LOCGONAA@?$AA?$AA@ 000000006106ec5c     main.obj
 0002:00002c60       ??_C@_13FPGAJAPJ@?$AA?2?$AA?$AA@ 000000006106ec60     main.obj
 0002:00002c68       ??_C@_19MJCDBCKE@?$AA?2?$AA?2?$AA?$DP?$AA?2?$AA?$AA@ 000000006106ec68     main.obj
 0002:00002c78       ??_C@_19JHEHLFPM@?$AA?2?$AA?$DP?$AA?$DP?$AA?2?$AA?$AA@ 000000006106ec78     main.obj
 0002:00002c88       ??_C@_1CM@CLMPKAKN@?$AAN?$AAT?$AAF?$AAS?$AA?5?$AAF?$AAi?$AAl?$AAe?$AA?5?$AAI?$AAn?$AAf?$AAo?$AAr?$AAm?$AAa?$AAt?$AAi?$AAo?$AAn?$AA?$AA@ 000000006106ec88     main.obj
 0002:00002cc0       ??_C@_1FA@MFJEOOED@?$AAN?$AAT?$AAF?$AAS?$AA?5?$AAF?$AAi?$AAl?$AAe?$AA?5?$AAI?$AAn?$AAf?$AAo?$AAr?$AAm?$AAa?$AAt?$AAi?$AAo?$AAn?$AA?5?$AAf?$AAo?$AAr?$AA?5?$AAF?$AAa?$AAr?$AA?5?$AAM?$AAa@ 000000006106ecc0     main.obj
 0002:00002d10       ??_C@_1EE@DEABEGHO@?$AAO?$AAl?$AAe?$AAg?$AA?5?$AAM?$AAa?$AAk?$AAo?$AAv?$AAs?$AAk?$AAi?$AA?0?$AA?5?$AAV?$AAl?$AAa?$AAd?$AAi?$AAm?$AAi?$AAr?$AA?5?$AAS?$AAu?$AAr?$AAg?$AAu?$AAc?$AAh?$AAe@ 000000006106ed10     main.obj
 0002:00003164       ?c_horiz1@@3_WB            000000006106f164     dlgapi.obj
 0002:00003168       ?c_vert1@@3_WB             000000006106f168     dlgapi.obj
 0002:0000316c       ?c_horiz2@@3_WB            000000006106f16c     dlgapi.obj
 0002:00003170       ?c_vert2@@3_WB             000000006106f170     dlgapi.obj
 0002:00003174       ?c_top2_left2@@3_WB        000000006106f174     dlgapi.obj
 0002:00003178       ?c_top2_right2@@3_WB       000000006106f178     dlgapi.obj
 0002:0000317c       ?c_bottom2_left2@@3_WB     000000006106f17c     dlgapi.obj
 0002:00003180       ?c_bottom2_right2@@3_WB    000000006106f180     dlgapi.obj
 0002:00003184       ?c_left2_horiz1@@3_WB      000000006106f184     dlgapi.obj
 0002:00003188       ?c_right2_horiz1@@3_WB     000000006106f188     dlgapi.obj
 0002:0000318c       ?c_top1_vert1@@3_WB        000000006106f18c     dlgapi.obj
 0002:00003190       ?c_bottom1_vert1@@3_WB     000000006106f190     dlgapi.obj
 0002:00003194       ?c_bottom2_vert1@@3_WB     000000006106f194     dlgapi.obj
 0002:00003198       ?c_cross1@@3_WB            000000006106f198     dlgapi.obj
 0002:0000319c       ?c_pb_black@@3_WB          000000006106f19c     dlgapi.obj
 0002:000031a0       ?c_pb_white@@3_WB          000000006106f1a0     dlgapi.obj
 0002:000034b0       ??_C@_1BE@DFJGMLNM@?$AA?6?$AAF?$AAa?$AAi?$AAl?$AAu?$AAr?$AAe?$AA?$CB?$AA?$AA@ 000000006106f4b0     main.obj
 0002:000034c8       ??_C@_17MHDPMGNB@?$AAn?$AAf?$AAi?$AA?$AA@ 000000006106f4c8     main.obj
 0002:000034d0       ??_C@_17KIICCGLF@?$AAn?$AAf?$AAc?$AA?$AA@ 000000006106f4d0     main.obj
 0002:000034d8       ??_C@_1O@FMBBGMIN@?$AAd?$AAe?$AAf?$AAr?$AAa?$AAg?$AA?$AA@ 000000006106f4d8     main.obj
 0002:000034e8       ??_C@_17MPEFIBBI@?$AAn?$AAf?$AAv?$AA?$AA@ 000000006106f4e8     main.obj
 0002:000034f0       ??_C@_1BI@IBFPIACM@?$AAp?$AAl?$AAu?$AAg?$AAi?$AAn?$AA_?$AAm?$AAe?$AAn?$AAu?$AA?$AA@ 000000006106f4f0     main.obj
 0002:00003508       ??_C@_13LBAGMAIH@?$AA?6?$AA?$AA@ 000000006106f508     main.obj
 0002:00003518       ??_7Error@@6B@             000000006106f518     main.obj
 0002:00003528       ??_7MsgError@@6B@          000000006106f528     main.obj
 0002:00003538       ??_7SystemError@@6B@       000000006106f538     main.obj
 0002:00003540       ??_C@_0P@GHFPNOJB@bad?5allocation?$AA@ 000000006106f540     main.obj
 0002:00003550       ??_C@_15EFLNJKHH@?$AA?$CF?$AAu?$AA?$AA@ 000000006106f550     content.obj
 0002:00003558       ??_C@_1BC@BNDGIHOB@?$AAL?$AAZ?$AAO?$AA_?$AAE?$AA_?$AAO?$AAK?$AA?$AA@ 000000006106f558     content.obj
 0002:00003570       ??_C@_1BI@KGOFPKJD@?$AAL?$AAZ?$AAO?$AA_?$AAE?$AA_?$AAE?$AAR?$AAR?$AAO?$AAR?$AA?$AA@ 000000006106f570     content.obj
 0002:00003588       ??_C@_1CI@NNBLMCBJ@?$AAL?$AAZ?$AAO?$AA_?$AAE?$AA_?$AAO?$AAU?$AAT?$AA_?$AAO?$AAF?$AA_?$AAM?$AAE?$AAM?$AAO?$AAR?$AAY?$AA?$AA@ 000000006106f588     content.obj
 0002:000035b0       ??_C@_1CO@FJNAFKEE@?$AAL?$AAZ?$AAO?$AA_?$AAE?$AA_?$AAN?$AAO?$AAT?$AA_?$AAC?$AAO?$AAM?$AAP?$AAR?$AAE?$AAS?$AAS?$AAI?$AAB?$AAL?$AAE?$AA?$AA@ 000000006106f5b0     content.obj
 0002:000035e0       ??_C@_1CI@BPHMKAC@?$AAL?$AAZ?$AAO?$AA_?$AAE?$AA_?$AAI?$AAN?$AAP?$AAU?$AAT?$AA_?$AAO?$AAV?$AAE?$AAR?$AAR?$AAU?$AAN?$AA?$AA@ 000000006106f5e0     content.obj
 0002:00003608       ??_C@_1CK@FMLFALDJ@?$AAL?$AAZ?$AAO?$AA_?$AAE?$AA_?$AAO?$AAU?$AAT?$AAP?$AAU?$AAT?$AA_?$AAO?$AAV?$AAE?$AAR?$AAR?$AAU?$AAN?$AA?$AA@ 000000006106f608     content.obj
 0002:00003638       ??_C@_1DC@HGPNENFH@?$AAL?$AAZ?$AAO?$AA_?$AAE?$AA_?$AAL?$AAO?$AAO?$AAK?$AAB?$AAE?$AAH?$AAI?$AAN?$AAD?$AA_?$AAO?$AAV?$AAE?$AAR?$AAR?$AAU?$AAN?$AA?$AA@ 000000006106f638     content.obj
 0002:00003670       ??_C@_1CI@JHKKMMAJ@?$AAL?$AAZ?$AAO?$AA_?$AAE?$AA_?$AAE?$AAO?$AAF?$AA_?$AAN?$AAO?$AAT?$AA_?$AAF?$AAO?$AAU?$AAN?$AAD?$AA?$AA@ 000000006106f670     content.obj
 0002:00003698       ??_C@_1DC@IHNDMPCB@?$AAL?$AAZ?$AAO?$AA_?$AAE?$AA_?$AAI?$AAN?$AAP?$AAU?$AAT?$AA_?$AAN?$AAO?$AAT?$AA_?$AAC?$AAO?$AAN?$AAS?$AAU?$AAM?$AAE?$AAD?$AA?$AA@ 000000006106f698     content.obj
 0002:000036d0       ??_C@_1DE@IKPNFIHA@?$AAL?$AAZ?$AAO?$AA_?$AAE?$AA_?$AAN?$AAO?$AAT?$AA_?$AAY?$AAE?$AAT?$AA_?$AAI?$AAM?$AAP?$AAL?$AAE?$AAM?$AAE?$AAN?$AAT?$AAE?$AAD?$AA?$AA@ 000000006106f6d0     content.obj
 0002:00003708       ??_C@_1BI@BPABFHDJ@?$AAL?$AAZ?$AAO?$AA?5?$AAc?$AAo?$AAd?$AAe?$AA?5?$AA?$CF?$AAi?$AA?$AA@ 000000006106f708     content.obj
 0002:00003720       ??_C@_0M@IFDGENBC@content?4cpp?$AA@ 000000006106f720     content.obj
 0002:00003730       ??_C@_1BM@JDIKPIND@?$AAe?$AAd?$AA2?$AAk?$AA?3?$AA?1?$AA?1?$AA?$HM?$AAf?$AAi?$AAl?$AAe?$AA?$HM?$AA?$AA@ 000000006106f730     content.obj
 0002:00003750       ??_C@_1BA@BHEJJMAK@?$AA?4?$AAh?$AAa?$AAs?$AAh?$AAe?$AAs?$AA?$AA@ 000000006106f750     content.obj
 0002:00003760       ??_C@_01EEMJAFIK@?6?$AA@   000000006106f760     content.obj
 0002:00003768       ??_C@_07JCNDFM@CRC32?3?5?$AA@ 000000006106f768     content.obj
 0002:00003770       ??_C@_05CLAFPFBA@MD5?3?5?$AA@ 000000006106f770     content.obj
 0002:00003778       ??_C@_06CNJPBHD@SHA1?3?5?$AA@ 000000006106f778     content.obj
 0002:00003780       ??_C@_08DGGEDLO@SHA256?3?5?$AA@ 000000006106f780     content.obj
 0002:00003790       ??_C@_0L@NNMDNLCN@SHA3?9256?3?5?$AA@ 000000006106f790     content.obj
 0002:0000379c       ??_C@_06MLOFECBL@ED2K?3?5?$AA@ 000000006106f79c     content.obj
 0002:000037a8       ??_C@_07PFDABHGL@CRC16?3?5?$AA@ 000000006106f7a8     content.obj
 0002:000037b0       ??_C@_17PDANGBN@?$AA?$CF?$AAL?$AAu?$AA?$AA@ 000000006106f7b0     content.obj
 0002:000037b8       ??_C@_13EJFHHPOP@?$AA?$CF?$AA?$AA@ 000000006106f7b8     content.obj
 0002:000037c0       ??_C@_1BC@JMFGLOEF@?$AA?$CF?$AA?4?$AA?$CK?$AAc?$AA?$CF?$AA?4?$AA?$CK?$AAc?$AA?$AA@ 000000006106f7c0     content.obj
 0002:000037d8       ??_C@_19MGMFGCNC@?$AA?5?$AA?$CF?$AAL?$AAu?$AA?$AA@ 000000006106f7d8     content.obj
 0002:000037e8       ??_C@_17GICLIGOL@?$AA?5?$AA?$CF?$AAu?$AA?$AA@ 000000006106f7e8     content.obj
 0002:000037f0       ??_C@_13GGAHEHIG@?$AA?$AB?$AA?$AA@ 000000006106f7f0     content.obj
 0002:00003800       ??_7IHashCalc@@6B@         000000006106f800     content.obj
 0002:00003828       ??_7hash_crc32@@6B@        000000006106f828     content.obj
 0002:00003850       ??_7hash_crc16@@6B@        000000006106f850     content.obj
 0002:00003878       ??_7hash_md5@@6B@          000000006106f878     content.obj
 0002:000038a0       ??_7hash_sha1@@6B@         000000006106f8a0     content.obj
 0002:000038c8       ??_7hash_sha256@@6B@       000000006106f8c8     content.obj
 0002:000038f0       ??_7hash_sha3_256@@6B@     000000006106f8f0     content.obj
 0002:00003918       ??_7LzoError@@6B@          000000006106f918     content.obj
 0002:00003928       ??_7hash_compress@@6B@     000000006106f928     content.obj
 0002:00003950       ??_7hash_ed2k@@6B@         000000006106f950     content.obj
 0002:00003978       ??_7ProcessFileProgress@@6B@ 000000006106f978     content.obj
 0002:00003998       ??_7CompressFilesProgress@@6B@ 000000006106f998     content.obj
 0002:000039b8       ??_7CompressOneFileProgress@@6B@ 000000006106f9b8     content.obj
 0002:000039d8       ??_7EstimationProgress@@6B@ 000000006106f9d8     content.obj
 0002:000039f0       ??_C@_0P@FHLJJKIE@file_panel?4cpp?$AA@ 000000006106f9f0     file_panel.obj
 0002:00003a00       ??_C@_15MEIMECPO@?$AA?3?$AA$?$AA?$AA@ 000000006106fa00     file_panel.obj
 0002:00003a08       ??_C@_13EBCNDICG@?$AA?3?$AA?$AA@ 000000006106fa08     file_panel.obj
 0002:00003a10       ??_C@_1BA@LKKFCKCJ@?$AAN?$AA?0?$AAC?$AA0?$AA?0?$AAC?$AA1?$AA?$AA@ 000000006106fa10     file_panel.obj
 0002:00003a20       ??_C@_1CA@DHMNCPDM@?$AAf?$AAi?$AAl?$AAe?$AA_?$AAp?$AAa?$AAn?$AAe?$AAl?$AA_?$AAm?$AAo?$AAd?$AAe?$AA?$AA@ 000000006106fa20     file_panel.obj
 0002:00003a40       ??_C@_17BJKAHJBO@?$AAD?$AAS?$AAZ?$AA?$AA@ 000000006106fa40     file_panel.obj
 0002:00003a48       ??_C@_17KDHEEBLC@?$AAR?$AAS?$AAZ?$AA?$AA@ 000000006106fa48     file_panel.obj
 0002:00003a50       ??_C@_17DCKKCCIE@?$AAF?$AAR?$AAG?$AA?$AA@ 000000006106fa50     file_panel.obj
 0002:00003a58       ??_C@_17LPBFBOLC@?$AAS?$AAT?$AAM?$AA?$AA@ 000000006106fa58     file_panel.obj
 0002:00003a60       ??_C@_17JNKIEDBE@?$AAL?$AAN?$AAK?$AA?$AA@ 000000006106fa60     file_panel.obj
 0002:00003a68       ??_C@_17LFCLIGCO@?$AAM?$AAF?$AAT?$AA?$AA@ 000000006106fa68     file_panel.obj
 0002:00003a70       ??_C@_17CHDOEPEI@?$AAV?$AAS?$AAZ?$AA?$AA@ 000000006106fa70     file_panel.obj
 0002:00003a78       ??_C@_13FHBKNHDA@?$AAC?$AA?$AA@ 000000006106fa78     file_panel.obj
 0002:00003a80       ??_C@_0BB@MOGOBHAF@list?$DMT?$DO?5too?5long?$AA@ 000000006106fa80     file_panel.obj
 0002:00003aa0       ??_7FileListProgress@@6B@  000000006106faa0     file_panel.obj
 0002:00003ab8       ??_C@_1CM@CFJGLGPA@?$AAL?$AAO?$AAG?$AAG?$AAE?$AAD?$AA_?$AAU?$AAT?$AAI?$AAL?$AAI?$AAT?$AAY?$AA_?$AAS?$AAT?$AAR?$AAE?$AAA?$AAM?$AA?$AA@ 000000006106fab8     ntfs_file.obj
 0002:00003ae8       ??_C@_1BK@HLEKPGPE@?$AAP?$AAR?$AAO?$AAP?$AAE?$AAR?$AAT?$AAY?$AA_?$AAS?$AAE?$AAT?$AA?$AA@ 000000006106fae8     ntfs_file.obj
 0002:00003b04       ??_C@_15DCAAPKNL@?$AAE?$AAA?$AA?$AA@ 000000006106fb04     ntfs_file.obj
 0002:00003b10       ??_C@_1BO@DNMEGEGG@?$AAE?$AAA?$AA_?$AAI?$AAN?$AAF?$AAO?$AAR?$AAM?$AAA?$AAT?$AAI?$AAO?$AAN?$AA?$AA@ 000000006106fb10     ntfs_file.obj
 0002:00003b30       ??_C@_1BM@NHIDIFHF@?$AAR?$AAE?$AAP?$AAA?$AAR?$AAS?$AAE?$AA_?$AAP?$AAO?$AAI?$AAN?$AAT?$AA?$AA@ 000000006106fb30     ntfs_file.obj
 0002:00003b50       ??_C@_1O@CODHBPGA@?$AAB?$AAI?$AAT?$AAM?$AAA?$AAP?$AA?$AA@ 000000006106fb50     ntfs_file.obj
 0002:00003b60       ??_C@_1CC@IGGLBLBB@?$AAI?$AAN?$AAD?$AAE?$AAX?$AA_?$AAA?$AAL?$AAL?$AAO?$AAC?$AAA?$AAT?$AAI?$AAO?$AAN?$AA?$AA@ 000000006106fb60     ntfs_file.obj
 0002:00003b88       ??_C@_1BG@FHHBPOEN@?$AAI?$AAN?$AAD?$AAE?$AAX?$AA_?$AAR?$AAO?$AAO?$AAT?$AA?$AA@ 000000006106fb88     ntfs_file.obj
 0002:00003ba0       ??_C@_19NKKEIHJJ@?$AAD?$AAA?$AAT?$AAA?$AA?$AA@ 000000006106fba0     ntfs_file.obj
 0002:00003bb0       ??_C@_1CG@CILGPBM@?$AAV?$AAO?$AAL?$AAU?$AAM?$AAE?$AA_?$AAI?$AAN?$AAF?$AAO?$AAR?$AAM?$AAA?$AAT?$AAI?$AAO?$AAN?$AA?$AA@ 000000006106fbb0     ntfs_file.obj
 0002:00003bd8       ??_C@_1BI@ODPDKFHN@?$AAV?$AAO?$AAL?$AAU?$AAM?$AAE?$AA_?$AAN?$AAA?$AAM?$AAE?$AA?$AA@ 000000006106fbd8     ntfs_file.obj
 0002:00003bf0       ??_C@_1CI@KFCNFMPF@?$AAS?$AAE?$AAC?$AAU?$AAR?$AAI?$AAT?$AAY?$AA_?$AAD?$AAE?$AAS?$AAC?$AAR?$AAI?$AAP?$AAT?$AAO?$AAR?$AA?$AA@ 000000006106fbf0     ntfs_file.obj
 0002:00003c18       ??_C@_1BE@FOOGEMHK@?$AAO?$AAB?$AAJ?$AAE?$AAC?$AAT?$AA_?$AAI?$AAD?$AA?$AA@ 000000006106fc18     ntfs_file.obj
 0002:00003c30       ??_C@_1BE@HLJOAMDC@?$AAF?$AAI?$AAL?$AAE?$AA_?$AAN?$AAA?$AAM?$AAE?$AA?$AA@ 000000006106fc30     ntfs_file.obj
 0002:00003c48       ??_C@_1BO@GPEGKLKJ@?$AAA?$AAT?$AAT?$AAR?$AAI?$AAB?$AAU?$AAT?$AAE?$AA_?$AAL?$AAI?$AAS?$AAT?$AA?$AA@ 000000006106fc48     ntfs_file.obj
 0002:00003c68       ??_C@_1CK@BPGIPGK@?$AAS?$AAT?$AAA?$AAN?$AAD?$AAA?$AAR?$AAD?$AA_?$AAI?$AAN?$AAF?$AAO?$AAR?$AAM?$AAA?$AAT?$AAI?$AAO?$AAN?$AA?$AA@ 000000006106fc68     ntfs_file.obj
 0002:00003c98       ??_C@_1BK@PLINNJCG@?$AAU?$AAS?$AAE?$AAR?$AA_?$AAD?$AAE?$AAF?$AAI?$AAN?$AAE?$AAD?$AA?$AA@ 000000006106fc98     ntfs_file.obj
 0002:00003cc0       ??_C@_1EI@JKNMPKDL@?$AAN?$AAT?$AAF?$AAS?$AA?5?$AAd?$AAa?$AAt?$AAa?$AA?5?$AAs?$AAt?$AAr?$AAu?$AAc?$AAt?$AAu?$AAr?$AAe?$AA?5?$AAp?$AAa?$AAr?$AAs?$AAi?$AAn?$AAg?$AA?5?$AAp?$AAr?$AAo?$AAb@ 000000006106fcc0     ntfs_file.obj
 0002:00003d08       ??_C@_0O@CDKBEJLE@ntfs_file?4cpp?$AA@ 000000006106fd08     ntfs_file.obj
 0002:00003d18       ??_C@_1DE@LLKABIKA@?$AAN?$AA?0?$AAD?$AAS?$AAZ?$AA?0?$AAR?$AAS?$AAZ?$AA?0?$AAF?$AAR?$AAG?$AA?0?$AAS?$AAT?$AAM?$AA?0?$AAL?$AAN?$AAK?$AA?0?$AAM?$AAF?$AAT?$AA?$AA@ 000000006106fd18     options.obj
 0002:00003d50       ??_C@_1BM@OGKKEMPH@?$AA0?$AA?0?$AA7?$AA?0?$AA7?$AA?0?$AA5?$AA?0?$AA3?$AA?0?$AA3?$AA?0?$AA3?$AA?$AA@ 000000006106fd50     options.obj
 0002:00003d70       ??_C@_1BC@PEFNNPMH@?$AAN?$AAR?$AA?0?$AAA?$AA?0?$AAD?$AA?0?$AAT?$AA?$AA@ 000000006106fd70     options.obj
 0002:00003d88       ??_C@_1BC@CJAFGCCG@?$AA0?$AA?0?$AA1?$AA0?$AA?0?$AA0?$AA?0?$AA0?$AA?$AA@ 000000006106fd88     options.obj
 0002:00003da0       ??_C@_1O@JJHLNNN@?$AA?$CF?$AAT?$AAE?$AAM?$AAP?$AA?$CF?$AA?$AA@ 000000006106fda0     options.obj
 0002:00003db0       ??_C@_1DC@OHOOGJEF@?$AAS?$AAt?$AAa?$AAn?$AAd?$AAa?$AAr?$AAd?$AAI?$AAn?$AAf?$AAo?$AAr?$AAm?$AAa?$AAt?$AAi?$AAo?$AAn?$AAU?$AAn?$AAi?$AAt?$AAs?$AA?$AA@ 000000006106fdb0     options.obj
 0002:00003de8       ??_C@_1DE@MADDDJKC@?$AAC?$AAo?$AAn?$AAt?$AAe?$AAn?$AAt?$AAO?$AAp?$AAt?$AAi?$AAo?$AAn?$AAs?$AAC?$AAo?$AAm?$AAp?$AAr?$AAe?$AAs?$AAs?$AAi?$AAo?$AAn?$AA?$AA@ 000000006106fde8     options.obj
 0002:00003e20       ??_C@_1CI@FOOMDHHD@?$AAC?$AAo?$AAn?$AAt?$AAe?$AAn?$AAt?$AAO?$AAp?$AAt?$AAi?$AAo?$AAn?$AAs?$AAC?$AAR?$AAC?$AA3?$AA2?$AA?$AA@ 000000006106fe20     options.obj
 0002:00003e48       ??_C@_1CE@CJMNAHHJ@?$AAC?$AAo?$AAn?$AAt?$AAe?$AAn?$AAt?$AAO?$AAp?$AAt?$AAi?$AAo?$AAn?$AAs?$AAM?$AAD?$AA5?$AA?$AA@ 000000006106fe48     options.obj
 0002:00003e70       ??_C@_1CG@NGHFAKNG@?$AAC?$AAo?$AAn?$AAt?$AAe?$AAn?$AAt?$AAO?$AAp?$AAt?$AAi?$AAo?$AAn?$AAs?$AAS?$AAH?$AAA?$AA1?$AA?$AA@ 000000006106fe70     options.obj
 0002:00003e98       ??_C@_1CK@DMCIKPEB@?$AAC?$AAo?$AAn?$AAt?$AAe?$AAn?$AAt?$AAO?$AAp?$AAt?$AAi?$AAo?$AAn?$AAs?$AAS?$AAH?$AAA?$AA2?$AA5?$AA6?$AA?$AA@ 000000006106fe98     options.obj
 0002:00003ec8       ??_C@_1CO@CJNPEFMC@?$AAC?$AAo?$AAn?$AAt?$AAe?$AAn?$AAt?$AAO?$AAp?$AAt?$AAi?$AAo?$AAn?$AAs?$AAS?$AAH?$AAA?$AA3?$AA?9?$AA2?$AA5?$AA6?$AA?$AA@ 000000006106fec8     options.obj
 0002:00003ef8       ??_C@_1CG@CCFONBKB@?$AAC?$AAo?$AAn?$AAt?$AAe?$AAn?$AAt?$AAO?$AAp?$AAt?$AAi?$AAo?$AAn?$AAs?$AAE?$AAD?$AA2?$AAK?$AA?$AA@ 000000006106fef8     options.obj
 0002:00003f20       ??_C@_1CI@JMEGABCP@?$AAC?$AAo?$AAn?$AAt?$AAe?$AAn?$AAt?$AAO?$AAp?$AAt?$AAi?$AAo?$AAn?$AAs?$AAC?$AAR?$AAC?$AA1?$AA6?$AA?$AA@ 000000006106ff20     options.obj
 0002:00003f48       ??_C@_1CE@OMKAINFD@?$AAF?$AAi?$AAl?$AAe?$AAP?$AAa?$AAn?$AAe?$AAl?$AAC?$AAo?$AAl?$AAT?$AAy?$AAp?$AAe?$AAs?$AA?$AA@ 000000006106ff48     options.obj
 0002:00003f70       ??_C@_1CG@PMCJDIIA@?$AAF?$AAi?$AAl?$AAe?$AAP?$AAa?$AAn?$AAe?$AAl?$AAC?$AAo?$AAl?$AAW?$AAi?$AAd?$AAt?$AAh?$AAs?$AA?$AA@ 000000006106ff70     options.obj
 0002:00003f98       ??_C@_1DA@MGOAKJNP@?$AAF?$AAi?$AAl?$AAe?$AAP?$AAa?$AAn?$AAe?$AAl?$AAS?$AAt?$AAa?$AAt?$AAu?$AAs?$AAC?$AAo?$AAl?$AAT?$AAy?$AAp?$AAe?$AAs?$AA?$AA@ 000000006106ff98     options.obj
 0002:00003fc8       ??_C@_1DC@FHBMCBFG@?$AAF?$AAi?$AAl?$AAe?$AAP?$AAa?$AAn?$AAe?$AAl?$AAS?$AAt?$AAa?$AAt?$AAu?$AAs?$AAC?$AAo?$AAl?$AAW?$AAi?$AAd?$AAt?$AAh?$AAs?$AA?$AA@ 000000006106ffc8     options.obj
 0002:00004000       ??_C@_1BM@GOJNNPPE@?$AAF?$AAi?$AAl?$AAe?$AAP?$AAa?$AAn?$AAe?$AAl?$AAW?$AAi?$AAd?$AAe?$AA?$AA@ 0000000061070000     options.obj
 0002:00004020       ??_C@_1CE@NLGLJHM@?$AAF?$AAi?$AAl?$AAe?$AAP?$AAa?$AAn?$AAe?$AAl?$AAS?$AAo?$AAr?$AAt?$AAM?$AAo?$AAd?$AAe?$AA?$AA@ 0000000061070020     options.obj
 0002:00004048       ??_C@_1CK@KOFNLGFD@?$AAF?$AAi?$AAl?$AAe?$AAP?$AAa?$AAn?$AAe?$AAl?$AAR?$AAe?$AAv?$AAe?$AAr?$AAs?$AAe?$AAS?$AAo?$AAr?$AAt?$AA?$AA@ 0000000061070048     options.obj
 0002:00004078       ??_C@_1CK@EKMGFCIE@?$AAF?$AAi?$AAl?$AAe?$AAP?$AAa?$AAn?$AAe?$AAl?$AAN?$AAu?$AAm?$AAe?$AAr?$AAi?$AAc?$AAS?$AAo?$AAr?$AAt?$AA?$AA@ 0000000061070078     options.obj
 0002:000040a8       ??_C@_1CO@NBMIDPAC@?$AAF?$AAi?$AAl?$AAe?$AAP?$AAa?$AAn?$AAe?$AAl?$AAS?$AAo?$AAr?$AAt?$AAD?$AAi?$AAr?$AAs?$AAF?$AAi?$AAr?$AAs?$AAt?$AA?$AA@ 00000000610700a8     options.obj
 0002:000040d8       ??_C@_1BO@CGEJFHLH@?$AAC?$AAu?$AAs?$AAt?$AAo?$AAm?$AAS?$AAo?$AAr?$AAt?$AAM?$AAo?$AAd?$AAe?$AA?$AA@ 00000000610700d8     options.obj
 0002:000040f8       ??_C@_1CK@FFJFFPBL@?$AAF?$AAi?$AAl?$AAe?$AAP?$AAa?$AAn?$AAe?$AAl?$AAS?$AAh?$AAo?$AAw?$AAS?$AAt?$AAr?$AAe?$AAa?$AAm?$AAs?$AA?$AA@ 00000000610700f8     options.obj
 0002:00004128       ??_C@_1DA@LFDJHPAL@?$AAF?$AAi?$AAl?$AAe?$AAP?$AAa?$AAn?$AAe?$AAl?$AAS?$AAh?$AAo?$AAw?$AAM?$AAa?$AAi?$AAn?$AAS?$AAt?$AAr?$AAe?$AAa?$AAm?$AA?$AA@ 0000000061070128     options.obj
 0002:00004158       ??_C@_1DC@IHLKHKAI@?$AAF?$AAi?$AAl?$AAe?$AAP?$AAa?$AAn?$AAe?$AAl?$AAU?$AAs?$AAe?$AAH?$AAi?$AAg?$AAh?$AAl?$AAi?$AAg?$AAh?$AAt?$AAi?$AAn?$AAg?$AA?$AA@ 0000000061070158     options.obj
 0002:00004190       ??_C@_1CO@KIBNCJEE@?$AAF?$AAi?$AAl?$AAe?$AAP?$AAa?$AAn?$AAe?$AAl?$AAU?$AAs?$AAe?$AAU?$AAs?$AAn?$AAJ?$AAo?$AAu?$AAr?$AAn?$AAa?$AAl?$AA?$AA@ 0000000061070190     options.obj
 0002:000041c0       ??_C@_1DO@ELLKKFMA@?$AAF?$AAi?$AAl?$AAe?$AAP?$AAa?$AAn?$AAe?$AAl?$AAU?$AAs?$AAe?$AAE?$AAx?$AAi?$AAs?$AAt?$AAi?$AAn?$AAg?$AAU?$AAs?$AAn?$AAJ?$AAo?$AAu?$AAr?$AAn?$AAa?$AAl?$AA?$AA@ 00000000610701c0     options.obj
 0002:00004200       ??_C@_1DE@MIKJEHGJ@?$AAF?$AAi?$AAl?$AAe?$AAP?$AAa?$AAn?$AAe?$AAl?$AAD?$AAe?$AAl?$AAe?$AAt?$AAe?$AAU?$AAs?$AAn?$AAJ?$AAo?$AAu?$AAr?$AAn?$AAa?$AAl?$AA?$AA@ 0000000061070200     options.obj
 0002:00004238       ??_C@_1DK@JOFFIPBG@?$AAF?$AAi?$AAl?$AAe?$AAP?$AAa?$AAn?$AAe?$AAl?$AAD?$AAe?$AAl?$AAe?$AAt?$AAe?$AAO?$AAw?$AAn?$AAU?$AAs?$AAn?$AAJ?$AAo?$AAu?$AAr?$AAn?$AAa?$AAl?$AA?$AA@ 0000000061070238     options.obj
 0002:00004278       ??_C@_1CE@FEANJHOC@?$AAF?$AAi?$AAl?$AAe?$AAP?$AAa?$AAn?$AAe?$AAl?$AAU?$AAs?$AAe?$AAC?$AAa?$AAc?$AAh?$AAe?$AA?$AA@ 0000000061070278     options.obj
 0002:000042a0       ??_C@_1DA@HIOJFPFN@?$AAF?$AAi?$AAl?$AAe?$AAP?$AAa?$AAn?$AAe?$AAl?$AAD?$AAe?$AAf?$AAa?$AAu?$AAl?$AAt?$AAM?$AAf?$AAt?$AAM?$AAo?$AAd?$AAe?$AA?$AA@ 00000000610702a0     options.obj
 0002:000042d0       ??_C@_1DC@HKEBMOOK@?$AAF?$AAi?$AAl?$AAe?$AAP?$AAa?$AAn?$AAe?$AAl?$AAB?$AAa?$AAc?$AAk?$AAw?$AAa?$AAr?$AAd?$AAM?$AAf?$AAt?$AAS?$AAc?$AAa?$AAn?$AA?$AA@ 00000000610702d0     options.obj
 0002:00004308       ??_C@_1CE@HIPOCPHE@?$AAF?$AAi?$AAl?$AAe?$AAP?$AAa?$AAn?$AAe?$AAl?$AAC?$AAa?$AAc?$AAh?$AAe?$AAD?$AAi?$AAr?$AA?$AA@ 0000000061070308     options.obj
 0002:00004330       ??_C@_1DC@KJFFBINB@?$AAF?$AAi?$AAl?$AAe?$AAP?$AAa?$AAn?$AAe?$AAl?$AAF?$AAl?$AAa?$AAt?$AAM?$AAo?$AAd?$AAe?$AAA?$AAu?$AAt?$AAo?$AAO?$AAf?$AAf?$AA?$AA@ 0000000061070330     options.obj
 0002:00004368       ??_C@_1DC@LMEJNNIL@?$AAC?$AAo?$AAm?$AAp?$AAr?$AAe?$AAs?$AAs?$AAF?$AAi?$AAl?$AAe?$AAs?$AAM?$AAi?$AAn?$AAF?$AAi?$AAl?$AAe?$AAS?$AAi?$AAz?$AAe?$AA?$AA@ 0000000061070368     options.obj
 0002:000043a0       ??_C@_1EC@NEKACCMG@?$AAC?$AAo?$AAm?$AAp?$AAr?$AAe?$AAs?$AAs?$AAF?$AAi?$AAl?$AAe?$AAs?$AAM?$AAa?$AAx?$AAC?$AAo?$AAm?$AAp?$AAr?$AAe?$AAs?$AAs?$AAi?$AAo?$AAn?$AAR?$AAa?$AAt?$AAi?$AAo@ 00000000610703a0     options.obj
 0002:000043e8       ??_C@_1DA@CFIJLJDB@?$AAC?$AAo?$AAm?$AAp?$AAr?$AAe?$AAs?$AAs?$AAF?$AAi?$AAl?$AAe?$AAs?$AAM?$AAi?$AAn?$AAF?$AAi?$AAl?$AAe?$AAA?$AAg?$AAe?$AA?$AA@ 00000000610703e8     options.obj
 0002:00004420       ??_C@_1FA@IDNHFGID@?$AAC?$AAo?$AAm?$AAp?$AAr?$AAe?$AAs?$AAs?$AAF?$AAi?$AAl?$AAe?$AAs?$AAD?$AAe?$AAf?$AAr?$AAa?$AAg?$AAm?$AAe?$AAn?$AAt?$AAA?$AAf?$AAt?$AAe?$AAr?$AAC?$AAo?$AAm?$AAp@ 0000000061070420     options.obj
 0002:00004470       ??_C@_09IDPCHBMM@utils?4cpp?$AA@ 0000000061070470     utils.obj
 0002:00004480       ??_C@_1CE@NFHCALDA@?$AA?$CF?$AA0?$AA2?$AAL?$AAu?$AA?3?$AA?$CF?$AA0?$AA2?$AAL?$AAu?$AA?3?$AA?$CF?$AA0?$AA2?$AAL?$AAu?$AA?$AA@ 0000000061070480     utils.obj
 0002:000044a8       ??_C@_1BI@HFBLABMH@?$AA?$CF?$AAL?$AAu?$AA?5?$AAh?$AA?5?$AA?$CF?$AAL?$AAu?$AA?5?$AAm?$AA?$AA@ 00000000610704a8     utils.obj
 0002:000044c0       ??_C@_1M@JNLADHHI@?$AA?$CF?$AAL?$AAu?$AA?5?$AAh?$AA?$AA@ 00000000610704c0     utils.obj
 0002:000044d0       ??_C@_1BI@LPIEPMHN@?$AA?$CF?$AAL?$AAu?$AA?5?$AAm?$AA?5?$AA?$CF?$AAL?$AAu?$AA?5?$AAs?$AA?$AA@ 00000000610704d0     utils.obj
 0002:000044e8       ??_C@_1M@KKGOMHEK@?$AA?$CF?$AAL?$AAu?$AA?5?$AAm?$AA?$AA@ 00000000610704e8     utils.obj
 0002:000044f8       ??_C@_1BI@HOFDPDDB@?$AA?$CF?$AAL?$AAu?$AA?4?$AA?$CF?$AA0?$AA3?$AAL?$AAu?$AA?5?$AAs?$AA?$AA@ 00000000610704f8     utils.obj
 0002:00004510       ??_C@_1M@BKKIOHOG@?$AA?$CF?$AAL?$AAu?$AA?5?$AAs?$AA?$AA@ 0000000061070510     utils.obj
 0002:00004520       ??_C@_1O@HGBMFFIA@?$AA?$CF?$AAL?$AAu?$AA?5?$AAm?$AAs?$AA?$AA@ 0000000061070520     utils.obj
 0002:00004530       ??_C@_17MHFAGPLA@?$AA?$CF?$AAB?$AAx?$AA?$AA@ 0000000061070530     utils.obj
 0002:00004538       ??_C@_1BC@NAEGMMKI@?$AA?2?$AA?2?$AA?$DP?$AA?2?$AAU?$AAN?$AAC?$AA?2?$AA?$AA@ 0000000061070538     utils.obj
 0002:00004550       ??_C@_19BKJMDJK@?$AA?2?$AA?2?$AA?4?$AA?2?$AA?$AA@ 0000000061070550     utils.obj
 0002:0000455c       ??_C@_15LEKKCGMK@?$AA?2?$AA?2?$AA?$AA@ 000000006107055c     utils.obj
 0002:00004568       ??_C@_1BA@BFGBFLGI@?$AA?2?$AA?2?$AA?$DP?$AA?2?$AAU?$AAN?$AAC?$AA?$AA@ 0000000061070568     utils.obj
 0002:00004578       ??_C@_1BG@IACMLO@?$AA?$CF?$AA?4?$AA?$CK?$AAc?$AA?$CF?$AAS?$AA?$CF?$AA?4?$AA?$CK?$AAc?$AA?$AA@ 0000000061070578     utils.obj
 0002:00004590       ??_C@_17LGKOMLJ@?$AA?4?$AA?4?$AA?4?$AA?$AA@ 0000000061070590     utils.obj
 0002:00004598       ??_C@_17ECMKOHFH@?$AAl?$AAo?$AAg?$AA?$AA@ 0000000061070598     utils.obj
 0002:000045a0       ??_C@_1BE@BOGEMOAJ@?$AA?8?$AA?$CF?$AAS?$AA?8?$AA?3?$AA?5?$AA?$CF?$AAS?$AA?6?$AA?$AA@ 00000000610705a0     utils.obj
 0002:000045c0       ??_C@_1IM@KIKMCLFL@?$AA?$CI?$AAs?$AAi?$AAz?$AAe?$AA_?$AAt?$AA?$CJ?$AAs?$AAi?$AAz?$AAe?$AA?5?$AA?$DO?$AA?$DN?$AA?5?$AAs?$AAi?$AAz?$AAe?$AAo?$AAf?$AA?$CI?$AAF?$AAa?$AAr?$AAP?$AAa?$AAn?$AAe?$AAl?$AAD@ 00000000610705c0     utils.obj
 0002:00004650       ??_C@_1DI@ECGCCBAF@?$AA?$CF?$AAS?$AA?3?$AA?$CF?$AAu?$AA?5?$AAv?$AA?4?$AA?$CF?$AAu?$AA?4?$AA?$CF?$AAu?$AA?4?$AA?$CF?$AAu?$AA?4?$AA?$CF?$AAu?$AA?5?$AAu?$AAn?$AAi?$AA?5?$AAx?$AA6?$AA4?$AA?$AA@ 0000000061070650     utils.obj
 0002:00004688       ??_C@_1CM@BEEGPJIK@?$AAv?$AA?4?$AA?$CF?$AAu?$AA?4?$AA?$CF?$AAu?$AA?4?$AA?$CF?$AAu?$AA?4?$AA?$CF?$AAu?$AA?5?$AAu?$AAn?$AAi?$AA?5?$AAx?$AA6?$AA4?$AA?$AA@ 0000000061070688     utils.obj
 0002:000046b8       ??_C@_0BD@GBODGBFL@HeapSetInformation?$AA@ 00000000610706b8     utils.obj
 0002:000046d0       ??_C@_08PNLNEKOB@kernel32?$AA@ 00000000610706d0     utils.obj
 0002:000046e8       ??_7ProgressMonitor@@6B@   00000000610706e8     utils.obj
 0002:00004700       ??_C@_0BI@CFPLBAOH@invalid?5string?5position?$AA@ 0000000061070700     utils.obj
 0002:00004718       ??_C@_0BA@JFNIOLAK@string?5too?5long?$AA@ 0000000061070718     utils.obj
 0002:00004728       ??_C@_0L@GCBAAPPI@volume?4cpp?$AA@ 0000000061070728     volume.obj
 0002:00004740       ??_C@_1EC@OHCGENEL@?$AAN?$AAe?$AAt?$AAw?$AAo?$AAr?$AAk?$AA?5?$AAs?$AAh?$AAa?$AAr?$AAe?$AAs?$AA?5?$AAa?$AAr?$AAe?$AA?5?$AAn?$AAo?$AAt?$AA?5?$AAs?$AAu?$AAp?$AAp?$AAo?$AAr?$AAt?$AAe?$AAd@ 0000000061070740     volume.obj
 0002:00004788       ??_C@_19ENNDBEJL@?$AAN?$AAT?$AAF?$AAS?$AA?$AA@ 0000000061070788     volume.obj
 0002:000047a0       ??_C@_1EA@HKBJMILJ@?$AAO?$AAn?$AAl?$AAy?$AA?5?$AAN?$AAT?$AAF?$AAS?$AA?5?$AAv?$AAo?$AAl?$AAu?$AAm?$AAe?$AAs?$AA?5?$AAa?$AAr?$AAe?$AA?5?$AAs?$AAu?$AAp?$AAp?$AAo?$AAr?$AAt?$AAe?$AAd?$AA?$AA@ 00000000610707a0     volume.obj
 0002:000047e0       ??_C@_1CO@DPABIGN@?$AAU?$AAn?$AAe?$AAx?$AAp?$AAe?$AAc?$AAt?$AAe?$AAd?$AA?5?$AAv?$AAo?$AAl?$AAu?$AAm?$AAe?$AA?5?$AAn?$AAa?$AAm?$AAe?$AA?$AA@ 00000000610707e0     volume.obj
 0002:00004810       ??_C@_0P@HOKHBJKI@defragment?4cpp?$AA@ 0000000061070810     defragment.obj
 0002:00004828       ??_7DefragProgress@@6BProgressMonitor@@@ 0000000061070828     defragment.obj
 0002:00004848       ??_7DefragProgress@@6BIDefragProgress@@@ 0000000061070848     defragment.obj
 0002:00004850       ??_C@_0N@MPGBAEMJ@mftindex?4cpp?$AA@ 0000000061070850     mftindex.obj
 0002:00004860       ??_C@_1CG@HNACKLNA@?$AAC?$AAo?$AAm?$AAp?$AAr?$AAe?$AAs?$AAs?$AAo?$AAr?$AA?5?$AAf?$AAa?$AAi?$AAl?$AAu?$AAr?$AAe?$AA?$AA@ 0000000061070860     mftindex.obj
 0002:00004888       ??_C@_1CK@FNDBPKLO@?$AAC?$AAo?$AAr?$AAr?$AAu?$AAp?$AAt?$AAe?$AAd?$AA?5?$AAc?$AAa?$AAc?$AAh?$AAe?$AA?5?$AAf?$AAi?$AAl?$AAe?$AA?$AA@ 0000000061070888     mftindex.obj
 0002:000048b8       ??_C@_1DC@KKIKDNDA@?$AAW?$AAr?$AAo?$AAn?$AAg?$AA?5?$AAc?$AAa?$AAc?$AAh?$AAe?$AA?5?$AAf?$AAi?$AAl?$AAe?$AA?5?$AAv?$AAe?$AAr?$AAs?$AAi?$AAo?$AAn?$AA?$AA@ 00000000610708b8     mftindex.obj
 0002:000048f0       ??_C@_1BE@EBMHMKHF@?$AA?4?$AAn?$AAt?$AAf?$AAs?$AAf?$AAi?$AAl?$AAe?$AA?$AA@ 00000000610708f0     mftindex.obj
 0002:00004908       ??_C@_1BC@INPOCPGC@?$AA$?$AAB?$AAa?$AAd?$AAC?$AAl?$AAu?$AAs?$AA?$AA@ 0000000061070908     mftindex.obj
 0002:00004920       ??_C@_0BM@PAPJHAGI@invalid?5map?1set?$DMT?$DO?5iterator?$AA@ 0000000061070920     mftindex.obj
 0002:00004940       ??_C@_0BE@JONHPENG@map?1set?$DMT?$DO?5too?5long?$AA@ 0000000061070940     mftindex.obj
 0002:00004960       ??_7VolumeListProgress@?1??create_mft_index@FilePanel@@AEAAXXZ@6B@ 0000000061070960     mftindex.obj
 0002:00004980       ??_7Progress@?1??update_mft_index_from_usn@FilePanel@@AEAAXXZ@6B@ 0000000061070980     mftindex.obj
 0002:000049a0       ??_7Progress@?3??store_mft_index@FilePanel@@AEAAXXZ@6B@ 00000000610709a0     mftindex.obj
 0002:000049c0       ??_7Progress@?1??load_mft_index@FilePanel@@AEAAXXZ@6B@ 00000000610709c0     mftindex.obj
 0002:000049d8       ??_C@_0M@GMAEPHGB@filever?4cpp?$AA@ 00000000610709d8     filever.obj
 0002:000049e8       ??_C@_1BI@IEJCOLMP@?$AA?$CF?$AAu?$AA?4?$AA?$CF?$AAu?$AA?4?$AA?$CF?$AAu?$AA?4?$AA?$CF?$AAu?$AA?$AA@ 00000000610709e8     filever.obj
 0002:00004a00       ??_C@_15JOGBDECP@?$AA?0?$AA?5?$AA?$AA@ 0000000061070a00     filever.obj
 0002:00004a08       ??_C@_1BI@IEJLANHI@?$AAV?$AAS?$AA_?$AAF?$AAF?$AA_?$AAD?$AAE?$AAB?$AAU?$AAG?$AA?$AA@ 0000000061070a08     filever.obj
 0002:00004a20       ??_C@_1CG@FKMFCFHO@?$AAV?$AAS?$AA_?$AAF?$AAF?$AA_?$AAI?$AAN?$AAF?$AAO?$AAI?$AAN?$AAF?$AAE?$AAR?$AAR?$AAE?$AAD?$AA?$AA@ 0000000061070a20     filever.obj
 0002:00004a48       ??_C@_1BM@KONPANGA@?$AAV?$AAS?$AA_?$AAF?$AAF?$AA_?$AAP?$AAA?$AAT?$AAC?$AAH?$AAE?$AAD?$AA?$AA@ 0000000061070a48     filever.obj
 0002:00004a68       ??_C@_1CC@JNBCIAIG@?$AAV?$AAS?$AA_?$AAF?$AAF?$AA_?$AAP?$AAR?$AAE?$AAR?$AAE?$AAL?$AAE?$AAA?$AAS?$AAE?$AA?$AA@ 0000000061070a68     filever.obj
 0002:00004a90       ??_C@_1CG@KLBNPHEG@?$AAV?$AAS?$AA_?$AAF?$AAF?$AA_?$AAP?$AAR?$AAI?$AAV?$AAA?$AAT?$AAE?$AAB?$AAU?$AAI?$AAL?$AAD?$AA?$AA@ 0000000061070a90     filever.obj
 0002:00004ab8       ??_C@_1CG@ILKGKKEP@?$AAV?$AAS?$AA_?$AAF?$AAF?$AA_?$AAS?$AAP?$AAE?$AAC?$AAI?$AAA?$AAL?$AAB?$AAU?$AAI?$AAL?$AAD?$AA?$AA@ 0000000061070ab8     filever.obj
 0002:00004ae0       ??_C@_1BA@BGDKNHPG@?$AAV?$AAO?$AAS?$AA_?$AAD?$AAO?$AAS?$AA?$AA@ 0000000061070ae0     filever.obj
 0002:00004af0       ??_C@_1O@BMGCABFK@?$AAV?$AAO?$AAS?$AA_?$AAN?$AAT?$AA?$AA@ 0000000061070af0     filever.obj
 0002:00004b00       ??_C@_1BO@BLPOLMJI@?$AAV?$AAO?$AAS?$AA_?$AA_?$AAW?$AAI?$AAN?$AAD?$AAO?$AAW?$AAS?$AA1?$AA6?$AA?$AA@ 0000000061070b00     filever.obj
 0002:00004b20       ??_C@_1BO@NJFEIKME@?$AAV?$AAO?$AAS?$AA_?$AA_?$AAW?$AAI?$AAN?$AAD?$AAO?$AAW?$AAS?$AA3?$AA2?$AA?$AA@ 0000000061070b20     filever.obj
 0002:00004b40       ??_C@_1BE@LAJBBHNO@?$AAV?$AAO?$AAS?$AA_?$AAO?$AAS?$AA2?$AA1?$AA6?$AA?$AA@ 0000000061070b40     filever.obj
 0002:00004b58       ??_C@_1BE@HCDLCBIC@?$AAV?$AAO?$AAS?$AA_?$AAO?$AAS?$AA2?$AA3?$AA2?$AA?$AA@ 0000000061070b58     filever.obj
 0002:00004b70       ??_C@_1BE@CCMOMCBN@?$AAV?$AAO?$AAS?$AA_?$AA_?$AAP?$AAM?$AA1?$AA6?$AA?$AA@ 0000000061070b70     filever.obj
 0002:00004b88       ??_C@_1BE@OAGEPEEB@?$AAV?$AAO?$AAS?$AA_?$AA_?$AAP?$AAM?$AA3?$AA2?$AA?$AA@ 0000000061070b88     filever.obj
 0002:00004ba0       ??_C@_1BI@JHNEKHNE@?$AAV?$AAF?$AAT?$AA_?$AAU?$AAN?$AAK?$AAN?$AAO?$AAW?$AAN?$AA?$AA@ 0000000061070ba0     filever.obj
 0002:00004bb8       ??_C@_1BA@GECBNAPN@?$AAV?$AAF?$AAT?$AA_?$AAA?$AAP?$AAP?$AA?$AA@ 0000000061070bb8     filever.obj
 0002:00004bc8       ??_C@_1BA@ECBKPEFO@?$AAV?$AAF?$AAT?$AA_?$AAD?$AAL?$AAL?$AA?$AA@ 0000000061070bc8     filever.obj
 0002:00004bd8       ??_C@_1BA@EEGCCAEO@?$AAV?$AAF?$AAT?$AA_?$AAD?$AAR?$AAV?$AA?$AA@ 0000000061070bd8     filever.obj
 0002:00004be8       ??_C@_1BC@BNDFOKOF@?$AAV?$AAF?$AAT?$AA_?$AAF?$AAO?$AAN?$AAT?$AA?$AA@ 0000000061070be8     filever.obj
 0002:00004c00       ??_C@_1BA@CBHHKKGK@?$AAV?$AAF?$AAT?$AA_?$AAV?$AAX?$AAD?$AA?$AA@ 0000000061070c00     filever.obj
 0002:00004c10       ??_C@_1BO@IHDJOGPB@?$AAV?$AAF?$AAT?$AA_?$AAS?$AAT?$AAA?$AAT?$AAI?$AAC?$AA_?$AAL?$AAI?$AAB?$AA?$AA@ 0000000061070c10     filever.obj
 0002:00004c30       ??_C@_1BK@JJEEKDBI@?$AAV?$AAF?$AAT?$AA2?$AA_?$AAU?$AAN?$AAK?$AAN?$AAO?$AAW?$AAN?$AA?$AA@ 0000000061070c30     filever.obj
 0002:00004c50       ??_C@_1BM@FBENCBBK@?$AAV?$AAF?$AAT?$AA2?$AA_?$AAD?$AAR?$AAV?$AA_?$AAC?$AAO?$AAM?$AAM?$AA?$AA@ 0000000061070c50     filever.obj
 0002:00004c70       ??_C@_1CC@EDIHAEMD@?$AAV?$AAF?$AAT?$AA2?$AA_?$AAD?$AAR?$AAV?$AA_?$AAP?$AAR?$AAI?$AAN?$AAT?$AAE?$AAR?$AA?$AA@ 0000000061070c70     filever.obj
 0002:00004c98       ??_C@_1CE@DNKCAOM@?$AAV?$AAF?$AAT?$AA2?$AA_?$AAD?$AAR?$AAV?$AA_?$AAK?$AAE?$AAY?$AAB?$AAO?$AAA?$AAR?$AAD?$AA?$AA@ 0000000061070c98     filever.obj
 0002:00004cc0       ??_C@_1CE@HGDCGCNP@?$AAV?$AAF?$AAT?$AA2?$AA_?$AAD?$AAR?$AAV?$AA_?$AAL?$AAA?$AAN?$AAG?$AAU?$AAA?$AAG?$AAE?$AA?$AA@ 0000000061070cc0     filever.obj
 0002:00004ce8       ??_C@_1CC@GEJNCKBE@?$AAV?$AAF?$AAT?$AA2?$AA_?$AAD?$AAR?$AAV?$AA_?$AAD?$AAI?$AAS?$AAP?$AAL?$AAA?$AAY?$AA?$AA@ 0000000061070ce8     filever.obj
 0002:00004d10       ??_C@_1BO@CPDNIJKM@?$AAV?$AAF?$AAT?$AA2?$AA_?$AAD?$AAR?$AAV?$AA_?$AAM?$AAO?$AAU?$AAS?$AAE?$AA?$AA@ 0000000061070d10     filever.obj
 0002:00004d30       ??_C@_1CC@NNECBLCB@?$AAV?$AAF?$AAT?$AA2?$AA_?$AAD?$AAR?$AAV?$AA_?$AAN?$AAE?$AAT?$AAW?$AAO?$AAR?$AAK?$AA?$AA@ 0000000061070d30     filever.obj
 0002:00004d58       ??_C@_1CA@LGHPDPBC@?$AAV?$AAF?$AAT?$AA2?$AA_?$AAD?$AAR?$AAV?$AA_?$AAS?$AAY?$AAS?$AAT?$AAE?$AAM?$AA?$AA@ 0000000061070d58     filever.obj
 0002:00004d78       ??_C@_1CK@OOLCMAGL@?$AAV?$AAF?$AAT?$AA2?$AA_?$AAD?$AAR?$AAV?$AA_?$AAI?$AAN?$AAS?$AAT?$AAA?$AAL?$AAL?$AAA?$AAB?$AAL?$AAE?$AA?$AA@ 0000000061070d78     filever.obj
 0002:00004da8       ??_C@_1BO@MNOAMBGO@?$AAV?$AAF?$AAT?$AA2?$AA_?$AAD?$AAR?$AAV?$AA_?$AAS?$AAO?$AAU?$AAN?$AAD?$AA?$AA@ 0000000061070da8     filever.obj
 0002:00004dc8       ??_C@_1DG@DJOJHEJJ@?$AAV?$AAF?$AAT?$AA2?$AA_?$AAD?$AAR?$AAV?$AA_?$AAV?$AAE?$AAR?$AAS?$AAI?$AAO?$AAN?$AAE?$AAD?$AA_?$AAP?$AAR?$AAI?$AAN?$AAT?$AAE?$AAR?$AA?$AA@ 0000000061070dc8     filever.obj
 0002:00004e00       ??_C@_1CC@BLPNEGCI@?$AAV?$AAF?$AAT?$AA2?$AA_?$AAF?$AAO?$AAN?$AAT?$AA_?$AAR?$AAA?$AAS?$AAT?$AAE?$AAR?$AA?$AA@ 0000000061070e00     filever.obj
 0002:00004e28       ??_C@_1CC@IHGCFAMC@?$AAV?$AAF?$AAT?$AA2?$AA_?$AAF?$AAO?$AAN?$AAT?$AA_?$AAV?$AAE?$AAC?$AAT?$AAO?$AAR?$AA?$AA@ 0000000061070e28     filever.obj
 0002:00004e50       ??_C@_1CG@KBEIKKAL@?$AAV?$AAF?$AAT?$AA2?$AA_?$AAF?$AAO?$AAN?$AAT?$AA_?$AAT?$AAR?$AAU?$AAE?$AAT?$AAY?$AAP?$AAE?$AA?$AA@ 0000000061070e50     filever.obj
 0002:00004e78       ??_C@_1BC@OJAINIIB@?$AAC?$AAo?$AAm?$AAm?$AAe?$AAn?$AAt?$AAs?$AA?$AA@ 0000000061070e78     filever.obj
 0002:00004e90       ??_C@_1BI@KBKGFMKH@?$AAC?$AAo?$AAm?$AAp?$AAa?$AAn?$AAy?$AAN?$AAa?$AAm?$AAe?$AA?$AA@ 0000000061070e90     filever.obj
 0002:00004ea8       ??_C@_1CA@JGBAIPOO@?$AAF?$AAi?$AAl?$AAe?$AAD?$AAe?$AAs?$AAc?$AAr?$AAi?$AAp?$AAt?$AAi?$AAo?$AAn?$AA?$AA@ 0000000061070ea8     filever.obj
 0002:00004ec8       ??_C@_1BI@HCCAONKE@?$AAF?$AAi?$AAl?$AAe?$AAV?$AAe?$AAr?$AAs?$AAi?$AAo?$AAn?$AA?$AA@ 0000000061070ec8     filever.obj
 0002:00004ee0       ??_C@_1BK@OCJLMIBB@?$AAI?$AAn?$AAt?$AAe?$AAr?$AAn?$AAa?$AAl?$AAN?$AAa?$AAm?$AAe?$AA?$AA@ 0000000061070ee0     filever.obj
 0002:00004f00       ??_C@_1BO@DAFANMIE@?$AAL?$AAe?$AAg?$AAa?$AAl?$AAC?$AAo?$AAp?$AAy?$AAr?$AAi?$AAg?$AAh?$AAt?$AA?$AA@ 0000000061070f00     filever.obj
 0002:00004f20       ??_C@_1CA@PLJPDBM@?$AAL?$AAe?$AAg?$AAa?$AAl?$AAT?$AAr?$AAa?$AAd?$AAe?$AAm?$AAa?$AAr?$AAk?$AAs?$AA?$AA@ 0000000061070f20     filever.obj
 0002:00004f40       ??_C@_1CC@CHBCEHAO@?$AAO?$AAr?$AAi?$AAg?$AAi?$AAn?$AAa?$AAl?$AAF?$AAi?$AAl?$AAe?$AAn?$AAa?$AAm?$AAe?$AA?$AA@ 0000000061070f40     filever.obj
 0002:00004f68       ??_C@_1BI@CJGIOPAN@?$AAP?$AAr?$AAo?$AAd?$AAu?$AAc?$AAt?$AAN?$AAa?$AAm?$AAe?$AA?$AA@ 0000000061070f68     filever.obj
 0002:00004f80       ??_C@_1BO@OKEPMKJE@?$AAP?$AAr?$AAo?$AAd?$AAu?$AAc?$AAt?$AAV?$AAe?$AAr?$AAs?$AAi?$AAo?$AAn?$AA?$AA@ 0000000061070f80     filever.obj
 0002:00004fa0       ??_C@_1BK@CEMEOMHP@?$AAP?$AAr?$AAi?$AAv?$AAa?$AAt?$AAe?$AAB?$AAu?$AAi?$AAl?$AAd?$AA?$AA@ 0000000061070fa0     filever.obj
 0002:00004fc0       ??_C@_1BK@EHPLBHG@?$AAS?$AAp?$AAe?$AAc?$AAi?$AAa?$AAl?$AAB?$AAu?$AAi?$AAl?$AAd?$AA?$AA@ 0000000061070fc0     filever.obj
 0002:00004fe0       ??_C@_1DC@HCLBMGIA@?$AA?2?$AAV?$AAa?$AAr?$AAF?$AAi?$AAl?$AAe?$AAI?$AAn?$AAf?$AAo?$AA?2?$AAT?$AAr?$AAa?$AAn?$AAs?$AAl?$AAa?$AAt?$AAi?$AAo?$AAn?$AA?$AA@ 0000000061070fe0     filever.obj
 0002:00005018       ??_C@_1DE@CHNNACJM@?$AA?2?$AAS?$AAt?$AAr?$AAi?$AAn?$AAg?$AAF?$AAi?$AAl?$AAe?$AAI?$AAn?$AAf?$AAo?$AA?2?$AA?$CF?$AAH?$AAx?$AA?$CF?$AAH?$AAx?$AA?2?$AA?$CF?$AAs?$AA?$AA@ 0000000061071018     filever.obj
 0002:00005050       ??_C@_19EIPBMNMA@?$AAI?$AA3?$AA8?$AA6?$AA?$AA@ 0000000061071050     filever.obj
 0002:00005060       ??_C@_1M@EEBFAJEO@?$AAA?$AAM?$AAD?$AA6?$AA4?$AA?$AA@ 0000000061071060     filever.obj
 0002:00005070       ??_C@_19DGIHPCNG@?$AAI?$AAA?$AA6?$AA4?$AA?$AA@ 0000000061071070     filever.obj
 0002:00005080       ??_C@_1BA@OPMDIKBM@?$AA?$CF?$AAH?$AAu?$AA?4?$AA?$CF?$AAH?$AAu?$AA?$AA@ 0000000061071080     filever.obj
 0002:00005090       ??_C@_1BA@HABJOAEE@?$AAU?$AAN?$AAK?$AAN?$AAO?$AAW?$AAN?$AA?$AA@ 0000000061071090     filever.obj
 0002:000050a0       ??_C@_1O@PPJAGDMH@?$AAN?$AAA?$AAT?$AAI?$AAV?$AAE?$AA?$AA@ 00000000610710a0     filever.obj
 0002:000050b0       ??_C@_1BI@LFDOEKJD@?$AAW?$AAI?$AAN?$AAD?$AAO?$AAW?$AAS?$AA_?$AAG?$AAU?$AAI?$AA?$AA@ 00000000610710b0     filever.obj
 0002:000050c8       ??_C@_1BI@DBHEEEGJ@?$AAW?$AAI?$AAN?$AAD?$AAO?$AAW?$AAS?$AA_?$AAC?$AAU?$AAI?$AA?$AA@ 00000000610710c8     filever.obj
 0002:000050e0       ??_C@_1BA@EFPKPFIP@?$AAO?$AAS?$AA2?$AA_?$AAC?$AAU?$AAI?$AA?$AA@ 00000000610710e0     filever.obj
 0002:000050f0       ??_C@_1BE@ILNHFKE@?$AAP?$AAO?$AAS?$AAI?$AAX?$AA_?$AAC?$AAU?$AAI?$AA?$AA@ 00000000610710f0     filever.obj
 0002:00005108       ??_C@_1BO@PMNDEBCD@?$AAW?$AAI?$AAN?$AAD?$AAO?$AAW?$AAS?$AA_?$AAC?$AAE?$AA_?$AAG?$AAU?$AAI?$AA?$AA@ 0000000061071108     filever.obj
 0002:00005128       ??_C@_1CA@NBLNMHOE@?$AAE?$AAF?$AAI?$AA_?$AAA?$AAP?$AAP?$AAL?$AAI?$AAC?$AAA?$AAT?$AAI?$AAO?$AAN?$AA?$AA@ 0000000061071128     filever.obj
 0002:00005148       ??_C@_1DA@HGKBFGGF@?$AAE?$AAF?$AAI?$AA_?$AAB?$AAO?$AAO?$AAT?$AA_?$AAS?$AAE?$AAR?$AAV?$AAI?$AAC?$AAE?$AA_?$AAD?$AAR?$AAI?$AAV?$AAE?$AAR?$AA?$AA@ 0000000061071148     filever.obj
 0002:00005178       ??_C@_1CG@MJJNMKMB@?$AAE?$AAF?$AAI?$AA_?$AAR?$AAU?$AAN?$AAT?$AAI?$AAM?$AAE?$AA_?$AAD?$AAR?$AAI?$AAV?$AAE?$AAR?$AA?$AA@ 0000000061071178     filever.obj
 0002:000051a0       ??_C@_1BA@JLLOLPEH@?$AAE?$AAF?$AAI?$AA_?$AAR?$AAO?$AAM?$AA?$AA@ 00000000610711a0     filever.obj
 0002:000051b0       ??_C@_19CNLJALFB@?$AAX?$AAB?$AAO?$AAX?$AA?$AA@ 00000000610711b0     filever.obj
 0002:000051c0       ??_C@_1DC@MGAMABAC@?$AAW?$AAI?$AAN?$AAD?$AAO?$AAW?$AAS?$AA_?$AAB?$AAO?$AAO?$AAT?$AA_?$AAA?$AAP?$AAP?$AAL?$AAI?$AAC?$AAA?$AAT?$AAI?$AAO?$AAN?$AA?$AA@ 00000000610711c0     filever.obj
 0002:000051f8       ??_C@_1CA@GPAFLLNE@?$AAR?$AAE?$AAL?$AAO?$AAC?$AAS?$AA_?$AAS?$AAT?$AAR?$AAI?$AAP?$AAP?$AAE?$AAD?$AA?$AA@ 00000000610711f8     filever.obj
 0002:00005218       ??_C@_1CC@HEFCME@?$AAE?$AAX?$AAE?$AAC?$AAU?$AAT?$AAA?$AAB?$AAL?$AAE?$AA_?$AAI?$AAM?$AAA?$AAG?$AAE?$AA?$AA@ 0000000061071218     filever.obj
 0002:00005240       ??_C@_1CG@MDADGLPA@?$AAL?$AAI?$AAN?$AAE?$AA_?$AAN?$AAU?$AAM?$AAS?$AA_?$AAS?$AAT?$AAR?$AAI?$AAP?$AAP?$AAE?$AAD?$AA?$AA@ 0000000061071240     filever.obj
 0002:00005268       ??_C@_1CI@MNEPJADE@?$AAL?$AAO?$AAC?$AAA?$AAL?$AA_?$AAS?$AAY?$AAM?$AAS?$AA_?$AAS?$AAT?$AAR?$AAI?$AAP?$AAP?$AAE?$AAD?$AA?$AA@ 0000000061071268     filever.obj
 0002:00005290       ??_C@_1CE@KPDIINHH@?$AAA?$AAG?$AAG?$AAR?$AAE?$AAS?$AAI?$AAV?$AAE?$AA_?$AAW?$AAS?$AA_?$AAT?$AAR?$AAI?$AAM?$AA?$AA@ 0000000061071290     filever.obj
 0002:000052b8       ??_C@_1CI@DNLENBJA@?$AAL?$AAA?$AAR?$AAG?$AAE?$AA_?$AAA?$AAD?$AAD?$AAR?$AAE?$AAS?$AAS?$AA_?$AAA?$AAW?$AAA?$AAR?$AAE?$AA?$AA@ 00000000610712b8     filever.obj
 0002:000052e0       ??_C@_1CE@HGHBHGKH@?$AAB?$AAY?$AAT?$AAE?$AAS?$AA_?$AAR?$AAE?$AAV?$AAE?$AAR?$AAS?$AAE?$AAD?$AA_?$AAL?$AAO?$AA?$AA@ 00000000610712e0     filever.obj
 0002:00005308       ??_C@_1BM@JMGEPIIF@?$AA3?$AA2?$AAB?$AAI?$AAT?$AA_?$AAM?$AAA?$AAC?$AAH?$AAI?$AAN?$AAE?$AA?$AA@ 0000000061071308     filever.obj
 0002:00005328       ??_C@_1BO@LECIBHLA@?$AAD?$AAE?$AAB?$AAU?$AAG?$AA_?$AAS?$AAT?$AAR?$AAI?$AAP?$AAP?$AAE?$AAD?$AA?$AA@ 0000000061071328     filever.obj
 0002:00005348       ??_C@_1DA@NOOJDGHI@?$AAR?$AAE?$AAM?$AAO?$AAV?$AAA?$AAB?$AAL?$AAE?$AA_?$AAR?$AAU?$AAN?$AA_?$AAF?$AAR?$AAO?$AAM?$AA_?$AAS?$AAW?$AAA?$AAP?$AA?$AA@ 0000000061071348     filever.obj
 0002:00005378       ??_C@_1CE@NEAHHCII@?$AAN?$AAE?$AAT?$AA_?$AAR?$AAU?$AAN?$AA_?$AAF?$AAR?$AAO?$AAM?$AA_?$AAS?$AAW?$AAA?$AAP?$AA?$AA@ 0000000061071378     filever.obj
 0002:000053a0       ??_C@_1O@GBFINDKL@?$AAS?$AAY?$AAS?$AAT?$AAE?$AAM?$AA?$AA@ 00000000610713a0     filever.obj
 0002:000053b0       ??_C@_17JOFCMBBD@?$AAD?$AAL?$AAL?$AA?$AA@ 00000000610713b0     filever.obj
 0002:000053b8       ??_C@_1BO@JHKPENOP@?$AAU?$AAP?$AA_?$AAS?$AAY?$AAS?$AAT?$AAE?$AAM?$AA_?$AAO?$AAN?$AAL?$AAY?$AA?$AA@ 00000000610713b8     filever.obj
 0002:000053d8       ??_C@_1CE@MIILGLGN@?$AAB?$AAY?$AAT?$AAE?$AAS?$AA_?$AAR?$AAE?$AAV?$AAE?$AAR?$AAS?$AAE?$AAD?$AA_?$AAH?$AAI?$AA?$AA@ 00000000610713d8     filever.obj
 0002:00005400       ??_C@_1BK@HFBNDPHG@?$AAD?$AAY?$AAN?$AAA?$AAM?$AAI?$AAC?$AA_?$AAB?$AAA?$AAS?$AAE?$AA?$AA@ 0000000061071400     filever.obj
 0002:00005420       ??_C@_1CA@CEBEDILC@?$AAF?$AAO?$AAR?$AAC?$AAE?$AA_?$AAI?$AAN?$AAT?$AAE?$AAG?$AAR?$AAI?$AAT?$AAY?$AA?$AA@ 0000000061071420     filever.obj
 0002:00005440       ??_C@_1BE@NIMAGGGI@?$AAN?$AAX?$AA_?$AAC?$AAO?$AAM?$AAP?$AAA?$AAT?$AA?$AA@ 0000000061071440     filever.obj
 0002:00005458       ??_C@_1BK@FEMOIOGB@?$AAN?$AAO?$AA_?$AAI?$AAS?$AAO?$AAL?$AAA?$AAT?$AAI?$AAO?$AAN?$AA?$AA@ 0000000061071458     filever.obj
 0002:00005478       ??_C@_1O@HEBCMOCF@?$AAN?$AAO?$AA_?$AAS?$AAE?$AAH?$AA?$AA@ 0000000061071478     filever.obj
 0002:00005488       ??_C@_1BA@MJMDJIKM@?$AAN?$AAO?$AA_?$AAB?$AAI?$AAN?$AAD?$AA?$AA@ 0000000061071488     filever.obj
 0002:00005498       ??_C@_1BG@GCBEHEOH@?$AAW?$AAD?$AAM?$AA_?$AAD?$AAR?$AAI?$AAV?$AAE?$AAR?$AA?$AA@ 0000000061071498     filever.obj
 0002:000054b0       ??_C@_1CM@MDMCJECO@?$AAT?$AAE?$AAR?$AAM?$AAI?$AAN?$AAA?$AAL?$AA_?$AAS?$AAE?$AAR?$AAV?$AAE?$AAR?$AA_?$AAA?$AAW?$AAA?$AAR?$AAE?$AA?$AA@ 00000000610714b0     filever.obj
 0002:000054e0       ??_C@_0BH@JNDANHN@1?43?46?41?44?41?4311?42?41?412?$AA@ 00000000610714e0     filever.obj
 0002:000054f8       ??_C@_0BF@FAFEKMCA@1?42?4840?4113549?41?49?46?$AA@ 00000000610714f8     filever.obj
 0002:00005510       ??_C@_0BF@HLHJPPOD@1?42?4840?4113549?41?49?45?$AA@ 0000000061071510     filever.obj
 0002:00005528       ??_C@_1DC@DPEIDKEF@?$AAT?$AAR?$AAU?$AAS?$AAT?$AA_?$AAE?$AA_?$AAP?$AAR?$AAO?$AAV?$AAI?$AAD?$AAE?$AAR?$AA_?$AAU?$AAN?$AAK?$AAN?$AAO?$AAW?$AAN?$AA?$AA@ 0000000061071528     filever.obj
 0002:00005560       ??_C@_1DK@JOFGICF@?$AAT?$AAR?$AAU?$AAS?$AAT?$AA_?$AAE?$AA_?$AAS?$AAU?$AAB?$AAJ?$AAE?$AAC?$AAT?$AA_?$AAF?$AAO?$AAR?$AAM?$AA_?$AAU?$AAN?$AAK?$AAN?$AAO?$AAW?$AAN?$AA?$AA@ 0000000061071560     filever.obj
 0002:000055a0       ??_C@_1DE@DCCAAANL@?$AAT?$AAR?$AAU?$AAS?$AAT?$AA_?$AAE?$AA_?$AAE?$AAX?$AAP?$AAL?$AAI?$AAC?$AAI?$AAT?$AA_?$AAD?$AAI?$AAS?$AAT?$AAR?$AAU?$AAS?$AAT?$AA?$AA@ 00000000610715a0     filever.obj
 0002:000055d8       ??_C@_1DI@PMJHDHOO@?$AAT?$AAR?$AAU?$AAS?$AAT?$AA_?$AAE?$AA_?$AAS?$AAU?$AAB?$AAJ?$AAE?$AAC?$AAT?$AA_?$AAN?$AAO?$AAT?$AA_?$AAT?$AAR?$AAU?$AAS?$AAT?$AAE?$AAD?$AA?$AA@ 00000000610715d8     filever.obj
 0002:00005610       ??_C@_1DE@GPOCNCNM@?$AAC?$AAR?$AAY?$AAP?$AAT?$AA_?$AAE?$AA_?$AAS?$AAE?$AAC?$AAU?$AAR?$AAI?$AAT?$AAY?$AA_?$AAS?$AAE?$AAT?$AAT?$AAI?$AAN?$AAG?$AAS?$AA?$AA@ 0000000061071610     filever.obj
 0002:00005648       ??_C@_19PCNJIDGC@?$AA0?$AAx?$AA?$CF?$AAx?$AA?$AA@ 0000000061071648     filever.obj
 0002:00005658       ??_C@_1BC@CBFEIGFL@?$AA0?$AAx?$AA?$CF?$AAH?$AAx?$AA?$CF?$AAH?$AAx?$AA?$AA@ 0000000061071658     filever.obj
 0002:00005670       ??_C@_0BC@EFLLFMHP@RtlCompressBuffer?$AA@ 0000000061071670     compress_files.obj
 0002:00005684       ??_C@_05EMFAAAMC@ntdll?$AA@ 0000000061071684     compress_files.obj
 0002:00005690       ??_C@_0BD@IIEFNDNC@compress_files?4cpp?$AA@ 0000000061071690     compress_files.obj
 0002:000056a8       ??_C@_0BP@PEOALDAJ@RtlGetCompressionWorkSpaceSize?$AA@ 00000000610716a8     compress_files.obj
 0002:000056c8       ??_C@_1DO@LINKAGFL@?$AAR?$AAt?$AAl?$AAG?$AAe?$AAt?$AAC?$AAo?$AAm?$AAp?$AAr?$AAe?$AAs?$AAs?$AAi?$AAo?$AAn?$AAW?$AAo?$AAr?$AAk?$AAS?$AAp?$AAa?$AAc?$AAe?$AAS?$AAi?$AAz?$AAe?$AA?$AA@ 00000000610716c8     compress_files.obj
 0002:00005708       ??_C@_19NGFJFBME@?$AA?$CF?$AA?4?$AA?$CK?$AAc?$AA?$AA@ 0000000061071708     compress_files.obj
 0002:00005718       ??_C@_1CE@CAABGKIC@?$AAR?$AAt?$AAl?$AAC?$AAo?$AAm?$AAp?$AAr?$AAe?$AAs?$AAs?$AAB?$AAu?$AAf?$AAf?$AAe?$AAr?$AA?$AA@ 0000000061071718     compress_files.obj
 0002:00005740       ??_C@_1DG@LJHDHLKM@?$AAC?$AAo?$AAm?$AAp?$AAr?$AAe?$AAs?$AAs?$AAi?$AAo?$AAn?$AA?5?$AAt?$AAh?$AAr?$AAe?$AAa?$AAd?$AA?5?$AAf?$AAa?$AAi?$AAl?$AAu?$AAr?$AAe?$AA?$AA@ 0000000061071740     compress_files.obj
 0002:00005778       ??_C@_1BO@ENKGMFIB@?$AAc?$AAo?$AAm?$AAp?$AAr?$AAe?$AAs?$AAs?$AA_?$AAf?$AAi?$AAl?$AAe?$AAs?$AA?$AA@ 0000000061071778     compress_files.obj
 0002:00005798       ??_C@_0BD@OLBABOEK@vector?$DMT?$DO?5too?5long?$AA@ 0000000061071798     compress_files.obj
 0002:000057b0       ??_C@_0BM@NMJKDPPO@invalid?5vector?$DMT?$DO?5subscript?$AA@ 00000000610717b0     compress_files.obj
 0002:000057d8       ??_7CriticalSection@@6B@   00000000610717d8     compress_files.obj
 0002:000057e8       ??_7CompressFiles@@6BProgressMonitor@@@ 00000000610717e8     compress_files.obj
 0002:00005808       ??_7CompressFiles@@6BIDefragProgress@@@ 0000000061071808     compress_files.obj
 0002:00005810       ??_C@_0BA@EDPLCHIM@volume_list?4cpp?$AA@ 0000000061071810     volume_list.obj
 0002:00005820       ??_C@_1BC@FGFNDPJJ@?$AA?$CF?$AAu?$AA?0?$AA?$CF?$AAu?$AA?0?$AA?$CF?$AAu?$AA?$AA@ 0000000061071820     volume_list.obj
 0002:00005838       __real@0000000000000000    0000000061071838      CIL library: CIL module
 0002:00005840       __real@3fe0000000000000    0000000061071840      CIL library: CIL module
 0002:00005850       __mask@@AbsDouble@         0000000061071850      CIL library: CIL module
 0002:00005860       __real@43f0000000000000    0000000061071860      CIL library: CIL module
 0002:00006eb8       __real@404e000000000000    0000000061072eb8      CIL library: CIL module
 0002:00006ec0       __real@4059000000000000    0000000061072ec0      CIL library: CIL module
 0002:000085b8       _pDestructExceptionObject  00000000610745b8     LIBCMT:frame.obj
 0002:000085c8       ??_7bad_exception@std@@6B@ 00000000610745c8     LIBCMT:frame.obj
 0002:000085d8       ??_C@_0O@DPKOEFFH@bad?5exception?$AA@ 00000000610745d8     LIBCMT:frame.obj
 0002:00008650       ??_R4logic_error@std@@6B@  0000000061074650     libcpmt:xthrow.obj
 0002:00008678       ??_R3logic_error@std@@8    0000000061074678     libcpmt:xthrow.obj
 0002:00008690       ??_R2logic_error@std@@8    0000000061074690     libcpmt:xthrow.obj
 0002:000086a8       ??_R1A@?0A@EA@logic_error@std@@8 00000000610746a8     libcpmt:xthrow.obj
 0002:000086d0       ??_R4length_error@std@@6B@ 00000000610746d0     libcpmt:xthrow.obj
 0002:000086f8       ??_R3length_error@std@@8   00000000610746f8     libcpmt:xthrow.obj
 0002:00008710       ??_R2length_error@std@@8   0000000061074710     libcpmt:xthrow.obj
 0002:00008730       ??_R1A@?0A@EA@length_error@std@@8 0000000061074730     libcpmt:xthrow.obj
 0002:00008758       ??_R4out_of_range@std@@6B@ 0000000061074758     libcpmt:xthrow.obj
 0002:00008780       ??_R3out_of_range@std@@8   0000000061074780     libcpmt:xthrow.obj
 0002:00008798       ??_R2out_of_range@std@@8   0000000061074798     libcpmt:xthrow.obj
 0002:000087b8       ??_R1A@?0A@EA@out_of_range@std@@8 00000000610747b8     libcpmt:xthrow.obj
 0002:000087e0       ??_R4exception@std@@6B@    00000000610747e0     LIBCMT:stdexcpt.obj
 0002:00008808       ??_R4type_info@@6B@        0000000061074808     LIBCMT:typinfo.obj
 0002:00008830       ??_R3type_info@@8          0000000061074830     LIBCMT:typinfo.obj
 0002:00008848       ??_R2type_info@@8          0000000061074848     LIBCMT:typinfo.obj
 0002:00008858       ??_R1A@?0A@EA@type_info@@8 0000000061074858     LIBCMT:typinfo.obj
 0002:00008880       ??_R4bad_alloc@std@@6B@    0000000061074880     main.obj
 0002:000088a8       ??_R3bad_alloc@std@@8      00000000610748a8     main.obj
 0002:000088c0       ??_R2bad_alloc@std@@8      00000000610748c0     main.obj
 0002:000088d8       ??_R1A@?0A@EA@exception@std@@8 00000000610748d8     main.obj
 0002:00008900       ??_R3exception@std@@8      0000000061074900     main.obj
 0002:00008918       ??_R2exception@std@@8      0000000061074918     main.obj
 0002:00008928       ??_R1A@?0A@EA@bad_alloc@std@@8 0000000061074928     main.obj
 0002:00008950       ??_R4SystemError@@6B@      0000000061074950     main.obj
 0002:00008978       ??_R3SystemError@@8        0000000061074978     main.obj
 0002:00008990       ??_R2SystemError@@8        0000000061074990     main.obj
 0002:000089a8       ??_R1A@?0A@EA@SystemError@@8 00000000610749a8     main.obj
 0002:000089d0       ??_R4MsgError@@6B@         00000000610749d0     main.obj
 0002:000089f8       ??_R3MsgError@@8           00000000610749f8     main.obj
 0002:00008a10       ??_R2MsgError@@8           0000000061074a10     main.obj
 0002:00008a28       ??_R1A@?0A@EA@MsgError@@8  0000000061074a28     main.obj
 0002:00008a50       ??_R4Error@@6B@            0000000061074a50     main.obj
 0002:00008a78       ??_R3Error@@8              0000000061074a78     main.obj
 0002:00008a90       ??_R2Error@@8              0000000061074a90     main.obj
 0002:00008aa0       ??_R1A@?0A@EA@Error@@8     0000000061074aa0     main.obj
 0002:00008ac8       ??_R4EstimationProgress@@6B@ 0000000061074ac8     content.obj
 0002:00008af0       ??_R3EstimationProgress@@8 0000000061074af0     content.obj
 0002:00008b08       ??_R2EstimationProgress@@8 0000000061074b08     content.obj
 0002:00008b20       ??_R1A@?0A@EA@EstimationProgress@@8 0000000061074b20     content.obj
 0002:00008b48       ??_R4CompressOneFileProgress@@6B@ 0000000061074b48     content.obj
 0002:00008b70       ??_R3CompressOneFileProgress@@8 0000000061074b70     content.obj
 0002:00008b88       ??_R2CompressOneFileProgress@@8 0000000061074b88     content.obj
 0002:00008ba0       ??_R1A@?0A@EA@CompressOneFileProgress@@8 0000000061074ba0     content.obj
 0002:00008bc8       ??_R4CompressFilesProgress@@6B@ 0000000061074bc8     content.obj
 0002:00008bf0       ??_R3CompressFilesProgress@@8 0000000061074bf0     content.obj
 0002:00008c08       ??_R2CompressFilesProgress@@8 0000000061074c08     content.obj
 0002:00008c20       ??_R1A@?0A@EA@CompressFilesProgress@@8 0000000061074c20     content.obj
 0002:00008c48       ??_R4ProcessFileProgress@@6B@ 0000000061074c48     content.obj
 0002:00008c70       ??_R3ProcessFileProgress@@8 0000000061074c70     content.obj
 0002:00008c88       ??_R2ProcessFileProgress@@8 0000000061074c88     content.obj
 0002:00008ca0       ??_R1A@?0A@EA@ProgressMonitor@@8 0000000061074ca0     content.obj
 0002:00008cc8       ??_R3ProgressMonitor@@8    0000000061074cc8     content.obj
 0002:00008ce0       ??_R2ProgressMonitor@@8    0000000061074ce0     content.obj
 0002:00008cf0       ??_R1A@?0A@EA@ProcessFileProgress@@8 0000000061074cf0     content.obj
 0002:00008d18       ??_R4hash_ed2k@@6B@        0000000061074d18     content.obj
 0002:00008d40       ??_R3hash_ed2k@@8          0000000061074d40     content.obj
 0002:00008d58       ??_R2hash_ed2k@@8          0000000061074d58     content.obj
 0002:00008d70       ??_R1A@?0A@EA@hash_ed2k@@8 0000000061074d70     content.obj
 0002:00008d98       ??_R4hash_compress@@6B@    0000000061074d98     content.obj
 0002:00008dc0       ??_R3hash_compress@@8      0000000061074dc0     content.obj
 0002:00008dd8       ??_R2hash_compress@@8      0000000061074dd8     content.obj
 0002:00008df0       ??_R1A@?0A@EA@hash_compress@@8 0000000061074df0     content.obj
 0002:00008e18       ??_R4LzoError@@6B@         0000000061074e18     content.obj
 0002:00008e40       ??_R3LzoError@@8           0000000061074e40     content.obj
 0002:00008e58       ??_R2LzoError@@8           0000000061074e58     content.obj
 0002:00008e70       ??_R1A@?0A@EA@LzoError@@8  0000000061074e70     content.obj
 0002:00008e98       ??_R4hash_sha3_256@@6B@    0000000061074e98     content.obj
 0002:00008ec0       ??_R3hash_sha3_256@@8      0000000061074ec0     content.obj
 0002:00008ed8       ??_R2hash_sha3_256@@8      0000000061074ed8     content.obj
 0002:00008ef8       ??_R17?0A@EA@Keccak1600@@8 0000000061074ef8     content.obj
 0002:00008f20       ??_R3Keccak1600@@8         0000000061074f20     content.obj
 0002:00008f38       ??_R2Keccak1600@@8         0000000061074f38     content.obj
 0002:00008f48       ??_R1A@?0A@EA@Keccak1600@@8 0000000061074f48     content.obj
 0002:00008f70       ??_R1A@?0A@EA@hash_sha3_256@@8 0000000061074f70     content.obj
 0002:00008f98       ??_R4hash_sha256@@6B@      0000000061074f98     content.obj
 0002:00008fc0       ??_R3hash_sha256@@8        0000000061074fc0     content.obj
 0002:00008fd8       ??_R2hash_sha256@@8        0000000061074fd8     content.obj
 0002:00008ff0       ??_R1A@?0A@EA@hash_sha256@@8 0000000061074ff0     content.obj
 0002:00009018       ??_R4hash_sha1@@6B@        0000000061075018     content.obj
 0002:00009040       ??_R3hash_sha1@@8          0000000061075040     content.obj
 0002:00009058       ??_R2hash_sha1@@8          0000000061075058     content.obj
 0002:00009070       ??_R1A@?0A@EA@hash_sha1@@8 0000000061075070     content.obj
 0002:00009098       ??_R4hash_md5@@6B@         0000000061075098     content.obj
 0002:000090c0       ??_R3hash_md5@@8           00000000610750c0     content.obj
 0002:000090d8       ??_R2hash_md5@@8           00000000610750d8     content.obj
 0002:000090f0       ??_R1A@?0A@EA@hash_md5@@8  00000000610750f0     content.obj
 0002:00009118       ??_R4hash_crc16@@6B@       0000000061075118     content.obj
 0002:00009140       ??_R3hash_crc16@@8         0000000061075140     content.obj
 0002:00009158       ??_R2hash_crc16@@8         0000000061075158     content.obj
 0002:00009170       ??_R1A@?0A@EA@hash_crc16@@8 0000000061075170     content.obj
 0002:00009198       ??_R4hash_crc32@@6B@       0000000061075198     content.obj
 0002:000091c0       ??_R3hash_crc32@@8         00000000610751c0     content.obj
 0002:000091d8       ??_R2hash_crc32@@8         00000000610751d8     content.obj
 0002:000091f0       ??_R1A@?0A@EA@hash_crc32@@8 00000000610751f0     content.obj
 0002:00009218       ??_R4IHashCalc@@6B@        0000000061075218     content.obj
 0002:00009240       ??_R3IHashCalc@@8          0000000061075240     content.obj
 0002:00009258       ??_R2IHashCalc@@8          0000000061075258     content.obj
 0002:00009268       ??_R1A@?0A@EA@IHashCalc@@8 0000000061075268     content.obj
 0002:00009290       ??_R4FileListProgress@@6B@ 0000000061075290     file_panel.obj
 0002:000092b8       ??_R3FileListProgress@@8   00000000610752b8     file_panel.obj
 0002:000092d0       ??_R2FileListProgress@@8   00000000610752d0     file_panel.obj
 0002:000092e8       ??_R1A@?0A@EA@FileListProgress@@8 00000000610752e8     file_panel.obj
 0002:00009310       ??_R4ProgressMonitor@@6B@  0000000061075310     utils.obj
 0002:00009338       ??_R4DefragProgress@@6BIDefragProgress@@@ 0000000061075338     defragment.obj
 0002:00009360       ??_R4DefragProgress@@6BProgressMonitor@@@ 0000000061075360     defragment.obj
 0002:00009388       ??_R3DefragProgress@@8     0000000061075388     defragment.obj
 0002:000093a0       ??_R2DefragProgress@@8     00000000610753a0     defragment.obj
 0002:000093c0       ??_R1DI@?0A@EA@IDefragProgress@@8 00000000610753c0     defragment.obj
 0002:000093e8       ??_R1A@?0A@EA@DefragProgress@@8 00000000610753e8     defragment.obj
 0002:00009410       ??_R3IDefragProgress@@8    0000000061075410     defragment.obj
 0002:00009428       ??_R2IDefragProgress@@8    0000000061075428     defragment.obj
 0002:00009438       ??_R1A@?0A@EA@IDefragProgress@@8 0000000061075438     defragment.obj
 0002:00009460       ??_R4Progress@?1??load_mft_index@FilePanel@@AEAAXXZ@6B@ 0000000061075460     mftindex.obj
 0002:00009488       ??_R3Progress@?1??load_mft_index@FilePanel@@AEAAXXZ@8 0000000061075488     mftindex.obj
 0002:000094a0       ??_R2Progress@?1??load_mft_index@FilePanel@@AEAAXXZ@8 00000000610754a0     mftindex.obj
 0002:000094b8       ??_R1A@?0A@EA@Progress@?1??load_mft_index@FilePanel@@AEAAXXZ@8 00000000610754b8     mftindex.obj
 0002:000094e0       ??_R4Progress@?3??store_mft_index@FilePanel@@AEAAXXZ@6B@ 00000000610754e0     mftindex.obj
 0002:00009508       ??_R3Progress@?3??store_mft_index@FilePanel@@AEAAXXZ@8 0000000061075508     mftindex.obj
 0002:00009520       ??_R2Progress@?3??store_mft_index@FilePanel@@AEAAXXZ@8 0000000061075520     mftindex.obj
 0002:00009538       ??_R1A@?0A@EA@Progress@?3??store_mft_index@FilePanel@@AEAAXXZ@8 0000000061075538     mftindex.obj
 0002:00009560       ??_R4Progress@?1??update_mft_index_from_usn@FilePanel@@AEAAXXZ@6B@ 0000000061075560     mftindex.obj
 0002:00009588       ??_R3Progress@?1??update_mft_index_from_usn@FilePanel@@AEAAXXZ@8 0000000061075588     mftindex.obj
 0002:000095a0       ??_R2Progress@?1??update_mft_index_from_usn@FilePanel@@AEAAXXZ@8 00000000610755a0     mftindex.obj
 0002:000095b8       ??_R1A@?0A@EA@Progress@?1??update_mft_index_from_usn@FilePanel@@AEAAXXZ@8 00000000610755b8     mftindex.obj
 0002:000095e0       ??_R4VolumeListProgress@?1??create_mft_index@FilePanel@@AEAAXXZ@6B@ 00000000610755e0     mftindex.obj
 0002:00009608       ??_R3VolumeListProgress@?1??create_mft_index@FilePanel@@AEAAXXZ@8 0000000061075608     mftindex.obj
 0002:00009620       ??_R2VolumeListProgress@?1??create_mft_index@FilePanel@@AEAAXXZ@8 0000000061075620     mftindex.obj
 0002:00009638       ??_R1A@?0A@EA@VolumeListProgress@?1??create_mft_index@FilePanel@@AEAAXXZ@8 0000000061075638     mftindex.obj
 0002:00009660       ??_R4CompressFiles@@6BIDefragProgress@@@ 0000000061075660     compress_files.obj
 0002:00009688       ??_R4CompressFiles@@6BProgressMonitor@@@ 0000000061075688     compress_files.obj
 0002:000096b0       ??_R3CompressFiles@@8      00000000610756b0     compress_files.obj
 0002:000096c8       ??_R2CompressFiles@@8      00000000610756c8     compress_files.obj
 0002:000096f0       ??_R1A@?0A@EN@ProgressMonitor@@8 00000000610756f0     compress_files.obj
 0002:00009718       ??_R1GA@?0A@EN@NonCopyable@@8 0000000061075718     compress_files.obj
 0002:00009740       ??_R1A@?0A@EA@CompressFiles@@8 0000000061075740     compress_files.obj
 0002:00009768       ??_R4CriticalSection@@6B@  0000000061075768     compress_files.obj
 0002:00009790       ??_R3CriticalSection@@8    0000000061075790     compress_files.obj
 0002:000097a8       ??_R2CriticalSection@@8    00000000610757a8     compress_files.obj
 0002:000097c8       ??_R17?0A@EN@_RTL_CRITICAL_SECTION@@8 00000000610757c8     compress_files.obj
 0002:000097f0       ??_R3_RTL_CRITICAL_SECTION@@8 00000000610757f0     compress_files.obj
 0002:00009808       ??_R2_RTL_CRITICAL_SECTION@@8 0000000061075808     compress_files.obj
 0002:00009818       ??_R1A@?0A@EA@_RTL_CRITICAL_SECTION@@8 0000000061075818     compress_files.obj
 0002:00009840       ??_R17?0A@EN@NonCopyable@@8 0000000061075840     compress_files.obj
 0002:00009868       ??_R3NonCopyable@@8        0000000061075868     compress_files.obj
 0002:00009880       ??_R2NonCopyable@@8        0000000061075880     compress_files.obj
 0002:00009890       ??_R1A@?0A@EA@NonCopyable@@8 0000000061075890     compress_files.obj
 0002:000098b8       ??_R1A@?0A@EA@CriticalSection@@8 00000000610758b8     compress_files.obj
 0002:000098e0       ??_R4bad_exception@std@@6B@ 00000000610758e0     LIBCMT:frame.obj
 0002:00009908       ??_R3bad_exception@std@@8  0000000061075908     LIBCMT:frame.obj
 0002:00009920       ??_R2bad_exception@std@@8  0000000061075920     LIBCMT:frame.obj
 0002:00009938       ??_R1A@?0A@EA@bad_exception@std@@8 0000000061075938     LIBCMT:frame.obj
 0002:00009960       __rtc_iaa                  0000000061075960     LIBCMT:_initsect_.obj
 0002:00009968       __rtc_izz                  0000000061075968     LIBCMT:_initsect_.obj
 0002:00009970       __rtc_taa                  0000000061075970     LIBCMT:_initsect_.obj
 0002:00009978       __rtc_tzz                  0000000061075978     LIBCMT:_initsect_.obj
 0002:0001acc8       _TI1?AV_com_error@@        0000000061086cc8     comsuppw:comraise.obj
 0002:0001ace8       _CTA1?AV_com_error@@       0000000061086ce8     comsuppw:comraise.obj
 0002:0001acf8       _CT??_R0?AV_com_error@@@8??0_com_error@@QEAA@AEBV0@@Z32 0000000061086cf8     comsuppw:comraise.obj
 0002:0001ad20       _CT??_R0?AVlogic_error@std@@@8??0logic_error@std@@QEAA@AEBV01@@Z24 0000000061086d20     libcpmt:xthrow.obj
 0002:0001ad48       _TI3?AVlength_error@std@@  0000000061086d48     libcpmt:xthrow.obj
 0002:0001ad68       _CTA3?AVlength_error@std@@ 0000000061086d68     libcpmt:xthrow.obj
 0002:0001ad88       _CT??_R0?AVlength_error@std@@@8??0length_error@std@@QEAA@AEBV01@@Z24 0000000061086d88     libcpmt:xthrow.obj
 0002:0001adb0       _TI3?AVout_of_range@std@@  0000000061086db0     libcpmt:xthrow.obj
 0002:0001add0       _CTA3?AVout_of_range@std@@ 0000000061086dd0     libcpmt:xthrow.obj
 0002:0001adf0       _CT??_R0?AVout_of_range@std@@@8??0out_of_range@std@@QEAA@AEBV01@@Z24 0000000061086df0     libcpmt:xthrow.obj
 0002:0001ae18       _CT??_R0?AVSystemError@@@8??0SystemError@@QEAA@AEBV0@@Z32 0000000061086e18     main.obj
 0002:0001ae40       _CT??_R0?AVError@@@8??0Error@@QEAA@AEBV0@@Z24 0000000061086e40     main.obj
 0002:0001ae68       _CTA2?AVSystemError@@      0000000061086e68     main.obj
 0002:0001ae80       _TI2?AVSystemError@@       0000000061086e80     main.obj
 0002:0001aea0       _CT??_R0?AVMsgError@@@8??0MsgError@@QEAA@AEBV0@@Z32 0000000061086ea0     main.obj
 0002:0001aec8       _CTA2?AVMsgError@@         0000000061086ec8     main.obj
 0002:0001aee0       _TI2?AVMsgError@@          0000000061086ee0     main.obj
 0002:0001af00       _CT??_R0?AVBreak@@@81      0000000061086f00     main.obj
 0002:0001af28       _CTA1?AVBreak@@            0000000061086f28     main.obj
 0002:0001af38       _TI1?AVBreak@@             0000000061086f38     main.obj
 0002:0001af58       _CT??_R0?AVexception@std@@@8??0exception@std@@QEAA@AEBV01@@Z24 0000000061086f58     main.obj
 0002:0001af80       _CT??_R0?AVbad_alloc@std@@@8??0bad_alloc@std@@QEAA@AEBV01@@Z24 0000000061086f80     main.obj
 0002:0001afa8       _CTA2?AVbad_alloc@std@@    0000000061086fa8     main.obj
 0002:0001afc0       _TI2?AVbad_alloc@std@@     0000000061086fc0     main.obj
 0002:0001afe0       _CT??_R0?AVLzoError@@@8??0LzoError@@QEAA@AEBV0@@Z32 0000000061086fe0     content.obj
 0002:0001b008       _CTA2?AVLzoError@@         0000000061087008     content.obj
 0002:0001b020       _TI2?AVLzoError@@          0000000061087020     content.obj
 0002:0001b040       _TI2?AVbad_exception@std@@ 0000000061087040     LIBCMT:frame.obj
 0002:0001b060       _CTA2?AVbad_exception@std@@ 0000000061087060     LIBCMT:frame.obj
 0002:0001b078       _CT??_R0?AVbad_exception@std@@@8??0bad_exception@std@@QEAA@AEBV01@@Z24 0000000061087078     LIBCMT:frame.obj
 0002:0001b09c       __IMPORT_DESCRIPTOR_VERSION 000000006108709c     version:VERSION.dll
 0002:0001b0b0       __IMPORT_DESCRIPTOR_imagehlp 00000000610870b0     imagehlp:imagehlp.dll
 0002:0001b0c4       __IMPORT_DESCRIPTOR_CRYPT32 00000000610870c4     crypt32:CRYPT32.dll
 0002:0001b0d8       __IMPORT_DESCRIPTOR_WINTRUST 00000000610870d8     wintrust:WINTRUST.dll
 0002:0001b0ec       __IMPORT_DESCRIPTOR_ole32  00000000610870ec     ole32:ole32.dll
 0002:0001b100       __IMPORT_DESCRIPTOR_KERNEL32 0000000061087100     kernel32:KERNEL32.dll
 0002:0001b114       __NULL_IMPORT_DESCRIPTOR   0000000061087114     version:VERSION.dll
 0003:00000000       ?__errorPfn@@3P6AXJPEAUIErrorInfo@@@ZEA 0000000061089000     comsuppw:comsupp.obj
 0003:00000008       ??_R0?AV_com_error@@@8     0000000061089008     comsuppw:comraise.obj
 0003:00000030       ??_R0?AVlogic_error@std@@@8 0000000061089030     libcpmt:xthrow.obj
 0003:00000058       ??_R0?AVlength_error@std@@@8 0000000061089058     libcpmt:xthrow.obj
 0003:00000080       ??_R0?AVout_of_range@std@@@8 0000000061089080     libcpmt:xthrow.obj
 0003:000000b0       ??_R0?AVtype_info@@@8      00000000610890b0     LIBCMT:typinfo.obj
 0003:000000d0       __security_cookie          00000000610890d0     LIBCMT:gs_cookie.obj
 0003:000000d8       __security_cookie_complement 00000000610890d8     LIBCMT:gs_cookie.obj
 0003:000000e0       _fltused                   00000000610890e0     LIBCMT:_fpinit_.obj
 0003:000000e4       _ldused                    00000000610890e4     LIBCMT:_fpinit_.obj
 0003:00000260       __flsindex                 0000000061089260     LIBCMT:tidtable.obj
 0003:00000264       __abort_behavior           0000000061089264     LIBCMT:abort.obj
 0003:00000270       __initialmbcinfo           0000000061089270     LIBCMT:mbctype.obj
 0003:00000490       _mbctype                   0000000061089490     LIBCMT:mbctype.obj
 0003:000005a0       _mbcasemap                 00000000610895a0     LIBCMT:mbctype.obj
 0003:000006a0       __ptmbcinfo                00000000610896a0     LIBCMT:mbctype.obj
 0003:000007a0       __globallocalestatus       00000000610897a0     LIBCMT:glstatus.obj
 0003:000007a4       __clocalestr               00000000610897a4     LIBCMT:nlsdata2.obj
 0003:000007b0       __lc_time_c                00000000610897b0     LIBCMT:nlsdata2.obj
 0003:00000a70       __initiallocinfo           0000000061089a70     LIBCMT:nlsdata2.obj
 0003:00000bd0       __ptlocinfo                0000000061089bd0     LIBCMT:nlsdata2.obj
 0003:00000be0       __badioinfo                0000000061089be0     LIBCMT:ioinit.obj
 0003:00000c40       _cfltcvt_tab               0000000061089c40     LIBCMT:cmiscdat.obj
 0003:00000ed0       __lconv_static_decimal     0000000061089ed0     LIBCMT:lconv.obj
 0003:00000ed4       __lconv_static_W_decimal   0000000061089ed4     LIBCMT:lconv.obj
 0003:00000ed8       __lconv                    0000000061089ed8     LIBCMT:lconv.obj
 0003:00000ee0       __lconv_c                  0000000061089ee0     LIBCMT:lconv.obj
 0003:00000f78       _pctype                    0000000061089f78     LIBCMT:ctype.obj
 0003:00000f80       _pwctype                   0000000061089f80     LIBCMT:ctype.obj
 0003:00000f88       __mb_cur_max               0000000061089f88     LIBCMT:nlsdata1.obj
 0003:00000f8c       __decimal_point            0000000061089f8c     LIBCMT:nlsdata1.obj
 0003:00000f90       __decimal_point_length     0000000061089f90     LIBCMT:nlsdata1.obj
 0003:00000fd0       _pow10pos                  0000000061089fd0     LIBCMT:_constpow_.obj
 0003:00001130       _pow10neg                  000000006108a130     LIBCMT:_constpow_.obj
 0003:00001290       ??_R0?AVSystemError@@@8    000000006108a290     main.obj
 0003:000012b8       ??_R0?AVError@@@8          000000006108a2b8     main.obj
 0003:000012d8       ??_R0?AVMsgError@@@8       000000006108a2d8     main.obj
 0003:000012f8       ??_R0?AVBreak@@@8          000000006108a2f8     main.obj
 0003:00001318       ??_R0?AVexception@std@@@8  000000006108a318     main.obj
 0003:00001340       ??_R0?AVbad_alloc@std@@@8  000000006108a340     main.obj
 0003:00001368       ??_R0?AVEstimationProgress@@@8 000000006108a368     content.obj
 0003:00001398       ??_R0?AVCompressOneFileProgress@@@8 000000006108a398     content.obj
 0003:000013c8       ??_R0?AVCompressFilesProgress@@@8 000000006108a3c8     content.obj
 0003:000013f8       ??_R0?AVProgressMonitor@@@8 000000006108a3f8     content.obj
 0003:00001420       ??_R0?AVProcessFileProgress@@@8 000000006108a420     content.obj
 0003:00001450       ??_R0?AVhash_ed2k@@@8      000000006108a450     content.obj
 0003:00001470       ??_R0?AVhash_compress@@@8  000000006108a470     content.obj
 0003:00001498       ??_R0?AVKeccak1600@@@8     000000006108a498     content.obj
 0003:000014c0       ??_R0?AVhash_sha3_256@@@8  000000006108a4c0     content.obj
 0003:000014e8       ??_R0?AVhash_sha256@@@8    000000006108a4e8     content.obj
 0003:00001510       ??_R0?AVhash_sha1@@@8      000000006108a510     content.obj
 0003:00001530       ??_R0?AVhash_md5@@@8       000000006108a530     content.obj
 0003:00001550       ??_R0?AVhash_crc16@@@8     000000006108a550     content.obj
 0003:00001578       ??_R0?AVhash_crc32@@@8     000000006108a578     content.obj
 0003:000015a0       ??_R0?AVIHashCalc@@@8      000000006108a5a0     content.obj
 0003:000015c0       ??_R0?AVLzoError@@@8       000000006108a5c0     content.obj
 0003:000015e0       ??_R0?AVFileListProgress@@@8 000000006108a5e0     file_panel.obj
 0003:00001608       ??_R0?AVDefragProgress@@@8 000000006108a608     defragment.obj
 0003:00001630       ??_R0?AVIDefragProgress@@@8 000000006108a630     defragment.obj
 0003:00001660       ??_R0?AVProgress@?1??load_mft_index@FilePanel@@AEAAXXZ@@8 000000006108a660     mftindex.obj
 0003:000016b0       ??_R0?AVProgress@?3??store_mft_index@FilePanel@@AEAAXXZ@@8 000000006108a6b0     mftindex.obj
 0003:00001700       ??_R0?AVProgress@?1??update_mft_index_from_usn@FilePanel@@AEAAXXZ@@8 000000006108a700     mftindex.obj
 0003:00001750       ??_R0?AVVolumeListProgress@?1??create_mft_index@FilePanel@@AEAAXXZ@@8 000000006108a750     mftindex.obj
 0003:000017a0       ??_R0?AUCompressFiles@@@8  000000006108a7a0     compress_files.obj
 0003:000017c8       ??_R0?AU_RTL_CRITICAL_SECTION@@@8 000000006108a7c8     compress_files.obj
 0003:000017f8       ??_R0?AVNonCopyable@@@8    000000006108a7f8     compress_files.obj
 0003:00001820       ??_R0?AVCriticalSection@@@8 000000006108a820     compress_files.obj
 0003:00001848       ?g_compress_files_params@@3UCompressFilesParams@@A 000000006108a848     compress_files.obj
 0003:00001858       ??_R0?AVbad_exception@std@@@8 000000006108a858     LIBCMT:frame.obj
 0003:000018a0       _crtheap                   000000006108a8a0     LIBCMT:heapinit.obj
 0003:000018ac       __error_mode               000000006108a8ac     LIBCMT:dllcrt0.obj
 0003:000018b0       _aenvptr                   000000006108a8b0     LIBCMT:dllcrt0.obj
 0003:000018b8       _wenvptr                   000000006108a8b8     LIBCMT:dllcrt0.obj
 0003:000018c0       __app_type                 000000006108a8c0     LIBCMT:dllcrt0.obj
 0003:000018c4       __fastflag                 000000006108a8c4     LIBCMT:_fpinit_.obj
 0003:00001e50       _umaskval                  000000006108ae50     LIBCMT:crt0dat.obj
 0003:00001e54       __argc                     000000006108ae54     LIBCMT:crt0dat.obj
 0003:00001e58       __argv                     000000006108ae58     LIBCMT:crt0dat.obj
 0003:00001e60       __wargv                    000000006108ae60     LIBCMT:crt0dat.obj
 0003:00001e68       _environ                   000000006108ae68     LIBCMT:crt0dat.obj
 0003:00001e70       __initenv                  000000006108ae70     LIBCMT:crt0dat.obj
 0003:00001e78       _wenviron                  000000006108ae78     LIBCMT:crt0dat.obj
 0003:00001e80       __winitenv                 000000006108ae80     LIBCMT:crt0dat.obj
 0003:00001e88       _pgmptr                    000000006108ae88     LIBCMT:crt0dat.obj
 0003:00001e90       _wpgmptr                   000000006108ae90     LIBCMT:crt0dat.obj
 0003:00001e98       _exitflag                  000000006108ae98     LIBCMT:crt0dat.obj
 0003:00001e9c       _C_Termination_Done        000000006108ae9c     LIBCMT:crt0dat.obj
 0003:00001ea0       _C_Exit_Done               000000006108aea0     LIBCMT:crt0dat.obj
 0003:000024d8       ?_pnhHeap@@3P6AH_K@ZEA     000000006108b4d8     LIBCMT:handler.obj
 0003:000024e0       _newmode                   000000006108b4e0     LIBCMT:_newmode.obj
 0003:000024e4       _maxwait                   000000006108b4e4     LIBCMT:crtheap.obj
 0003:000024e8       __pInvalidArgHandler       000000006108b4e8     LIBCMT:invarg.obj
 0003:000024f0       __pPurecall                000000006108b4f0     LIBCMT:inithelp.obj
 0003:00002500       __mbulinfo                 000000006108b500     LIBCMT:mbctype.obj
 0003:0000250c       __mbcodepage               000000006108b50c     LIBCMT:mbctype.obj
 0003:00002510       __ismbcodepage             000000006108b510     LIBCMT:mbctype.obj
 0003:00002514       __mblcid                   000000006108b514     LIBCMT:mbctype.obj
 0003:00002518       __locale_changed           000000006108b518     LIBCMT:setlocal.obj
 0003:00002520       ?__pInconsistency@@3P6AXXZEA 000000006108b520     LIBCMT:hooks.obj
 0003:00002870       ?pArgList@UnDecorator@@0PEAVReplicator@@EA 000000006108b870     LIBCMT:undname.obj
 0003:000028a0       ?pZNameList@UnDecorator@@0PEAVReplicator@@EA 000000006108b8a0     LIBCMT:undname.obj
 0003:000028a8       ?pTemplateArgList@UnDecorator@@0PEAVReplicator@@EA 000000006108b8a8     LIBCMT:undname.obj
 0003:000028b0       ?gName@UnDecorator@@0PEBDEB 000000006108b8b0     LIBCMT:undname.obj
 0003:000028b8       ?name@UnDecorator@@0PEBDEB 000000006108b8b8     LIBCMT:undname.obj
 0003:000028c0       ?outputString@UnDecorator@@0PEADEA 000000006108b8c0     LIBCMT:undname.obj
 0003:000028c8       ?maxStringLength@UnDecorator@@0HA 000000006108b8c8     LIBCMT:undname.obj
 0003:000028cc       ?disableFlags@UnDecorator@@0KA 000000006108b8cc     LIBCMT:undname.obj
 0003:000028d0       ?m_pGetParameter@UnDecorator@@0P6APEADJ@ZEA 000000006108b8d0     LIBCMT:undname.obj
 0003:000028d8       ?fExplicitTemplateParams@UnDecorator@@0_NA 000000006108b8d8     LIBCMT:undname.obj
 0003:000028d9       ?fGetTemplateArgumentList@UnDecorator@@0_NA 000000006108b8d9     LIBCMT:undname.obj
 0003:00002938       __lconv_static_null        000000006108b938     LIBCMT:lconv.obj
 0003:0000293c       __lconv_static_W_null      000000006108b93c     LIBCMT:lconv.obj
 0003:00002940       _outputformat              000000006108b940     LIBCMT:outputformat.obj
 0003:00002950       ?g_h_module@@3PEAUHINSTANCE__@@EA 000000006108b950     main.obj
 0003:00002958       ?g_use_standard_inf_units@@3_NA 000000006108b958     options.obj
 0003:00002960       ?g_fsf@@3UFarStandardFunctions@@A 000000006108b960     main.obj
 0003:00002ad8       ?RtlGetCompressionWorkSpaceSize@@3P6AJGPEAK0@ZEA 000000006108bad8     compress_files.obj
 0003:00002ae0       ?g_far@@3UPluginStartupInfo@@A 000000006108bae0     main.obj
 0003:00002be8       ?g_version@@3UModuleVersion@@A 000000006108bbe8     utils.obj
 0003:00002bf8       ?RtlCompressBuffer@@3P6AJGPEAEK0KKPEAKPEAX@ZEA 000000006108bbf8     compress_files.obj
 0003:00002c3c       __@@_PchSym_@00@UkilqvxghUuziUzigvnhvmUxsfkzpzyizPuzikoftUmguhurovUivovzhvOcGEUsvzwvihOlyq@ 000000006108bc3c     headers.obj
 0003:00002c48       ?g_colors@@3V?$Array@UFarColor@@@col@@A 000000006108bc48     main.obj
 0003:00002c50       ?g_file_panel_mode@@3UFilePanelMode@@A 000000006108bc50     file_panel.obj
 0003:00002ca0       ?g_file_panels@FilePanel@@0V?$Array@PEAVFilePanel@@@col@@A 000000006108bca0     file_panel.obj
 0003:00002ca8       ?g_content_options@@3UContentOptions@@A 000000006108bca8     options.obj
 0003:00002cb0       ?size_suffixes@@3V?$ObjectArray@VUnicodeString@col@@@col@@A 000000006108bcb0     utils.obj
 0003:00002cb8       ?speed_suffixes@@3V?$ObjectArray@VUnicodeString@col@@@col@@A 000000006108bcb8     utils.obj
 0003:00002cc0       ?short_size_suffixes@@3V?$ObjectArray@VUnicodeString@col@@@col@@A 000000006108bcc0     utils.obj
 0003:00002d00       OPENSSL_ia32cap_P          000000006108bd00     <common>
 0003:00002d10       _debugger_hook_dummy       000000006108bd10     <common>
 0003:00002d14       _nhandle                   000000006108bd14     <common>
 0003:00002d20       __pioinfo                  000000006108bd20     <common>
 0003:00002f20       __env_initialized          000000006108bf20     <common>
 0003:00002f28       __onexitend                000000006108bf28     <common>
 0003:00002f30       __onexitbegin              000000006108bf30     <common>
 0003:00002f38       __mbctype_initialized      000000006108bf38     <common>
 0003:00002f40       __dyn_tls_init_callback    000000006108bf40     <common>
 0003:00002f48       _acmdln                    000000006108bf48     <common>

 entry point at        0001:000501fc

 Static symbols

 0001:00018bc0       ?one_hash_proc@@YAKPEAX@Z  0000000061019bc0 f    CIL library: CIL module
 0001:00018e90       ?process_file_content@@YAXAEBVUnicodeString@col@@AEBUContentOptions@@AEAUContentInfo@@PEAVProgressMonitor@@AEAUSharedObjects@@@Z 0000000061019e90 f    CIL library: CIL module
 0001:0001d090       ??1Clean_h_panel@?7??restore_state@@YAXPEAXAEBUPanelState@@@Z@QEAA@XZ 000000006101e090 f    CIL library: CIL module
 0001:00029e80       ??1Clean_attr_data_buf@?EG@??process_base_file_rec@FileInfo@@QEAAXXZ@QEAA@XZ 000000006102ae80 f    CIL library: CIL module
 0001:00030350       ??1Clean_temp_file_path@?8??show@Log@@QEAAXXZ@QEAA@XZ 0000000061031350 f    CIL library: CIL module
 0001:00030370       ??1Clean_h_file@?BB@??show@Log@@QEAAXXZ@QEAA@XZ 0000000061031370 f    CIL library: CIL module
 0001:00036c00       ??1Clean_h_file@?7??defragment@@YAXAEBVUnicodeString@col@@AEAVIDefragProgress@@@Z@QEAA@XZ 0000000061037c00 f    CIL library: CIL module
 0001:00036c50       ??1Clean_h_file@?GE@??defragment@@YAXAEBVUnicodeString@col@@AEAVIDefragProgress@@@Z@QEAA@XZ 0000000061037c50 f    CIL library: CIL module
 0001:00038040       ?do_update_ui@VolumeListProgress@?1??create_mft_index@FilePanel@@AEAAXXZ@MEAAXXZ 0000000061039040 f    CIL library: CIL module
 0001:00039110       ?do_update_ui@Progress@?1??update_mft_index_from_usn@FilePanel@@AEAAXXZ@MEAAXXZ 000000006103a110 f    CIL library: CIL module
 0001:0003afc0       ?do_update_ui@Progress@?3??store_mft_index@FilePanel@@AEAAXXZ@MEAAXXZ 000000006103bfc0 f    CIL library: CIL module
 0001:0003b1c0       ??1Clean_h_file@?8??load_mft_index@FilePanel@@AEAAXXZ@QEAA@XZ 000000006103c1c0 f    CIL library: CIL module
 0001:0003b1c0       ??1Clean_h_file@?BE@??store_mft_index@FilePanel@@AEAAXXZ@QEAA@XZ 000000006103c1c0 f    CIL library: CIL module
 0001:0003b1c0       ??1Clean_h_file@?N@??save_hashes_to_file@@YAXAEBVUnicodeString@col@@AEBUContentOptions@@AEBUContentInfo@@@Z@QEAA@XZ 000000006103c1c0 f    CIL library: CIL module
 0001:0003c190       ?do_update_ui@Progress@?1??load_mft_index@FilePanel@@AEAAXXZ@MEAAXXZ 000000006103d190 f    CIL library: CIL module
 0001:000418a0       ??1Clean_lcid@?LI@??get_version_info@@YA?AUVersionData@@AEBVUnicodeString@col@@@Z@QEAA@XZ 00000000610428a0 f    CIL library: CIL module
 0001:000418b0       ??1Clean_exec_image@?NJ@??get_version_info@@YA?AUVersionData@@AEBVUnicodeString@col@@@Z@QEAA@XZ 00000000610428b0 f    CIL library: CIL module
 0001:00041af0       ??1CertContext@?1??get_certificate_info@@YA?AUCertificateInfo@@PEAXPEBU_CMSG_SIGNER_INFO@@@Z@QEAA@XZ 0000000061042af0 f    CIL library: CIL module
 0001:00043230       ??1CryptObject@?1??get_signature_info@@YA?AV?$ObjectArray@UNameValue@@@col@@AEBVUnicodeString@3@@Z@QEAA@XZ 0000000061044230 f    CIL library: CIL module
 0001:0004c8a0       lzo1x_1_compress_core      000000006104d8a0 f    CIL library: CIL module
 0001:0004f11c       _callthreadstartex         000000006105011c f   LIBCMT:threadex.obj
 0001:0004f148       _threadstartex             0000000061050148 f   LIBCMT:threadex.obj
 0001:0004f2c0       shortsort                  00000000610502c0 f   LIBCMT:qsort.obj
 0001:0004fbb0       x64tow                     0000000061050bb0 f   LIBCMT:xtow.obj
 0001:0004fccc       xtow_s                     0000000061050ccc f   LIBCMT:xtows.obj
 0001:000500e0       __DllMainCRTStartup        00000000610510e0 f   LIBCMT:dllcrt0.obj
 0001:000509c0       _initterm                  00000000610519c0 f   LIBCMT:crt0dat.obj
 0001:00050ae0       doexit                     0000000061051ae0 f   LIBCMT:crt0dat.obj
 0001:00051b90       ?setSBCS@@YAXPEAUthreadmbcinfostruct@@@Z 0000000061052b90 f   LIBCMT:mbctype.obj
 0001:00051c1c       ?setSBUpLow@@YAXPEAUthreadmbcinfostruct@@@Z 0000000061052c1c f   LIBCMT:mbctype.obj
 0001:00051ec8       ?getSystemCP@@YAHH@Z       0000000061052ec8 f   LIBCMT:mbctype.obj
 0001:00052898       ?wcstoxl@@YAKPEB_WPEAPEB_WHH@Z 0000000061053898 f   LIBCMT:wcstol.obj
 0001:00052f00       parse_cmdline              0000000061053f00 f   LIBCMT:stdargv.obj
 0001:000535f8       _cftoe2_l                  00000000610545f8 f   LIBCMT:cvt.obj
 0001:00053d04       _cftof2_l                  0000000061054d04 f   LIBCMT:cvt.obj
 0001:00054c68       ?__crtLCMapStringA_stat@@YAHPEAUlocaleinfo_struct@@KKPEBDHPEADHHH@Z 0000000061055c68 f   LIBCMT:a_map.obj
 0001:00054fcc       ?__crtGetStringTypeA_stat@@YAHPEAUlocaleinfo_struct@@KPEBDHPEAGHHH@Z 0000000061055fcc f   LIBCMT:a_str.obj
 0001:00055b20       ?x_ismbbtype_l@@YAHPEAUlocaleinfo_struct@@IHH@Z 0000000061056b20 f   LIBCMT:ismbbyte.obj
 0001:00059044       ?IsInExceptionSpec@@YAEPEAUEHExceptionRecord@@PEBU_s_ESTypeList@@@Z 000000006105a044 f   LIBCMT:frame.obj
 0001:000595e0       ?CatchIt@@YAXPEAUEHExceptionRecord@@PEA_KPEAU_CONTEXT@@PEAU_xDISPATCHER_CONTEXT@@PEBU_s_FuncInfo@@PEBU_s_HandlerType@@PEBU_s_CatchableType@@PEBU_s_TryBlockMapEntry@@H1EE@Z 000000006105a5e0 f   LIBCMT:frame.obj
 0001:000596a4       ?FindHandlerForForeignException@@YAXPEAUEHExceptionRecord@@PEA_KPEAU_CONTEXT@@PEAU_xDISPATCHER_CONTEXT@@PEBU_s_FuncInfo@@HH1@Z 000000006105a6a4 f   LIBCMT:frame.obj
 0001:000598dc       ?FindHandler@@YAXPEAUEHExceptionRecord@@PEA_KPEAU_CONTEXT@@PEAU_xDISPATCHER_CONTEXT@@PEBU_s_FuncInfo@@EH1@Z 000000006105a8dc f   LIBCMT:frame.obj
 0001:0005af10       se_handler                 000000006105bf10 f   md5-x86_64.obj
 0001:0005c180       sha1_block_data_order_shaext 000000006105d180 f   sha1-x86_64.obj
 0001:0005c450       sha1_block_data_order_ssse3 000000006105d450 f   sha1-x86_64.obj
 0001:0005d400       se_handler                 000000006105e400 f   sha1-x86_64.obj
 0001:0005d490       shaext_handler             000000006105e490 f   sha1-x86_64.obj
 0001:0005d4f0       ssse3_handler              000000006105e4f0 f   sha1-x86_64.obj
 0001:0005eac0       sha256_block_data_order_shaext 000000006105fac0 f   sha256-x86_64.obj
 0001:0005ee80       sha256_block_data_order_ssse3 000000006105fe80 f   sha256-x86_64.obj
 0001:0005fdb0       se_handler                 0000000061060db0 f   sha256-x86_64.obj
 0001:0005fee0       shaext_handler             0000000061060ee0 f   sha256-x86_64.obj
 0001:00060000       __KeccakF1600              0000000061061000 f   keccak1600-x86_64.obj
 0001:000602e0       KeccakF1600                00000000610612e0 f   keccak1600-x86_64.obj
 0001:00060650       _onexit$fin$0              0000000061061650 f   LIBCMT:onexit.obj
 0001:00060666       _callthreadstartex$filt$0  0000000061061666 f   LIBCMT:threadex.obj
 0001:00060684       ?fin$0@?0???_L@YAXPEAX_KHP6AX0@Z2@Z@4HA 0000000061061684 f   LIBCMT:ehvecctr.obj
 0001:000606b0       ?filt$0@?0??__ArrayUnwind@@YAXPEAX_KHP6AX0@Z@Z@4HA 00000000610616b0 f   LIBCMT:ehvecdtr.obj
 0001:000606f1       ?fin$0@?0???_M@YAXPEAX_KHP6AX0@Z@Z@4HA 00000000610616f1 f   LIBCMT:ehvecdtr.obj
 0001:0006071d       _CRT_INIT$fin$0            000000006106171d f   LIBCMT:dllcrt0.obj
 0001:00060743       __DllMainCRTStartup$filt$0 0000000061061743 f   LIBCMT:dllcrt0.obj
 0001:00060761       ?fin$0@?0??_Type_info_dtor@type_info@@CAXPEAV1@@Z@4HA 0000000061061761 f   LIBCMT:typname.obj
 0001:0006077c       doexit$fin$0               000000006106177c f   LIBCMT:crt0dat.obj
 0001:000607a0       _initptd$fin$1             00000000610617a0 f   LIBCMT:tidtable.obj
 0001:000607a0       _freefls$fin$1             00000000610617a0 f   LIBCMT:tidtable.obj
 0001:000607c0       _freefls$fin$0             00000000610617c0 f   LIBCMT:tidtable.obj
 0001:000607c0       _initptd$fin$0             00000000610617c0 f   LIBCMT:tidtable.obj
 0001:000607db       _setmbcp$fin$0             00000000610617db f   LIBCMT:mbctype.obj
 0001:000607db       __updatetmbcinfo$fin$0     00000000610617db f   LIBCMT:mbctype.obj
 0001:000607f6       __updatetlocinfo$fin$0     00000000610617f6 f   LIBCMT:localref.obj
 0001:00060811       _mtinitlocknum$fin$0       0000000061061811 f   LIBCMT:mlock.obj
 0001:0006082f       raise$fin$0                000000006106182f f   LIBCMT:winsig.obj
 0001:00060850       _IsNonwritableInCurrentImage$filt$0 0000000061061850 f   LIBCMT:pesect.obj
 0001:00060880       ?catch$0@?0??reserve@?$vector@PEAXV?$allocator@PEAX@std@@@std@@QEAAX_K@Z@4HA 0000000061061880 f    CIL library: CIL module
 0001:0006088d       __catch$?reserve@?$vector@PEAXV?$allocator@PEAX@std@@@std@@QEAAX_K@Z$0 000000006106188d f    CIL library: CIL module
 0001:000608a0       ?dtor$0@?0??far_menu@@YA_JAEBU_GUID@@AEBVUnicodeString@col@@AEBV?$ObjectArray@VUnicodeString@col@@@3@PEB_W@Z@4HA 00000000610618a0 f    CIL library: CIL module
 0001:000608b0       ?catch$0@?0??create@?$ObjectArray@UFileNameAttr@@@col@@CAPEAUBuffer@12@PEBUFileNameAttr@@_K@Z@4HA 00000000610618b0 f    CIL library: CIL module
 0001:000608c0       __catch$?create@?$ObjectArray@UFileNameAttr@@@col@@CAPEAUBuffer@12@PEBUFileNameAttr@@_K@Z$0 00000000610618c0 f    CIL library: CIL module
 0001:00060920       ?catch$0@?0??create@?$ObjectArray@UAttrInfo@@@col@@CAPEAUBuffer@12@PEBUAttrInfo@@_K@Z@4HA 0000000061061920 f    CIL library: CIL module
 0001:00060930       __catch$?create@?$ObjectArray@UAttrInfo@@@col@@CAPEAUBuffer@12@PEBUAttrInfo@@_K@Z$0 0000000061061930 f    CIL library: CIL module
 0001:00060990       ?catch$0@?0??ref_resize@?$ObjectArray@V?$Array@PEB_W@col@@@col@@AEAAX_K@Z@4HA 0000000061061990 f    CIL library: CIL module
 0001:00060990       ?catch$0@?0??ref_resize@?$ObjectArray@VUnicodeString@col@@@col@@AEAAX_K@Z@4HA 0000000061061990 f    CIL library: CIL module
 0001:000609a0       __catch$?ref_resize@?$ObjectArray@V?$Array@PEB_W@col@@@col@@AEAAX_K@Z$0 00000000610619a0 f    CIL library: CIL module
 0001:000609a0       __catch$?ref_resize@?$ObjectArray@VUnicodeString@col@@@col@@AEAAX_K@Z$0 00000000610619a0 f    CIL library: CIL module
 0001:00060a00       ?catch$0@?0??create@?$ObjectArray@V?$Array@PEB_W@col@@@col@@CAPEAUBuffer@12@PEBV?$Array@PEB_W@2@_K@Z@4HA 0000000061061a00 f    CIL library: CIL module
 0001:00060a00       ?catch$0@?0??create@?$ObjectArray@VUnicodeString@col@@@col@@CAPEAUBuffer@12@PEBVUnicodeString@2@_K@Z@4HA 0000000061061a00 f    CIL library: CIL module
 0001:00060a10       __catch$?create@?$ObjectArray@V?$Array@PEB_W@col@@@col@@CAPEAUBuffer@12@PEBV?$Array@PEB_W@2@_K@Z$0 0000000061061a10 f    CIL library: CIL module
 0001:00060a10       __catch$?create@?$ObjectArray@VUnicodeString@col@@@col@@CAPEAUBuffer@12@PEBVUnicodeString@2@_K@Z$0 0000000061061a10 f    CIL library: CIL module
 0001:00060a70       ?dtor$0@?0??str_to_char_info@@YA?AV?$Array@UFAR_CHAR_INFO@@@col@@AEBVUnicodeString@2@AEBV?$Array@UFarColor@@@2@@Z@4HA 0000000061061a70 f    CIL library: CIL module
 0001:00060aa0       ?catch$0@?0??next@LogicalDrivesEnum@@QEAA_NXZ@4HA 0000000061061aa0 f    CIL library: CIL module
 0001:00060aad       __catch$?next@LogicalDrivesEnum@@QEAA_NXZ$0 0000000061061aad f    CIL library: CIL module
 0001:00060ad0       ?catch$0@?0??next@VolumeEnum@@QEAA_NXZ@4HA 0000000061061ad0 f    CIL library: CIL module
 0001:00060add       __catch$?next@VolumeEnum@@QEAA_NXZ$0 0000000061061add f    CIL library: CIL module
 0001:00060b00       ?catch$1@?0??next@VolumeEnum@@QEAA_NXZ@4HA 0000000061061b00 f    CIL library: CIL module
 0001:00060b0d       __catch$?next@VolumeEnum@@QEAA_NXZ$2 0000000061061b0d f    CIL library: CIL module
 0001:00060b30       ?catch$0@?0???$_Uninit_copy@V?$_Vector_iterator@V?$_Vector_val@PEAXV?$allocator@PEAX@std@@@std@@@std@@PEAPEAXV?$allocator@PEAX@2@@std@@YAPEAPEAXV?$_Vector_iterator@V?$_Vector_val@PEAXV?$allocator@PEAX@std@@@std@@@0@0PEAPEAXAEAV?$allocator@PEAX@0@U_Nonscalar_ptr_iterator_tag@0@@Z@4HA 0000000061061b30 f    CIL library: CIL module
 0001:00060b3d       __catch$??$_Uninit_copy@V?$_Vector_iterator@V?$_Vector_val@PEAXV?$allocator@PEAX@std@@@std@@@std@@PEAPEAXV?$allocator@PEAX@2@@std@@YAPEAPEAXV?$_Vector_iterator@V?$_Vector_val@PEAXV?$allocator@PEAX@std@@@std@@@0@0PEAPEAXAEAV?$allocator@PEAX@0@U_Nonscalar_ptr_iterator_tag@0@@Z$0 0000000061061b3d f    CIL library: CIL module
 0001:00060b50       ?catch$0@?0???$_Insert@V?$_Vector_iterator@V?$_Vector_val@PEAXV?$allocator@PEAX@std@@@std@@@std@@@?$vector@PEAXV?$allocator@PEAX@std@@@std@@QEAAXV?$_Vector_const_iterator@V?$_Vector_val@PEAXV?$allocator@PEAX@std@@@std@@@1@V?$_Vector_iterator@V?$_Vector_val@PEAXV?$allocator@PEAX@std@@@std@@@1@1Uforward_iterator_tag@1@@Z@4HA 0000000061061b50 f    CIL library: CIL module
 0001:00060b5d       __catch$??$_Insert@V?$_Vector_iterator@V?$_Vector_val@PEAXV?$allocator@PEAX@std@@@std@@@std@@@?$vector@PEAXV?$allocator@PEAX@std@@@std@@QEAAXV?$_Vector_const_iterator@V?$_Vector_val@PEAXV?$allocator@PEAX@std@@@std@@@1@V?$_Vector_iterator@V?$_Vector_val@PEAXV?$allocator@PEAX@std@@@std@@@1@1Uforward_iterator_tag@1@@Z$0 0000000061061b5d f    CIL library: CIL module
 0001:00060b70       ?dtor$0@?0???1WorkerThreads@@QEAA@XZ@4HA 0000000061061b70 f    CIL library: CIL module
 0001:00060b80       ?catch$0@?0??allocate@Buffer@@QEAAXIII@Z@4HA 0000000061061b80 f    CIL library: CIL module
 0001:00060b8d       __catch$?allocate@Buffer@@QEAAXIII@Z$0 0000000061061b8d f    CIL library: CIL module
 0001:00060bb0       ?catch$0@?0??get_time_freq@@YA_KXZ@4HA 0000000061061bb0 f    CIL library: CIL module
 0001:00060bbd       __catch$?get_time_freq@@YA_KXZ$0 0000000061061bbd f    CIL library: CIL module
 0001:00060be0       ?catch$0@?0??get_time@@YA_KXZ@4HA 0000000061061be0 f    CIL library: CIL module
 0001:00060bed       __catch$?get_time@@YA_KXZ$0 0000000061061bed f    CIL library: CIL module
 0001:00060c10       ?catch$0@?0??init_comp_api@@YAXXZ@4HA 0000000061061c10 f    CIL library: CIL module
 0001:00060c1d       __catch$?init_comp_api@@YAXXZ$0 0000000061061c1d f    CIL library: CIL module
 0001:00060c40       ?catch$1@?0??init_comp_api@@YAXXZ@4HA 0000000061061c40 f    CIL library: CIL module
 0001:00060c4d       __catch$?init_comp_api@@YAXXZ$2 0000000061061c4d f    CIL library: CIL module
 0001:00060c70       ?catch$0@?0???$_Buynode@U?$pair@_KI@std@@@?$_Tree_val@V?$_Tmap_traits@_KIU?$less@_K@std@@V?$allocator@U?$pair@$$CB_KI@std@@@2@$0A@@std@@@std@@QEAAPEAU_Node@?$_Tree_nod@V?$_Tmap_traits@_KIU?$less@_K@std@@V?$allocator@U?$pair@$$CB_KI@std@@@2@$0A@@std@@@1@$$QEAU?$pair@_KI@1@@Z@4HA 0000000061061c70 f    CIL library: CIL module
 0001:00060c7d       __catch$??$_Buynode@U?$pair@_KI@std@@@?$_Tree_val@V?$_Tmap_traits@_KIU?$less@_K@std@@V?$allocator@U?$pair@$$CB_KI@std@@@2@$0A@@std@@@std@@QEAAPEAU_Node@?$_Tree_nod@V?$_Tmap_traits@_KIU?$less@_K@std@@V?$allocator@U?$pair@$$CB_KI@std@@@2@$0A@@std@@@1@$$QEAU?$pair@_KI@1@@Z$0 0000000061061c7d f    CIL library: CIL module
 0001:00060c90       ?catch$0@?0???$_Buynode@_K@?$_Tree_val@V?$_Tset_traits@_KU?$less@_K@std@@V?$allocator@_K@2@$0A@@std@@@std@@QEAAPEAU_Node@?$_Tree_nod@V?$_Tset_traits@_KU?$less@_K@std@@V?$allocator@_K@2@$0A@@std@@@1@$$QEA_K@Z@4HA 0000000061061c90 f    CIL library: CIL module
 0001:00060c90       ?catch$0@?0???$_Buynode@$$CB_K@?$_Tree_val@V?$_Tset_traits@_KU?$less@_K@std@@V?$allocator@_K@2@$0A@@std@@@std@@QEAAPEAU_Node@?$_Tree_nod@V?$_Tset_traits@_KU?$less@_K@std@@V?$allocator@_K@2@$0A@@std@@@1@$$QEB_K@Z@4HA 0000000061061c90 f    CIL library: CIL module
 0001:00060c9d       __catch$??$_Buynode@$$CB_K@?$_Tree_val@V?$_Tset_traits@_KU?$less@_K@std@@V?$allocator@_K@2@$0A@@std@@@std@@QEAAPEAU_Node@?$_Tree_nod@V?$_Tset_traits@_KU?$less@_K@std@@V?$allocator@_K@2@$0A@@std@@@1@$$QEB_K@Z$0 0000000061061c9d f    CIL library: CIL module
 0001:00060c9d       __catch$??$_Buynode@_K@?$_Tree_val@V?$_Tset_traits@_KU?$less@_K@std@@V?$allocator@_K@2@$0A@@std@@@std@@QEAAPEAU_Node@?$_Tree_nod@V?$_Tset_traits@_KU?$less@_K@std@@V?$allocator@_K@2@$0A@@std@@@1@$$QEA_K@Z$0 0000000061061c9d f    CIL library: CIL module
 0001:00060cb0       ?catch$0@?0??mft_find_root@FilePanel@@AEBA_KXZ@4HA 0000000061061cb0 f    CIL library: CIL module
 0001:00060cbd       __catch$?mft_find_root@FilePanel@@AEBA_KXZ$0 0000000061061cbd f    CIL library: CIL module
 0001:00060ce0       ?catch$1@?0??prepare_usn_journal@FilePanel@@AEAAXXZ@4HA 0000000061061ce0 f    CIL library: CIL module
 0001:00060ced       __catch$?prepare_usn_journal@FilePanel@@AEAAXXZ$0 0000000061061ced f    CIL library: CIL module
 0001:00060d10       ?catch$2@?0??prepare_usn_journal@FilePanel@@AEAAXXZ@4HA 0000000061061d10 f    CIL library: CIL module
 0001:00060d1d       __catch$?prepare_usn_journal@FilePanel@@AEAAXXZ$2 0000000061061d1d f    CIL library: CIL module
 0001:00060d40       ?catch$3@?0??prepare_usn_journal@FilePanel@@AEAAXXZ@4HA 0000000061061d40 f    CIL library: CIL module
 0001:00060d4d       __catch$?prepare_usn_journal@FilePanel@@AEAAXXZ$4 0000000061061d4d f    CIL library: CIL module
 0001:00060d70       ?catch$0@?0??prepare_usn_journal@FilePanel@@AEAAXXZ@4HA 0000000061061d70 f    CIL library: CIL module
 0001:00060d7d       __catch$?prepare_usn_journal@FilePanel@@AEAAXXZ$6 0000000061061d7d f    CIL library: CIL module
 0001:00060da0       ?catch$0@?0???1Clean_h_file@?7??defragment@@YAXAEBVUnicodeString@col@@AEAVIDefragProgress@@@Z@QEAA@XZ@4HA 0000000061061da0 f    CIL library: CIL module
 0001:00060dad       __catch$??1Clean_h_file@?7??defragment@@YAXAEBVUnicodeString@col@@AEAVIDefragProgress@@@Z@QEAA@XZ$0 0000000061061dad f    CIL library: CIL module
 0001:00060dd0       ?catch$0@?0??read@File@@QEAAIPEAXI@Z@4HA 0000000061061dd0 f    CIL library: CIL module
 0001:00060ddd       __catch$?read@File@@QEAAIPEAXI@Z$0 0000000061061ddd f    CIL library: CIL module
 0001:00060e00       ?catch$0@?0??size@File@@QEAA_KXZ@4HA 0000000061061e00 f    CIL library: CIL module
 0001:00060e0d       __catch$?size@File@@QEAA_KXZ$0 0000000061061e0d f    CIL library: CIL module
 0001:00060e30       ?catch$0@?0???0Semaphore@@QEAA@II@Z@4HA 0000000061061e30 f    CIL library: CIL module
 0001:00060e3d       __catch$??0Semaphore@@QEAA@II@Z$0 0000000061061e3d f    CIL library: CIL module
 0001:00060e60       ?catch$0@?0???0Event@@QEAA@_N0@Z@4HA 0000000061061e60 f    CIL library: CIL module
 0001:00060e6d       __catch$??0Event@@QEAA@_N0@Z$0 0000000061061e6d f    CIL library: CIL module
 0001:00060e90       ?catch$0@?0???1Clean_h_file@?BB@??show@Log@@QEAAXXZ@QEAA@XZ@4HA 0000000061061e90 f    CIL library: CIL module
 0001:00060e9d       __catch$??1Clean_h_file@?BB@??show@Log@@QEAAXXZ@QEAA@XZ$0 0000000061061e9d f    CIL library: CIL module
 0001:00060ec0       ?dtor$0@?0???1ProgressMonitor@@UEAA@XZ@4HA 0000000061061ec0 f    CIL library: CIL module
 0001:00060ed0       ?catch$0@?0??replace@?$ObjectArray@UFileNameAttr@@@col@@QEAAAEAV12@_K0PEBUFileNameAttr@@0@Z@4HA 0000000061061ed0 f    CIL library: CIL module
 0001:00060ee0       __catch$?replace@?$ObjectArray@UFileNameAttr@@@col@@QEAAAEAV12@_K0PEBUFileNameAttr@@0@Z$0 0000000061061ee0 f    CIL library: CIL module
 0001:00060f40       ?catch$1@?0??replace@?$ObjectArray@UFileNameAttr@@@col@@QEAAAEAV12@_K0PEBUFileNameAttr@@0@Z@4HA 0000000061061f40 f    CIL library: CIL module
 0001:00060f52       __catch$?replace@?$ObjectArray@UFileNameAttr@@@col@@QEAAAEAV12@_K0PEBUFileNameAttr@@0@Z$2 0000000061061f52 f    CIL library: CIL module
 0001:00060ff0       ?catch$0@?0??replace@?$ObjectArray@UAttrInfo@@@col@@QEAAAEAV12@_K0PEBUAttrInfo@@0@Z@4HA 0000000061061ff0 f    CIL library: CIL module
 0001:00061000       __catch$?replace@?$ObjectArray@UAttrInfo@@@col@@QEAAAEAV12@_K0PEBUAttrInfo@@0@Z$0 0000000061062000 f    CIL library: CIL module
 0001:00061060       ?catch$1@?0??replace@?$ObjectArray@UAttrInfo@@@col@@QEAAAEAV12@_K0PEBUAttrInfo@@0@Z@4HA 0000000061062060 f    CIL library: CIL module
 0001:00061072       __catch$?replace@?$ObjectArray@UAttrInfo@@@col@@QEAAAEAV12@_K0PEBUAttrInfo@@0@Z$2 0000000061062072 f    CIL library: CIL module
 0001:00061110       ?catch$0@?0??ref_resize@?$ObjectArray@UAttrInfo@@@col@@AEAAX_K@Z@4HA 0000000061062110 f    CIL library: CIL module
 0001:00061120       __catch$?ref_resize@?$ObjectArray@UAttrInfo@@@col@@AEAAX_K@Z$0 0000000061062120 f    CIL library: CIL module
 0001:00061180       ?catch$0@?0???1Clean_attr_data_buf@?EG@??process_base_file_rec@FileInfo@@QEAAXXZ@QEAA@XZ@4HA 0000000061062180 f    CIL library: CIL module
 0001:0006118d       __catch$??1Clean_attr_data_buf@?EG@??process_base_file_rec@FileInfo@@QEAAXXZ@QEAA@XZ$0 000000006106218d f    CIL library: CIL module
 0001:000611b0       ?catch$0@?0??replace@?$ObjectArray@V?$Array@PEB_W@col@@@col@@QEAAAEAV12@_K0PEBV?$Array@PEB_W@2@0@Z@4HA 00000000610621b0 f    CIL library: CIL module
 0001:000611c0       __catch$?replace@?$ObjectArray@V?$Array@PEB_W@col@@@col@@QEAAAEAV12@_K0PEBV?$Array@PEB_W@2@0@Z$0 00000000610621c0 f    CIL library: CIL module
 0001:00061220       ?catch$1@?0??replace@?$ObjectArray@V?$Array@PEB_W@col@@@col@@QEAAAEAV12@_K0PEBV?$Array@PEB_W@2@0@Z@4HA 0000000061062220 f    CIL library: CIL module
 0001:00061232       __catch$?replace@?$ObjectArray@V?$Array@PEB_W@col@@@col@@QEAAAEAV12@_K0PEBV?$Array@PEB_W@2@0@Z$2 0000000061062232 f    CIL library: CIL module
 0001:000612c0       ?catch$0@?0??_Buynode@?$_List_val@UPanelItemData@FilePanel@@V?$allocator@UPanelItemData@FilePanel@@@std@@@std@@QEAAPEAU_Node@?$_List_nod@UPanelItemData@FilePanel@@V?$allocator@UPanelItemData@FilePanel@@@std@@@2@PEAU342@0AEBUPanelItemData@FilePanel@@@Z@4HA 00000000610622c0 f    CIL library: CIL module
 0001:000612cd       __catch$?_Buynode@?$_List_val@UPanelItemData@FilePanel@@V?$allocator@UPanelItemData@FilePanel@@@std@@@std@@QEAAPEAU_Node@?$_List_nod@UPanelItemData@FilePanel@@V?$allocator@UPanelItemData@FilePanel@@@std@@@2@PEAU342@0AEBUPanelItemData@FilePanel@@@Z$0 00000000610622cd f    CIL library: CIL module
 0001:000612e0       ?catch$0@?0??create@?$ObjectArray@UFileRecord@FilePanel@@@col@@CAPEAUBuffer@12@PEBUFileRecord@FilePanel@@_K@Z@4HA 00000000610622e0 f    CIL library: CIL module
 0001:000612f0       __catch$?create@?$ObjectArray@UFileRecord@FilePanel@@@col@@CAPEAUBuffer@12@PEBUFileRecord@FilePanel@@_K@Z$0 00000000610622f0 f    CIL library: CIL module
 0001:00061350       ?dtor$0@?0??process_file_content@@YAXAEBVUnicodeString@col@@AEBUContentOptions@@AEAUContentInfo@@PEAVProgressMonitor@@AEAUSharedObjects@@@Z@4HA 0000000061062350 f    CIL library: CIL module
 0001:00061360       ?catch$0@?0??process_file_content@@YAXAEBVUnicodeString@col@@AEBUContentOptions@@AEAUContentInfo@@PEAVProgressMonitor@@AEAUSharedObjects@@@Z@4HA 0000000061062360 f    CIL library: CIL module
 0001:0006136d       __catch$?process_file_content@@YAXAEBVUnicodeString@col@@AEBUContentOptions@@AEAUContentInfo@@PEAVProgressMonitor@@AEAUSharedObjects@@@Z$0 000000006106236d f    CIL library: CIL module
 0001:00061390       ?catch$1@?0??process_file_content@@YAXAEBVUnicodeString@col@@AEBUContentOptions@@AEAUContentInfo@@PEAVProgressMonitor@@AEAUSharedObjects@@@Z@4HA 0000000061062390 f    CIL library: CIL module
 0001:0006139d       __catch$?process_file_content@@YAXAEBVUnicodeString@col@@AEBUContentOptions@@AEAUContentInfo@@PEAVProgressMonitor@@AEAUSharedObjects@@@Z$2 000000006106239d f    CIL library: CIL module
 0001:000613c0       ?catch$2@?0??process_file_content@@YAXAEBVUnicodeString@col@@AEBUContentOptions@@AEAUContentInfo@@PEAVProgressMonitor@@AEAUSharedObjects@@@Z@4HA 00000000610623c0 f    CIL library: CIL module
 0001:000613cd       __catch$?process_file_content@@YAXAEBVUnicodeString@col@@AEBUContentOptions@@AEAUContentInfo@@PEAVProgressMonitor@@AEAUSharedObjects@@@Z$4 00000000610623cd f    CIL library: CIL module
 0001:000613f0       ?dtor$0@?0???0SharedObjects@@QEAA@XZ@4HA 00000000610623f0 f    CIL library: CIL module
 0001:00061400       ?dtor$1@?0???0SharedObjects@@QEAA@XZ@4HA 0000000061062400 f    CIL library: CIL module
 0001:00061410       ?dtor$2@?0???0SharedObjects@@QEAA@XZ@4HA 0000000061062410 f    CIL library: CIL module
 0001:00061420       ?dtor$3@?0???0SharedObjects@@QEAA@XZ@4HA 0000000061062420 f    CIL library: CIL module
 0001:00061430       ?dtor$4@?0???0SharedObjects@@QEAA@XZ@4HA 0000000061062430 f    CIL library: CIL module
 0001:00061450       ?dtor$5@?0???0SharedObjects@@QEAA@XZ@4HA 0000000061062450 f    CIL library: CIL module
 0001:00061470       ?dtor$6@?0???0SharedObjects@@QEAA@XZ@4HA 0000000061062470 f    CIL library: CIL module
 0001:00061490       ?dtor$7@?0???0SharedObjects@@QEAA@XZ@4HA 0000000061062490 f    CIL library: CIL module
 0001:000614b0       ?dtor$8@?0???0SharedObjects@@QEAA@XZ@4HA 00000000610624b0 f    CIL library: CIL module
 0001:000614d0       ?dtor$10@?0???0SharedObjects@@QEAA@XZ@4HA 00000000610624d0 f    CIL library: CIL module
 0001:000614e0       ?dtor$11@?0???0SharedObjects@@QEAA@XZ@4HA 00000000610624e0 f    CIL library: CIL module
 0001:000614f0       ?dtor$12@?0???0SharedObjects@@QEAA@XZ@4HA 00000000610624f0 f    CIL library: CIL module
 0001:00061500       ?dtor$13@?0???0SharedObjects@@QEAA@XZ@4HA 0000000061062500 f    CIL library: CIL module
 0001:00061510       ?dtor$14@?0???0SharedObjects@@QEAA@XZ@4HA 0000000061062510 f    CIL library: CIL module
 0001:00061520       ?dtor$15@?0???0SharedObjects@@QEAA@XZ@4HA 0000000061062520 f    CIL library: CIL module
 0001:00061530       ?catch$0@?0??update@hash_compress@@UEAAXPEBX_K@Z@4HA 0000000061062530 f    CIL library: CIL module
 0001:0006153d       __catch$?update@hash_compress@@UEAAXPEBX_K@Z$0 000000006106253d f    CIL library: CIL module
 0001:00061560       ?catch$0@?0??initialize@hash_compress@@UEAA_NXZ@4HA 0000000061062560 f    CIL library: CIL module
 0001:0006156d       __catch$?initialize@hash_compress@@UEAA_NXZ$0 000000006106256d f    CIL library: CIL module
 0001:00061590       ?dtor$0@?0???Hcol@@YA?AVUnicodeString@0@AEBV10@0@Z@4HA 0000000061062590 f    CIL library: CIL module
 0001:00061590       ?dtor$0@?0???Hcol@@YA?AVUnicodeString@0@PEB_WAEBV10@@Z@4HA 0000000061062590 f    CIL library: CIL module
 0001:00061590       ?dtor$0@?0???Hcol@@YA?AVUnicodeString@0@AEBV10@PEB_W@Z@4HA 0000000061062590 f    CIL library: CIL module
 0001:00061590       ?dtor$0@?0???Hcol@@YA?AVUnicodeString@0@AEB_WAEBV10@@Z@4HA 0000000061062590 f    CIL library: CIL module
 0001:00061590       ?dtor$0@?0???Hcol@@YA?AVUnicodeString@0@AEBV10@AEB_W@Z@4HA 0000000061062590 f    CIL library: CIL module
 0001:000615a0       ?catch$0@?0??replace@?$ObjectArray@VUnicodeString@col@@@col@@QEAAAEAV12@_K0PEBVUnicodeString@2@0@Z@4HA 00000000610625a0 f    CIL library: CIL module
 0001:000615b0       __catch$?replace@?$ObjectArray@VUnicodeString@col@@@col@@QEAAAEAV12@_K0PEBVUnicodeString@2@0@Z$0 00000000610625b0 f    CIL library: CIL module
 0001:00061610       ?catch$1@?0??replace@?$ObjectArray@VUnicodeString@col@@@col@@QEAAAEAV12@_K0PEBVUnicodeString@2@0@Z@4HA 0000000061062610 f    CIL library: CIL module
 0001:00061622       __catch$?replace@?$ObjectArray@VUnicodeString@col@@@col@@QEAAAEAV12@_K0PEBVUnicodeString@2@0@Z$2 0000000061062622 f    CIL library: CIL module
 0001:000616b0       ?catch$0@?0??create@?$ObjectArray@VFileInfo@@@col@@CAPEAUBuffer@12@PEBVFileInfo@@_K@Z@4HA 00000000610626b0 f    CIL library: CIL module
 0001:000616c0       __catch$?create@?$ObjectArray@VFileInfo@@@col@@CAPEAUBuffer@12@PEBVFileInfo@@_K@Z$0 00000000610626c0 f    CIL library: CIL module
 0001:00061710       ?catch$0@?0??create@?$ObjectArray@UListData@FarDialog@@@col@@CAPEAUBuffer@12@PEBUListData@FarDialog@@_K@Z@4HA 0000000061062710 f    CIL library: CIL module
 0001:00061710       ?catch$0@?0??create@?$ObjectArray@UNameValue@@@col@@CAPEAUBuffer@12@PEBUNameValue@@_K@Z@4HA 0000000061062710 f    CIL library: CIL module
 0001:00061710       ?catch$0@?0??create@?$ObjectArray@ULogRecord@@@col@@CAPEAUBuffer@12@PEBULogRecord@@_K@Z@4HA 0000000061062710 f    CIL library: CIL module
 0001:00061720       __catch$?create@?$ObjectArray@UListData@FarDialog@@@col@@CAPEAUBuffer@12@PEBUListData@FarDialog@@_K@Z$0 0000000061062720 f    CIL library: CIL module
 0001:00061720       __catch$?create@?$ObjectArray@UNameValue@@@col@@CAPEAUBuffer@12@PEBUNameValue@@_K@Z$0 0000000061062720 f    CIL library: CIL module
 0001:00061720       __catch$?create@?$ObjectArray@ULogRecord@@@col@@CAPEAUBuffer@12@PEBULogRecord@@_K@Z$0 0000000061062720 f    CIL library: CIL module
 0001:00061770       ?dtor$0@?0??far_get_text@@YA?AVUnicodeString@col@@PEAX_K@Z@4HA 0000000061062770 f    CIL library: CIL module
 0001:000617a0       ?catch$0@?0??close@NtfsVolume@@QEAAXXZ@4HA 00000000610627a0 f    CIL library: CIL module
 0001:000617ad       __catch$?close@NtfsVolume@@QEAAXXZ$0 00000000610627ad f    CIL library: CIL module
 0001:000617d0       ?dtor$1@?0???1?$set@_KU?$less@_K@std@@V?$allocator@_K@2@@std@@QEAA@XZ@4HA 00000000610627d0 f    CIL library: CIL module
 0001:000617d0       ?dtor$1@?0???1?$map@_KIU?$less@_K@std@@V?$allocator@U?$pair@$$CB_KI@std@@@2@@std@@QEAA@XZ@4HA 00000000610627d0 f    CIL library: CIL module
 0001:000617d0       ?dtor$1@?0???1?$map@V?$basic_string@_WU?$char_traits@_W@std@@V?$allocator@_W@2@@std@@V12@U?$less@V?$basic_string@_WU?$char_traits@_W@std@@V?$allocator@_W@2@@std@@@2@V?$allocator@U?$pair@$$CBV?$basic_string@_WU?$char_traits@_W@std@@V?$allocator@_W@2@@std@@V12@@std@@@2@@std@@QEAA@XZ@4HA 00000000610627d0 f    CIL library: CIL module
 0001:000617e0       ?dtor$0@?0???1CompressFiles@@UEAA@XZ@4HA 00000000610627e0 f    CIL library: CIL module
 0001:000617f0       ?dtor$2@?0??get_certificate_info@@YA?AUCertificateInfo@@PEAXPEBU_CMSG_SIGNER_INFO@@@Z@4HA 00000000610627f0 f    CIL library: CIL module
 0001:00061800       ?dtor$0@?0??get_certificate_info@@YA?AUCertificateInfo@@PEAXPEBU_CMSG_SIGNER_INFO@@@Z@4HA 0000000061062800 f    CIL library: CIL module
 0001:00061830       ?dtor$1@?0??get_certificate_info@@YA?AUCertificateInfo@@PEAXPEBU_CMSG_SIGNER_INFO@@@Z@4HA 0000000061062830 f    CIL library: CIL module
 0001:00061840       ?catch$0@?0??_Buynode@?$_List_val@UFileRecord@FilePanel@@V?$allocator@UFileRecord@FilePanel@@@std@@@std@@QEAAPEAU_Node@?$_List_nod@UFileRecord@FilePanel@@V?$allocator@UFileRecord@FilePanel@@@std@@@2@PEAU342@0AEBUFileRecord@FilePanel@@@Z@4HA 0000000061062840 f    CIL library: CIL module
 0001:0006184d       __catch$?_Buynode@?$_List_val@UFileRecord@FilePanel@@V?$allocator@UFileRecord@FilePanel@@@std@@@std@@QEAAPEAU_Node@?$_List_nod@UFileRecord@FilePanel@@V?$allocator@UFileRecord@FilePanel@@@std@@@2@PEAU342@0AEBUFileRecord@FilePanel@@@Z$0 000000006106284d f    CIL library: CIL module
 0001:00061860       ?catch$0@?0??ref_resize@?$ObjectArray@UFileRecord@FilePanel@@@col@@AEAAX_K@Z@4HA 0000000061062860 f    CIL library: CIL module
 0001:00061870       __catch$?ref_resize@?$ObjectArray@UFileRecord@FilePanel@@@col@@AEAAX_K@Z$0 0000000061062870 f    CIL library: CIL module
 0001:000618d0       ?dtor$1@?0??add@Log@@QEAAXAEBVUnicodeString@col@@0@Z@4HA 00000000610628d0 f    CIL library: CIL module
 0001:000618e0       ?dtor$0@?0??add@Log@@QEAAXAEBVUnicodeString@col@@0@Z@4HA 00000000610628e0 f    CIL library: CIL module
 0001:000618f0       ?catch$1@?0??_Copy@?$basic_string@_WU?$char_traits@_W@std@@V?$allocator@_W@2@@std@@QEAAX_K0@Z@4HA 00000000610628f0 f    CIL library: CIL module
 0001:000618fd       __catch$?_Copy@?$basic_string@_WU?$char_traits@_W@std@@V?$allocator@_W@2@@std@@QEAAX_K0@Z$0 00000000610628fd f    CIL library: CIL module
 0001:00061930       ?catch$0@?0??_Copy@?$basic_string@_WU?$char_traits@_W@std@@V?$allocator@_W@2@@std@@QEAAX_K0@Z@4HA 0000000061062930 f    CIL library: CIL module
 0001:0006193e       __catch$?_Copy@?$basic_string@_WU?$char_traits@_W@std@@V?$allocator@_W@2@@std@@QEAAX_K0@Z$1 000000006106293e f    CIL library: CIL module
 0001:00061970       ?dtor$0@?0??get_temp_path@@YA?AVUnicodeString@col@@XZ@4HA 0000000061062970 f    CIL library: CIL module
 0001:000619a0       ?catch$0@?0??get_temp_path@@YA?AVUnicodeString@col@@XZ@4HA 00000000610629a0 f    CIL library: CIL module
 0001:000619ad       __catch$?get_temp_path@@YA?AVUnicodeString@col@@XZ$0 00000000610629ad f    CIL library: CIL module
 0001:000619d0       ?catch$0@?0??update_ui@ProgressMonitor@@UEAAX_N@Z@4HA 00000000610629d0 f    CIL library: CIL module
 0001:000619dd       __catch$?update_ui@ProgressMonitor@@UEAAX_N@Z$0 00000000610629dd f    CIL library: CIL module
 0001:00061a00       ?dtor$0@?0??get_module_version@@YA?AUModuleVersion@@PEAUHINSTANCE__@@@Z@4HA 0000000061062a00 f    CIL library: CIL module
 0001:00061a10       ?dtor$1@?0??get_module_version@@YA?AUModuleVersion@@PEAUHINSTANCE__@@@Z@4HA 0000000061062a10 f    CIL library: CIL module
 0001:00061a20       ?dtor$0@?0??word_wrap@@YA?AVUnicodeString@col@@AEBV12@_K@Z@4HA 0000000061062a20 f    CIL library: CIL module
 0001:00061a50       ?dtor$0@?0??format_data_size@@YA?AVUnicodeString@col@@_KAEBV?$ObjectArray@VUnicodeString@col@@@2@@Z@4HA 0000000061062a50 f    CIL library: CIL module
 0001:00061a80       ?dtor$0@?0??unicode_to_ansi@@YA?AVAnsiString@col@@AEBVUnicodeString@2@I@Z@4HA 0000000061062a80 f    CIL library: CIL module
 0001:00061a90       ?dtor$0@?0??ansi_to_unicode@@YA?AVUnicodeString@col@@AEBVAnsiString@2@I@Z@4HA 0000000061062a90 f    CIL library: CIL module
 0001:00061aa0       ?catch$0@?0??oem_to_unicode@@YAXAEAVUnicodeString@col@@AEBVAnsiString@2@@Z@4HA 0000000061062aa0 f    CIL library: CIL module
 0001:00061aad       __catch$?oem_to_unicode@@YAXAEAVUnicodeString@col@@AEBVAnsiString@2@@Z$0 0000000061062aad f    CIL library: CIL module
 0001:00061ad0       ?catch$0@?0??unicode_to_oem@@YAXAEAVAnsiString@col@@AEBVUnicodeString@2@@Z@4HA 0000000061062ad0 f    CIL library: CIL module
 0001:00061add       __catch$?unicode_to_oem@@YAXAEAVAnsiString@col@@AEBVUnicodeString@2@@Z$0 0000000061062add f    CIL library: CIL module
 0001:00061b00       ?catch$0@?0??replace@?$ObjectArray@UFileRecord@FilePanel@@@col@@QEAAAEAV12@_K0PEBUFileRecord@FilePanel@@0@Z@4HA 0000000061062b00 f    CIL library: CIL module
 0001:00061b10       __catch$?replace@?$ObjectArray@UFileRecord@FilePanel@@@col@@QEAAAEAV12@_K0PEBUFileRecord@FilePanel@@0@Z$0 0000000061062b10 f    CIL library: CIL module
 0001:00061b70       ?catch$1@?0??replace@?$ObjectArray@UFileRecord@FilePanel@@@col@@QEAAAEAV12@_K0PEBUFileRecord@FilePanel@@0@Z@4HA 0000000061062b70 f    CIL library: CIL module
 0001:00061b82       __catch$?replace@?$ObjectArray@UFileRecord@FilePanel@@@col@@QEAAAEAV12@_K0PEBUFileRecord@FilePanel@@0@Z$2 0000000061062b82 f    CIL library: CIL module
 0001:00061c20       ?catch$0@?0??create@?$ObjectArray@UPluginItemList@@@col@@CAPEAUBuffer@12@PEBUPluginItemList@@_K@Z@4HA 0000000061062c20 f    CIL library: CIL module
 0001:00061c30       __catch$?create@?$ObjectArray@UPluginItemList@@@col@@CAPEAUBuffer@12@PEBUPluginItemList@@_K@Z$0 0000000061062c30 f    CIL library: CIL module
 0001:00061c80       ?dtor$0@?0???1NtfsVolume@@QEAA@XZ@4HA 0000000061062c80 f    CIL library: CIL module
 0001:00061c80       ?dtor$13@?0???1FilePanel@@QEAA@XZ@4HA 0000000061062c80 f    CIL library: CIL module
 0001:00061c90       ?dtor$0@?0???0FilePanel@@AEAA@XZ@4HA 0000000061062c90 f    CIL library: CIL module
 0001:00061ca0       ?dtor$1@?0???0FilePanel@@AEAA@XZ@4HA 0000000061062ca0 f    CIL library: CIL module
 0001:00061cb0       ?dtor$2@?0???0FilePanel@@AEAA@XZ@4HA 0000000061062cb0 f    CIL library: CIL module
 0001:00061cc0       ?dtor$3@?0???0FilePanel@@AEAA@XZ@4HA 0000000061062cc0 f    CIL library: CIL module
 0001:00061cd0       ?dtor$4@?0???0FilePanel@@AEAA@XZ@4HA 0000000061062cd0 f    CIL library: CIL module
 0001:00061ce0       ?dtor$5@?0???0FilePanel@@AEAA@XZ@4HA 0000000061062ce0 f    CIL library: CIL module
 0001:00061d00       ?dtor$6@?0???0FilePanel@@AEAA@XZ@4HA 0000000061062d00 f    CIL library: CIL module
 0001:00061d20       ?dtor$7@?0???0FilePanel@@AEAA@XZ@4HA 0000000061062d20 f    CIL library: CIL module
 0001:00061d40       ?dtor$8@?0???0FilePanel@@AEAA@XZ@4HA 0000000061062d40 f    CIL library: CIL module
 0001:00061d60       ?dtor$9@?0???0FilePanel@@AEAA@XZ@4HA 0000000061062d60 f    CIL library: CIL module
 0001:00061d80       ?dtor$14@?0???0FilePanel@@AEAA@XZ@4HA 0000000061062d80 f    CIL library: CIL module
 0001:00061d90       ?dtor$15@?0???0FilePanel@@AEAA@XZ@4HA 0000000061062d90 f    CIL library: CIL module
 0001:00061da0       ?dtor$16@?0???0FilePanel@@AEAA@XZ@4HA 0000000061062da0 f    CIL library: CIL module
 0001:00061db0       ?dtor$10@?0???0FilePanel@@AEAA@XZ@4HA 0000000061062db0 f    CIL library: CIL module
 0001:00061dd0       ?dtor$11@?0???0FilePanel@@AEAA@XZ@4HA 0000000061062dd0 f    CIL library: CIL module
 0001:00061df0       ?dtor$0@?0??do_format@UnicodeString@col@@AEAAAEAV12@PEB_WPEAD@Z@4HA 0000000061062df0 f    CIL library: CIL module
 0001:00061e00       ?dtor$0@?0??format@UnicodeString@col@@SA?AV12@PEB_WZZ@4HA 0000000061062e00 f    CIL library: CIL module
 0001:00061e30       ?catch$0@?0??replace@?$ObjectArray@VFileInfo@@@col@@QEAAAEAV12@_K0PEBVFileInfo@@0@Z@4HA 0000000061062e30 f    CIL library: CIL module
 0001:00061e40       __catch$?replace@?$ObjectArray@VFileInfo@@@col@@QEAAAEAV12@_K0PEBVFileInfo@@0@Z$0 0000000061062e40 f    CIL library: CIL module
 0001:00061e90       ?catch$1@?0??replace@?$ObjectArray@VFileInfo@@@col@@QEAAAEAV12@_K0PEBVFileInfo@@0@Z@4HA 0000000061062e90 f    CIL library: CIL module
 0001:00061ea2       __catch$?replace@?$ObjectArray@VFileInfo@@@col@@QEAAAEAV12@_K0PEBVFileInfo@@0@Z$2 0000000061062ea2 f    CIL library: CIL module
 0001:00061f30       ?catch$0@?0??ref_resize@?$ObjectArray@VFileInfo@@@col@@AEAAX_K@Z@4HA 0000000061062f30 f    CIL library: CIL module
 0001:00061f40       __catch$?ref_resize@?$ObjectArray@VFileInfo@@@col@@AEAAX_K@Z$0 0000000061062f40 f    CIL library: CIL module
 0001:00061f90       ?dtor$1@?0??file_list_from_cmdline@@YA_NAEBVUnicodeString@col@@AEAV?$ObjectArray@VUnicodeString@col@@@2@AEAV12@@Z@4HA 0000000061062f90 f    CIL library: CIL module
 0001:00061fa0       ?dtor$2@?0??file_list_from_cmdline@@YA_NAEBVUnicodeString@col@@AEAV?$ObjectArray@VUnicodeString@col@@@2@AEAV12@@Z@4HA 0000000061062fa0 f    CIL library: CIL module
 0001:00061fb0       ?dtor$0@?0???1FileAnalyzer@@QEAA@XZ@4HA 0000000061062fb0 f    CIL library: CIL module
 0001:00061fc0       ?dtor$1@?0???1FileAnalyzer@@QEAA@XZ@4HA 0000000061062fc0 f    CIL library: CIL module
 0001:00061fd0       ?dtor$2@?0???1FileAnalyzer@@QEAA@XZ@4HA 0000000061062fd0 f    CIL library: CIL module
 0001:00061ff0       ?dtor$7@?0???1FileAnalyzer@@QEAA@XZ@4HA 0000000061062ff0 f    CIL library: CIL module
 0001:00062000       ?dtor$0@?0???0FileAnalyzer@@QEAA@XZ@4HA 0000000061063000 f    CIL library: CIL module
 0001:00062010       ?dtor$7@?0???0FileAnalyzer@@QEAA@XZ@4HA 0000000061063010 f    CIL library: CIL module
 0001:00062020       ?dtor$8@?0???0FileAnalyzer@@QEAA@XZ@4HA 0000000061063020 f    CIL library: CIL module
 0001:00062030       ?dtor$9@?0???0FileAnalyzer@@QEAA@XZ@4HA 0000000061063030 f    CIL library: CIL module
 0001:00062040       ?dtor$10@?0???0FileAnalyzer@@QEAA@XZ@4HA 0000000061063040 f    CIL library: CIL module
 0001:00062050       ?dtor$1@?0???0FileAnalyzer@@QEAA@XZ@4HA 0000000061063050 f    CIL library: CIL module
 0001:00062060       ?dtor$2@?0???0FileAnalyzer@@QEAA@XZ@4HA 0000000061063060 f    CIL library: CIL module
 0001:00062080       ?dtor$3@?0???0FileAnalyzer@@QEAA@XZ@4HA 0000000061063080 f    CIL library: CIL module
 0001:000620a0       ?dtor$4@?0???0FileAnalyzer@@QEAA@XZ@4HA 00000000610630a0 f    CIL library: CIL module
 0001:000620c0       ?dtor$5@?0???0FileAnalyzer@@QEAA@XZ@4HA 00000000610630c0 f    CIL library: CIL module
 0001:000620e0       ?catch$0@?0??run_compression_thread@CompressFiles@@QEAAXXZ@4HA 00000000610630e0 f    CIL library: CIL module
 0001:000620ed       __catch$?run_compression_thread@CompressFiles@@QEAAXXZ$0 00000000610630ed f    CIL library: CIL module
 0001:00062110       ?catch$1@?0??run_compression_thread@CompressFiles@@QEAAXXZ@4HA 0000000061063110 f    CIL library: CIL module
 0001:0006211d       __catch$?run_compression_thread@CompressFiles@@QEAAXXZ$2 000000006106311d f    CIL library: CIL module
 0001:00062140       ?catch$2@?0??run_compression_thread@CompressFiles@@QEAAXXZ@4HA 0000000061063140 f    CIL library: CIL module
 0001:0006214d       __catch$?run_compression_thread@CompressFiles@@QEAAXXZ$4 000000006106314d f    CIL library: CIL module
 0001:00062170       ?catch$0@?0??thread_proc@WorkerThreads@@CAIPEAX@Z@4HA 0000000061063170 f    CIL library: CIL module
 0001:0006217d       __catch$?thread_proc@WorkerThreads@@CAIPEAX@Z$0 000000006106317d f    CIL library: CIL module
 0001:00062190       ?catch$0@?0??get_comp_work_buffer_size@@YAIXZ@4HA 0000000061063190 f    CIL library: CIL module
 0001:0006219d       __catch$?get_comp_work_buffer_size@@YAIXZ$0 000000006106319d f    CIL library: CIL module
 0001:000621c0       ?catch$0@?0??replace@?$ObjectArray@ULogRecord@@@col@@QEAAAEAV12@_K0PEBULogRecord@@0@Z@4HA 00000000610631c0 f    CIL library: CIL module
 0001:000621c0       ?catch$0@?0??replace@?$ObjectArray@UListData@FarDialog@@@col@@QEAAAEAV12@_K0PEBUListData@FarDialog@@0@Z@4HA 00000000610631c0 f    CIL library: CIL module
 0001:000621c0       ?catch$0@?0??replace@?$ObjectArray@UNameValue@@@col@@QEAAAEAV12@_K0PEBUNameValue@@0@Z@4HA 00000000610631c0 f    CIL library: CIL module
 0001:000621d0       __catch$?replace@?$ObjectArray@UListData@FarDialog@@@col@@QEAAAEAV12@_K0PEBUListData@FarDialog@@0@Z$0 00000000610631d0 f    CIL library: CIL module
 0001:000621d0       __catch$?replace@?$ObjectArray@ULogRecord@@@col@@QEAAAEAV12@_K0PEBULogRecord@@0@Z$0 00000000610631d0 f    CIL library: CIL module
 0001:000621d0       __catch$?replace@?$ObjectArray@UNameValue@@@col@@QEAAAEAV12@_K0PEBUNameValue@@0@Z$0 00000000610631d0 f    CIL library: CIL module
 0001:00062220       ?catch$1@?0??replace@?$ObjectArray@UNameValue@@@col@@QEAAAEAV12@_K0PEBUNameValue@@0@Z@4HA 0000000061063220 f    CIL library: CIL module
 0001:00062220       ?catch$1@?0??replace@?$ObjectArray@UListData@FarDialog@@@col@@QEAAAEAV12@_K0PEBUListData@FarDialog@@0@Z@4HA 0000000061063220 f    CIL library: CIL module
 0001:00062220       ?catch$1@?0??replace@?$ObjectArray@ULogRecord@@@col@@QEAAAEAV12@_K0PEBULogRecord@@0@Z@4HA 0000000061063220 f    CIL library: CIL module
 0001:00062232       __catch$?replace@?$ObjectArray@UListData@FarDialog@@@col@@QEAAAEAV12@_K0PEBUListData@FarDialog@@0@Z$2 0000000061063232 f    CIL library: CIL module
 0001:00062232       __catch$?replace@?$ObjectArray@ULogRecord@@@col@@QEAAAEAV12@_K0PEBULogRecord@@0@Z$2 0000000061063232 f    CIL library: CIL module
 0001:00062232       __catch$?replace@?$ObjectArray@UNameValue@@@col@@QEAAAEAV12@_K0PEBUNameValue@@0@Z$2 0000000061063232 f    CIL library: CIL module
 0001:000622c0       ?catch$0@?0??create@?$ObjectArray@UVarVerInfo@@@col@@CAPEAUBuffer@12@PEBUVarVerInfo@@_K@Z@4HA 00000000610632c0 f    CIL library: CIL module
 0001:000622d0       __catch$?create@?$ObjectArray@UVarVerInfo@@@col@@CAPEAUBuffer@12@PEBUVarVerInfo@@_K@Z$0 00000000610632d0 f    CIL library: CIL module
 0001:00062320       ?dtor$3@?0??mft_scan_dir@FilePanel@@AEAAX_KAEBVUnicodeString@col@@AEAV?$list@UPanelItemData@FilePanel@@V?$allocator@UPanelItemData@FilePanel@@@std@@@std@@AEAVFileListProgress@@@Z@4HA 0000000061063320 f    CIL library: CIL module
 0001:00062330       ?dtor$0@?0??mft_scan_dir@FilePanel@@AEAAX_KAEBVUnicodeString@col@@AEAV?$list@UPanelItemData@FilePanel@@V?$allocator@UPanelItemData@FilePanel@@@std@@@std@@AEAVFileListProgress@@@Z@4HA 0000000061063330 f    CIL library: CIL module
 0001:00062340       ?dtor$1@?0??mft_scan_dir@FilePanel@@AEAAX_KAEBVUnicodeString@col@@AEAV?$list@UPanelItemData@FilePanel@@V?$allocator@UPanelItemData@FilePanel@@@std@@@std@@AEAVFileListProgress@@@Z@4HA 0000000061063340 f    CIL library: CIL module
 0001:00062350       ?dtor$0@?0??draw_text_box@@YAXAEBVUnicodeString@col@@AEBV?$ObjectArray@VUnicodeString@col@@@2@I@Z@4HA 0000000061063350 f    CIL library: CIL module
 0001:00062360       ?dtor$1@?0??draw_text_box@@YAXAEBVUnicodeString@col@@AEBV?$ObjectArray@VUnicodeString@col@@@2@I@Z@4HA 0000000061063360 f    CIL library: CIL module
 0001:00062370       ?dtor$0@?0??get_volume_guid@@YA?AVUnicodeString@col@@AEBV12@@Z@4HA 0000000061063370 f    CIL library: CIL module
 0001:00062380       ?dtor$1@?0??get_volume_guid@@YA?AVUnicodeString@col@@AEBV12@@Z@4HA 0000000061063380 f    CIL library: CIL module
 0001:00062390       ?catch$0@?0??get_volume_guid@@YA?AVUnicodeString@col@@AEBV12@@Z@4HA 0000000061063390 f    CIL library: CIL module
 0001:0006239d       __catch$?get_volume_guid@@YA?AVUnicodeString@col@@AEBV12@@Z$0 000000006106339d f    CIL library: CIL module
 0001:000623c0       ?catch$1@?0??get_volume_guid@@YA?AVUnicodeString@col@@AEBV12@@Z@4HA 00000000610633c0 f    CIL library: CIL module
 0001:000623cd       __catch$?get_volume_guid@@YA?AVUnicodeString@col@@AEBV12@@Z$2 00000000610633cd f    CIL library: CIL module
 0001:000623f0       ?dtor$0@?0??far_get_full_path@@YA?AVUnicodeString@col@@AEBV12@@Z@4HA 00000000610633f0 f    CIL library: CIL module
 0001:000623f0       ?dtor$0@?0??get_real_path@@YA?AVUnicodeString@col@@AEBV12@@Z@4HA 00000000610633f0 f    CIL library: CIL module
 0001:00062420       ?dtor$0@?0??far_get_selected_panel_item@@YAPEAUPluginPanelItem@@PEAX_K@Z@4HA 0000000061063420 f    CIL library: CIL module
 0001:00062440       ?dtor$0@?0??far_get_panel_item@@YAPEAUPluginPanelItem@@PEAX_K@Z@4HA 0000000061063440 f    CIL library: CIL module
 0001:00062460       ?dtor$0@?0??far_get_panel_dir@@YA?AVUnicodeString@col@@PEAX@Z@4HA 0000000061063460 f    CIL library: CIL module
 0001:00062470       ?catch$0@?0??far_get_panel_dir@@YA?AVUnicodeString@col@@PEAX@Z@4HA 0000000061063470 f    CIL library: CIL module
 0001:0006247d       __catch$?far_get_panel_dir@@YA?AVUnicodeString@col@@PEAX@Z$0 000000006106347d f    CIL library: CIL module
 0001:000624a0       ?dtor$0@?0??split_str@@YA?AV?$ObjectArray@VUnicodeString@col@@@col@@AEBVUnicodeString@2@_W@Z@4HA 00000000610634a0 f    CIL library: CIL module
 0001:000624d0       ?dtor$1@?0??split_str@@YA?AV?$ObjectArray@VUnicodeString@col@@@col@@AEBVUnicodeString@2@_W@Z@4HA 00000000610634d0 f    CIL library: CIL module
 0001:000624e0       ?dtor$1@?0??fit_str@@YA?AVUnicodeString@col@@AEBV12@_K@Z@4HA 00000000610634e0 f    CIL library: CIL module
 0001:000624f0       ?dtor$2@?0??fit_str@@YA?AVUnicodeString@col@@AEBV12@_K@Z@4HA 00000000610634f0 f    CIL library: CIL module
 0001:00062500       ?dtor$3@?0??fit_str@@YA?AVUnicodeString@col@@AEBV12@_K@Z@4HA 0000000061063500 f    CIL library: CIL module
 0001:00062510       ?dtor$1@?0??long_path@@YA?AVUnicodeString@col@@AEBV12@@Z@4HA 0000000061063510 f    CIL library: CIL module
 0001:00062520       ?dtor$2@?0??long_path@@YA?AVUnicodeString@col@@AEBV12@@Z@4HA 0000000061063520 f    CIL library: CIL module
 0001:00062530       ?dtor$0@?0??load_suffixes@@YAXXZ@4HA 0000000061063530 f    CIL library: CIL module
 0001:00062540       ?dtor$1@?0??load_suffixes@@YAXXZ@4HA 0000000061063540 f    CIL library: CIL module
 0001:00062550       ?dtor$2@?0??load_suffixes@@YAXXZ@4HA 0000000061063550 f    CIL library: CIL module
 0001:00062560       ?dtor$3@?0??load_suffixes@@YAXXZ@4HA 0000000061063560 f    CIL library: CIL module
 0001:00062570       ?dtor$4@?0??load_suffixes@@YAXXZ@4HA 0000000061063570 f    CIL library: CIL module
 0001:00062580       ?dtor$5@?0??load_suffixes@@YAXXZ@4HA 0000000061063580 f    CIL library: CIL module
 0001:00062590       ?dtor$6@?0??load_suffixes@@YAXXZ@4HA 0000000061063590 f    CIL library: CIL module
 0001:000625a0       ?dtor$7@?0??load_suffixes@@YAXXZ@4HA 00000000610635a0 f    CIL library: CIL module
 0001:000625b0       ?dtor$8@?0??load_suffixes@@YAXXZ@4HA 00000000610635b0 f    CIL library: CIL module
 0001:000625c0       ?dtor$9@?0??load_suffixes@@YAXXZ@4HA 00000000610635c0 f    CIL library: CIL module
 0001:000625d0       ?dtor$10@?0??load_suffixes@@YAXXZ@4HA 00000000610635d0 f    CIL library: CIL module
 0001:000625e0       ?dtor$11@?0??load_suffixes@@YAXXZ@4HA 00000000610635e0 f    CIL library: CIL module
 0001:000625f0       ?dtor$12@?0??load_suffixes@@YAXXZ@4HA 00000000610635f0 f    CIL library: CIL module
 0001:00062600       ?dtor$13@?0??load_suffixes@@YAXXZ@4HA 0000000061063600 f    CIL library: CIL module
 0001:00062610       ?dtor$14@?0??load_suffixes@@YAXXZ@4HA 0000000061063610 f    CIL library: CIL module
 0001:00062620       ?dtor$0@?0??oem_to_unicode@@YA?AVUnicodeString@col@@AEBVAnsiString@2@@Z@4HA 0000000061063620 f    CIL library: CIL module
 0001:00062620       ?dtor$0@?0??unicode_to_oem@@YA?AVAnsiString@col@@AEBVUnicodeString@2@@Z@4HA 0000000061063620 f    CIL library: CIL module
 0001:00062650       ?dtor$0@?0???0FilePanelMode@@QEAA@XZ@4HA 0000000061063650 f    CIL library: CIL module
 0001:00062660       ?dtor$1@?0???0FilePanelMode@@QEAA@XZ@4HA 0000000061063660 f    CIL library: CIL module
 0001:00062670       ?dtor$2@?0???0FilePanelMode@@QEAA@XZ@4HA 0000000061063670 f    CIL library: CIL module
 0001:00062680       ?dtor$3@?0???0FilePanelMode@@QEAA@XZ@4HA 0000000061063680 f    CIL library: CIL module
 0001:00062690       ?dtor$0@?0??decode_data_runs@FileInfo@@AEAA?AV?$Array@UDataRun@FileInfo@@@col@@AEBV?$Array@E@3@I@Z@4HA 0000000061063690 f    CIL library: CIL module
 0001:000626c0       ?catch$0@?0??decode_data_runs@FileInfo@@AEAA?AV?$Array@UDataRun@FileInfo@@@col@@AEBV?$Array@E@3@I@Z@4HA 00000000610636c0 f    CIL library: CIL module
 0001:000626cd       __catch$?decode_data_runs@FileInfo@@AEAA?AV?$Array@UDataRun@FileInfo@@@col@@AEBV?$Array@E@3@I@Z$0 00000000610636cd f    CIL library: CIL module
 0001:000626f0       ?catch$1@?0??decode_data_runs@FileInfo@@AEAA?AV?$Array@UDataRun@FileInfo@@@col@@AEBV?$Array@E@3@I@Z@4HA 00000000610636f0 f    CIL library: CIL module
 0001:000626fd       __catch$?decode_data_runs@FileInfo@@AEAA?AV?$Array@UDataRun@FileInfo@@@col@@AEBV?$Array@E@3@I@Z$2 00000000610636fd f    CIL library: CIL module
 0001:00062720       ?catch$2@?0??decode_data_runs@FileInfo@@AEAA?AV?$Array@UDataRun@FileInfo@@@col@@AEBV?$Array@E@3@I@Z@4HA 0000000061063720 f    CIL library: CIL module
 0001:0006272d       __catch$?decode_data_runs@FileInfo@@AEAA?AV?$Array@UDataRun@FileInfo@@@col@@AEBV?$Array@E@3@I@Z$4 000000006106372d f    CIL library: CIL module
 0001:00062750       ?catch$0@?0??find_attribute@FileInfo@@AEAAIAEBV?$Array@E@col@@IG@Z@4HA 0000000061063750 f    CIL library: CIL module
 0001:0006275d       __catch$?find_attribute@FileInfo@@AEAAIAEBV?$Array@E@col@@IG@Z$0 000000006106375d f    CIL library: CIL module
 0001:00062780       ?catch$1@?0??find_attribute@FileInfo@@AEAAIAEBV?$Array@E@col@@IG@Z@4HA 0000000061063780 f    CIL library: CIL module
 0001:0006278d       __catch$?find_attribute@FileInfo@@AEAAIAEBV?$Array@E@col@@IG@Z$2 000000006106378d f    CIL library: CIL module
 0001:000627b0       ?catch$2@?0??find_attribute@FileInfo@@AEAAIAEBV?$Array@E@col@@IG@Z@4HA 00000000610637b0 f    CIL library: CIL module
 0001:000627bd       __catch$?find_attribute@FileInfo@@AEAAIAEBV?$Array@E@col@@IG@Z$4 00000000610637bd f    CIL library: CIL module
 0001:000627e0       ?catch$0@?0??load_mft_record@FileInfo@@AEAA_K_KAEAV?$Array@E@col@@@Z@4HA 00000000610637e0 f    CIL library: CIL module
 0001:000627ed       __catch$?load_mft_record@FileInfo@@AEAA_K_KAEAV?$Array@E@col@@@Z$0 00000000610637ed f    CIL library: CIL module
 0001:00062810       ?catch$1@?0??load_mft_record@FileInfo@@AEAA_K_KAEAV?$Array@E@col@@@Z@4HA 0000000061063810 f    CIL library: CIL module
 0001:0006281d       __catch$?load_mft_record@FileInfo@@AEAA_K_KAEAV?$Array@E@col@@@Z$2 000000006106381d f    CIL library: CIL module
 0001:00062840       ?catch$2@?0??load_mft_record@FileInfo@@AEAA_K_KAEAV?$Array@E@col@@@Z@4HA 0000000061063840 f    CIL library: CIL module
 0001:0006284d       __catch$?load_mft_record@FileInfo@@AEAA_K_KAEAV?$Array@E@col@@@Z$4 000000006106384d f    CIL library: CIL module
 0001:00062870       ?catch$3@?0??load_mft_record@FileInfo@@AEAA_K_KAEAV?$Array@E@col@@@Z@4HA 0000000061063870 f    CIL library: CIL module
 0001:0006287d       __catch$?load_mft_record@FileInfo@@AEAA_K_KAEAV?$Array@E@col@@@Z$6 000000006106387d f    CIL library: CIL module
 0001:000628a0       ?catch$4@?0??load_mft_record@FileInfo@@AEAA_K_KAEAV?$Array@E@col@@@Z@4HA 00000000610638a0 f    CIL library: CIL module
 0001:000628ad       __catch$?load_mft_record@FileInfo@@AEAA_K_KAEAV?$Array@E@col@@@Z$8 00000000610638ad f    CIL library: CIL module
 0001:000628d0       ?catch$0@?0??replace@?$ObjectArray@UPluginItemList@@@col@@QEAAAEAV12@_K0PEBUPluginItemList@@0@Z@4HA 00000000610638d0 f    CIL library: CIL module
 0001:000628e0       __catch$?replace@?$ObjectArray@UPluginItemList@@@col@@QEAAAEAV12@_K0PEBUPluginItemList@@0@Z$0 00000000610638e0 f    CIL library: CIL module
 0001:00062930       ?catch$1@?0??replace@?$ObjectArray@UPluginItemList@@@col@@QEAAAEAV12@_K0PEBUPluginItemList@@0@Z@4HA 0000000061063930 f    CIL library: CIL module
 0001:00062942       __catch$?replace@?$ObjectArray@UPluginItemList@@@col@@QEAAAEAV12@_K0PEBUPluginItemList@@0@Z$2 0000000061063942 f    CIL library: CIL module
 0001:000629c0       ?dtor$0@?0??parse_column_spec@FilePanel@@AEAAXAEBVUnicodeString@col@@0AEAV23@1_N@Z@4HA 00000000610639c0 f    CIL library: CIL module
 0001:000629d0       ?dtor$1@?0??parse_column_spec@FilePanel@@AEAAXAEBVUnicodeString@col@@0AEAV23@1_N@Z@4HA 00000000610639d0 f    CIL library: CIL module
 0001:000629e0       ?dtor$2@?0??parse_column_spec@FilePanel@@AEAAXAEBVUnicodeString@col@@0AEAV23@1_N@Z@4HA 00000000610639e0 f    CIL library: CIL module
 0001:000629f0       ?dtor$3@?0??parse_column_spec@FilePanel@@AEAAXAEBVUnicodeString@col@@0AEAV23@1_N@Z@4HA 00000000610639f0 f    CIL library: CIL module
 0001:00062a00       ?dtor$5@?0??parse_column_spec@FilePanel@@AEAAXAEBVUnicodeString@col@@0AEAV23@1_N@Z@4HA 0000000061063a00 f    CIL library: CIL module
 0001:00062a10       ?dtor$7@?0??parse_column_spec@FilePanel@@AEAAXAEBVUnicodeString@col@@0AEAV23@1_N@Z@4HA 0000000061063a10 f    CIL library: CIL module
 0001:00062a20       ?dtor$9@?0??create_panel_items@FilePanel@@AEAA?AUPluginItemList@@AEBV?$list@UPanelItemData@FilePanel@@V?$allocator@UPanelItemData@FilePanel@@@std@@@std@@_N@Z@4HA 0000000061063a20 f    CIL library: CIL module
 0001:00062a30       ?dtor$10@?0??create_panel_items@FilePanel@@AEAA?AUPluginItemList@@AEBV?$list@UPanelItemData@FilePanel@@V?$allocator@UPanelItemData@FilePanel@@@std@@@std@@_N@Z@4HA 0000000061063a30 f    CIL library: CIL module
 0001:00062a40       ?dtor$11@?0??create_panel_items@FilePanel@@AEAA?AUPluginItemList@@AEBV?$list@UPanelItemData@FilePanel@@V?$allocator@UPanelItemData@FilePanel@@@std@@@std@@_N@Z@4HA 0000000061063a40 f    CIL library: CIL module
 0001:00062a50       ?dtor$0@?0??create_panel_items@FilePanel@@AEAA?AUPluginItemList@@AEBV?$list@UPanelItemData@FilePanel@@V?$allocator@UPanelItemData@FilePanel@@@std@@@std@@_N@Z@4HA 0000000061063a50 f    CIL library: CIL module
 0001:00062a80       ?dtor$1@?0??create_panel_items@FilePanel@@AEAA?AUPluginItemList@@AEBV?$list@UPanelItemData@FilePanel@@V?$allocator@UPanelItemData@FilePanel@@@std@@@std@@_N@Z@4HA 0000000061063a80 f    CIL library: CIL module
 0001:00062a90       ?dtor$2@?0??create_panel_items@FilePanel@@AEAA?AUPluginItemList@@AEBV?$list@UPanelItemData@FilePanel@@V?$allocator@UPanelItemData@FilePanel@@@std@@@std@@_N@Z@4HA 0000000061063a90 f    CIL library: CIL module
 0001:00062aa0       ?dtor$3@?0??create_panel_items@FilePanel@@AEAA?AUPluginItemList@@AEBV?$list@UPanelItemData@FilePanel@@V?$allocator@UPanelItemData@FilePanel@@@std@@@std@@_N@Z@4HA 0000000061063aa0 f    CIL library: CIL module
 0001:00062ab0       ?dtor$4@?0??create_panel_items@FilePanel@@AEAA?AUPluginItemList@@AEBV?$list@UPanelItemData@FilePanel@@V?$allocator@UPanelItemData@FilePanel@@@std@@@std@@_N@Z@4HA 0000000061063ab0 f    CIL library: CIL module
 0001:00062ac0       ?dtor$5@?0??create_panel_items@FilePanel@@AEAA?AUPluginItemList@@AEBV?$list@UPanelItemData@FilePanel@@V?$allocator@UPanelItemData@FilePanel@@@std@@@std@@_N@Z@4HA 0000000061063ac0 f    CIL library: CIL module
 0001:00062ad0       ?dtor$6@?0??create_panel_items@FilePanel@@AEAA?AUPluginItemList@@AEBV?$list@UPanelItemData@FilePanel@@V?$allocator@UPanelItemData@FilePanel@@@std@@@std@@_N@Z@4HA 0000000061063ad0 f    CIL library: CIL module
 0001:00062ae0       ?dtor$7@?0??create_panel_items@FilePanel@@AEAA?AUPluginItemList@@AEBV?$list@UPanelItemData@FilePanel@@V?$allocator@UPanelItemData@FilePanel@@@std@@@std@@_N@Z@4HA 0000000061063ae0 f    CIL library: CIL module
 0001:00062af0       ?dtor$8@?0??create_panel_items@FilePanel@@AEAA?AUPluginItemList@@AEBV?$list@UPanelItemData@FilePanel@@V?$allocator@UPanelItemData@FilePanel@@@std@@@std@@_N@Z@4HA 0000000061063af0 f    CIL library: CIL module
 0001:00062b00       ?dtor$0@?0??do_update_ui@FileListProgress@@MEAAXXZ@4HA 0000000061063b00 f    CIL library: CIL module
 0001:00062b10       ?dtor$1@?0??do_update_ui@FileListProgress@@MEAAXXZ@4HA 0000000061063b10 f    CIL library: CIL module
 0001:00062b20       ?dtor$2@?0??do_update_ui@FileListProgress@@MEAAXXZ@4HA 0000000061063b20 f    CIL library: CIL module
 0001:00062b30       ?dtor$3@?0??do_update_ui@FileListProgress@@MEAAXXZ@4HA 0000000061063b30 f    CIL library: CIL module
 0001:00062b40       ?dtor$4@?0??do_update_ui@FileListProgress@@MEAAXXZ@4HA 0000000061063b40 f    CIL library: CIL module
 0001:00062b50       ?dtor$0@?0??restore_state@@YAXPEAXAEBUPanelState@@@Z@4HA 0000000061063b50 f    CIL library: CIL module
 0001:00062b60       ?dtor$1@?0??compress_file@@YAXAEBVUnicodeString@col@@AEAUSharedObjects@@AEAUCompressionState@@AEAVCompressFilesProgress@@@Z@4HA 0000000061063b60 f    CIL library: CIL module
 0001:00062b70       ?dtor$5@?0??compress_file@@YAXAEBVUnicodeString@col@@AEAUSharedObjects@@AEAUCompressionState@@AEAVCompressFilesProgress@@@Z@4HA 0000000061063b70 f    CIL library: CIL module
 0001:00062b80       ?dtor$0@?0??estimate_directory_size@@YAXAEBVUnicodeString@col@@AEAUCompressionState@@AEAVEstimationProgress@@@Z@4HA 0000000061063b80 f    CIL library: CIL module
 0001:00062b90       ?dtor$1@?0??estimate_directory_size@@YAXAEBVUnicodeString@col@@AEAUCompressionState@@AEAVEstimationProgress@@@Z@4HA 0000000061063b90 f    CIL library: CIL module
 0001:00062ba0       ?dtor$3@?0??estimate_directory_size@@YAXAEBVUnicodeString@col@@AEAUCompressionState@@AEAVEstimationProgress@@@Z@4HA 0000000061063ba0 f    CIL library: CIL module
 0001:00062bb0       ?catch$0@?0??estimate_directory_size@@YAXAEBVUnicodeString@col@@AEAUCompressionState@@AEAVEstimationProgress@@@Z@4HA 0000000061063bb0 f    CIL library: CIL module
 0001:00062bbd       __catch$?estimate_directory_size@@YAXAEBVUnicodeString@col@@AEAUCompressionState@@AEAVEstimationProgress@@@Z$0 0000000061063bbd f    CIL library: CIL module
 0001:00062be0       ?catch$1@?0??estimate_directory_size@@YAXAEBVUnicodeString@col@@AEAUCompressionState@@AEAVEstimationProgress@@@Z@4HA 0000000061063be0 f    CIL library: CIL module
 0001:00062bed       __catch$?estimate_directory_size@@YAXAEBVUnicodeString@col@@AEAUCompressionState@@AEAVEstimationProgress@@@Z$2 0000000061063bed f    CIL library: CIL module
 0001:00062c10       ?catch$0@?0??estimate_file_size@@YAXAEBVUnicodeString@col@@AEAUCompressionState@@AEAVEstimationProgress@@@Z@4HA 0000000061063c10 f    CIL library: CIL module
 0001:00062c1d       __catch$?estimate_file_size@@YAXAEBVUnicodeString@col@@AEAUCompressionState@@AEAVEstimationProgress@@@Z$0 0000000061063c1d f    CIL library: CIL module
 0001:00062c40       ?dtor$0@?0??do_update_ui@EstimationProgress@@MEAAXXZ@4HA 0000000061063c40 f    CIL library: CIL module
 0001:00062c50       ?dtor$1@?0??do_update_ui@EstimationProgress@@MEAAXXZ@4HA 0000000061063c50 f    CIL library: CIL module
 0001:00062c60       ?dtor$2@?0??do_update_ui@EstimationProgress@@MEAAXXZ@4HA 0000000061063c60 f    CIL library: CIL module
 0001:00062c70       ?dtor$3@?0??do_update_ui@EstimationProgress@@MEAAXXZ@4HA 0000000061063c70 f    CIL library: CIL module
 0001:00062c80       ?dtor$4@?0??do_update_ui@EstimationProgress@@MEAAXXZ@4HA 0000000061063c80 f    CIL library: CIL module
 0001:00062c90       ?dtor$5@?0??do_update_ui@EstimationProgress@@MEAAXXZ@4HA 0000000061063c90 f    CIL library: CIL module
 0001:00062ca0       ?dtor$6@?0??do_update_ui@EstimationProgress@@MEAAXXZ@4HA 0000000061063ca0 f    CIL library: CIL module
 0001:00062cb0       ?dtor$7@?0??do_update_ui@EstimationProgress@@MEAAXXZ@4HA 0000000061063cb0 f    CIL library: CIL module
 0001:00062cc0       ?dtor$8@?0??do_update_ui@EstimationProgress@@MEAAXXZ@4HA 0000000061063cc0 f    CIL library: CIL module
 0001:00062cd0       ?dtor$9@?0??do_update_ui@EstimationProgress@@MEAAXXZ@4HA 0000000061063cd0 f    CIL library: CIL module
 0001:00062ce0       ?dtor$10@?0??do_update_ui@EstimationProgress@@MEAAXXZ@4HA 0000000061063ce0 f    CIL library: CIL module
 0001:00062cf0       ?dtor$11@?0??do_update_ui@EstimationProgress@@MEAAXXZ@4HA 0000000061063cf0 f    CIL library: CIL module
 0001:00062d00       ?dtor$12@?0??do_update_ui@EstimationProgress@@MEAAXXZ@4HA 0000000061063d00 f    CIL library: CIL module
 0001:00062d10       ?dtor$13@?0??do_update_ui@EstimationProgress@@MEAAXXZ@4HA 0000000061063d10 f    CIL library: CIL module
 0001:00062d20       ?dtor$0@?0??process_file_content@@YAXAEBVUnicodeString@col@@AEBUContentOptions@@AEAUContentInfo@@@Z@4HA 0000000061063d20 f    CIL library: CIL module
 0001:00062d30       ?dtor$1@?0??process_file_content@@YAXAEBVUnicodeString@col@@AEBUContentOptions@@AEAUContentInfo@@@Z@4HA 0000000061063d30 f    CIL library: CIL module
 0001:00062d40       ?dtor$5@?0??process_file_content@@YAXAEBVUnicodeString@col@@AEBUContentOptions@@AEAUContentInfo@@@Z@4HA 0000000061063d40 f    CIL library: CIL module
 0001:00062d50       ?dtor$0@?0??do_update_ui@ProcessFileProgress@@MEAAXXZ@4HA 0000000061063d50 f    CIL library: CIL module
 0001:00062d60       ?dtor$1@?0??do_update_ui@ProcessFileProgress@@MEAAXXZ@4HA 0000000061063d60 f    CIL library: CIL module
 0001:00062d70       ?dtor$2@?0??do_update_ui@ProcessFileProgress@@MEAAXXZ@4HA 0000000061063d70 f    CIL library: CIL module
 0001:00062d80       ?dtor$3@?0??do_update_ui@ProcessFileProgress@@MEAAXXZ@4HA 0000000061063d80 f    CIL library: CIL module
 0001:00062d90       ?dtor$4@?0??do_update_ui@ProcessFileProgress@@MEAAXXZ@4HA 0000000061063d90 f    CIL library: CIL module
 0001:00062da0       ?dtor$5@?0??do_update_ui@ProcessFileProgress@@MEAAXXZ@4HA 0000000061063da0 f    CIL library: CIL module
 0001:00062db0       ?dtor$6@?0??do_update_ui@ProcessFileProgress@@MEAAXXZ@4HA 0000000061063db0 f    CIL library: CIL module
 0001:00062dc0       ?dtor$7@?0??do_update_ui@ProcessFileProgress@@MEAAXXZ@4HA 0000000061063dc0 f    CIL library: CIL module
 0001:00062dd0       ?dtor$8@?0??do_update_ui@ProcessFileProgress@@MEAAXXZ@4HA 0000000061063dd0 f    CIL library: CIL module
 0001:00062de0       ?dtor$9@?0??do_update_ui@ProcessFileProgress@@MEAAXXZ@4HA 0000000061063de0 f    CIL library: CIL module
 0001:00062df0       ?dtor$10@?0??do_update_ui@ProcessFileProgress@@MEAAXXZ@4HA 0000000061063df0 f    CIL library: CIL module
 0001:00062e00       ?dtor$11@?0??do_update_ui@ProcessFileProgress@@MEAAXXZ@4HA 0000000061063e00 f    CIL library: CIL module
 0001:00062e10       ?dtor$12@?0??do_update_ui@ProcessFileProgress@@MEAAXXZ@4HA 0000000061063e10 f    CIL library: CIL module
 0001:00062e20       ?dtor$13@?0??do_update_ui@ProcessFileProgress@@MEAAXXZ@4HA 0000000061063e20 f    CIL library: CIL module
 0001:00062e30       ?dtor$14@?0??do_update_ui@ProcessFileProgress@@MEAAXXZ@4HA 0000000061063e30 f    CIL library: CIL module
 0001:00062e40       ?dtor$15@?0??do_update_ui@ProcessFileProgress@@MEAAXXZ@4HA 0000000061063e40 f    CIL library: CIL module
 0001:00062e50       ?dtor$16@?0??do_update_ui@ProcessFileProgress@@MEAAXXZ@4HA 0000000061063e50 f    CIL library: CIL module
 0001:00062e60       ?dtor$17@?0??do_update_ui@ProcessFileProgress@@MEAAXXZ@4HA 0000000061063e60 f    CIL library: CIL module
 0001:00062e70       ?dtor$18@?0??do_update_ui@ProcessFileProgress@@MEAAXXZ@4HA 0000000061063e70 f    CIL library: CIL module
 0001:00062e80       ?dtor$19@?0??do_update_ui@ProcessFileProgress@@MEAAXXZ@4HA 0000000061063e80 f    CIL library: CIL module
 0001:00062e90       ?dtor$20@?0??do_update_ui@ProcessFileProgress@@MEAAXXZ@4HA 0000000061063e90 f    CIL library: CIL module
 0001:00062ea0       ?dtor$21@?0??do_update_ui@ProcessFileProgress@@MEAAXXZ@4HA 0000000061063ea0 f    CIL library: CIL module
 0001:00062eb0       ?dtor$0@?0??file_list_from_panel@@YA_NAEAV?$ObjectArray@VUnicodeString@col@@@col@@_N@Z@4HA 0000000061063eb0 f    CIL library: CIL module
 0001:00062ec0       ?dtor$2@?0??file_list_from_panel@@YA_NAEAV?$ObjectArray@VUnicodeString@col@@@col@@_N@Z@4HA 0000000061063ec0 f    CIL library: CIL module
 0001:00062ed0       ?dtor$4@?0??file_list_from_panel@@YA_NAEAV?$ObjectArray@VUnicodeString@col@@@col@@_N@Z@4HA 0000000061063ed0 f    CIL library: CIL module
 0001:00062ee0       ?dtor$0@?0??panel_go_to_file@@YA_NAEBVUnicodeString@col@@@Z@4HA 0000000061063ee0 f    CIL library: CIL module
 0001:00062ef0       ?dtor$1@?0??panel_go_to_file@@YA_NAEBVUnicodeString@col@@@Z@4HA 0000000061063ef0 f    CIL library: CIL module
 0001:00062f00       ?dtor$0@?0??get_system_message@@YA?AVUnicodeString@col@@K@Z@4HA 0000000061063f00 f    CIL library: CIL module
 0001:00062f30       ?catch$0@?0??get_system_message@@YA?AVUnicodeString@col@@K@Z@4HA 0000000061063f30 f    CIL library: CIL module
 0001:00062f3d       __catch$?get_system_message@@YA?AVUnicodeString@col@@K@Z$0 0000000061063f3d f    CIL library: CIL module
 0001:00062f60       ?catch$0@?0???0ReadOnlyFileAccess@@QEAA@AEBVUnicodeString@col@@@Z@4HA 0000000061063f60 f    CIL library: CIL module
 0001:00062f6d       __catch$??0ReadOnlyFileAccess@@QEAA@AEBVUnicodeString@col@@@Z$0 0000000061063f6d f    CIL library: CIL module
 0001:00062f90       ?catch$1@?0???0ReadOnlyFileAccess@@QEAA@AEBVUnicodeString@col@@@Z@4HA 0000000061063f90 f    CIL library: CIL module
 0001:00062f9d       __catch$??0ReadOnlyFileAccess@@QEAA@AEBVUnicodeString@col@@@Z$2 0000000061063f9d f    CIL library: CIL module
 0001:00062fc0       ?dtor$0@?0??do_update_ui@CompressFiles@@UEAAXXZ@4HA 0000000061063fc0 f    CIL library: CIL module
 0001:00062fd0       ?dtor$1@?0??do_update_ui@CompressFiles@@UEAAXXZ@4HA 0000000061063fd0 f    CIL library: CIL module
 0001:00062fe0       ?dtor$2@?0??do_update_ui@CompressFiles@@UEAAXXZ@4HA 0000000061063fe0 f    CIL library: CIL module
 0001:00062ff0       ?dtor$3@?0??do_update_ui@CompressFiles@@UEAAXXZ@4HA 0000000061063ff0 f    CIL library: CIL module
 0001:00063000       ?dtor$4@?0??do_update_ui@CompressFiles@@UEAAXXZ@4HA 0000000061064000 f    CIL library: CIL module
 0001:00063010       ?dtor$5@?0??do_update_ui@CompressFiles@@UEAAXXZ@4HA 0000000061064010 f    CIL library: CIL module
 0001:00063020       ?dtor$6@?0??do_update_ui@CompressFiles@@UEAAXXZ@4HA 0000000061064020 f    CIL library: CIL module
 0001:00063030       ?dtor$7@?0??do_update_ui@CompressFiles@@UEAAXXZ@4HA 0000000061064030 f    CIL library: CIL module
 0001:00063040       ?dtor$10@?0??do_update_ui@CompressFiles@@UEAAXXZ@4HA 0000000061064040 f    CIL library: CIL module
 0001:00063050       ?dtor$11@?0??do_update_ui@CompressFiles@@UEAAXXZ@4HA 0000000061064050 f    CIL library: CIL module
 0001:00063060       ?dtor$12@?0??do_update_ui@CompressFiles@@UEAAXXZ@4HA 0000000061064060 f    CIL library: CIL module
 0001:00063070       ?dtor$13@?0??do_update_ui@CompressFiles@@UEAAXXZ@4HA 0000000061064070 f    CIL library: CIL module
 0001:00063080       ?dtor$14@?0??do_update_ui@CompressFiles@@UEAAXXZ@4HA 0000000061064080 f    CIL library: CIL module
 0001:00063090       ?dtor$15@?0??do_update_ui@CompressFiles@@UEAAXXZ@4HA 0000000061064090 f    CIL library: CIL module
 0001:000630a0       ?dtor$16@?0??do_update_ui@CompressFiles@@UEAAXXZ@4HA 00000000610640a0 f    CIL library: CIL module
 0001:000630b0       ?dtor$17@?0??do_update_ui@CompressFiles@@UEAAXXZ@4HA 00000000610640b0 f    CIL library: CIL module
 0001:000630c0       ?dtor$18@?0??do_update_ui@CompressFiles@@UEAAXXZ@4HA 00000000610640c0 f    CIL library: CIL module
 0001:000630d0       ?dtor$19@?0??do_update_ui@CompressFiles@@UEAAXXZ@4HA 00000000610640d0 f    CIL library: CIL module
 0001:000630e0       ?dtor$20@?0??do_update_ui@CompressFiles@@UEAAXXZ@4HA 00000000610640e0 f    CIL library: CIL module
 0001:000630f0       ?dtor$21@?0??do_update_ui@CompressFiles@@UEAAXXZ@4HA 00000000610640f0 f    CIL library: CIL module
 0001:00063100       ?dtor$22@?0??do_update_ui@CompressFiles@@UEAAXXZ@4HA 0000000061064100 f    CIL library: CIL module
 0001:00063110       ?dtor$23@?0??do_update_ui@CompressFiles@@UEAAXXZ@4HA 0000000061064110 f    CIL library: CIL module
 0001:00063120       ?dtor$24@?0??do_update_ui@CompressFiles@@UEAAXXZ@4HA 0000000061064120 f    CIL library: CIL module
 0001:00063130       ?dtor$25@?0??do_update_ui@CompressFiles@@UEAAXXZ@4HA 0000000061064130 f    CIL library: CIL module
 0001:00063140       ?dtor$26@?0??do_update_ui@CompressFiles@@UEAAXXZ@4HA 0000000061064140 f    CIL library: CIL module
 0001:00063150       ?dtor$27@?0??do_update_ui@CompressFiles@@UEAAXXZ@4HA 0000000061064150 f    CIL library: CIL module
 0001:00063160       ?dtor$28@?0??do_update_ui@CompressFiles@@UEAAXXZ@4HA 0000000061064160 f    CIL library: CIL module
 0001:00063170       ?dtor$29@?0??do_update_ui@CompressFiles@@UEAAXXZ@4HA 0000000061064170 f    CIL library: CIL module
 0001:00063180       ?dtor$30@?0??do_update_ui@CompressFiles@@UEAAXXZ@4HA 0000000061064180 f    CIL library: CIL module
 0001:00063190       ?dtor$31@?0??do_update_ui@CompressFiles@@UEAAXXZ@4HA 0000000061064190 f    CIL library: CIL module
 0001:000631a0       ?dtor$32@?0??do_update_ui@CompressFiles@@UEAAXXZ@4HA 00000000610641a0 f    CIL library: CIL module
 0001:000631b0       ?dtor$33@?0??do_update_ui@CompressFiles@@UEAAXXZ@4HA 00000000610641b0 f    CIL library: CIL module
 0001:000631c0       ?dtor$34@?0??do_update_ui@CompressFiles@@UEAAXXZ@4HA 00000000610641c0 f    CIL library: CIL module
 0001:000631d0       ?dtor$35@?0??do_update_ui@CompressFiles@@UEAAXXZ@4HA 00000000610641d0 f    CIL library: CIL module
 0001:000631e0       ?dtor$36@?0??do_update_ui@CompressFiles@@UEAAXXZ@4HA 00000000610641e0 f    CIL library: CIL module
 0001:000631f0       ?dtor$37@?0??do_update_ui@CompressFiles@@UEAAXXZ@4HA 00000000610641f0 f    CIL library: CIL module
 0001:00063200       ?dtor$38@?0??do_update_ui@CompressFiles@@UEAAXXZ@4HA 0000000061064200 f    CIL library: CIL module
 0001:00063210       ?dtor$39@?0??do_update_ui@CompressFiles@@UEAAXXZ@4HA 0000000061064210 f    CIL library: CIL module
 0001:00063220       ?dtor$40@?0??do_update_ui@CompressFiles@@UEAAXXZ@4HA 0000000061064220 f    CIL library: CIL module
 0001:00063230       ?dtor$41@?0??do_update_ui@CompressFiles@@UEAAXXZ@4HA 0000000061064230 f    CIL library: CIL module
 0001:00063240       ?dtor$42@?0??do_update_ui@CompressFiles@@UEAAXXZ@4HA 0000000061064240 f    CIL library: CIL module
 0001:00063250       ?dtor$43@?0??do_update_ui@CompressFiles@@UEAAXXZ@4HA 0000000061064250 f    CIL library: CIL module
 0001:00063260       ?dtor$44@?0??do_update_ui@CompressFiles@@UEAAXXZ@4HA 0000000061064260 f    CIL library: CIL module
 0001:00063270       ?dtor$45@?0??do_update_ui@CompressFiles@@UEAAXXZ@4HA 0000000061064270 f    CIL library: CIL module
 0001:00063280       ?dtor$46@?0??do_update_ui@CompressFiles@@UEAAXXZ@4HA 0000000061064280 f    CIL library: CIL module
 0001:00063290       ?dtor$0@?0???0WorkerThreads@@QEAA@AEAUCompressFiles@@@Z@4HA 0000000061064290 f    CIL library: CIL module
 0001:000632a0       ?catch$0@?0???0WorkerThreads@@QEAA@AEAUCompressFiles@@@Z@4HA 00000000610642a0 f    CIL library: CIL module
 0001:000632ad       __catch$??0WorkerThreads@@QEAA@AEAUCompressFiles@@@Z$0 00000000610642ad f    CIL library: CIL module
 0001:000632d0       ?catch$1@?0???0WorkerThreads@@QEAA@AEAUCompressFiles@@@Z@4HA 00000000610642d0 f    CIL library: CIL module
 0001:000632dd       __catch$??0WorkerThreads@@QEAA@AEAUCompressFiles@@@Z$2 00000000610642dd f    CIL library: CIL module
 0001:00063300       ?dtor$0@?0???0BufferArray@@QEAA@II@Z@4HA 0000000061064300 f    CIL library: CIL module
 0001:00063310       ?catch$0@?0???0BufferArray@@QEAA@II@Z@4HA 0000000061064310 f    CIL library: CIL module
 0001:0006331e       __catch$??0BufferArray@@QEAA@II@Z$0 000000006106431e f    CIL library: CIL module
 0001:00063360       ?catch$0@?0??replace@?$ObjectArray@UVarVerInfo@@@col@@QEAAAEAV12@_K0PEBUVarVerInfo@@0@Z@4HA 0000000061064360 f    CIL library: CIL module
 0001:00063370       __catch$?replace@?$ObjectArray@UVarVerInfo@@@col@@QEAAAEAV12@_K0PEBUVarVerInfo@@0@Z$0 0000000061064370 f    CIL library: CIL module
 0001:000633c0       ?catch$1@?0??replace@?$ObjectArray@UVarVerInfo@@@col@@QEAAAEAV12@_K0PEBUVarVerInfo@@0@Z@4HA 00000000610643c0 f    CIL library: CIL module
 0001:000633d2       __catch$?replace@?$ObjectArray@UVarVerInfo@@@col@@QEAAAEAV12@_K0PEBUVarVerInfo@@0@Z$2 00000000610643d2 f    CIL library: CIL module
 0001:00063460       ?dtor$0@?0??get_prop_list@@YA?AV?$ObjectArray@UNameValue@@@col@@AEBVUnicodeString@2@@Z@4HA 0000000061064460 f    CIL library: CIL module
 0001:00063470       ?dtor$1@?0??get_prop_list@@YA?AV?$ObjectArray@UNameValue@@@col@@AEBVUnicodeString@2@@Z@4HA 0000000061064470 f    CIL library: CIL module
 0001:00063480       ?dtor$3@?0??get_prop_list@@YA?AV?$ObjectArray@UNameValue@@@col@@AEBVUnicodeString@2@@Z@4HA 0000000061064480 f    CIL library: CIL module
 0001:00063490       ?dtor$4@?0??get_prop_list@@YA?AV?$ObjectArray@UNameValue@@@col@@AEBVUnicodeString@2@@Z@4HA 0000000061064490 f    CIL library: CIL module
 0001:000634a0       ?dtor$5@?0??get_prop_list@@YA?AV?$ObjectArray@UNameValue@@@col@@AEBVUnicodeString@2@@Z@4HA 00000000610644a0 f    CIL library: CIL module
 0001:000634b0       ?dtor$6@?0??get_prop_list@@YA?AV?$ObjectArray@UNameValue@@@col@@AEBVUnicodeString@2@@Z@4HA 00000000610644b0 f    CIL library: CIL module
 0001:000634c0       ?dtor$7@?0??get_prop_list@@YA?AV?$ObjectArray@UNameValue@@@col@@AEBVUnicodeString@2@@Z@4HA 00000000610644c0 f    CIL library: CIL module
 0001:000634d0       ?dtor$0@?0??get_signature_info@@YA?AV?$ObjectArray@UNameValue@@@col@@AEBVUnicodeString@2@@Z@4HA 00000000610644d0 f    CIL library: CIL module
 0001:000634e0       ?dtor$1@?0??get_signature_info@@YA?AV?$ObjectArray@UNameValue@@@col@@AEBVUnicodeString@2@@Z@4HA 00000000610644e0 f    CIL library: CIL module
 0001:000634f0       ?dtor$3@?0??get_signature_info@@YA?AV?$ObjectArray@UNameValue@@@col@@AEBVUnicodeString@2@@Z@4HA 00000000610644f0 f    CIL library: CIL module
 0001:00063500       ?dtor$4@?0??get_signature_info@@YA?AV?$ObjectArray@UNameValue@@@col@@AEBVUnicodeString@2@@Z@4HA 0000000061064500 f    CIL library: CIL module
 0001:00063510       ?dtor$5@?0??get_signature_info@@YA?AV?$ObjectArray@UNameValue@@@col@@AEBVUnicodeString@2@@Z@4HA 0000000061064510 f    CIL library: CIL module
 0001:00063520       ?dtor$6@?0??get_signature_info@@YA?AV?$ObjectArray@UNameValue@@@col@@AEBVUnicodeString@2@@Z@4HA 0000000061064520 f    CIL library: CIL module
 0001:00063530       ?dtor$7@?0??get_signature_info@@YA?AV?$ObjectArray@UNameValue@@@col@@AEBVUnicodeString@2@@Z@4HA 0000000061064530 f    CIL library: CIL module
 0001:00063540       ?dtor$8@?0??get_signature_info@@YA?AV?$ObjectArray@UNameValue@@@col@@AEBVUnicodeString@2@@Z@4HA 0000000061064540 f    CIL library: CIL module
 0001:00063550       ?dtor$9@?0??get_signature_info@@YA?AV?$ObjectArray@UNameValue@@@col@@AEBVUnicodeString@2@@Z@4HA 0000000061064550 f    CIL library: CIL module
 0001:00063560       ?dtor$10@?0??get_signature_info@@YA?AV?$ObjectArray@UNameValue@@@col@@AEBVUnicodeString@2@@Z@4HA 0000000061064560 f    CIL library: CIL module
 0001:00063570       ?dtor$11@?0??get_signature_info@@YA?AV?$ObjectArray@UNameValue@@@col@@AEBVUnicodeString@2@@Z@4HA 0000000061064570 f    CIL library: CIL module
 0001:00063580       ?dtor$12@?0??get_signature_info@@YA?AV?$ObjectArray@UNameValue@@@col@@AEBVUnicodeString@2@@Z@4HA 0000000061064580 f    CIL library: CIL module
 0001:00063590       ?dtor$13@?0??get_signature_info@@YA?AV?$ObjectArray@UNameValue@@@col@@AEBVUnicodeString@2@@Z@4HA 0000000061064590 f    CIL library: CIL module
 0001:000635a0       ?dtor$14@?0??get_signature_info@@YA?AV?$ObjectArray@UNameValue@@@col@@AEBVUnicodeString@2@@Z@4HA 00000000610645a0 f    CIL library: CIL module
 0001:000635b0       ?dtor$15@?0??get_signature_info@@YA?AV?$ObjectArray@UNameValue@@@col@@AEBVUnicodeString@2@@Z@4HA 00000000610645b0 f    CIL library: CIL module
 0001:000635c0       ?dtor$16@?0??get_signature_info@@YA?AV?$ObjectArray@UNameValue@@@col@@AEBVUnicodeString@2@@Z@4HA 00000000610645c0 f    CIL library: CIL module
 0001:000635d0       ?dtor$17@?0??get_signature_info@@YA?AV?$ObjectArray@UNameValue@@@col@@AEBVUnicodeString@2@@Z@4HA 00000000610645d0 f    CIL library: CIL module
 0001:000635e0       ?dtor$18@?0??get_signature_info@@YA?AV?$ObjectArray@UNameValue@@@col@@AEBVUnicodeString@2@@Z@4HA 00000000610645e0 f    CIL library: CIL module
 0001:000635f0       ?dtor$19@?0??get_signature_info@@YA?AV?$ObjectArray@UNameValue@@@col@@AEBVUnicodeString@2@@Z@4HA 00000000610645f0 f    CIL library: CIL module
 0001:00063600       ?dtor$20@?0??get_signature_info@@YA?AV?$ObjectArray@UNameValue@@@col@@AEBVUnicodeString@2@@Z@4HA 0000000061064600 f    CIL library: CIL module
 0001:00063610       ?dtor$21@?0??get_signature_info@@YA?AV?$ObjectArray@UNameValue@@@col@@AEBVUnicodeString@2@@Z@4HA 0000000061064610 f    CIL library: CIL module
 0001:00063620       ?dtor$22@?0??get_signature_info@@YA?AV?$ObjectArray@UNameValue@@@col@@AEBVUnicodeString@2@@Z@4HA 0000000061064620 f    CIL library: CIL module
 0001:00063630       ?dtor$23@?0??get_signature_info@@YA?AV?$ObjectArray@UNameValue@@@col@@AEBVUnicodeString@2@@Z@4HA 0000000061064630 f    CIL library: CIL module
 0001:00063640       ?dtor$24@?0??get_signature_info@@YA?AV?$ObjectArray@UNameValue@@@col@@AEBVUnicodeString@2@@Z@4HA 0000000061064640 f    CIL library: CIL module
 0001:00063650       ?dtor$25@?0??get_signature_info@@YA?AV?$ObjectArray@UNameValue@@@col@@AEBVUnicodeString@2@@Z@4HA 0000000061064650 f    CIL library: CIL module
 0001:00063660       ?dtor$26@?0??get_signature_info@@YA?AV?$ObjectArray@UNameValue@@@col@@AEBVUnicodeString@2@@Z@4HA 0000000061064660 f    CIL library: CIL module
 0001:00063670       ?dtor$27@?0??get_signature_info@@YA?AV?$ObjectArray@UNameValue@@@col@@AEBVUnicodeString@2@@Z@4HA 0000000061064670 f    CIL library: CIL module
 0001:00063680       ?dtor$28@?0??get_signature_info@@YA?AV?$ObjectArray@UNameValue@@@col@@AEBVUnicodeString@2@@Z@4HA 0000000061064680 f    CIL library: CIL module
 0001:00063690       ?dtor$29@?0??get_signature_info@@YA?AV?$ObjectArray@UNameValue@@@col@@AEBVUnicodeString@2@@Z@4HA 0000000061064690 f    CIL library: CIL module
 0001:000636a0       ?dtor$30@?0??get_signature_info@@YA?AV?$ObjectArray@UNameValue@@@col@@AEBVUnicodeString@2@@Z@4HA 00000000610646a0 f    CIL library: CIL module
 0001:000636b0       ?dtor$31@?0??get_signature_info@@YA?AV?$ObjectArray@UNameValue@@@col@@AEBVUnicodeString@2@@Z@4HA 00000000610646b0 f    CIL library: CIL module
 0001:000636c0       ?dtor$32@?0??get_signature_info@@YA?AV?$ObjectArray@UNameValue@@@col@@AEBVUnicodeString@2@@Z@4HA 00000000610646c0 f    CIL library: CIL module
 0001:000636d0       ?dtor$33@?0??get_signature_info@@YA?AV?$ObjectArray@UNameValue@@@col@@AEBVUnicodeString@2@@Z@4HA 00000000610646d0 f    CIL library: CIL module
 0001:000636e0       ?dtor$34@?0??get_signature_info@@YA?AV?$ObjectArray@UNameValue@@@col@@AEBVUnicodeString@2@@Z@4HA 00000000610646e0 f    CIL library: CIL module
 0001:000636f0       ?dtor$35@?0??get_signature_info@@YA?AV?$ObjectArray@UNameValue@@@col@@AEBVUnicodeString@2@@Z@4HA 00000000610646f0 f    CIL library: CIL module
 0001:00063700       ?dtor$36@?0??get_signature_info@@YA?AV?$ObjectArray@UNameValue@@@col@@AEBVUnicodeString@2@@Z@4HA 0000000061064700 f    CIL library: CIL module
 0001:00063710       ?dtor$52@?0??get_version_info@@YA?AUVersionData@@AEBVUnicodeString@col@@@Z@4HA 0000000061064710 f    CIL library: CIL module
 0001:00063720       ?dtor$53@?0??get_version_info@@YA?AUVersionData@@AEBVUnicodeString@col@@@Z@4HA 0000000061064720 f    CIL library: CIL module
 0001:00063730       ?dtor$54@?0??get_version_info@@YA?AUVersionData@@AEBVUnicodeString@col@@@Z@4HA 0000000061064730 f    CIL library: CIL module
 0001:00063740       ?dtor$0@?0??get_version_info@@YA?AUVersionData@@AEBVUnicodeString@col@@@Z@4HA 0000000061064740 f    CIL library: CIL module
 0001:00063770       ?dtor$1@?0??get_version_info@@YA?AUVersionData@@AEBVUnicodeString@col@@@Z@4HA 0000000061064770 f    CIL library: CIL module
 0001:00063780       ?catch$0@?0??get_version_info@@YA?AUVersionData@@AEBVUnicodeString@col@@@Z@4HA 0000000061064780 f    CIL library: CIL module
 0001:0006378d       __catch$?get_version_info@@YA?AUVersionData@@AEBVUnicodeString@col@@@Z$0 000000006106478d f    CIL library: CIL module
 0001:000637b0       ?catch$1@?0??get_version_info@@YA?AUVersionData@@AEBVUnicodeString@col@@@Z@4HA 00000000610647b0 f    CIL library: CIL module
 0001:000637bd       __catch$?get_version_info@@YA?AUVersionData@@AEBVUnicodeString@col@@@Z$2 00000000610647bd f    CIL library: CIL module
 0001:000637e0       ?dtor$2@?0??get_version_info@@YA?AUVersionData@@AEBVUnicodeString@col@@@Z@4HA 00000000610647e0 f    CIL library: CIL module
 0001:000637f0       ?dtor$3@?0??get_version_info@@YA?AUVersionData@@AEBVUnicodeString@col@@@Z@4HA 00000000610647f0 f    CIL library: CIL module
 0001:00063800       ?dtor$4@?0??get_version_info@@YA?AUVersionData@@AEBVUnicodeString@col@@@Z@4HA 0000000061064800 f    CIL library: CIL module
 0001:00063810       ?dtor$5@?0??get_version_info@@YA?AUVersionData@@AEBVUnicodeString@col@@@Z@4HA 0000000061064810 f    CIL library: CIL module
 0001:00063820       ?dtor$6@?0??get_version_info@@YA?AUVersionData@@AEBVUnicodeString@col@@@Z@4HA 0000000061064820 f    CIL library: CIL module
 0001:00063830       ?dtor$7@?0??get_version_info@@YA?AUVersionData@@AEBVUnicodeString@col@@@Z@4HA 0000000061064830 f    CIL library: CIL module
 0001:00063840       ?dtor$8@?0??get_version_info@@YA?AUVersionData@@AEBVUnicodeString@col@@@Z@4HA 0000000061064840 f    CIL library: CIL module
 0001:00063850       ?dtor$9@?0??get_version_info@@YA?AUVersionData@@AEBVUnicodeString@col@@@Z@4HA 0000000061064850 f    CIL library: CIL module
 0001:00063860       ?dtor$10@?0??get_version_info@@YA?AUVersionData@@AEBVUnicodeString@col@@@Z@4HA 0000000061064860 f    CIL library: CIL module
 0001:00063870       ?dtor$11@?0??get_version_info@@YA?AUVersionData@@AEBVUnicodeString@col@@@Z@4HA 0000000061064870 f    CIL library: CIL module
 0001:00063880       ?dtor$12@?0??get_version_info@@YA?AUVersionData@@AEBVUnicodeString@col@@@Z@4HA 0000000061064880 f    CIL library: CIL module
 0001:00063890       ?dtor$13@?0??get_version_info@@YA?AUVersionData@@AEBVUnicodeString@col@@@Z@4HA 0000000061064890 f    CIL library: CIL module
 0001:000638a0       ?dtor$14@?0??get_version_info@@YA?AUVersionData@@AEBVUnicodeString@col@@@Z@4HA 00000000610648a0 f    CIL library: CIL module
 0001:000638b0       ?dtor$15@?0??get_version_info@@YA?AUVersionData@@AEBVUnicodeString@col@@@Z@4HA 00000000610648b0 f    CIL library: CIL module
 0001:000638c0       ?dtor$16@?0??get_version_info@@YA?AUVersionData@@AEBVUnicodeString@col@@@Z@4HA 00000000610648c0 f    CIL library: CIL module
 0001:000638d0       ?dtor$17@?0??get_version_info@@YA?AUVersionData@@AEBVUnicodeString@col@@@Z@4HA 00000000610648d0 f    CIL library: CIL module
 0001:000638e0       ?dtor$18@?0??get_version_info@@YA?AUVersionData@@AEBVUnicodeString@col@@@Z@4HA 00000000610648e0 f    CIL library: CIL module
 0001:000638f0       ?dtor$19@?0??get_version_info@@YA?AUVersionData@@AEBVUnicodeString@col@@@Z@4HA 00000000610648f0 f    CIL library: CIL module
 0001:00063900       ?dtor$20@?0??get_version_info@@YA?AUVersionData@@AEBVUnicodeString@col@@@Z@4HA 0000000061064900 f    CIL library: CIL module
 0001:00063910       ?dtor$21@?0??get_version_info@@YA?AUVersionData@@AEBVUnicodeString@col@@@Z@4HA 0000000061064910 f    CIL library: CIL module
 0001:00063920       ?catch$2@?0??get_version_info@@YA?AUVersionData@@AEBVUnicodeString@col@@@Z@4HA 0000000061064920 f    CIL library: CIL module
 0001:0006392d       __catch$?get_version_info@@YA?AUVersionData@@AEBVUnicodeString@col@@@Z$4 000000006106492d f    CIL library: CIL module
 0001:00063950       ?catch$3@?0??get_version_info@@YA?AUVersionData@@AEBVUnicodeString@col@@@Z@4HA 0000000061064950 f    CIL library: CIL module
 0001:0006395d       __catch$?get_version_info@@YA?AUVersionData@@AEBVUnicodeString@col@@@Z$6 000000006106495d f    CIL library: CIL module
 0001:00063980       ?dtor$22@?0??get_version_info@@YA?AUVersionData@@AEBVUnicodeString@col@@@Z@4HA 0000000061064980 f    CIL library: CIL module
 0001:00063990       ?catch$4@?0??get_version_info@@YA?AUVersionData@@AEBVUnicodeString@col@@@Z@4HA 0000000061064990 f    CIL library: CIL module
 0001:0006399d       __catch$?get_version_info@@YA?AUVersionData@@AEBVUnicodeString@col@@@Z$8 000000006106499d f    CIL library: CIL module
 0001:000639c0       ?dtor$23@?0??get_version_info@@YA?AUVersionData@@AEBVUnicodeString@col@@@Z@4HA 00000000610649c0 f    CIL library: CIL module
 0001:000639d0       ?dtor$24@?0??get_version_info@@YA?AUVersionData@@AEBVUnicodeString@col@@@Z@4HA 00000000610649d0 f    CIL library: CIL module
 0001:000639e0       ?dtor$25@?0??get_version_info@@YA?AUVersionData@@AEBVUnicodeString@col@@@Z@4HA 00000000610649e0 f    CIL library: CIL module
 0001:000639f0       ?dtor$26@?0??get_version_info@@YA?AUVersionData@@AEBVUnicodeString@col@@@Z@4HA 00000000610649f0 f    CIL library: CIL module
 0001:00063a00       ?dtor$27@?0??get_version_info@@YA?AUVersionData@@AEBVUnicodeString@col@@@Z@4HA 0000000061064a00 f    CIL library: CIL module
 0001:00063a10       ?catch$5@?0??get_version_info@@YA?AUVersionData@@AEBVUnicodeString@col@@@Z@4HA 0000000061064a10 f    CIL library: CIL module
 0001:00063a1d       __catch$?get_version_info@@YA?AUVersionData@@AEBVUnicodeString@col@@@Z$10 0000000061064a1d f    CIL library: CIL module
 0001:00063a30       ?dtor$29@?0??get_version_info@@YA?AUVersionData@@AEBVUnicodeString@col@@@Z@4HA 0000000061064a30 f    CIL library: CIL module
 0001:00063a40       ?dtor$30@?0??get_version_info@@YA?AUVersionData@@AEBVUnicodeString@col@@@Z@4HA 0000000061064a40 f    CIL library: CIL module
 0001:00063a50       ?dtor$31@?0??get_version_info@@YA?AUVersionData@@AEBVUnicodeString@col@@@Z@4HA 0000000061064a50 f    CIL library: CIL module
 0001:00063a60       ?dtor$32@?0??get_version_info@@YA?AUVersionData@@AEBVUnicodeString@col@@@Z@4HA 0000000061064a60 f    CIL library: CIL module
 0001:00063a70       ?dtor$33@?0??get_version_info@@YA?AUVersionData@@AEBVUnicodeString@col@@@Z@4HA 0000000061064a70 f    CIL library: CIL module
 0001:00063a80       ?dtor$34@?0??get_version_info@@YA?AUVersionData@@AEBVUnicodeString@col@@@Z@4HA 0000000061064a80 f    CIL library: CIL module
 0001:00063a90       ?dtor$35@?0??get_version_info@@YA?AUVersionData@@AEBVUnicodeString@col@@@Z@4HA 0000000061064a90 f    CIL library: CIL module
 0001:00063aa0       ?dtor$36@?0??get_version_info@@YA?AUVersionData@@AEBVUnicodeString@col@@@Z@4HA 0000000061064aa0 f    CIL library: CIL module
 0001:00063ab0       ?dtor$37@?0??get_version_info@@YA?AUVersionData@@AEBVUnicodeString@col@@@Z@4HA 0000000061064ab0 f    CIL library: CIL module
 0001:00063ac0       ?dtor$38@?0??get_version_info@@YA?AUVersionData@@AEBVUnicodeString@col@@@Z@4HA 0000000061064ac0 f    CIL library: CIL module
 0001:00063ad0       ?dtor$39@?0??get_version_info@@YA?AUVersionData@@AEBVUnicodeString@col@@@Z@4HA 0000000061064ad0 f    CIL library: CIL module
 0001:00063ae0       ?dtor$40@?0??get_version_info@@YA?AUVersionData@@AEBVUnicodeString@col@@@Z@4HA 0000000061064ae0 f    CIL library: CIL module
 0001:00063af0       ?dtor$41@?0??get_version_info@@YA?AUVersionData@@AEBVUnicodeString@col@@@Z@4HA 0000000061064af0 f    CIL library: CIL module
 0001:00063b00       ?dtor$42@?0??get_version_info@@YA?AUVersionData@@AEBVUnicodeString@col@@@Z@4HA 0000000061064b00 f    CIL library: CIL module
 0001:00063b10       ?dtor$43@?0??get_version_info@@YA?AUVersionData@@AEBVUnicodeString@col@@@Z@4HA 0000000061064b10 f    CIL library: CIL module
 0001:00063b20       ?dtor$44@?0??get_version_info@@YA?AUVersionData@@AEBVUnicodeString@col@@@Z@4HA 0000000061064b20 f    CIL library: CIL module
 0001:00063b30       ?dtor$45@?0??get_version_info@@YA?AUVersionData@@AEBVUnicodeString@col@@@Z@4HA 0000000061064b30 f    CIL library: CIL module
 0001:00063b40       ?dtor$46@?0??get_version_info@@YA?AUVersionData@@AEBVUnicodeString@col@@@Z@4HA 0000000061064b40 f    CIL library: CIL module
 0001:00063b50       ?dtor$47@?0??get_version_info@@YA?AUVersionData@@AEBVUnicodeString@col@@@Z@4HA 0000000061064b50 f    CIL library: CIL module
 0001:00063b60       ?dtor$48@?0??get_version_info@@YA?AUVersionData@@AEBVUnicodeString@col@@@Z@4HA 0000000061064b60 f    CIL library: CIL module
 0001:00063b70       ?dtor$49@?0??get_version_info@@YA?AUVersionData@@AEBVUnicodeString@col@@@Z@4HA 0000000061064b70 f    CIL library: CIL module
 0001:00063b80       ?dtor$0@?0??get_mft_index_cache_name@FilePanel@@AEAA?AVUnicodeString@col@@XZ@4HA 0000000061064b80 f    CIL library: CIL module
 0001:00063b90       ?catch$0@?0??get_mft_index_cache_name@FilePanel@@AEAA?AVUnicodeString@col@@XZ@4HA 0000000061064b90 f    CIL library: CIL module
 0001:00063b9d       __catch$?get_mft_index_cache_name@FilePanel@@AEAA?AVUnicodeString@col@@XZ$0 0000000061064b9d f    CIL library: CIL module
 0001:00063bc0       ?dtor$1@?0??get_mft_index_cache_name@FilePanel@@AEAA?AVUnicodeString@col@@XZ@4HA 0000000061064bc0 f    CIL library: CIL module
 0001:00063bd0       ?dtor$2@?0??get_mft_index_cache_name@FilePanel@@AEAA?AVUnicodeString@col@@XZ@4HA 0000000061064bd0 f    CIL library: CIL module
 0001:00063be0       ?dtor$3@?0??get_mft_index_cache_name@FilePanel@@AEAA?AVUnicodeString@col@@XZ@4HA 0000000061064be0 f    CIL library: CIL module
 0001:00063bf0       ?dtor$0@?0??load_mft_index@FilePanel@@AEAAXXZ@4HA 0000000061064bf0 f    CIL library: CIL module
 0001:00063c00       ?catch$0@?0??load_mft_index@FilePanel@@AEAAXXZ@4HA 0000000061064c00 f    CIL library: CIL module
 0001:00063c0d       __catch$?load_mft_index@FilePanel@@AEAAXXZ$0 0000000061064c0d f    CIL library: CIL module
 0001:00063c30       ?dtor$2@?0??load_mft_index@FilePanel@@AEAAXXZ@4HA 0000000061064c30 f    CIL library: CIL module
 0001:00063c40       ?catch$1@?0??load_mft_index@FilePanel@@AEAAXXZ@4HA 0000000061064c40 f    CIL library: CIL module
 0001:00063c4d       __catch$?load_mft_index@FilePanel@@AEAAXXZ$2 0000000061064c4d f    CIL library: CIL module
 0001:00063c70       ?catch$2@?0??load_mft_index@FilePanel@@AEAAXXZ@4HA 0000000061064c70 f    CIL library: CIL module
 0001:00063c7d       __catch$?load_mft_index@FilePanel@@AEAAXXZ$4 0000000061064c7d f    CIL library: CIL module
 0001:00063ca0       ?catch$3@?0??load_mft_index@FilePanel@@AEAAXXZ@4HA 0000000061064ca0 f    CIL library: CIL module
 0001:00063cad       __catch$?load_mft_index@FilePanel@@AEAAXXZ$6 0000000061064cad f    CIL library: CIL module
 0001:00063cd0       ?catch$4@?0??load_mft_index@FilePanel@@AEAAXXZ@4HA 0000000061064cd0 f    CIL library: CIL module
 0001:00063cdd       __catch$?load_mft_index@FilePanel@@AEAAXXZ$8 0000000061064cdd f    CIL library: CIL module
 0001:00063d00       ?catch$5@?0??load_mft_index@FilePanel@@AEAAXXZ@4HA 0000000061064d00 f    CIL library: CIL module
 0001:00063d0d       __catch$?load_mft_index@FilePanel@@AEAAXXZ$10 0000000061064d0d f    CIL library: CIL module
 0001:00063d30       ?catch$6@?0??load_mft_index@FilePanel@@AEAAXXZ@4HA 0000000061064d30 f    CIL library: CIL module
 0001:00063d3d       __catch$?load_mft_index@FilePanel@@AEAAXXZ$12 0000000061064d3d f    CIL library: CIL module
 0001:00063d60       ?catch$7@?0??load_mft_index@FilePanel@@AEAAXXZ@4HA 0000000061064d60 f    CIL library: CIL module
 0001:00063d6d       __catch$?load_mft_index@FilePanel@@AEAAXXZ$14 0000000061064d6d f    CIL library: CIL module
 0001:00063d90       ?catch$8@?0??load_mft_index@FilePanel@@AEAAXXZ@4HA 0000000061064d90 f    CIL library: CIL module
 0001:00063d9d       __catch$?load_mft_index@FilePanel@@AEAAXXZ$16 0000000061064d9d f    CIL library: CIL module
 0001:00063dc0       ?catch$9@?0??load_mft_index@FilePanel@@AEAAXXZ@4HA 0000000061064dc0 f    CIL library: CIL module
 0001:00063dcd       __catch$?load_mft_index@FilePanel@@AEAAXXZ$18 0000000061064dcd f    CIL library: CIL module
 0001:00063df0       ?catch$10@?0??load_mft_index@FilePanel@@AEAAXXZ@4HA 0000000061064df0 f    CIL library: CIL module
 0001:00063dfd       __catch$?load_mft_index@FilePanel@@AEAAXXZ$20 0000000061064dfd f    CIL library: CIL module
 0001:00063e20       ?catch$11@?0??load_mft_index@FilePanel@@AEAAXXZ@4HA 0000000061064e20 f    CIL library: CIL module
 0001:00063e2d       __catch$?load_mft_index@FilePanel@@AEAAXXZ$22 0000000061064e2d f    CIL library: CIL module
 0001:00063e50       ?catch$12@?0??load_mft_index@FilePanel@@AEAAXXZ@4HA 0000000061064e50 f    CIL library: CIL module
 0001:00063e5d       __catch$?load_mft_index@FilePanel@@AEAAXXZ$24 0000000061064e5d f    CIL library: CIL module
 0001:00063e80       ?dtor$3@?0??load_mft_index@FilePanel@@AEAAXXZ@4HA 0000000061064e80 f    CIL library: CIL module
 0001:00063e90       ?catch$13@?0??load_mft_index@FilePanel@@AEAAXXZ@4HA 0000000061064e90 f    CIL library: CIL module
 0001:00063e9d       __catch$?load_mft_index@FilePanel@@AEAAXXZ$26 0000000061064e9d f    CIL library: CIL module
 0001:00063ec0       ?catch$14@?0??load_mft_index@FilePanel@@AEAAXXZ@4HA 0000000061064ec0 f    CIL library: CIL module
 0001:00063ecd       __catch$?load_mft_index@FilePanel@@AEAAXXZ$28 0000000061064ecd f    CIL library: CIL module
 0001:00063ef0       ?catch$15@?0??load_mft_index@FilePanel@@AEAAXXZ@4HA 0000000061064ef0 f    CIL library: CIL module
 0001:00063efd       __catch$?load_mft_index@FilePanel@@AEAAXXZ$30 0000000061064efd f    CIL library: CIL module
 0001:00063f20       ?dtor$4@?0??load_mft_index@FilePanel@@AEAAXXZ@4HA 0000000061064f20 f    CIL library: CIL module
 0001:00063f30       ?catch$16@?0??load_mft_index@FilePanel@@AEAAXXZ@4HA 0000000061064f30 f    CIL library: CIL module
 0001:00063f3d       __catch$?load_mft_index@FilePanel@@AEAAXXZ$32 0000000061064f3d f    CIL library: CIL module
 0001:00063f60       ?dtor$5@?0??load_mft_index@FilePanel@@AEAAXXZ@4HA 0000000061064f60 f    CIL library: CIL module
 0001:00063f70       ?catch$17@?0??load_mft_index@FilePanel@@AEAAXXZ@4HA 0000000061064f70 f    CIL library: CIL module
 0001:00063f7d       __catch$?load_mft_index@FilePanel@@AEAAXXZ$34 0000000061064f7d f    CIL library: CIL module
 0001:00063fa0       ?dtor$21@?0??load_mft_index@FilePanel@@AEAAXXZ@4HA 0000000061064fa0 f    CIL library: CIL module
 0001:00063fb0       ?dtor$0@?0??store_mft_index@FilePanel@@AEAAXXZ@4HA 0000000061064fb0 f    CIL library: CIL module
 0001:00063fc0       ?dtor$1@?0??store_mft_index@FilePanel@@AEAAXXZ@4HA 0000000061064fc0 f    CIL library: CIL module
 0001:00063fd0       ?dtor$2@?0??store_mft_index@FilePanel@@AEAAXXZ@4HA 0000000061064fd0 f    CIL library: CIL module
 0001:00063fe0       ?dtor$3@?0??store_mft_index@FilePanel@@AEAAXXZ@4HA 0000000061064fe0 f    CIL library: CIL module
 0001:00063ff0       ?catch$0@?0??store_mft_index@FilePanel@@AEAAXXZ@4HA 0000000061064ff0 f    CIL library: CIL module
 0001:00063ffd       __catch$?store_mft_index@FilePanel@@AEAAXXZ$0 0000000061064ffd f    CIL library: CIL module
 0001:00064020       ?catch$1@?0??store_mft_index@FilePanel@@AEAAXXZ@4HA 0000000061065020 f    CIL library: CIL module
 0001:0006402d       __catch$?store_mft_index@FilePanel@@AEAAXXZ$2 000000006106502d f    CIL library: CIL module
 0001:00064050       ?dtor$5@?0??store_mft_index@FilePanel@@AEAAXXZ@4HA 0000000061065050 f    CIL library: CIL module
 0001:00064060       ?catch$2@?0??store_mft_index@FilePanel@@AEAAXXZ@4HA 0000000061065060 f    CIL library: CIL module
 0001:0006406d       __catch$?store_mft_index@FilePanel@@AEAAXXZ$4 000000006106506d f    CIL library: CIL module
 0001:00064090       ?catch$3@?0??store_mft_index@FilePanel@@AEAAXXZ@4HA 0000000061065090 f    CIL library: CIL module
 0001:0006409d       __catch$?store_mft_index@FilePanel@@AEAAXXZ$6 000000006106509d f    CIL library: CIL module
 0001:000640c0       ?catch$4@?0??store_mft_index@FilePanel@@AEAAXXZ@4HA 00000000610650c0 f    CIL library: CIL module
 0001:000640cd       __catch$?store_mft_index@FilePanel@@AEAAXXZ$8 00000000610650cd f    CIL library: CIL module
 0001:000640f0       ?catch$5@?0??store_mft_index@FilePanel@@AEAAXXZ@4HA 00000000610650f0 f    CIL library: CIL module
 0001:000640fd       __catch$?store_mft_index@FilePanel@@AEAAXXZ$10 00000000610650fd f    CIL library: CIL module
 0001:00064120       ?catch$6@?0??store_mft_index@FilePanel@@AEAAXXZ@4HA 0000000061065120 f    CIL library: CIL module
 0001:0006412d       __catch$?store_mft_index@FilePanel@@AEAAXXZ$12 000000006106512d f    CIL library: CIL module
 0001:00064150       ?catch$7@?0??store_mft_index@FilePanel@@AEAAXXZ@4HA 0000000061065150 f    CIL library: CIL module
 0001:0006415d       __catch$?store_mft_index@FilePanel@@AEAAXXZ$14 000000006106515d f    CIL library: CIL module
 0001:00064180       ?catch$8@?0??store_mft_index@FilePanel@@AEAAXXZ@4HA 0000000061065180 f    CIL library: CIL module
 0001:0006418d       __catch$?store_mft_index@FilePanel@@AEAAXXZ$16 000000006106518d f    CIL library: CIL module
 0001:000641b0       ?catch$9@?0??store_mft_index@FilePanel@@AEAAXXZ@4HA 00000000610651b0 f    CIL library: CIL module
 0001:000641bd       __catch$?store_mft_index@FilePanel@@AEAAXXZ$18 00000000610651bd f    CIL library: CIL module
 0001:000641e0       ?catch$10@?0??store_mft_index@FilePanel@@AEAAXXZ@4HA 00000000610651e0 f    CIL library: CIL module
 0001:000641ed       __catch$?store_mft_index@FilePanel@@AEAAXXZ$20 00000000610651ed f    CIL library: CIL module
 0001:00064210       ?dtor$10@?0??store_mft_index@FilePanel@@AEAAXXZ@4HA 0000000061065210 f    CIL library: CIL module
 0001:00064220       ?dtor$0@?0??mft_find_path@FilePanel@@AEAA_KAEBVUnicodeString@col@@@Z@4HA 0000000061065220 f    CIL library: CIL module
 0001:00064230       ?dtor$1@?0??mft_find_path@FilePanel@@AEAA_KAEBVUnicodeString@col@@@Z@4HA 0000000061065230 f    CIL library: CIL module
 0001:00064240       ?dtor$2@?0??mft_find_path@FilePanel@@AEAA_KAEBVUnicodeString@col@@@Z@4HA 0000000061065240 f    CIL library: CIL module
 0001:00064250       ?dtor$3@?0??mft_find_path@FilePanel@@AEAA_KAEBVUnicodeString@col@@@Z@4HA 0000000061065250 f    CIL library: CIL module
 0001:00064260       ?catch$0@?0??mft_find_path@FilePanel@@AEAA_KAEBVUnicodeString@col@@@Z@4HA 0000000061065260 f    CIL library: CIL module
 0001:0006426d       __catch$?mft_find_path@FilePanel@@AEAA_KAEBVUnicodeString@col@@@Z$0 000000006106526d f    CIL library: CIL module
 0001:00064290       ?dtor$0@?0??do_update_ui@Progress@?1??load_mft_index@FilePanel@@AEAAXXZ@MEAAXXZ@4HA 0000000061065290 f    CIL library: CIL module
 0001:00064290       ?dtor$0@?0??do_update_ui@Progress@?1??update_mft_index_from_usn@FilePanel@@AEAAXXZ@MEAAXXZ@4HA 0000000061065290 f    CIL library: CIL module
 0001:00064290       ?dtor$0@?0??do_update_ui@Progress@?3??store_mft_index@FilePanel@@AEAAXXZ@MEAAXXZ@4HA 0000000061065290 f    CIL library: CIL module
 0001:000642a0       ?dtor$1@?0??do_update_ui@Progress@?1??update_mft_index_from_usn@FilePanel@@AEAAXXZ@MEAAXXZ@4HA 00000000610652a0 f    CIL library: CIL module
 0001:000642a0       ?dtor$1@?0??do_update_ui@Progress@?3??store_mft_index@FilePanel@@AEAAXXZ@MEAAXXZ@4HA 00000000610652a0 f    CIL library: CIL module
 0001:000642a0       ?dtor$1@?0??do_update_ui@Progress@?1??load_mft_index@FilePanel@@AEAAXXZ@MEAAXXZ@4HA 00000000610652a0 f    CIL library: CIL module
 0001:000642b0       ?dtor$2@?0??do_update_ui@Progress@?3??store_mft_index@FilePanel@@AEAAXXZ@MEAAXXZ@4HA 00000000610652b0 f    CIL library: CIL module
 0001:000642b0       ?dtor$2@?0??do_update_ui@Progress@?1??update_mft_index_from_usn@FilePanel@@AEAAXXZ@MEAAXXZ@4HA 00000000610652b0 f    CIL library: CIL module
 0001:000642b0       ?dtor$2@?0??do_update_ui@Progress@?1??load_mft_index@FilePanel@@AEAAXXZ@MEAAXXZ@4HA 00000000610652b0 f    CIL library: CIL module
 0001:000642c0       ?dtor$3@?0??do_update_ui@Progress@?3??store_mft_index@FilePanel@@AEAAXXZ@MEAAXXZ@4HA 00000000610652c0 f    CIL library: CIL module
 0001:000642c0       ?dtor$3@?0??do_update_ui@Progress@?1??update_mft_index_from_usn@FilePanel@@AEAAXXZ@MEAAXXZ@4HA 00000000610652c0 f    CIL library: CIL module
 0001:000642c0       ?dtor$3@?0??do_update_ui@Progress@?1??load_mft_index@FilePanel@@AEAAXXZ@MEAAXXZ@4HA 00000000610652c0 f    CIL library: CIL module
 0001:000642d0       ?dtor$0@?0??do_update_ui@VolumeListProgress@?1??create_mft_index@FilePanel@@AEAAXXZ@MEAAXXZ@4HA 00000000610652d0 f    CIL library: CIL module
 0001:000642e0       ?dtor$1@?0??do_update_ui@VolumeListProgress@?1??create_mft_index@FilePanel@@AEAAXXZ@MEAAXXZ@4HA 00000000610652e0 f    CIL library: CIL module
 0001:000642f0       ?dtor$2@?0??do_update_ui@VolumeListProgress@?1??create_mft_index@FilePanel@@AEAAXXZ@MEAAXXZ@4HA 00000000610652f0 f    CIL library: CIL module
 0001:00064300       ?dtor$3@?0??do_update_ui@VolumeListProgress@?1??create_mft_index@FilePanel@@AEAAXXZ@MEAAXXZ@4HA 0000000061065300 f    CIL library: CIL module
 0001:00064310       ?dtor$4@?0??do_update_ui@VolumeListProgress@?1??create_mft_index@FilePanel@@AEAAXXZ@MEAAXXZ@4HA 0000000061065310 f    CIL library: CIL module
 0001:00064320       ?dtor$5@?0??do_update_ui@VolumeListProgress@?1??create_mft_index@FilePanel@@AEAAXXZ@MEAAXXZ@4HA 0000000061065320 f    CIL library: CIL module
 0001:00064330       ?dtor$6@?0??do_update_ui@VolumeListProgress@?1??create_mft_index@FilePanel@@AEAAXXZ@MEAAXXZ@4HA 0000000061065330 f    CIL library: CIL module
 0001:00064340       ?dtor$0@?0??do_update_ui@DefragProgress@@MEAAXXZ@4HA 0000000061065340 f    CIL library: CIL module
 0001:00064350       ?dtor$1@?0??do_update_ui@DefragProgress@@MEAAXXZ@4HA 0000000061065350 f    CIL library: CIL module
 0001:00064360       ?dtor$2@?0??do_update_ui@DefragProgress@@MEAAXXZ@4HA 0000000061065360 f    CIL library: CIL module
 0001:00064370       ?dtor$3@?0??do_update_ui@DefragProgress@@MEAAXXZ@4HA 0000000061065370 f    CIL library: CIL module
 0001:00064380       ?dtor$4@?0??do_update_ui@DefragProgress@@MEAAXXZ@4HA 0000000061065380 f    CIL library: CIL module
 0001:00064390       ?dtor$5@?0??do_update_ui@DefragProgress@@MEAAXXZ@4HA 0000000061065390 f    CIL library: CIL module
 0001:000643a0       ?dtor$6@?0??do_update_ui@DefragProgress@@MEAAXXZ@4HA 00000000610653a0 f    CIL library: CIL module
 0001:000643b0       ?dtor$7@?0??do_update_ui@DefragProgress@@MEAAXXZ@4HA 00000000610653b0 f    CIL library: CIL module
 0001:000643c0       ?dtor$8@?0??do_update_ui@DefragProgress@@MEAAXXZ@4HA 00000000610653c0 f    CIL library: CIL module
 0001:000643d0       ?dtor$9@?0??do_update_ui@DefragProgress@@MEAAXXZ@4HA 00000000610653d0 f    CIL library: CIL module
 0001:000643e0       ?dtor$10@?0??do_update_ui@DefragProgress@@MEAAXXZ@4HA 00000000610653e0 f    CIL library: CIL module
 0001:000643f0       ?dtor$12@?0??do_update_ui@DefragProgress@@MEAAXXZ@4HA 00000000610653f0 f    CIL library: CIL module
 0001:00064400       ?dtor$13@?0??do_update_ui@DefragProgress@@MEAAXXZ@4HA 0000000061065400 f    CIL library: CIL module
 0001:00064410       ?dtor$14@?0??do_update_ui@DefragProgress@@MEAAXXZ@4HA 0000000061065410 f    CIL library: CIL module
 0001:00064420       ?dtor$16@?0??do_update_ui@DefragProgress@@MEAAXXZ@4HA 0000000061065420 f    CIL library: CIL module
 0001:00064430       ?dtor$17@?0??do_update_ui@DefragProgress@@MEAAXXZ@4HA 0000000061065430 f    CIL library: CIL module
 0001:00064440       ?dtor$18@?0??do_update_ui@DefragProgress@@MEAAXXZ@4HA 0000000061065440 f    CIL library: CIL module
 0001:00064450       ?catch$0@?0??open@NtfsVolume@@QEAAXAEBVUnicodeString@col@@@Z@4HA 0000000061065450 f    CIL library: CIL module
 0001:0006445d       __catch$?open@NtfsVolume@@QEAAXAEBVUnicodeString@col@@@Z$0 000000006106545d f    CIL library: CIL module
 0001:00064480       ?catch$1@?0??open@NtfsVolume@@QEAAXAEBVUnicodeString@col@@@Z@4HA 0000000061065480 f    CIL library: CIL module
 0001:0006448d       __catch$?open@NtfsVolume@@QEAAXAEBVUnicodeString@col@@@Z$2 000000006106548d f    CIL library: CIL module
 0001:000644b0       ?catch$2@?0??open@NtfsVolume@@QEAAXAEBVUnicodeString@col@@@Z@4HA 00000000610654b0 f    CIL library: CIL module
 0001:000644bd       __catch$?open@NtfsVolume@@QEAAXAEBVUnicodeString@col@@@Z$4 00000000610654bd f    CIL library: CIL module
 0001:000644e0       ?catch$3@?0??open@NtfsVolume@@QEAAXAEBVUnicodeString@col@@@Z@4HA 00000000610654e0 f    CIL library: CIL module
 0001:000644ed       __catch$?open@NtfsVolume@@QEAAXAEBVUnicodeString@col@@@Z$6 00000000610654ed f    CIL library: CIL module
 0001:00064510       ?catch$4@?0??open@NtfsVolume@@QEAAXAEBVUnicodeString@col@@@Z@4HA 0000000061065510 f    CIL library: CIL module
 0001:0006451d       __catch$?open@NtfsVolume@@QEAAXAEBVUnicodeString@col@@@Z$8 000000006106551d f    CIL library: CIL module
 0001:00064540       ?catch$5@?0??open@NtfsVolume@@QEAAXAEBVUnicodeString@col@@@Z@4HA 0000000061065540 f    CIL library: CIL module
 0001:0006454d       __catch$?open@NtfsVolume@@QEAAXAEBVUnicodeString@col@@@Z$10 000000006106554d f    CIL library: CIL module
 0001:00064560       ?dtor$0@?0???0VolumeInfo@@QEAA@AEBVUnicodeString@col@@@Z@4HA 0000000061065560 f    CIL library: CIL module
 0001:00064570       ?dtor$1@?0???0VolumeInfo@@QEAA@AEBVUnicodeString@col@@@Z@4HA 0000000061065570 f    CIL library: CIL module
 0001:00064580       ?catch$0@?0???0VolumeInfo@@QEAA@AEBVUnicodeString@col@@@Z@4HA 0000000061065580 f    CIL library: CIL module
 0001:0006458d       __catch$??0VolumeInfo@@QEAA@AEBVUnicodeString@col@@@Z$0 000000006106558d f    CIL library: CIL module
 0001:000645b0       ?dtor$0@?0???$?H_WU?$char_traits@_W@std@@V?$allocator@_W@1@@std@@YA?AV?$basic_string@_WU?$char_traits@_W@std@@V?$allocator@_W@2@@0@AEBV10@_W@Z@4HA 00000000610655b0 f    CIL library: CIL module
 0001:000645e0       ?catch$0@?0??get_find_data@@YA?AUFindData@@AEBVUnicodeString@col@@@Z@4HA 00000000610655e0 f    CIL library: CIL module
 0001:000645ed       __catch$?get_find_data@@YA?AUFindData@@AEBVUnicodeString@col@@@Z$0 00000000610655ed f    CIL library: CIL module
 0001:00064610       ?dtor$0@?0??next@FileEnum@@QEAA_NXZ@4HA 0000000061065610 f    CIL library: CIL module
 0001:00064620       ?dtor$1@?0??next@FileEnum@@QEAA_NXZ@4HA 0000000061065620 f    CIL library: CIL module
 0001:00064630       ?catch$0@?0??next@FileEnum@@QEAA_NXZ@4HA 0000000061065630 f    CIL library: CIL module
 0001:0006463d       __catch$?next@FileEnum@@QEAA_NXZ$0 000000006106563d f    CIL library: CIL module
 0001:00064660       ?catch$1@?0??next@FileEnum@@QEAA_NXZ@4HA 0000000061065660 f    CIL library: CIL module
 0001:0006466d       __catch$?next@FileEnum@@QEAA_NXZ$2 000000006106566d f    CIL library: CIL module
 0001:00064690       ?catch$0@?0???0File@@QEAA@AEBVUnicodeString@col@@KKKK@Z@4HA 0000000061065690 f    CIL library: CIL module
 0001:0006469d       __catch$??0File@@QEAA@AEBVUnicodeString@col@@KKKK@Z$0 000000006106569d f    CIL library: CIL module
 0001:000646c0       ?dtor$0@?0??error_dlg@@YAXAEBVexception@std@@@Z@4HA 00000000610656c0 f    CIL library: CIL module
 0001:000646d0       ?dtor$1@?0??error_dlg@@YAXAEBVexception@std@@@Z@4HA 00000000610656d0 f    CIL library: CIL module
 0001:000646e0       ?dtor$2@?0??error_dlg@@YAXAEBVexception@std@@@Z@4HA 00000000610656e0 f    CIL library: CIL module
 0001:000646f0       ?dtor$3@?0??error_dlg@@YAXAEBVexception@std@@@Z@4HA 00000000610656f0 f    CIL library: CIL module
 0001:00064700       ?dtor$4@?0??error_dlg@@YAXAEBVexception@std@@@Z@4HA 0000000061065700 f    CIL library: CIL module
 0001:00064710       ?dtor$0@?0??error_dlg@@YAXAEBVError@@@Z@4HA 0000000061065710 f    CIL library: CIL module
 0001:00064720       ?dtor$1@?0??error_dlg@@YAXAEBVError@@@Z@4HA 0000000061065720 f    CIL library: CIL module
 0001:00064730       ?dtor$2@?0??error_dlg@@YAXAEBVError@@@Z@4HA 0000000061065730 f    CIL library: CIL module
 0001:00064740       ?dtor$3@?0??error_dlg@@YAXAEBVError@@@Z@4HA 0000000061065740 f    CIL library: CIL module
 0001:00064750       ?dtor$4@?0??error_dlg@@YAXAEBVError@@@Z@4HA 0000000061065750 f    CIL library: CIL module
 0001:00064760       ?dtor$5@?0??error_dlg@@YAXAEBVError@@@Z@4HA 0000000061065760 f    CIL library: CIL module
 0001:00064770       ?dtor$6@?0??error_dlg@@YAXAEBVError@@@Z@4HA 0000000061065770 f    CIL library: CIL module
 0001:00064780       ?dtor$0@?0??show@Log@@QEAAXXZ@4HA 0000000061065780 f    CIL library: CIL module
 0001:00064790       ?dtor$1@?0??show@Log@@QEAAXXZ@4HA 0000000061065790 f    CIL library: CIL module
 0001:000647a0       ?catch$0@?0??show@Log@@QEAAXXZ@4HA 00000000610657a0 f    CIL library: CIL module
 0001:000647ad       __catch$?show@Log@@QEAAXXZ$0 00000000610657ad f    CIL library: CIL module
 0001:000647d0       ?dtor$2@?0??show@Log@@QEAAXXZ@4HA 00000000610657d0 f    CIL library: CIL module
 0001:000647e0       ?catch$1@?0??show@Log@@QEAAXXZ@4HA 00000000610657e0 f    CIL library: CIL module
 0001:000647ed       __catch$?show@Log@@QEAAXXZ$2 00000000610657ed f    CIL library: CIL module
 0001:00064810       ?dtor$3@?0??show@Log@@QEAAXXZ@4HA 0000000061065810 f    CIL library: CIL module
 0001:00064820       ?catch$2@?0??show@Log@@QEAAXXZ@4HA 0000000061065820 f    CIL library: CIL module
 0001:0006482d       __catch$?show@Log@@QEAAXXZ$4 000000006106582d f    CIL library: CIL module
 0001:00064850       ?dtor$4@?0??show@Log@@QEAAXXZ@4HA 0000000061065850 f    CIL library: CIL module
 0001:00064860       ?catch$3@?0??show@Log@@QEAAXXZ@4HA 0000000061065860 f    CIL library: CIL module
 0001:0006486d       __catch$?show@Log@@QEAAXXZ$6 000000006106586d f    CIL library: CIL module
 0001:00064890       ?dtor$5@?0??show@Log@@QEAAXXZ@4HA 0000000061065890 f    CIL library: CIL module
 0001:000648a0       ?catch$4@?0??show@Log@@QEAAXXZ@4HA 00000000610658a0 f    CIL library: CIL module
 0001:000648ad       __catch$?show@Log@@QEAAXXZ$8 00000000610658ad f    CIL library: CIL module
 0001:000648c0       ?dtor$0@?0??format_hex_array@@YA?AVUnicodeString@col@@AEBV?$Array@E@2@@Z@4HA 00000000610658c0 f    CIL library: CIL module
 0001:000648f0       ?dtor$0@?0??format_inf_amount@@YA?AVUnicodeString@col@@_K@Z@4HA 00000000610658f0 f    CIL library: CIL module
 0001:00064900       ?dtor$1@?0??format_inf_amount@@YA?AVUnicodeString@col@@_K@Z@4HA 0000000061065900 f    CIL library: CIL module
 0001:00064930       ?dtor$0@?0??store_plugin_options@@YAXXZ@4HA 0000000061065930 f    CIL library: CIL module
 0001:00064940       ?dtor$1@?0??store_plugin_options@@YAXXZ@4HA 0000000061065940 f    CIL library: CIL module
 0001:00064950       ?catch$0@?0??process_attribute@FileInfo@@AEAAXAEBV?$Array@E@col@@I@Z@4HA 0000000061065950 f    CIL library: CIL module
 0001:0006495d       __catch$?process_attribute@FileInfo@@AEAAXAEBV?$Array@E@col@@I@Z$0 000000006106595d f    CIL library: CIL module
 0001:00064980       ?dtor$0@?0??process_attribute@FileInfo@@AEAAXAEBV?$Array@E@col@@I@Z@4HA 0000000061065980 f    CIL library: CIL module
 0001:00064990       ?catch$1@?0??process_attribute@FileInfo@@AEAAXAEBV?$Array@E@col@@I@Z@4HA 0000000061065990 f    CIL library: CIL module
 0001:0006499d       __catch$?process_attribute@FileInfo@@AEAAXAEBV?$Array@E@col@@I@Z$2 000000006106599d f    CIL library: CIL module
 0001:000649c0       ?catch$2@?0??process_attribute@FileInfo@@AEAAXAEBV?$Array@E@col@@I@Z@4HA 00000000610659c0 f    CIL library: CIL module
 0001:000649cd       __catch$?process_attribute@FileInfo@@AEAAXAEBV?$Array@E@col@@I@Z$4 00000000610659cd f    CIL library: CIL module
 0001:000649f0       ?catch$3@?0??process_attribute@FileInfo@@AEAAXAEBV?$Array@E@col@@I@Z@4HA 00000000610659f0 f    CIL library: CIL module
 0001:000649fd       __catch$?process_attribute@FileInfo@@AEAAXAEBV?$Array@E@col@@I@Z$6 00000000610659fd f    CIL library: CIL module
 0001:00064a20       ?catch$4@?0??process_attribute@FileInfo@@AEAAXAEBV?$Array@E@col@@I@Z@4HA 0000000061065a20 f    CIL library: CIL module
 0001:00064a2d       __catch$?process_attribute@FileInfo@@AEAAXAEBV?$Array@E@col@@I@Z$8 0000000061065a2d f    CIL library: CIL module
 0001:00064a50       ?catch$5@?0??process_attribute@FileInfo@@AEAAXAEBV?$Array@E@col@@I@Z@4HA 0000000061065a50 f    CIL library: CIL module
 0001:00064a5d       __catch$?process_attribute@FileInfo@@AEAAXAEBV?$Array@E@col@@I@Z$10 0000000061065a5d f    CIL library: CIL module
 0001:00064a80       ?dtor$1@?0??process_attribute@FileInfo@@AEAAXAEBV?$Array@E@col@@I@Z@4HA 0000000061065a80 f    CIL library: CIL module
 0001:00064a90       ?catch$6@?0??process_attribute@FileInfo@@AEAAXAEBV?$Array@E@col@@I@Z@4HA 0000000061065a90 f    CIL library: CIL module
 0001:00064a9d       __catch$?process_attribute@FileInfo@@AEAAXAEBV?$Array@E@col@@I@Z$12 0000000061065a9d f    CIL library: CIL module
 0001:00064ac0       ?catch$7@?0??process_attribute@FileInfo@@AEAAXAEBV?$Array@E@col@@I@Z@4HA 0000000061065ac0 f    CIL library: CIL module
 0001:00064acd       __catch$?process_attribute@FileInfo@@AEAAXAEBV?$Array@E@col@@I@Z$14 0000000061065acd f    CIL library: CIL module
 0001:00064af0       ?catch$8@?0??process_attribute@FileInfo@@AEAAXAEBV?$Array@E@col@@I@Z@4HA 0000000061065af0 f    CIL library: CIL module
 0001:00064afd       __catch$?process_attribute@FileInfo@@AEAAXAEBV?$Array@E@col@@I@Z$16 0000000061065afd f    CIL library: CIL module
 0001:00064b20       ?catch$9@?0??process_attribute@FileInfo@@AEAAXAEBV?$Array@E@col@@I@Z@4HA 0000000061065b20 f    CIL library: CIL module
 0001:00064b2d       __catch$?process_attribute@FileInfo@@AEAAXAEBV?$Array@E@col@@I@Z$18 0000000061065b2d f    CIL library: CIL module
 0001:00064b50       ?catch$10@?0??process_attribute@FileInfo@@AEAAXAEBV?$Array@E@col@@I@Z@4HA 0000000061065b50 f    CIL library: CIL module
 0001:00064b5d       __catch$?process_attribute@FileInfo@@AEAAXAEBV?$Array@E@col@@I@Z$20 0000000061065b5d f    CIL library: CIL module
 0001:00064b80       ?catch$11@?0??process_attribute@FileInfo@@AEAAXAEBV?$Array@E@col@@I@Z@4HA 0000000061065b80 f    CIL library: CIL module
 0001:00064b8d       __catch$?process_attribute@FileInfo@@AEAAXAEBV?$Array@E@col@@I@Z$22 0000000061065b8d f    CIL library: CIL module
 0001:00064bb0       ?catch$12@?0??process_attribute@FileInfo@@AEAAXAEBV?$Array@E@col@@I@Z@4HA 0000000061065bb0 f    CIL library: CIL module
 0001:00064bbd       __catch$?process_attribute@FileInfo@@AEAAXAEBV?$Array@E@col@@I@Z$24 0000000061065bbd f    CIL library: CIL module
 0001:00064be0       ?catch$14@?0??process_attribute@FileInfo@@AEAAXAEBV?$Array@E@col@@I@Z@4HA 0000000061065be0 f    CIL library: CIL module
 0001:00064bed       __catch$?process_attribute@FileInfo@@AEAAXAEBV?$Array@E@col@@I@Z$26 0000000061065bed f    CIL library: CIL module
 0001:00064c10       ?catch$13@?0??process_attribute@FileInfo@@AEAAXAEBV?$Array@E@col@@I@Z@4HA 0000000061065c10 f    CIL library: CIL module
 0001:00064c1d       __catch$?process_attribute@FileInfo@@AEAAXAEBV?$Array@E@col@@I@Z$28 0000000061065c1d f    CIL library: CIL module
 0001:00064c40       ?dtor$2@?0??process_attribute@FileInfo@@AEAAXAEBV?$Array@E@col@@I@Z@4HA 0000000061065c40 f    CIL library: CIL module
 0001:00064c50       ?catch$15@?0??process_attribute@FileInfo@@AEAAXAEBV?$Array@E@col@@I@Z@4HA 0000000061065c50 f    CIL library: CIL module
 0001:00064c5d       __catch$?process_attribute@FileInfo@@AEAAXAEBV?$Array@E@col@@I@Z$30 0000000061065c5d f    CIL library: CIL module
 0001:00064c80       ?catch$16@?0??process_attribute@FileInfo@@AEAAXAEBV?$Array@E@col@@I@Z@4HA 0000000061065c80 f    CIL library: CIL module
 0001:00064c8d       __catch$?process_attribute@FileInfo@@AEAAXAEBV?$Array@E@col@@I@Z$32 0000000061065c8d f    CIL library: CIL module
 0001:00064cb0       ?dtor$0@?0???$sort@UHardLinksCmp@?7??sort_file_list@FilePanel@@AEAAXAEAV?$list@UPanelItemData@FilePanel@@V?$allocator@UPanelItemData@FilePanel@@@std@@@std@@@Z@@?$list@UPanelItemData@FilePanel@@V?$allocator@UPanelItemData@FilePanel@@@std@@@std@@QEAAXUHardLinksCmp@?7??sort_file_list@FilePanel@@AEAAXAEAV01@@Z@@Z@4HA 0000000061065cb0 f    CIL library: CIL module
 0001:00064cb0       ?dtor$0@?0???$sort@UStreamsCmp@?6??sort_file_list@FilePanel@@AEAAXAEAV?$list@UPanelItemData@FilePanel@@V?$allocator@UPanelItemData@FilePanel@@@std@@@std@@@Z@@?$list@UPanelItemData@FilePanel@@V?$allocator@UPanelItemData@FilePanel@@@std@@@std@@QEAAXUStreamsCmp@?6??sort_file_list@FilePanel@@AEAAXAEAV01@@Z@@Z@4HA 0000000061065cb0 f    CIL library: CIL module
 0001:00064cb0       ?dtor$0@?0???$sort@UMftRecordsCmp@?8??sort_file_list@FilePanel@@AEAAXAEAV?$list@UPanelItemData@FilePanel@@V?$allocator@UPanelItemData@FilePanel@@@std@@@std@@@Z@@?$list@UPanelItemData@FilePanel@@V?$allocator@UPanelItemData@FilePanel@@@std@@@std@@QEAAXUMftRecordsCmp@?8??sort_file_list@FilePanel@@AEAAXAEAV01@@Z@@Z@4HA 0000000061065cb0 f    CIL library: CIL module
 0001:00064cb0       ?dtor$0@?0???$sort@UDataSizeCmp@?3??sort_file_list@FilePanel@@AEAAXAEAV?$list@UPanelItemData@FilePanel@@V?$allocator@UPanelItemData@FilePanel@@@std@@@std@@@Z@@?$list@UPanelItemData@FilePanel@@V?$allocator@UPanelItemData@FilePanel@@@std@@@std@@QEAAXUDataSizeCmp@?3??sort_file_list@FilePanel@@AEAAXAEAV01@@Z@@Z@4HA 0000000061065cb0 f    CIL library: CIL module
 0001:00064cb0       ?dtor$0@?0???$sort@UFragmLevelCmp@?9??sort_file_list@FilePanel@@AEAAXAEAV?$list@UPanelItemData@FilePanel@@V?$allocator@UPanelItemData@FilePanel@@@std@@@std@@@Z@@?$list@UPanelItemData@FilePanel@@V?$allocator@UPanelItemData@FilePanel@@@std@@@std@@QEAAXUFragmLevelCmp@?9??sort_file_list@FilePanel@@AEAAXAEAV01@@Z@@Z@4HA 0000000061065cb0 f    CIL library: CIL module
 0001:00064cb0       ?dtor$0@?0???$sort@UDiskSizeCmp@?4??sort_file_list@FilePanel@@AEAAXAEAV?$list@UPanelItemData@FilePanel@@V?$allocator@UPanelItemData@FilePanel@@@std@@@std@@@Z@@?$list@UPanelItemData@FilePanel@@V?$allocator@UPanelItemData@FilePanel@@@std@@@std@@QEAAXUDiskSizeCmp@?4??sort_file_list@FilePanel@@AEAAXAEAV01@@Z@@Z@4HA 0000000061065cb0 f    CIL library: CIL module
 0001:00064cb0       ?dtor$0@?0???$sort@UValidSizeCmp@?L@??sort_file_list@FilePanel@@AEAAXAEAV?$list@UPanelItemData@FilePanel@@V?$allocator@UPanelItemData@FilePanel@@@std@@@std@@@Z@@?$list@UPanelItemData@FilePanel@@V?$allocator@UPanelItemData@FilePanel@@@std@@@std@@QEAAXUValidSizeCmp@?L@??sort_file_list@FilePanel@@AEAAXAEAV01@@Z@@Z@4HA 0000000061065cb0 f    CIL library: CIL module
 0001:00064cb0       ?dtor$0@?0???$sort@UFragmentsCmp@?5??sort_file_list@FilePanel@@AEAAXAEAV?$list@UPanelItemData@FilePanel@@V?$allocator@UPanelItemData@FilePanel@@@std@@@std@@@Z@@?$list@UPanelItemData@FilePanel@@V?$allocator@UPanelItemData@FilePanel@@@std@@@std@@QEAAXUFragmentsCmp@?5??sort_file_list@FilePanel@@AEAAXAEAV01@@Z@@Z@4HA 0000000061065cb0 f    CIL library: CIL module
 0001:00064cb0       ?dtor$0@?0???$sort@UNameLenCmp@?M@??sort_file_list@FilePanel@@AEAAXAEAV?$list@UPanelItemData@FilePanel@@V?$allocator@UPanelItemData@FilePanel@@@std@@@std@@@Z@@?$list@UPanelItemData@FilePanel@@V?$allocator@UPanelItemData@FilePanel@@@std@@@std@@QEAAXUNameLenCmp@?M@??sort_file_list@FilePanel@@AEAAXAEAV01@@Z@@Z@4HA 0000000061065cb0 f    CIL library: CIL module
 0001:00064cc0       ?dtor$1@?0???$sort@UNameLenCmp@?M@??sort_file_list@FilePanel@@AEAAXAEAV?$list@UPanelItemData@FilePanel@@V?$allocator@UPanelItemData@FilePanel@@@std@@@std@@@Z@@?$list@UPanelItemData@FilePanel@@V?$allocator@UPanelItemData@FilePanel@@@std@@@std@@QEAAXUNameLenCmp@?M@??sort_file_list@FilePanel@@AEAAXAEAV01@@Z@@Z@4HA 0000000061065cc0 f    CIL library: CIL module
 0001:00064cc0       ?dtor$1@?0???$sort@UFragmentsCmp@?5??sort_file_list@FilePanel@@AEAAXAEAV?$list@UPanelItemData@FilePanel@@V?$allocator@UPanelItemData@FilePanel@@@std@@@std@@@Z@@?$list@UPanelItemData@FilePanel@@V?$allocator@UPanelItemData@FilePanel@@@std@@@std@@QEAAXUFragmentsCmp@?5??sort_file_list@FilePanel@@AEAAXAEAV01@@Z@@Z@4HA 0000000061065cc0 f    CIL library: CIL module
 0001:00064cc0       ?dtor$1@?0???$sort@UValidSizeCmp@?L@??sort_file_list@FilePanel@@AEAAXAEAV?$list@UPanelItemData@FilePanel@@V?$allocator@UPanelItemData@FilePanel@@@std@@@std@@@Z@@?$list@UPanelItemData@FilePanel@@V?$allocator@UPanelItemData@FilePanel@@@std@@@std@@QEAAXUValidSizeCmp@?L@??sort_file_list@FilePanel@@AEAAXAEAV01@@Z@@Z@4HA 0000000061065cc0 f    CIL library: CIL module
 0001:00064cc0       ?dtor$1@?0???$sort@UDiskSizeCmp@?4??sort_file_list@FilePanel@@AEAAXAEAV?$list@UPanelItemData@FilePanel@@V?$allocator@UPanelItemData@FilePanel@@@std@@@std@@@Z@@?$list@UPanelItemData@FilePanel@@V?$allocator@UPanelItemData@FilePanel@@@std@@@std@@QEAAXUDiskSizeCmp@?4??sort_file_list@FilePanel@@AEAAXAEAV01@@Z@@Z@4HA 0000000061065cc0 f    CIL library: CIL module
 0001:00064cc0       ?dtor$1@?0???$sort@UFragmLevelCmp@?9??sort_file_list@FilePanel@@AEAAXAEAV?$list@UPanelItemData@FilePanel@@V?$allocator@UPanelItemData@FilePanel@@@std@@@std@@@Z@@?$list@UPanelItemData@FilePanel@@V?$allocator@UPanelItemData@FilePanel@@@std@@@std@@QEAAXUFragmLevelCmp@?9??sort_file_list@FilePanel@@AEAAXAEAV01@@Z@@Z@4HA 0000000061065cc0 f    CIL library: CIL module
 0001:00064cc0       ?dtor$1@?0???$sort@UDataSizeCmp@?3??sort_file_list@FilePanel@@AEAAXAEAV?$list@UPanelItemData@FilePanel@@V?$allocator@UPanelItemData@FilePanel@@@std@@@std@@@Z@@?$list@UPanelItemData@FilePanel@@V?$allocator@UPanelItemData@FilePanel@@@std@@@std@@QEAAXUDataSizeCmp@?3??sort_file_list@FilePanel@@AEAAXAEAV01@@Z@@Z@4HA 0000000061065cc0 f    CIL library: CIL module
 0001:00064cc0       ?dtor$1@?0???$sort@UMftRecordsCmp@?8??sort_file_list@FilePanel@@AEAAXAEAV?$list@UPanelItemData@FilePanel@@V?$allocator@UPanelItemData@FilePanel@@@std@@@std@@@Z@@?$list@UPanelItemData@FilePanel@@V?$allocator@UPanelItemData@FilePanel@@@std@@@std@@QEAAXUMftRecordsCmp@?8??sort_file_list@FilePanel@@AEAAXAEAV01@@Z@@Z@4HA 0000000061065cc0 f    CIL library: CIL module
 0001:00064cc0       ?dtor$1@?0???$sort@UStreamsCmp@?6??sort_file_list@FilePanel@@AEAAXAEAV?$list@UPanelItemData@FilePanel@@V?$allocator@UPanelItemData@FilePanel@@@std@@@std@@@Z@@?$list@UPanelItemData@FilePanel@@V?$allocator@UPanelItemData@FilePanel@@@std@@@std@@QEAAXUStreamsCmp@?6??sort_file_list@FilePanel@@AEAAXAEAV01@@Z@@Z@4HA 0000000061065cc0 f    CIL library: CIL module
 0001:00064cc0       ?dtor$1@?0???$sort@UHardLinksCmp@?7??sort_file_list@FilePanel@@AEAAXAEAV?$list@UPanelItemData@FilePanel@@V?$allocator@UPanelItemData@FilePanel@@@std@@@std@@@Z@@?$list@UPanelItemData@FilePanel@@V?$allocator@UPanelItemData@FilePanel@@@std@@@std@@QEAAXUHardLinksCmp@?7??sort_file_list@FilePanel@@AEAAXAEAV01@@Z@@Z@4HA 0000000061065cc0 f    CIL library: CIL module
 0001:00064cf0       ?catch$0@?0??dialog_proc@FilePanelModeDialog@@CA_JPEAX_J10@Z@4HA 0000000061065cf0 f    CIL library: CIL module
 0001:00064cfd       __catch$?dialog_proc@FilePanelModeDialog@@CA_JPEAX_J10@Z$0 0000000061065cfd f    CIL library: CIL module
 0001:00064d10       ?catch$1@?0??dialog_proc@FilePanelModeDialog@@CA_JPEAX_J10@Z@4HA 0000000061065d10 f    CIL library: CIL module
 0001:00064d1d       __catch$?dialog_proc@FilePanelModeDialog@@CA_JPEAX_J10@Z$1 0000000061065d1d f    CIL library: CIL module
 0001:00064d40       ?catch$2@?0??dialog_proc@FilePanelModeDialog@@CA_JPEAX_J10@Z@4HA 0000000061065d40 f    CIL library: CIL module
 0001:00064d4d       __catch$?dialog_proc@FilePanelModeDialog@@CA_JPEAX_J10@Z$2 0000000061065d4d f    CIL library: CIL module
 0001:00064d70       ?catch$3@?0??dialog_proc@FilePanelModeDialog@@CA_JPEAX_J10@Z@4HA 0000000061065d70 f    CIL library: CIL module
 0001:00064d7e       __catch$?dialog_proc@FilePanelModeDialog@@CA_JPEAX_J10@Z$3 0000000061065d7e f    CIL library: CIL module
 0001:00064e00       ?dtor$5@?0??dialog_proc@FilePanelModeDialog@@CA_JPEAX_J10@Z@4HA 0000000061065e00 f    CIL library: CIL module
 0001:00064e10       ?dtor$0@?0??fill_plugin_info@FilePanel@@QEAAXPEAUOpenPanelInfo@@@Z@4HA 0000000061065e10 f    CIL library: CIL module
 0001:00064e20       ?dtor$1@?0??fill_plugin_info@FilePanel@@QEAAXPEAUOpenPanelInfo@@@Z@4HA 0000000061065e20 f    CIL library: CIL module
 0001:00064e30       ?dtor$2@?0??fill_plugin_info@FilePanel@@QEAAXPEAUOpenPanelInfo@@@Z@4HA 0000000061065e30 f    CIL library: CIL module
 0001:00064e40       ?catch$0@?0??on_close@FilePanel@@QEAAXXZ@4HA 0000000061065e40 f    CIL library: CIL module
 0001:00064e4d       __catch$?on_close@FilePanel@@QEAAXXZ$0 0000000061065e4d f    CIL library: CIL module
 0001:00064e60       ?dtor$3@?0??save_state@@YA?AUPanelState@@PEAX@Z@4HA 0000000061065e60 f    CIL library: CIL module
 0001:00064e70       ?dtor$4@?0??save_state@@YA?AUPanelState@@PEAX@Z@4HA 0000000061065e70 f    CIL library: CIL module
 0001:00064e80       ?dtor$5@?0??save_state@@YA?AUPanelState@@PEAX@Z@4HA 0000000061065e80 f    CIL library: CIL module
 0001:00064e90       ?dtor$0@?0??save_state@@YA?AUPanelState@@PEAX@Z@4HA 0000000061065e90 f    CIL library: CIL module
 0001:00064ec0       ?dtor$2@?0??save_state@@YA?AUPanelState@@PEAX@Z@4HA 0000000061065ec0 f    CIL library: CIL module
 0001:00064ed0       ?dtor$0@?0???Hcol@@YA?AVAnsiString@0@PEBDAEBV10@@Z@4HA 0000000061065ed0 f    CIL library: CIL module
 0001:00064ed0       ?dtor$0@?0???Hcol@@YA?AVAnsiString@0@AEBV10@PEBD@Z@4HA 0000000061065ed0 f    CIL library: CIL module
 0001:00064ee0       ?dtor$0@?0??compress_directory@@YAXAEBVUnicodeString@col@@AEAUSharedObjects@@AEAUCompressionState@@AEAVCompressFilesProgress@@@Z@4HA 0000000061065ee0 f    CIL library: CIL module
 0001:00064ef0       ?dtor$1@?0??compress_directory@@YAXAEBVUnicodeString@col@@AEAUSharedObjects@@AEAUCompressionState@@AEAVCompressFilesProgress@@@Z@4HA 0000000061065ef0 f    CIL library: CIL module
 0001:00064f00       ?dtor$3@?0??compress_directory@@YAXAEBVUnicodeString@col@@AEAUSharedObjects@@AEAUCompressionState@@AEAVCompressFilesProgress@@@Z@4HA 0000000061065f00 f    CIL library: CIL module
 0001:00064f10       ?catch$0@?0??compress_directory@@YAXAEBVUnicodeString@col@@AEAUSharedObjects@@AEAUCompressionState@@AEAVCompressFilesProgress@@@Z@4HA 0000000061065f10 f    CIL library: CIL module
 0001:00064f1d       __catch$?compress_directory@@YAXAEBVUnicodeString@col@@AEAUSharedObjects@@AEAUCompressionState@@AEAVCompressFilesProgress@@@Z$0 0000000061065f1d f    CIL library: CIL module
 0001:00064f40       ?catch$1@?0??compress_directory@@YAXAEBVUnicodeString@col@@AEAUSharedObjects@@AEAUCompressionState@@AEAVCompressFilesProgress@@@Z@4HA 0000000061065f40 f    CIL library: CIL module
 0001:00064f4d       __catch$?compress_directory@@YAXAEBVUnicodeString@col@@AEAUSharedObjects@@AEAUCompressionState@@AEAVCompressFilesProgress@@@Z$2 0000000061065f4d f    CIL library: CIL module
 0001:00064f70       ?dtor$0@?0??do_update_ui@CompressFilesProgress@@MEAAXXZ@4HA 0000000061065f70 f    CIL library: CIL module
 0001:00064f80       ?dtor$1@?0??do_update_ui@CompressFilesProgress@@MEAAXXZ@4HA 0000000061065f80 f    CIL library: CIL module
 0001:00064f90       ?dtor$2@?0??do_update_ui@CompressFilesProgress@@MEAAXXZ@4HA 0000000061065f90 f    CIL library: CIL module
 0001:00064fa0       ?dtor$3@?0??do_update_ui@CompressFilesProgress@@MEAAXXZ@4HA 0000000061065fa0 f    CIL library: CIL module
 0001:00064fb0       ?dtor$4@?0??do_update_ui@CompressFilesProgress@@MEAAXXZ@4HA 0000000061065fb0 f    CIL library: CIL module
 0001:00064fc0       ?dtor$5@?0??do_update_ui@CompressFilesProgress@@MEAAXXZ@4HA 0000000061065fc0 f    CIL library: CIL module
 0001:00064fd0       ?dtor$6@?0??do_update_ui@CompressFilesProgress@@MEAAXXZ@4HA 0000000061065fd0 f    CIL library: CIL module
 0001:00064fe0       ?dtor$7@?0??do_update_ui@CompressFilesProgress@@MEAAXXZ@4HA 0000000061065fe0 f    CIL library: CIL module
 0001:00064ff0       ?dtor$8@?0??do_update_ui@CompressFilesProgress@@MEAAXXZ@4HA 0000000061065ff0 f    CIL library: CIL module
 0001:00065000       ?dtor$9@?0??do_update_ui@CompressFilesProgress@@MEAAXXZ@4HA 0000000061066000 f    CIL library: CIL module
 0001:00065010       ?dtor$10@?0??do_update_ui@CompressFilesProgress@@MEAAXXZ@4HA 0000000061066010 f    CIL library: CIL module
 0001:00065020       ?dtor$11@?0??do_update_ui@CompressFilesProgress@@MEAAXXZ@4HA 0000000061066020 f    CIL library: CIL module
 0001:00065030       ?dtor$12@?0??do_update_ui@CompressFilesProgress@@MEAAXXZ@4HA 0000000061066030 f    CIL library: CIL module
 0001:00065040       ?dtor$13@?0??do_update_ui@CompressFilesProgress@@MEAAXXZ@4HA 0000000061066040 f    CIL library: CIL module
 0001:00065050       ?dtor$14@?0??do_update_ui@CompressFilesProgress@@MEAAXXZ@4HA 0000000061066050 f    CIL library: CIL module
 0001:00065060       ?dtor$15@?0??do_update_ui@CompressFilesProgress@@MEAAXXZ@4HA 0000000061066060 f    CIL library: CIL module
 0001:00065070       ?dtor$16@?0??do_update_ui@CompressFilesProgress@@MEAAXXZ@4HA 0000000061066070 f    CIL library: CIL module
 0001:00065080       ?dtor$17@?0??do_update_ui@CompressFilesProgress@@MEAAXXZ@4HA 0000000061066080 f    CIL library: CIL module
 0001:00065090       ?dtor$18@?0??do_update_ui@CompressFilesProgress@@MEAAXXZ@4HA 0000000061066090 f    CIL library: CIL module
 0001:000650a0       ?dtor$19@?0??do_update_ui@CompressFilesProgress@@MEAAXXZ@4HA 00000000610660a0 f    CIL library: CIL module
 0001:000650b0       ?dtor$20@?0??do_update_ui@CompressFilesProgress@@MEAAXXZ@4HA 00000000610660b0 f    CIL library: CIL module
 0001:000650c0       ?dtor$21@?0??do_update_ui@CompressFilesProgress@@MEAAXXZ@4HA 00000000610660c0 f    CIL library: CIL module
 0001:000650d0       ?dtor$22@?0??do_update_ui@CompressFilesProgress@@MEAAXXZ@4HA 00000000610660d0 f    CIL library: CIL module
 0001:000650e0       ?dtor$23@?0??do_update_ui@CompressFilesProgress@@MEAAXXZ@4HA 00000000610660e0 f    CIL library: CIL module
 0001:000650f0       ?dtor$24@?0??do_update_ui@CompressFilesProgress@@MEAAXXZ@4HA 00000000610660f0 f    CIL library: CIL module
 0001:00065100       ?dtor$25@?0??do_update_ui@CompressFilesProgress@@MEAAXXZ@4HA 0000000061066100 f    CIL library: CIL module
 0001:00065110       ?dtor$26@?0??do_update_ui@CompressFilesProgress@@MEAAXXZ@4HA 0000000061066110 f    CIL library: CIL module
 0001:00065120       ?dtor$27@?0??do_update_ui@CompressFilesProgress@@MEAAXXZ@4HA 0000000061066120 f    CIL library: CIL module
 0001:00065130       ?dtor$28@?0??do_update_ui@CompressFilesProgress@@MEAAXXZ@4HA 0000000061066130 f    CIL library: CIL module
 0001:00065140       ?dtor$0@?0??save_hashes_to_file@@YAXAEBVUnicodeString@col@@AEBUContentOptions@@AEBUContentInfo@@@Z@4HA 0000000061066140 f    CIL library: CIL module
 0001:00065150       ?dtor$1@?0??save_hashes_to_file@@YAXAEBVUnicodeString@col@@AEBUContentOptions@@AEBUContentInfo@@@Z@4HA 0000000061066150 f    CIL library: CIL module
 0001:00065160       ?dtor$2@?0??save_hashes_to_file@@YAXAEBVUnicodeString@col@@AEBUContentOptions@@AEBUContentInfo@@@Z@4HA 0000000061066160 f    CIL library: CIL module
 0001:00065170       ?dtor$3@?0??save_hashes_to_file@@YAXAEBVUnicodeString@col@@AEBUContentOptions@@AEBUContentInfo@@@Z@4HA 0000000061066170 f    CIL library: CIL module
 0001:00065180       ?dtor$4@?0??save_hashes_to_file@@YAXAEBVUnicodeString@col@@AEBUContentOptions@@AEBUContentInfo@@@Z@4HA 0000000061066180 f    CIL library: CIL module
 0001:00065190       ?dtor$5@?0??save_hashes_to_file@@YAXAEBVUnicodeString@col@@AEBUContentOptions@@AEBUContentInfo@@@Z@4HA 0000000061066190 f    CIL library: CIL module
 0001:000651a0       ?dtor$6@?0??save_hashes_to_file@@YAXAEBVUnicodeString@col@@AEBUContentOptions@@AEBUContentInfo@@@Z@4HA 00000000610661a0 f    CIL library: CIL module
 0001:000651b0       ?dtor$7@?0??save_hashes_to_file@@YAXAEBVUnicodeString@col@@AEBUContentOptions@@AEBUContentInfo@@@Z@4HA 00000000610661b0 f    CIL library: CIL module
 0001:000651c0       ?dtor$8@?0??save_hashes_to_file@@YAXAEBVUnicodeString@col@@AEBUContentOptions@@AEBUContentInfo@@@Z@4HA 00000000610661c0 f    CIL library: CIL module
 0001:000651d0       ?dtor$9@?0??save_hashes_to_file@@YAXAEBVUnicodeString@col@@AEBUContentOptions@@AEBUContentInfo@@@Z@4HA 00000000610661d0 f    CIL library: CIL module
 0001:000651e0       ?dtor$10@?0??save_hashes_to_file@@YAXAEBVUnicodeString@col@@AEBUContentOptions@@AEBUContentInfo@@@Z@4HA 00000000610661e0 f    CIL library: CIL module
 0001:000651f0       ?dtor$11@?0??save_hashes_to_file@@YAXAEBVUnicodeString@col@@AEBUContentOptions@@AEBUContentInfo@@@Z@4HA 00000000610661f0 f    CIL library: CIL module
 0001:00065200       ?catch$0@?0??save_hashes_to_file@@YAXAEBVUnicodeString@col@@AEBUContentOptions@@AEBUContentInfo@@@Z@4HA 0000000061066200 f    CIL library: CIL module
 0001:0006520d       __catch$?save_hashes_to_file@@YAXAEBVUnicodeString@col@@AEBUContentOptions@@AEBUContentInfo@@@Z$0 000000006106620d f    CIL library: CIL module
 0001:00065230       ?dtor$12@?0??save_hashes_to_file@@YAXAEBVUnicodeString@col@@AEBUContentOptions@@AEBUContentInfo@@@Z@4HA 0000000061066230 f    CIL library: CIL module
 0001:00065240       ?dtor$13@?0??save_hashes_to_file@@YAXAEBVUnicodeString@col@@AEBUContentOptions@@AEBUContentInfo@@@Z@4HA 0000000061066240 f    CIL library: CIL module
 0001:00065250       ?dtor$14@?0??save_hashes_to_file@@YAXAEBVUnicodeString@col@@AEBUContentOptions@@AEBUContentInfo@@@Z@4HA 0000000061066250 f    CIL library: CIL module
 0001:00065260       ?dtor$15@?0??save_hashes_to_file@@YAXAEBVUnicodeString@col@@AEBUContentOptions@@AEBUContentInfo@@@Z@4HA 0000000061066260 f    CIL library: CIL module
 0001:00065270       ?dtor$16@?0??save_hashes_to_file@@YAXAEBVUnicodeString@col@@AEBUContentOptions@@AEBUContentInfo@@@Z@4HA 0000000061066270 f    CIL library: CIL module
 0001:00065280       ?catch$1@?0??save_hashes_to_file@@YAXAEBVUnicodeString@col@@AEBUContentOptions@@AEBUContentInfo@@@Z@4HA 0000000061066280 f    CIL library: CIL module
 0001:0006528d       __catch$?save_hashes_to_file@@YAXAEBVUnicodeString@col@@AEBUContentOptions@@AEBUContentInfo@@@Z$2 000000006106628d f    CIL library: CIL module
 0001:000652b0       ?dtor$17@?0??save_hashes_to_file@@YAXAEBVUnicodeString@col@@AEBUContentOptions@@AEBUContentInfo@@@Z@4HA 00000000610662b0 f    CIL library: CIL module
 0001:000652c0       ?dtor$18@?0??save_hashes_to_file@@YAXAEBVUnicodeString@col@@AEBUContentOptions@@AEBUContentInfo@@@Z@4HA 00000000610662c0 f    CIL library: CIL module
 0001:000652d0       ?dtor$19@?0??save_hashes_to_file@@YAXAEBVUnicodeString@col@@AEBUContentOptions@@AEBUContentInfo@@@Z@4HA 00000000610662d0 f    CIL library: CIL module
 0001:000652e0       ?dtor$20@?0??save_hashes_to_file@@YAXAEBVUnicodeString@col@@AEBUContentOptions@@AEBUContentInfo@@@Z@4HA 00000000610662e0 f    CIL library: CIL module
 0001:000652f0       ?catch$2@?0??save_hashes_to_file@@YAXAEBVUnicodeString@col@@AEBUContentOptions@@AEBUContentInfo@@@Z@4HA 00000000610662f0 f    CIL library: CIL module
 0001:000652fd       __catch$?save_hashes_to_file@@YAXAEBVUnicodeString@col@@AEBUContentOptions@@AEBUContentInfo@@@Z$4 00000000610662fd f    CIL library: CIL module
 0001:00065320       ?dtor$21@?0??save_hashes_to_file@@YAXAEBVUnicodeString@col@@AEBUContentOptions@@AEBUContentInfo@@@Z@4HA 0000000061066320 f    CIL library: CIL module
 0001:00065330       ?dtor$22@?0??save_hashes_to_file@@YAXAEBVUnicodeString@col@@AEBUContentOptions@@AEBUContentInfo@@@Z@4HA 0000000061066330 f    CIL library: CIL module
 0001:00065340       ?dtor$23@?0??save_hashes_to_file@@YAXAEBVUnicodeString@col@@AEBUContentOptions@@AEBUContentInfo@@@Z@4HA 0000000061066340 f    CIL library: CIL module
 0001:00065350       ?dtor$24@?0??save_hashes_to_file@@YAXAEBVUnicodeString@col@@AEBUContentOptions@@AEBUContentInfo@@@Z@4HA 0000000061066350 f    CIL library: CIL module
 0001:00065360       ?catch$3@?0??save_hashes_to_file@@YAXAEBVUnicodeString@col@@AEBUContentOptions@@AEBUContentInfo@@@Z@4HA 0000000061066360 f    CIL library: CIL module
 0001:0006536d       __catch$?save_hashes_to_file@@YAXAEBVUnicodeString@col@@AEBUContentOptions@@AEBUContentInfo@@@Z$6 000000006106636d f    CIL library: CIL module
 0001:00065390       ?dtor$25@?0??save_hashes_to_file@@YAXAEBVUnicodeString@col@@AEBUContentOptions@@AEBUContentInfo@@@Z@4HA 0000000061066390 f    CIL library: CIL module
 0001:000653a0       ?dtor$26@?0??save_hashes_to_file@@YAXAEBVUnicodeString@col@@AEBUContentOptions@@AEBUContentInfo@@@Z@4HA 00000000610663a0 f    CIL library: CIL module
 0001:000653b0       ?dtor$27@?0??save_hashes_to_file@@YAXAEBVUnicodeString@col@@AEBUContentOptions@@AEBUContentInfo@@@Z@4HA 00000000610663b0 f    CIL library: CIL module
 0001:000653c0       ?dtor$28@?0??save_hashes_to_file@@YAXAEBVUnicodeString@col@@AEBUContentOptions@@AEBUContentInfo@@@Z@4HA 00000000610663c0 f    CIL library: CIL module
 0001:000653d0       ?catch$4@?0??save_hashes_to_file@@YAXAEBVUnicodeString@col@@AEBUContentOptions@@AEBUContentInfo@@@Z@4HA 00000000610663d0 f    CIL library: CIL module
 0001:000653dd       __catch$?save_hashes_to_file@@YAXAEBVUnicodeString@col@@AEBUContentOptions@@AEBUContentInfo@@@Z$8 00000000610663dd f    CIL library: CIL module
 0001:00065400       ?dtor$29@?0??save_hashes_to_file@@YAXAEBVUnicodeString@col@@AEBUContentOptions@@AEBUContentInfo@@@Z@4HA 0000000061066400 f    CIL library: CIL module
 0001:00065410       ?dtor$30@?0??save_hashes_to_file@@YAXAEBVUnicodeString@col@@AEBUContentOptions@@AEBUContentInfo@@@Z@4HA 0000000061066410 f    CIL library: CIL module
 0001:00065420       ?dtor$31@?0??save_hashes_to_file@@YAXAEBVUnicodeString@col@@AEBUContentOptions@@AEBUContentInfo@@@Z@4HA 0000000061066420 f    CIL library: CIL module
 0001:00065430       ?dtor$32@?0??save_hashes_to_file@@YAXAEBVUnicodeString@col@@AEBUContentOptions@@AEBUContentInfo@@@Z@4HA 0000000061066430 f    CIL library: CIL module
 0001:00065440       ?catch$5@?0??save_hashes_to_file@@YAXAEBVUnicodeString@col@@AEBUContentOptions@@AEBUContentInfo@@@Z@4HA 0000000061066440 f    CIL library: CIL module
 0001:0006544d       __catch$?save_hashes_to_file@@YAXAEBVUnicodeString@col@@AEBUContentOptions@@AEBUContentInfo@@@Z$10 000000006106644d f    CIL library: CIL module
 0001:00065470       ?dtor$33@?0??save_hashes_to_file@@YAXAEBVUnicodeString@col@@AEBUContentOptions@@AEBUContentInfo@@@Z@4HA 0000000061066470 f    CIL library: CIL module
 0001:00065480       ?dtor$34@?0??save_hashes_to_file@@YAXAEBVUnicodeString@col@@AEBUContentOptions@@AEBUContentInfo@@@Z@4HA 0000000061066480 f    CIL library: CIL module
 0001:00065490       ?dtor$35@?0??save_hashes_to_file@@YAXAEBVUnicodeString@col@@AEBUContentOptions@@AEBUContentInfo@@@Z@4HA 0000000061066490 f    CIL library: CIL module
 0001:000654a0       ?dtor$36@?0??save_hashes_to_file@@YAXAEBVUnicodeString@col@@AEBUContentOptions@@AEBUContentInfo@@@Z@4HA 00000000610664a0 f    CIL library: CIL module
 0001:000654b0       ?catch$6@?0??save_hashes_to_file@@YAXAEBVUnicodeString@col@@AEBUContentOptions@@AEBUContentInfo@@@Z@4HA 00000000610664b0 f    CIL library: CIL module
 0001:000654bd       __catch$?save_hashes_to_file@@YAXAEBVUnicodeString@col@@AEBUContentOptions@@AEBUContentInfo@@@Z$12 00000000610664bd f    CIL library: CIL module
 0001:000654e0       ?dtor$37@?0??save_hashes_to_file@@YAXAEBVUnicodeString@col@@AEBUContentOptions@@AEBUContentInfo@@@Z@4HA 00000000610664e0 f    CIL library: CIL module
 0001:000654f0       ?dtor$38@?0??save_hashes_to_file@@YAXAEBVUnicodeString@col@@AEBUContentOptions@@AEBUContentInfo@@@Z@4HA 00000000610664f0 f    CIL library: CIL module
 0001:00065500       ?dtor$39@?0??save_hashes_to_file@@YAXAEBVUnicodeString@col@@AEBUContentOptions@@AEBUContentInfo@@@Z@4HA 0000000061066500 f    CIL library: CIL module
 0001:00065510       ?dtor$40@?0??save_hashes_to_file@@YAXAEBVUnicodeString@col@@AEBUContentOptions@@AEBUContentInfo@@@Z@4HA 0000000061066510 f    CIL library: CIL module
 0001:00065520       ?catch$7@?0??save_hashes_to_file@@YAXAEBVUnicodeString@col@@AEBUContentOptions@@AEBUContentInfo@@@Z@4HA 0000000061066520 f    CIL library: CIL module
 0001:0006552d       __catch$?save_hashes_to_file@@YAXAEBVUnicodeString@col@@AEBUContentOptions@@AEBUContentInfo@@@Z$14 000000006106652d f    CIL library: CIL module
 0001:00065550       ?dtor$41@?0??save_hashes_to_file@@YAXAEBVUnicodeString@col@@AEBUContentOptions@@AEBUContentInfo@@@Z@4HA 0000000061066550 f    CIL library: CIL module
 0001:00065560       ?dtor$42@?0??save_hashes_to_file@@YAXAEBVUnicodeString@col@@AEBUContentOptions@@AEBUContentInfo@@@Z@4HA 0000000061066560 f    CIL library: CIL module
 0001:00065570       ?dtor$43@?0??save_hashes_to_file@@YAXAEBVUnicodeString@col@@AEBUContentOptions@@AEBUContentInfo@@@Z@4HA 0000000061066570 f    CIL library: CIL module
 0001:00065580       ?dtor$44@?0??save_hashes_to_file@@YAXAEBVUnicodeString@col@@AEBUContentOptions@@AEBUContentInfo@@@Z@4HA 0000000061066580 f    CIL library: CIL module
 0001:00065590       ?dtor$45@?0??save_hashes_to_file@@YAXAEBVUnicodeString@col@@AEBUContentOptions@@AEBUContentInfo@@@Z@4HA 0000000061066590 f    CIL library: CIL module
 0001:000655a0       ?dtor$46@?0??save_hashes_to_file@@YAXAEBVUnicodeString@col@@AEBUContentOptions@@AEBUContentInfo@@@Z@4HA 00000000610665a0 f    CIL library: CIL module
 0001:000655b0       ?dtor$47@?0??save_hashes_to_file@@YAXAEBVUnicodeString@col@@AEBUContentOptions@@AEBUContentInfo@@@Z@4HA 00000000610665b0 f    CIL library: CIL module
 0001:000655c0       ?dtor$48@?0??save_hashes_to_file@@YAXAEBVUnicodeString@col@@AEBUContentOptions@@AEBUContentInfo@@@Z@4HA 00000000610665c0 f    CIL library: CIL module
 0001:000655d0       ?catch$0@?0??options_dlg_proc@@YA_JPEAX_J10@Z@4HA 00000000610665d0 f    CIL library: CIL module
 0001:000655dd       __catch$?options_dlg_proc@@YA_JPEAX_J10@Z$0 00000000610665dd f    CIL library: CIL module
 0001:000655f0       ?catch$1@?0??options_dlg_proc@@YA_JPEAX_J10@Z@4HA 00000000610665f0 f    CIL library: CIL module
 0001:000655fd       __catch$?options_dlg_proc@@YA_JPEAX_J10@Z$1 00000000610665fd f    CIL library: CIL module
 0001:00065620       ?catch$2@?0??options_dlg_proc@@YA_JPEAX_J10@Z@4HA 0000000061066620 f    CIL library: CIL module
 0001:0006562d       __catch$?options_dlg_proc@@YA_JPEAX_J10@Z$2 000000006106662d f    CIL library: CIL module
 0001:00065650       ?catch$3@?0??options_dlg_proc@@YA_JPEAX_J10@Z@4HA 0000000061066650 f    CIL library: CIL module
 0001:0006565e       __catch$?options_dlg_proc@@YA_JPEAX_J10@Z$3 000000006106665e f    CIL library: CIL module
 0001:000656e0       ?dtor$0@?0??options_dlg_proc@@YA_JPEAX_J10@Z@4HA 00000000610666e0 f    CIL library: CIL module
 0001:000656f0       ?dtor$0@?0??message@LzoError@@UEBA?AVUnicodeString@col@@XZ@4HA 00000000610666f0 f    CIL library: CIL module
 0001:000656f0       ?dtor$0@?0??get_text@FarDialog@@QEAA?AVUnicodeString@col@@_K@Z@4HA 00000000610666f0 f    CIL library: CIL module
 0001:000656f0       ?dtor$0@?0??type_name@AttrInfo@@QEBA?AVUnicodeString@col@@XZ@4HA 00000000610666f0 f    CIL library: CIL module
 0001:00065720       ProcessSynchroEventW$catch$3 0000000061066720 f    CIL library: CIL module
 0001:0006572d       __catch$ProcessSynchroEventW$0 000000006106672d f    CIL library: CIL module
 0001:00065740       ProcessSynchroEventW$catch$2 0000000061066740 f    CIL library: CIL module
 0001:0006574d       __catch$ProcessSynchroEventW$1 000000006106674d f    CIL library: CIL module
 0001:00065770       ProcessSynchroEventW$catch$1 0000000061066770 f    CIL library: CIL module
 0001:0006577d       __catch$ProcessSynchroEventW$2 000000006106677d f    CIL library: CIL module
 0001:000657a0       ProcessSynchroEventW$catch$0 00000000610667a0 f    CIL library: CIL module
 0001:000657ae       __catch$ProcessSynchroEventW$3 00000000610667ae f    CIL library: CIL module
 0001:00065830       ProcessSynchroEventW$dtor$0 0000000061066830 f    CIL library: CIL module
 0001:00065840       FreeFindDataW$catch$3      0000000061066840 f    CIL library: CIL module
 0001:0006584d       __catch$FreeFindDataW$0    000000006106684d f    CIL library: CIL module
 0001:00065860       FreeFindDataW$catch$2      0000000061066860 f    CIL library: CIL module
 0001:0006586d       __catch$FreeFindDataW$1    000000006106686d f    CIL library: CIL module
 0001:00065890       FreeFindDataW$catch$1      0000000061066890 f    CIL library: CIL module
 0001:0006589d       __catch$FreeFindDataW$2    000000006106689d f    CIL library: CIL module
 0001:000658c0       FreeFindDataW$catch$0      00000000610668c0 f    CIL library: CIL module
 0001:000658ce       __catch$FreeFindDataW$3    00000000610668ce f    CIL library: CIL module
 0001:00065950       FreeFindDataW$dtor$0       0000000061066950 f    CIL library: CIL module
 0001:00065960       GetOpenPanelInfoW$catch$0  0000000061066960 f    CIL library: CIL module
 0001:0006596d       __catch$GetOpenPanelInfoW$0 000000006106696d f    CIL library: CIL module
 0001:00065980       GetOpenPanelInfoW$catch$1  0000000061066980 f    CIL library: CIL module
 0001:0006598d       __catch$GetOpenPanelInfoW$1 000000006106698d f    CIL library: CIL module
 0001:000659b0       GetOpenPanelInfoW$catch$2  00000000610669b0 f    CIL library: CIL module
 0001:000659bd       __catch$GetOpenPanelInfoW$2 00000000610669bd f    CIL library: CIL module
 0001:000659e0       GetOpenPanelInfoW$catch$3  00000000610669e0 f    CIL library: CIL module
 0001:000659ee       __catch$GetOpenPanelInfoW$3 00000000610669ee f    CIL library: CIL module
 0001:00065a70       GetOpenPanelInfoW$dtor$0   0000000061066a70 f    CIL library: CIL module
 0001:00065a80       ClosePanelW$catch$0        0000000061066a80 f    CIL library: CIL module
 0001:00065a8d       __catch$ClosePanelW$0      0000000061066a8d f    CIL library: CIL module
 0001:00065aa0       ClosePanelW$catch$1        0000000061066aa0 f    CIL library: CIL module
 0001:00065aad       __catch$ClosePanelW$1      0000000061066aad f    CIL library: CIL module
 0001:00065ad0       ClosePanelW$catch$2        0000000061066ad0 f    CIL library: CIL module
 0001:00065add       __catch$ClosePanelW$2      0000000061066add f    CIL library: CIL module
 0001:00065b00       ClosePanelW$catch$3        0000000061066b00 f    CIL library: CIL module
 0001:00065b0e       __catch$ClosePanelW$3      0000000061066b0e f    CIL library: CIL module
 0001:00065b90       ClosePanelW$dtor$0         0000000061066b90 f    CIL library: CIL module
 0001:00065ba0       ?dtor$0@?0???$_Buynode@V?$basic_string@_WU?$char_traits@_W@std@@V?$allocator@_W@2@@std@@@?$_List_val@V?$basic_string@_WU?$char_traits@_W@std@@V?$allocator@_W@2@@std@@V?$allocator@V?$basic_string@_WU?$char_traits@_W@std@@V?$allocator@_W@2@@std@@@2@@std@@QEAAPEAU_Node@?$_List_nod@V?$basic_string@_WU?$char_traits@_W@std@@V?$allocator@_W@2@@std@@V?$allocator@V?$basic_string@_WU?$char_traits@_W@std@@V?$allocator@_W@2@@std@@@2@@1@PEAU231@0$$QEAV?$basic_string@_WU?$char_traits@_W@std@@V?$allocator@_W@2@@1@@Z@4HA 0000000061066ba0 f    CIL library: CIL module
 0001:00065bc0       ?catch$0@?0???$_Buynode@V?$basic_string@_WU?$char_traits@_W@std@@V?$allocator@_W@2@@std@@@?$_List_val@V?$basic_string@_WU?$char_traits@_W@std@@V?$allocator@_W@2@@std@@V?$allocator@V?$basic_string@_WU?$char_traits@_W@std@@V?$allocator@_W@2@@std@@@2@@std@@QEAAPEAU_Node@?$_List_nod@V?$basic_string@_WU?$char_traits@_W@std@@V?$allocator@_W@2@@std@@V?$allocator@V?$basic_string@_WU?$char_traits@_W@std@@V?$allocator@_W@2@@std@@@2@@1@PEAU231@0$$QEAV?$basic_string@_WU?$char_traits@_W@std@@V?$allocator@_W@2@@1@@Z@4HA 0000000061066bc0 f    CIL library: CIL module
 0001:00065bcd       __catch$??$_Buynode@V?$basic_string@_WU?$char_traits@_W@std@@V?$allocator@_W@2@@std@@@?$_List_val@V?$basic_string@_WU?$char_traits@_W@std@@V?$allocator@_W@2@@std@@V?$allocator@V?$basic_string@_WU?$char_traits@_W@std@@V?$allocator@_W@2@@std@@@2@@std@@QEAAPEAU_Node@?$_List_nod@V?$basic_string@_WU?$char_traits@_W@std@@V?$allocator@_W@2@@std@@V?$allocator@V?$basic_string@_WU?$char_traits@_W@std@@V?$allocator@_W@2@@std@@@2@@1@PEAU231@0$$QEAV?$basic_string@_WU?$char_traits@_W@std@@V?$allocator@_W@2@@1@@Z$0 0000000061066bcd f    CIL library: CIL module
 0001:00065be0       ?catch$0@?0??dialog_proc@CompressFilesDialog@@CA_JPEAX_J10@Z@4HA 0000000061066be0 f    CIL library: CIL module
 0001:00065bed       __catch$?dialog_proc@CompressFilesDialog@@CA_JPEAX_J10@Z$0 0000000061066bed f    CIL library: CIL module
 0001:00065c00       ?catch$1@?0??dialog_proc@CompressFilesDialog@@CA_JPEAX_J10@Z@4HA 0000000061066c00 f    CIL library: CIL module
 0001:00065c0d       __catch$?dialog_proc@CompressFilesDialog@@CA_JPEAX_J10@Z$1 0000000061066c0d f    CIL library: CIL module
 0001:00065c30       ?catch$2@?0??dialog_proc@CompressFilesDialog@@CA_JPEAX_J10@Z@4HA 0000000061066c30 f    CIL library: CIL module
 0001:00065c3d       __catch$?dialog_proc@CompressFilesDialog@@CA_JPEAX_J10@Z$2 0000000061066c3d f    CIL library: CIL module
 0001:00065c60       ?catch$3@?0??dialog_proc@CompressFilesDialog@@CA_JPEAX_J10@Z@4HA 0000000061066c60 f    CIL library: CIL module
 0001:00065c6e       __catch$?dialog_proc@CompressFilesDialog@@CA_JPEAX_J10@Z$3 0000000061066c6e f    CIL library: CIL module
 0001:00065cf0       ?dtor$3@?0??dialog_proc@CompressFilesDialog@@CA_JPEAX_J10@Z@4HA 0000000061066cf0 f    CIL library: CIL module
 0001:00065d00       ?dtor$0@?0??estimate_directory_size@CompressFiles@@QEAAXAEBVUnicodeString@col@@@Z@4HA 0000000061066d00 f    CIL library: CIL module
 0001:00065d10       ?dtor$1@?0??estimate_directory_size@CompressFiles@@QEAAXAEBVUnicodeString@col@@@Z@4HA 0000000061066d10 f    CIL library: CIL module
 0001:00065d20       ?dtor$2@?0??estimate_directory_size@CompressFiles@@QEAAXAEBVUnicodeString@col@@@Z@4HA 0000000061066d20 f    CIL library: CIL module
 0001:00065d30       ?dtor$3@?0??estimate_directory_size@CompressFiles@@QEAAXAEBVUnicodeString@col@@@Z@4HA 0000000061066d30 f    CIL library: CIL module
 0001:00065d40       ?catch$0@?0??estimate_directory_size@CompressFiles@@QEAAXAEBVUnicodeString@col@@@Z@4HA 0000000061066d40 f    CIL library: CIL module
 0001:00065d4d       __catch$?estimate_directory_size@CompressFiles@@QEAAXAEBVUnicodeString@col@@@Z$0 0000000061066d4d f    CIL library: CIL module
 0001:00065d60       ?dtor$0@?0???0CompressFiles@@QEAA@AEBUCompressFilesParams@@AEAULog@@II@Z@4HA 0000000061066d60 f    CIL library: CIL module
 0001:00065d70       ?dtor$1@?0???0CompressFiles@@QEAA@AEBUCompressFilesParams@@AEAULog@@II@Z@4HA 0000000061066d70 f    CIL library: CIL module
 0001:00065d90       ?dtor$2@?0???0CompressFiles@@QEAA@AEBUCompressFilesParams@@AEAULog@@II@Z@4HA 0000000061066d90 f    CIL library: CIL module
 0001:00065db0       ?dtor$3@?0???0CompressFiles@@QEAA@AEBUCompressFilesParams@@AEAULog@@II@Z@4HA 0000000061066db0 f    CIL library: CIL module
 0001:00065dd0       ?dtor$4@?0???0CompressFiles@@QEAA@AEBUCompressFilesParams@@AEAULog@@II@Z@4HA 0000000061066dd0 f    CIL library: CIL module
 0001:00065df0       ?dtor$5@?0???0CompressFiles@@QEAA@AEBUCompressFilesParams@@AEAULog@@II@Z@4HA 0000000061066df0 f    CIL library: CIL module
 0001:00065e10       ?catch$0@?0??get_cluster_size@@YAIAEBVUnicodeString@col@@@Z@4HA 0000000061066e10 f    CIL library: CIL module
 0001:00065e1d       __catch$?get_cluster_size@@YAIAEBVUnicodeString@col@@@Z$0 0000000061066e1d f    CIL library: CIL module
 0001:00065e30       ?dtor$0@?0??file_version_dialog_proc@@YA_JPEAX_J10@Z@4HA 0000000061066e30 f    CIL library: CIL module
 0001:00065e40       ?catch$0@?0??file_version_dialog_proc@@YA_JPEAX_J10@Z@4HA 0000000061066e40 f    CIL library: CIL module
 0001:00065e4d       __catch$?file_version_dialog_proc@@YA_JPEAX_J10@Z$0 0000000061066e4d f    CIL library: CIL module
 0001:00065e60       ?catch$1@?0??file_version_dialog_proc@@YA_JPEAX_J10@Z@4HA 0000000061066e60 f    CIL library: CIL module
 0001:00065e6d       __catch$?file_version_dialog_proc@@YA_JPEAX_J10@Z$1 0000000061066e6d f    CIL library: CIL module
 0001:00065e90       ?catch$2@?0??file_version_dialog_proc@@YA_JPEAX_J10@Z@4HA 0000000061066e90 f    CIL library: CIL module
 0001:00065e9d       __catch$?file_version_dialog_proc@@YA_JPEAX_J10@Z$2 0000000061066e9d f    CIL library: CIL module
 0001:00065ec0       ?catch$3@?0??file_version_dialog_proc@@YA_JPEAX_J10@Z@4HA 0000000061066ec0 f    CIL library: CIL module
 0001:00065ece       __catch$?file_version_dialog_proc@@YA_JPEAX_J10@Z$3 0000000061066ece f    CIL library: CIL module
 0001:00065f50       ?dtor$3@?0??file_version_dialog_proc@@YA_JPEAX_J10@Z@4HA 0000000061066f50 f    CIL library: CIL module
 0001:00065f60       ?dtor$0@?0??mft_get_totals@FilePanel@@QEAA?AUTotals@1@AEBV?$ObjectArray@VUnicodeString@col@@@col@@@Z@4HA 0000000061066f60 f    CIL library: CIL module
 0001:00065f70       ?dtor$1@?0??mft_get_totals@FilePanel@@QEAA?AUTotals@1@AEBV?$ObjectArray@VUnicodeString@col@@@col@@@Z@4HA 0000000061066f70 f    CIL library: CIL module
 0001:00065f80       ?dtor$2@?0??mft_get_totals@FilePanel@@QEAA?AUTotals@1@AEBV?$ObjectArray@VUnicodeString@col@@@col@@@Z@4HA 0000000061066f80 f    CIL library: CIL module
 0001:00065f90       ?dtor$3@?0??mft_get_totals@FilePanel@@QEAA?AUTotals@1@AEBV?$ObjectArray@VUnicodeString@col@@@col@@@Z@4HA 0000000061066f90 f    CIL library: CIL module
 0001:00065fa0       ?dtor$10@?0??mft_get_totals@FilePanel@@QEAA?AUTotals@1@AEBV?$ObjectArray@VUnicodeString@col@@@col@@@Z@4HA 0000000061066fa0 f    CIL library: CIL module
 0001:00065fb0       ?dtor$12@?0??mft_get_totals@FilePanel@@QEAA?AUTotals@1@AEBV?$ObjectArray@VUnicodeString@col@@@col@@@Z@4HA 0000000061066fb0 f    CIL library: CIL module
 0001:00065fc0       ?dtor$0@?0??add_file_records@FilePanel@@AEAAXAEAV?$list@UFileRecord@FilePanel@@V?$allocator@UFileRecord@FilePanel@@@std@@@std@@AEBVFileInfo@@@Z@4HA 0000000061066fc0 f    CIL library: CIL module
 0001:00065fd0       ?dtor$1@?0??add_file_records@FilePanel@@AEAAXAEAV?$list@UFileRecord@FilePanel@@V?$allocator@UFileRecord@FilePanel@@@std@@@std@@AEBVFileInfo@@@Z@4HA 0000000061066fd0 f    CIL library: CIL module
 0001:00065fe0       ?dtor$2@?0??add_file_records@FilePanel@@AEAAXAEAV?$list@UFileRecord@FilePanel@@V?$allocator@UFileRecord@FilePanel@@@std@@@std@@AEBVFileInfo@@@Z@4HA 0000000061066fe0 f    CIL library: CIL module
 0001:00065ff0       ?dtor$3@?0??add_file_records@FilePanel@@AEAAXAEAV?$list@UFileRecord@FilePanel@@V?$allocator@UFileRecord@FilePanel@@@std@@@std@@AEBVFileInfo@@@Z@4HA 0000000061066ff0 f    CIL library: CIL module
 0001:00066000       ?dtor$4@?0??add_file_records@FilePanel@@AEAAXAEAV?$list@UFileRecord@FilePanel@@V?$allocator@UFileRecord@FilePanel@@@std@@@std@@AEBVFileInfo@@@Z@4HA 0000000061067000 f    CIL library: CIL module
 0001:00066010       ?dtor$5@?0??add_file_records@FilePanel@@AEAAXAEAV?$list@UFileRecord@FilePanel@@V?$allocator@UFileRecord@FilePanel@@@std@@@std@@AEBVFileInfo@@@Z@4HA 0000000061067010 f    CIL library: CIL module
 0001:00066020       ?dtor$0@?0??defragment@@YAXAEBVUnicodeString@col@@AEAVIDefragProgress@@@Z@4HA 0000000061067020 f    CIL library: CIL module
 0001:00066030       ?dtor$1@?0??defragment@@YAXAEBVUnicodeString@col@@AEAVIDefragProgress@@@Z@4HA 0000000061067030 f    CIL library: CIL module
 0001:00066040       ?dtor$2@?0??defragment@@YAXAEBVUnicodeString@col@@AEAVIDefragProgress@@@Z@4HA 0000000061067040 f    CIL library: CIL module
 0001:00066050       ?dtor$3@?0??defragment@@YAXAEBVUnicodeString@col@@AEAVIDefragProgress@@@Z@4HA 0000000061067050 f    CIL library: CIL module
 0001:00066060       ?dtor$4@?0??defragment@@YAXAEBVUnicodeString@col@@AEAVIDefragProgress@@@Z@4HA 0000000061067060 f    CIL library: CIL module
 0001:00066070       ?dtor$5@?0??defragment@@YAXAEBVUnicodeString@col@@AEAVIDefragProgress@@@Z@4HA 0000000061067070 f    CIL library: CIL module
 0001:00066080       ?dtor$6@?0??defragment@@YAXAEBVUnicodeString@col@@AEAVIDefragProgress@@@Z@4HA 0000000061067080 f    CIL library: CIL module
 0001:00066090       ?catch$0@?0??defragment@@YAXAEBVUnicodeString@col@@AEAVIDefragProgress@@@Z@4HA 0000000061067090 f    CIL library: CIL module
 0001:0006609d       __catch$?defragment@@YAXAEBVUnicodeString@col@@AEAVIDefragProgress@@@Z$0 000000006106709d f    CIL library: CIL module
 0001:000660c0       ?dtor$8@?0??defragment@@YAXAEBVUnicodeString@col@@AEAVIDefragProgress@@@Z@4HA 00000000610670c0 f    CIL library: CIL module
 0001:000660d0       ?dtor$9@?0??defragment@@YAXAEBVUnicodeString@col@@AEAVIDefragProgress@@@Z@4HA 00000000610670d0 f    CIL library: CIL module
 0001:000660e0       ?dtor$10@?0??defragment@@YAXAEBVUnicodeString@col@@AEAVIDefragProgress@@@Z@4HA 00000000610670e0 f    CIL library: CIL module
 0001:000660f0       ?catch$1@?0??defragment@@YAXAEBVUnicodeString@col@@AEAVIDefragProgress@@@Z@4HA 00000000610670f0 f    CIL library: CIL module
 0001:000660fd       __catch$?defragment@@YAXAEBVUnicodeString@col@@AEAVIDefragProgress@@@Z$2 00000000610670fd f    CIL library: CIL module
 0001:00066120       ?dtor$11@?0??defragment@@YAXAEBVUnicodeString@col@@AEAVIDefragProgress@@@Z@4HA 0000000061067120 f    CIL library: CIL module
 0001:00066130       ?catch$2@?0??defragment@@YAXAEBVUnicodeString@col@@AEAVIDefragProgress@@@Z@4HA 0000000061067130 f    CIL library: CIL module
 0001:0006613d       __catch$?defragment@@YAXAEBVUnicodeString@col@@AEAVIDefragProgress@@@Z$4 000000006106713d f    CIL library: CIL module
 0001:00066160       ?catch$3@?0??defragment@@YAXAEBVUnicodeString@col@@AEAVIDefragProgress@@@Z@4HA 0000000061067160 f    CIL library: CIL module
 0001:0006616d       __catch$?defragment@@YAXAEBVUnicodeString@col@@AEAVIDefragProgress@@@Z$6 000000006106716d f    CIL library: CIL module
 0001:00066190       ?dtor$12@?0??defragment@@YAXAEBVUnicodeString@col@@AEAVIDefragProgress@@@Z@4HA 0000000061067190 f    CIL library: CIL module
 0001:000661a0       ?dtor$13@?0??defragment@@YAXAEBVUnicodeString@col@@AEAVIDefragProgress@@@Z@4HA 00000000610671a0 f    CIL library: CIL module
 0001:000661b0       ?catch$4@?0??defragment@@YAXAEBVUnicodeString@col@@AEAVIDefragProgress@@@Z@4HA 00000000610671b0 f    CIL library: CIL module
 0001:000661bd       __catch$?defragment@@YAXAEBVUnicodeString@col@@AEAVIDefragProgress@@@Z$8 00000000610671bd f    CIL library: CIL module
 0001:000661e0       ?dtor$16@?0??defragment@@YAXAEBVUnicodeString@col@@AEAVIDefragProgress@@@Z@4HA 00000000610671e0 f    CIL library: CIL module
 0001:000661f0       ?dtor$2@?0??combo_box@FarDialog@@QEAA_KAEBV?$ObjectArray@VUnicodeString@col@@@col@@_K1K@Z@4HA 00000000610671f0 f    CIL library: CIL module
 0001:00066200       ?dtor$0@?0??combo_box@FarDialog@@QEAA_KAEBV?$ObjectArray@VUnicodeString@col@@@col@@_K1K@Z@4HA 0000000061067200 f    CIL library: CIL module
 0001:00066210       ?dtor$1@?0??combo_box@FarDialog@@QEAA_KAEBV?$ObjectArray@VUnicodeString@col@@@col@@_K1K@Z@4HA 0000000061067210 f    CIL library: CIL module
 0001:00066220       ?dtor$0@?0??get_str@Options@@QEAA?AVUnicodeString@col@@PEB_WAEBV23@@Z@4HA 0000000061067220 f    CIL library: CIL module
 0001:00066230       ?catch$0@?0??process_attr_list_entry@FileInfo@@AEAAXPEBUATTR_LIST_ENTRY@@AEAV?$Array@_K@col@@@Z@4HA 0000000061067230 f    CIL library: CIL module
 0001:0006623d       __catch$?process_attr_list_entry@FileInfo@@AEAAXPEBUATTR_LIST_ENTRY@@AEAV?$Array@_K@col@@@Z$0 000000006106723d f    CIL library: CIL module
 0001:00066260       ?catch$1@?0??process_attr_list_entry@FileInfo@@AEAAXPEBUATTR_LIST_ENTRY@@AEAV?$Array@_K@col@@@Z@4HA 0000000061067260 f    CIL library: CIL module
 0001:0006626d       __catch$?process_attr_list_entry@FileInfo@@AEAAXPEBUATTR_LIST_ENTRY@@AEAV?$Array@_K@col@@@Z$2 000000006106726d f    CIL library: CIL module
 0001:00066290       ?dtor$0@?0??show@FilePanelModeDialog@@QEAA_NXZ@4HA 0000000061067290 f    CIL library: CIL module
 0001:000662a0       ?dtor$1@?0??show@FilePanelModeDialog@@QEAA_NXZ@4HA 00000000610672a0 f    CIL library: CIL module
 0001:000662b0       ?dtor$2@?0??show@FilePanelModeDialog@@QEAA_NXZ@4HA 00000000610672b0 f    CIL library: CIL module
 0001:000662c0       ?dtor$3@?0??show@FilePanelModeDialog@@QEAA_NXZ@4HA 00000000610672c0 f    CIL library: CIL module
 0001:000662d0       ?dtor$4@?0??show@FilePanelModeDialog@@QEAA_NXZ@4HA 00000000610672d0 f    CIL library: CIL module
 0001:000662e0       ?dtor$5@?0??show@FilePanelModeDialog@@QEAA_NXZ@4HA 00000000610672e0 f    CIL library: CIL module
 0001:000662f0       ?dtor$6@?0??show@FilePanelModeDialog@@QEAA_NXZ@4HA 00000000610672f0 f    CIL library: CIL module
 0001:00066300       ?dtor$7@?0??show@FilePanelModeDialog@@QEAA_NXZ@4HA 0000000061067300 f    CIL library: CIL module
 0001:00066310       ?dtor$8@?0??show@FilePanelModeDialog@@QEAA_NXZ@4HA 0000000061067310 f    CIL library: CIL module
 0001:00066320       ?dtor$9@?0??show@FilePanelModeDialog@@QEAA_NXZ@4HA 0000000061067320 f    CIL library: CIL module
 0001:00066330       ?dtor$10@?0??show@FilePanelModeDialog@@QEAA_NXZ@4HA 0000000061067330 f    CIL library: CIL module
 0001:00066340       ?dtor$11@?0??show@FilePanelModeDialog@@QEAA_NXZ@4HA 0000000061067340 f    CIL library: CIL module
 0001:00066350       ?dtor$12@?0??show@FilePanelModeDialog@@QEAA_NXZ@4HA 0000000061067350 f    CIL library: CIL module
 0001:00066360       ?dtor$13@?0??show@FilePanelModeDialog@@QEAA_NXZ@4HA 0000000061067360 f    CIL library: CIL module
 0001:00066370       ?dtor$14@?0??show@FilePanelModeDialog@@QEAA_NXZ@4HA 0000000061067370 f    CIL library: CIL module
 0001:00066380       ?dtor$15@?0??show@FilePanelModeDialog@@QEAA_NXZ@4HA 0000000061067380 f    CIL library: CIL module
 0001:00066390       ?dtor$16@?0??show@FilePanelModeDialog@@QEAA_NXZ@4HA 0000000061067390 f    CIL library: CIL module
 0001:000663a0       ?dtor$17@?0??show@FilePanelModeDialog@@QEAA_NXZ@4HA 00000000610673a0 f    CIL library: CIL module
 0001:000663b0       ?dtor$18@?0??show@FilePanelModeDialog@@QEAA_NXZ@4HA 00000000610673b0 f    CIL library: CIL module
 0001:000663c0       ?dtor$19@?0??show@FilePanelModeDialog@@QEAA_NXZ@4HA 00000000610673c0 f    CIL library: CIL module
 0001:000663d0       ?dtor$20@?0??show@FilePanelModeDialog@@QEAA_NXZ@4HA 00000000610673d0 f    CIL library: CIL module
 0001:000663e0       ?dtor$21@?0??show@FilePanelModeDialog@@QEAA_NXZ@4HA 00000000610673e0 f    CIL library: CIL module
 0001:000663f0       ?dtor$22@?0??show@FilePanelModeDialog@@QEAA_NXZ@4HA 00000000610673f0 f    CIL library: CIL module
 0001:00066400       ?dtor$23@?0??show@FilePanelModeDialog@@QEAA_NXZ@4HA 0000000061067400 f    CIL library: CIL module
 0001:00066410       ?dtor$24@?0??show@FilePanelModeDialog@@QEAA_NXZ@4HA 0000000061067410 f    CIL library: CIL module
 0001:00066420       ?dtor$25@?0??show@FilePanelModeDialog@@QEAA_NXZ@4HA 0000000061067420 f    CIL library: CIL module
 0001:00066430       ?dtor$26@?0??show@FilePanelModeDialog@@QEAA_NXZ@4HA 0000000061067430 f    CIL library: CIL module
 0001:00066440       ?dtor$27@?0??show@FilePanelModeDialog@@QEAA_NXZ@4HA 0000000061067440 f    CIL library: CIL module
 0001:00066450       ?dtor$28@?0??show@FilePanelModeDialog@@QEAA_NXZ@4HA 0000000061067450 f    CIL library: CIL module
 0001:00066460       ?dtor$29@?0??show@FilePanelModeDialog@@QEAA_NXZ@4HA 0000000061067460 f    CIL library: CIL module
 0001:00066470       ?dtor$30@?0??show@FilePanelModeDialog@@QEAA_NXZ@4HA 0000000061067470 f    CIL library: CIL module
 0001:00066480       ?dtor$31@?0??show@FilePanelModeDialog@@QEAA_NXZ@4HA 0000000061067480 f    CIL library: CIL module
 0001:00066490       ?dtor$0@?0??close@FilePanel@@QEAAXXZ@4HA 0000000061067490 f    CIL library: CIL module
 0001:000664a0       ?dtor$0@?0??compress_files@@YAXAEBV?$ObjectArray@VUnicodeString@col@@@col@@AEAUCompressionStats@@@Z@4HA 00000000610674a0 f    CIL library: CIL module
 0001:000664b0       ?dtor$1@?0??compress_files@@YAXAEBV?$ObjectArray@VUnicodeString@col@@@col@@AEAUCompressionStats@@@Z@4HA 00000000610674b0 f    CIL library: CIL module
 0001:000664c0       ?dtor$6@?0??compress_files@@YAXAEBV?$ObjectArray@VUnicodeString@col@@@col@@AEAUCompressionStats@@@Z@4HA 00000000610674c0 f    CIL library: CIL module
 0001:000664d0       ?dtor$2@?0??compress_files@@YAXAEBV?$ObjectArray@VUnicodeString@col@@@col@@AEAUCompressionStats@@@Z@4HA 00000000610674d0 f    CIL library: CIL module
 0001:000664e0       ?dtor$10@?0??compress_files@@YAXAEBV?$ObjectArray@VUnicodeString@col@@@col@@AEAUCompressionStats@@@Z@4HA 00000000610674e0 f    CIL library: CIL module
 0001:000664f0       ?catch$0@?0??compress_files@@YAXAEBV?$ObjectArray@VUnicodeString@col@@@col@@AEAUCompressionStats@@@Z@4HA 00000000610674f0 f    CIL library: CIL module
 0001:000664fd       __catch$?compress_files@@YAXAEBV?$ObjectArray@VUnicodeString@col@@@col@@AEAUCompressionStats@@@Z$0 00000000610674fd f    CIL library: CIL module
 0001:00066520       ?dtor$0@?0??show_result_dialog@@YAXAEBUCompressionStats@@@Z@4HA 0000000061067520 f    CIL library: CIL module
 0001:00066530       ?dtor$1@?0??show_result_dialog@@YAXAEBUCompressionStats@@@Z@4HA 0000000061067530 f    CIL library: CIL module
 0001:00066540       ?dtor$20@?0??show_result_dialog@@YAXAEBUCompressionStats@@@Z@4HA 0000000061067540 f    CIL library: CIL module
 0001:00066550       ?dtor$21@?0??show_result_dialog@@YAXAEBUCompressionStats@@@Z@4HA 0000000061067550 f    CIL library: CIL module
 0001:00066560       ?dtor$22@?0??show_result_dialog@@YAXAEBUCompressionStats@@@Z@4HA 0000000061067560 f    CIL library: CIL module
 0001:00066570       ?dtor$23@?0??show_result_dialog@@YAXAEBUCompressionStats@@@Z@4HA 0000000061067570 f    CIL library: CIL module
 0001:00066580       ?dtor$24@?0??show_result_dialog@@YAXAEBUCompressionStats@@@Z@4HA 0000000061067580 f    CIL library: CIL module
 0001:00066590       ?dtor$2@?0??show_result_dialog@@YAXAEBUCompressionStats@@@Z@4HA 0000000061067590 f    CIL library: CIL module
 0001:000665a0       ?dtor$3@?0??show_result_dialog@@YAXAEBUCompressionStats@@@Z@4HA 00000000610675a0 f    CIL library: CIL module
 0001:000665b0       ?dtor$4@?0??show_result_dialog@@YAXAEBUCompressionStats@@@Z@4HA 00000000610675b0 f    CIL library: CIL module
 0001:000665c0       ?dtor$5@?0??show_result_dialog@@YAXAEBUCompressionStats@@@Z@4HA 00000000610675c0 f    CIL library: CIL module
 0001:000665d0       ?dtor$6@?0??show_result_dialog@@YAXAEBUCompressionStats@@@Z@4HA 00000000610675d0 f    CIL library: CIL module
 0001:000665e0       ?dtor$7@?0??show_result_dialog@@YAXAEBUCompressionStats@@@Z@4HA 00000000610675e0 f    CIL library: CIL module
 0001:000665f0       ?dtor$8@?0??show_result_dialog@@YAXAEBUCompressionStats@@@Z@4HA 00000000610675f0 f    CIL library: CIL module
 0001:00066600       ?dtor$9@?0??show_result_dialog@@YAXAEBUCompressionStats@@@Z@4HA 0000000061067600 f    CIL library: CIL module
 0001:00066610       ?dtor$10@?0??show_result_dialog@@YAXAEBUCompressionStats@@@Z@4HA 0000000061067610 f    CIL library: CIL module
 0001:00066620       ?dtor$11@?0??show_result_dialog@@YAXAEBUCompressionStats@@@Z@4HA 0000000061067620 f    CIL library: CIL module
 0001:00066630       ?dtor$12@?0??show_result_dialog@@YAXAEBUCompressionStats@@@Z@4HA 0000000061067630 f    CIL library: CIL module
 0001:00066640       ?dtor$13@?0??show_result_dialog@@YAXAEBUCompressionStats@@@Z@4HA 0000000061067640 f    CIL library: CIL module
 0001:00066650       ?dtor$14@?0??show_result_dialog@@YAXAEBUCompressionStats@@@Z@4HA 0000000061067650 f    CIL library: CIL module
 0001:00066660       ?dtor$15@?0??show_result_dialog@@YAXAEBUCompressionStats@@@Z@4HA 0000000061067660 f    CIL library: CIL module
 0001:00066670       ?dtor$16@?0??show_result_dialog@@YAXAEBUCompressionStats@@@Z@4HA 0000000061067670 f    CIL library: CIL module
 0001:00066680       ?dtor$17@?0??show_result_dialog@@YAXAEBUCompressionStats@@@Z@4HA 0000000061067680 f    CIL library: CIL module
 0001:00066690       ?dtor$18@?0??show_result_dialog@@YAXAEBUCompressionStats@@@Z@4HA 0000000061067690 f    CIL library: CIL module
 0001:000666a0       ?dtor$19@?0??show_result_dialog@@YAXAEBUCompressionStats@@@Z@4HA 00000000610676a0 f    CIL library: CIL module
 0001:000666b0       ?dtor$0@?0??result_dlg_proc@@YA_JPEAX_J10@Z@4HA 00000000610676b0 f    CIL library: CIL module
 0001:000666c0       ?dtor$1@?0??result_dlg_proc@@YA_JPEAX_J10@Z@4HA 00000000610676c0 f    CIL library: CIL module
 0001:000666f0       ?dtor$2@?0??result_dlg_proc@@YA_JPEAX_J10@Z@4HA 00000000610676f0 f    CIL library: CIL module
 0001:00066720       ?dtor$3@?0??result_dlg_proc@@YA_JPEAX_J10@Z@4HA 0000000061067720 f    CIL library: CIL module
 0001:00066750       ?dtor$4@?0??result_dlg_proc@@YA_JPEAX_J10@Z@4HA 0000000061067750 f    CIL library: CIL module
 0001:00066780       ?dtor$5@?0??result_dlg_proc@@YA_JPEAX_J10@Z@4HA 0000000061067780 f    CIL library: CIL module
 0001:000667b0       ?dtor$6@?0??result_dlg_proc@@YA_JPEAX_J10@Z@4HA 00000000610677b0 f    CIL library: CIL module
 0001:000667e0       ?dtor$7@?0??result_dlg_proc@@YA_JPEAX_J10@Z@4HA 00000000610677e0 f    CIL library: CIL module
 0001:00066810       ?dtor$8@?0??result_dlg_proc@@YA_JPEAX_J10@Z@4HA 0000000061067810 f    CIL library: CIL module
 0001:00066840       ?catch$0@?0??result_dlg_proc@@YA_JPEAX_J10@Z@4HA 0000000061067840 f    CIL library: CIL module
 0001:0006684d       __catch$?result_dlg_proc@@YA_JPEAX_J10@Z$0 000000006106784d f    CIL library: CIL module
 0001:00066860       ?catch$1@?0??result_dlg_proc@@YA_JPEAX_J10@Z@4HA 0000000061067860 f    CIL library: CIL module
 0001:0006686d       __catch$?result_dlg_proc@@YA_JPEAX_J10@Z$1 000000006106786d f    CIL library: CIL module
 0001:00066890       ?catch$2@?0??result_dlg_proc@@YA_JPEAX_J10@Z@4HA 0000000061067890 f    CIL library: CIL module
 0001:0006689d       __catch$?result_dlg_proc@@YA_JPEAX_J10@Z$2 000000006106789d f    CIL library: CIL module
 0001:000668c0       ?catch$3@?0??result_dlg_proc@@YA_JPEAX_J10@Z@4HA 00000000610678c0 f    CIL library: CIL module
 0001:000668ce       __catch$?result_dlg_proc@@YA_JPEAX_J10@Z$3 00000000610678ce f    CIL library: CIL module
 0001:00066950       ?dtor$10@?0??result_dlg_proc@@YA_JPEAX_J10@Z@4HA 0000000061067950 f    CIL library: CIL module
 0001:00066960       ?dtor$0@?0??show_options_dialog@@YA_NAEAUContentOptions@@_N@Z@4HA 0000000061067960 f    CIL library: CIL module
 0001:00066970       ?dtor$14@?0??show_options_dialog@@YA_NAEAUContentOptions@@_N@Z@4HA 0000000061067970 f    CIL library: CIL module
 0001:00066980       ?dtor$15@?0??show_options_dialog@@YA_NAEAUContentOptions@@_N@Z@4HA 0000000061067980 f    CIL library: CIL module
 0001:00066990       ?dtor$16@?0??show_options_dialog@@YA_NAEAUContentOptions@@_N@Z@4HA 0000000061067990 f    CIL library: CIL module
 0001:000669a0       ?dtor$17@?0??show_options_dialog@@YA_NAEAUContentOptions@@_N@Z@4HA 00000000610679a0 f    CIL library: CIL module
 0001:000669b0       ?dtor$18@?0??show_options_dialog@@YA_NAEAUContentOptions@@_N@Z@4HA 00000000610679b0 f    CIL library: CIL module
 0001:000669c0       ?dtor$1@?0??show_options_dialog@@YA_NAEAUContentOptions@@_N@Z@4HA 00000000610679c0 f    CIL library: CIL module
 0001:000669d0       ?dtor$2@?0??show_options_dialog@@YA_NAEAUContentOptions@@_N@Z@4HA 00000000610679d0 f    CIL library: CIL module
 0001:000669e0       ?dtor$3@?0??show_options_dialog@@YA_NAEAUContentOptions@@_N@Z@4HA 00000000610679e0 f    CIL library: CIL module
 0001:000669f0       ?dtor$4@?0??show_options_dialog@@YA_NAEAUContentOptions@@_N@Z@4HA 00000000610679f0 f    CIL library: CIL module
 0001:00066a00       ?dtor$5@?0??show_options_dialog@@YA_NAEAUContentOptions@@_N@Z@4HA 0000000061067a00 f    CIL library: CIL module
 0001:00066a10       ?dtor$6@?0??show_options_dialog@@YA_NAEAUContentOptions@@_N@Z@4HA 0000000061067a10 f    CIL library: CIL module
 0001:00066a20       ?dtor$7@?0??show_options_dialog@@YA_NAEAUContentOptions@@_N@Z@4HA 0000000061067a20 f    CIL library: CIL module
 0001:00066a30       ?dtor$8@?0??show_options_dialog@@YA_NAEAUContentOptions@@_N@Z@4HA 0000000061067a30 f    CIL library: CIL module
 0001:00066a40       ?dtor$9@?0??show_options_dialog@@YA_NAEAUContentOptions@@_N@Z@4HA 0000000061067a40 f    CIL library: CIL module
 0001:00066a50       ?dtor$10@?0??show_options_dialog@@YA_NAEAUContentOptions@@_N@Z@4HA 0000000061067a50 f    CIL library: CIL module
 0001:00066a60       ?dtor$11@?0??show_options_dialog@@YA_NAEAUContentOptions@@_N@Z@4HA 0000000061067a60 f    CIL library: CIL module
 0001:00066a70       ?dtor$12@?0??show_options_dialog@@YA_NAEAUContentOptions@@_N@Z@4HA 0000000061067a70 f    CIL library: CIL module
 0001:00066a80       ?dtor$13@?0??show_options_dialog@@YA_NAEAUContentOptions@@_N@Z@4HA 0000000061067a80 f    CIL library: CIL module
 0001:00066a90       ?dtor$0@?0??_Buynode@?$_List_val@V?$basic_string@_WU?$char_traits@_W@std@@V?$allocator@_W@2@@std@@V?$allocator@V?$basic_string@_WU?$char_traits@_W@std@@V?$allocator@_W@2@@std@@@2@@std@@QEAAPEAU_Node@?$_List_nod@V?$basic_string@_WU?$char_traits@_W@std@@V?$allocator@_W@2@@std@@V?$allocator@V?$basic_string@_WU?$char_traits@_W@std@@V?$allocator@_W@2@@std@@@2@@2@PEAU342@0AEBV?$basic_string@_WU?$char_traits@_W@std@@V?$allocator@_W@2@@2@@Z@4HA 0000000061067a90 f    CIL library: CIL module
 0001:00066ab0       ?catch$0@?0??_Buynode@?$_List_val@V?$basic_string@_WU?$char_traits@_W@std@@V?$allocator@_W@2@@std@@V?$allocator@V?$basic_string@_WU?$char_traits@_W@std@@V?$allocator@_W@2@@std@@@2@@std@@QEAAPEAU_Node@?$_List_nod@V?$basic_string@_WU?$char_traits@_W@std@@V?$allocator@_W@2@@std@@V?$allocator@V?$basic_string@_WU?$char_traits@_W@std@@V?$allocator@_W@2@@std@@@2@@2@PEAU342@0AEBV?$basic_string@_WU?$char_traits@_W@std@@V?$allocator@_W@2@@2@@Z@4HA 0000000061067ab0 f    CIL library: CIL module
 0001:00066abd       __catch$?_Buynode@?$_List_val@V?$basic_string@_WU?$char_traits@_W@std@@V?$allocator@_W@2@@std@@V?$allocator@V?$basic_string@_WU?$char_traits@_W@std@@V?$allocator@_W@2@@std@@@2@@std@@QEAAPEAU_Node@?$_List_nod@V?$basic_string@_WU?$char_traits@_W@std@@V?$allocator@_W@2@@std@@V?$allocator@V?$basic_string@_WU?$char_traits@_W@std@@V?$allocator@_W@2@@std@@@2@@2@PEAU342@0AEBV?$basic_string@_WU?$char_traits@_W@std@@V?$allocator@_W@2@@2@@Z$0 0000000061067abd f    CIL library: CIL module
 0001:00066ad0       ?catch$0@?0???$_Insert@V?$_List_const_iterator@V?$_List_val@V?$basic_string@_WU?$char_traits@_W@std@@V?$allocator@_W@2@@std@@V?$allocator@V?$basic_string@_WU?$char_traits@_W@std@@V?$allocator@_W@2@@std@@@2@@std@@@std@@@?$list@V?$basic_string@_WU?$char_traits@_W@std@@V?$allocator@_W@2@@std@@V?$allocator@V?$basic_string@_WU?$char_traits@_W@std@@V?$allocator@_W@2@@std@@@2@@std@@QEAAXV?$_List_const_iterator@V?$_List_val@V?$basic_string@_WU?$char_traits@_W@std@@V?$allocator@_W@2@@std@@V?$allocator@V?$basic_string@_WU?$char_traits@_W@std@@V?$allocator@_W@2@@std@@@2@@std@@@1@00Uforward_iterator_tag@1@@Z@4HA 0000000061067ad0 f    CIL library: CIL module
 0001:00066ae0       __catch$??$_Insert@V?$_List_const_iterator@V?$_List_val@V?$basic_string@_WU?$char_traits@_W@std@@V?$allocator@_W@2@@std@@V?$allocator@V?$basic_string@_WU?$char_traits@_W@std@@V?$allocator@_W@2@@std@@@2@@std@@@std@@@?$list@V?$basic_string@_WU?$char_traits@_W@std@@V?$allocator@_W@2@@std@@V?$allocator@V?$basic_string@_WU?$char_traits@_W@std@@V?$allocator@_W@2@@std@@@2@@std@@QEAAXV?$_List_const_iterator@V?$_List_val@V?$basic_string@_WU?$char_traits@_W@std@@V?$allocator@_W@2@@std@@V?$allocator@V?$basic_string@_WU?$char_traits@_W@std@@V?$allocator@_W@2@@std@@@2@@std@@@1@00Uforward_iterator_tag@1@@Z$0 0000000061067ae0 f    CIL library: CIL module
 0001:00066b60       ?dtor$0@?0???$_Cons_val@V?$allocator@U?$pair@$$CBV?$basic_string@_WU?$char_traits@_W@std@@V?$allocator@_W@2@@std@@V12@@std@@@std@@U?$pair@$$CBV?$basic_string@_WU?$char_traits@_W@std@@V?$allocator@_W@2@@std@@V12@@2@U32@@std@@YAXAEAV?$allocator@U?$pair@$$CBV?$basic_string@_WU?$char_traits@_W@std@@V?$allocator@_W@2@@std@@V12@@std@@@0@PEAU?$pair@$$CBV?$basic_string@_WU?$char_traits@_W@std@@V?$allocator@_W@2@@std@@V12@@0@$$QEAU20@@Z@4HA 0000000061067b60 f    CIL library: CIL module
 0001:00066b80       ?dtor$2@?0???$_Cons_val@V?$allocator@U?$pair@$$CBV?$basic_string@_WU?$char_traits@_W@std@@V?$allocator@_W@2@@std@@V12@@std@@@std@@U?$pair@$$CBV?$basic_string@_WU?$char_traits@_W@std@@V?$allocator@_W@2@@std@@V12@@2@U32@@std@@YAXAEAV?$allocator@U?$pair@$$CBV?$basic_string@_WU?$char_traits@_W@std@@V?$allocator@_W@2@@std@@V12@@std@@@0@PEAU?$pair@$$CBV?$basic_string@_WU?$char_traits@_W@std@@V?$allocator@_W@2@@std@@V12@@0@$$QEAU20@@Z@4HA 0000000061067b80 f    CIL library: CIL module
 0001:00066b90       ?dtor$0@?0???0?$list@V?$basic_string@_WU?$char_traits@_W@std@@V?$allocator@_W@2@@std@@V?$allocator@V?$basic_string@_WU?$char_traits@_W@std@@V?$allocator@_W@2@@std@@@2@@std@@QEAA@AEBV01@@Z@4HA 0000000061067b90 f    CIL library: CIL module
 0001:00066ba0       ?catch$0@?0???0?$list@V?$basic_string@_WU?$char_traits@_W@std@@V?$allocator@_W@2@@std@@V?$allocator@V?$basic_string@_WU?$char_traits@_W@std@@V?$allocator@_W@2@@std@@@2@@std@@QEAA@AEBV01@@Z@4HA 0000000061067ba0 f    CIL library: CIL module
 0001:00066bad       __catch$??0?$list@V?$basic_string@_WU?$char_traits@_W@std@@V?$allocator@_W@2@@std@@V?$allocator@V?$basic_string@_WU?$char_traits@_W@std@@V?$allocator@_W@2@@std@@@2@@std@@QEAA@AEBV01@@Z$0 0000000061067bad f    CIL library: CIL module
 0001:00066bc0       ?dtor$0@?0???0VolumeItem@@QEAA@AEBU0@@Z@4HA 0000000061067bc0 f    CIL library: CIL module
 0001:00066bd0       ?dtor$1@?0???0VolumeItem@@QEAA@AEBU0@@Z@4HA 0000000061067bd0 f    CIL library: CIL module
 0001:00066be0       ?dtor$2@?0???0VolumeItem@@QEAA@AEBU0@@Z@4HA 0000000061067be0 f    CIL library: CIL module
 0001:00066bf0       ?catch$0@?0???$_Buynode@U?$pair@$$CBV?$basic_string@_WU?$char_traits@_W@std@@V?$allocator@_W@2@@std@@V12@@std@@@?$_Tree_val@V?$_Tmap_traits@V?$basic_string@_WU?$char_traits@_W@std@@V?$allocator@_W@2@@std@@V12@U?$less@V?$basic_string@_WU?$char_traits@_W@std@@V?$allocator@_W@2@@std@@@2@V?$allocator@U?$pair@$$CBV?$basic_string@_WU?$char_traits@_W@std@@V?$allocator@_W@2@@std@@V12@@std@@@2@$0A@@std@@@std@@QEAAPEAU_Node@?$_Tree_nod@V?$_Tmap_traits@V?$basic_string@_WU?$char_traits@_W@std@@V?$allocator@_W@2@@std@@V12@U?$less@V?$basic_string@_WU?$char_traits@_W@std@@V?$allocator@_W@2@@std@@@2@V?$allocator@U?$pair@$$CBV?$basic_string@_WU?$char_traits@_W@std@@V?$allocator@_W@2@@std@@V12@@std@@@2@$0A@@std@@@1@$$QEAU?$pair@$$CBV?$basic_string@_WU?$char_traits@_W@std@@V?$allocator@_W@2@@std@@V12@@1@@Z@4HA 0000000061067bf0 f    CIL library: CIL module
 0001:00066bfd       __catch$??$_Buynode@U?$pair@$$CBV?$basic_string@_WU?$char_traits@_W@std@@V?$allocator@_W@2@@std@@V12@@std@@@?$_Tree_val@V?$_Tmap_traits@V?$basic_string@_WU?$char_traits@_W@std@@V?$allocator@_W@2@@std@@V12@U?$less@V?$basic_string@_WU?$char_traits@_W@std@@V?$allocator@_W@2@@std@@@2@V?$allocator@U?$pair@$$CBV?$basic_string@_WU?$char_traits@_W@std@@V?$allocator@_W@2@@std@@V12@@std@@@2@$0A@@std@@@std@@QEAAPEAU_Node@?$_Tree_nod@V?$_Tmap_traits@V?$basic_string@_WU?$char_traits@_W@std@@V?$allocator@_W@2@@std@@V12@U?$less@V?$basic_string@_WU?$char_traits@_W@std@@V?$allocator@_W@2@@std@@@2@V?$allocator@U?$pair@$$CBV?$basic_string@_WU?$char_traits@_W@std@@V?$allocator@_W@2@@std@@V12@@std@@@2@$0A@@std@@@1@$$QEAU?$pair@$$CBV?$basic_string@_WU?$char_traits@_W@std@@V?$allocator@_W@2@@std@@V12@@1@@Z$0 0000000061067bfd f    CIL library: CIL module
 0001:00066c10       ?dtor$0@?0??_Buynode@?$_List_val@UVolumeItem@@V?$allocator@UVolumeItem@@@std@@@std@@QEAAPEAU_Node@?$_List_nod@UVolumeItem@@V?$allocator@UVolumeItem@@@std@@@2@PEAU342@0AEBUVolumeItem@@@Z@4HA 0000000061067c10 f    CIL library: CIL module
 0001:00066c30       ?catch$0@?0??_Buynode@?$_List_val@UVolumeItem@@V?$allocator@UVolumeItem@@@std@@@std@@QEAAPEAU_Node@?$_List_nod@UVolumeItem@@V?$allocator@UVolumeItem@@@std@@@2@PEAU342@0AEBUVolumeItem@@@Z@4HA 0000000061067c30 f    CIL library: CIL module
 0001:00066c3d       __catch$?_Buynode@?$_List_val@UVolumeItem@@V?$allocator@UVolumeItem@@@std@@@std@@QEAAPEAU_Node@?$_List_nod@UVolumeItem@@V?$allocator@UVolumeItem@@@std@@@2@PEAU342@0AEBUVolumeItem@@@Z$0 0000000061067c3d f    CIL library: CIL module
 0001:00066c50       ?dtor$0@?0???A?$map@V?$basic_string@_WU?$char_traits@_W@std@@V?$allocator@_W@2@@std@@V12@U?$less@V?$basic_string@_WU?$char_traits@_W@std@@V?$allocator@_W@2@@std@@@2@V?$allocator@U?$pair@$$CBV?$basic_string@_WU?$char_traits@_W@std@@V?$allocator@_W@2@@std@@V12@@std@@@2@@std@@QEAAAEAV?$basic_string@_WU?$char_traits@_W@std@@V?$allocator@_W@2@@1@AEBV21@@Z@4HA 0000000061067c50 f    CIL library: CIL module
 0001:00066c60       ?dtor$3@?0???A?$map@V?$basic_string@_WU?$char_traits@_W@std@@V?$allocator@_W@2@@std@@V12@U?$less@V?$basic_string@_WU?$char_traits@_W@std@@V?$allocator@_W@2@@std@@@2@V?$allocator@U?$pair@$$CBV?$basic_string@_WU?$char_traits@_W@std@@V?$allocator@_W@2@@std@@V12@@std@@@2@@std@@QEAAAEAV?$basic_string@_WU?$char_traits@_W@std@@V?$allocator@_W@2@@1@AEBV21@@Z@4HA 0000000061067c60 f    CIL library: CIL module
 0001:00066c70       ?dtor$1@?0???A?$map@V?$basic_string@_WU?$char_traits@_W@std@@V?$allocator@_W@2@@std@@V12@U?$less@V?$basic_string@_WU?$char_traits@_W@std@@V?$allocator@_W@2@@std@@@2@V?$allocator@U?$pair@$$CBV?$basic_string@_WU?$char_traits@_W@std@@V?$allocator@_W@2@@std@@V12@@std@@@2@@std@@QEAAAEAV?$basic_string@_WU?$char_traits@_W@std@@V?$allocator@_W@2@@1@AEBV21@@Z@4HA 0000000061067c70 f    CIL library: CIL module
 0001:00066c80       ?dtor$0@?0???0?$list@V?$basic_string@_WU?$char_traits@_W@std@@V?$allocator@_W@2@@std@@V?$allocator@V?$basic_string@_WU?$char_traits@_W@std@@V?$allocator@_W@2@@std@@@2@@std@@QEAA@$$QEAV01@@Z@4HA 0000000061067c80 f    CIL library: CIL module
 0001:00066c90       ?dtor$0@?0??get_volume_mount_points@@YA?AV?$list@V?$basic_string@_WU?$char_traits@_W@std@@V?$allocator@_W@2@@std@@V?$allocator@V?$basic_string@_WU?$char_traits@_W@std@@V?$allocator@_W@2@@std@@@2@@std@@AEBV?$basic_string@_WU?$char_traits@_W@std@@V?$allocator@_W@2@@2@@Z@4HA 0000000061067c90 f    CIL library: CIL module
 0001:00066ca0       ?dtor$3@?0??get_volume_mount_points@@YA?AV?$list@V?$basic_string@_WU?$char_traits@_W@std@@V?$allocator@_W@2@@std@@V?$allocator@V?$basic_string@_WU?$char_traits@_W@std@@V?$allocator@_W@2@@std@@@2@@std@@AEBV?$basic_string@_WU?$char_traits@_W@std@@V?$allocator@_W@2@@2@@Z@4HA 0000000061067ca0 f    CIL library: CIL module
 0001:00066cb0       ?dtor$5@?0??get_volume_mount_points@@YA?AV?$list@V?$basic_string@_WU?$char_traits@_W@std@@V?$allocator@_W@2@@std@@V?$allocator@V?$basic_string@_WU?$char_traits@_W@std@@V?$allocator@_W@2@@std@@@2@@std@@AEBV?$basic_string@_WU?$char_traits@_W@std@@V?$allocator@_W@2@@2@@Z@4HA 0000000061067cb0 f    CIL library: CIL module
 0001:00066cc0       ?dtor$0@?0??show@CompressFilesDialog@@QEAA_NXZ@4HA 0000000061067cc0 f    CIL library: CIL module
 0001:00066cd0       ?dtor$1@?0??show@CompressFilesDialog@@QEAA_NXZ@4HA 0000000061067cd0 f    CIL library: CIL module
 0001:00066ce0       ?dtor$2@?0??show@CompressFilesDialog@@QEAA_NXZ@4HA 0000000061067ce0 f    CIL library: CIL module
 0001:00066cf0       ?dtor$3@?0??show@CompressFilesDialog@@QEAA_NXZ@4HA 0000000061067cf0 f    CIL library: CIL module
 0001:00066d00       ?dtor$4@?0??show@CompressFilesDialog@@QEAA_NXZ@4HA 0000000061067d00 f    CIL library: CIL module
 0001:00066d10       ?dtor$5@?0??show@CompressFilesDialog@@QEAA_NXZ@4HA 0000000061067d10 f    CIL library: CIL module
 0001:00066d20       ?dtor$6@?0??show@CompressFilesDialog@@QEAA_NXZ@4HA 0000000061067d20 f    CIL library: CIL module
 0001:00066d30       ?dtor$7@?0??show@CompressFilesDialog@@QEAA_NXZ@4HA 0000000061067d30 f    CIL library: CIL module
 0001:00066d40       ?dtor$8@?0??show@CompressFilesDialog@@QEAA_NXZ@4HA 0000000061067d40 f    CIL library: CIL module
 0001:00066d50       ?dtor$0@?0???0CompressFilesDialog@@QEAA@AEAUCompressFilesParams@@@Z@4HA 0000000061067d50 f    CIL library: CIL module
 0001:00066d60       ?dtor$2@?0???0CompressFilesDialog@@QEAA@AEAUCompressFilesParams@@@Z@4HA 0000000061067d60 f    CIL library: CIL module
 0001:00066d70       ?dtor$3@?0???0CompressFilesDialog@@QEAA@AEAUCompressFilesParams@@@Z@4HA 0000000061067d70 f    CIL library: CIL module
 0001:00066d80       ?dtor$4@?0???0CompressFilesDialog@@QEAA@AEAUCompressFilesParams@@@Z@4HA 0000000061067d80 f    CIL library: CIL module
 0001:00066d90       ?dtor$5@?0???0CompressFilesDialog@@QEAA@AEAUCompressFilesParams@@@Z@4HA 0000000061067d90 f    CIL library: CIL module
 0001:00066da0       ?dtor$6@?0???0CompressFilesDialog@@QEAA@AEAUCompressFilesParams@@@Z@4HA 0000000061067da0 f    CIL library: CIL module
 0001:00066db0       ?dtor$0@?0??compress_file@CompressFiles@@QEAAXAEBVUnicodeString@col@@AEBUFindData@@@Z@4HA 0000000061067db0 f    CIL library: CIL module
 0001:00066dc0       ?dtor$1@?0??compress_file@CompressFiles@@QEAAXAEBVUnicodeString@col@@AEBUFindData@@@Z@4HA 0000000061067dc0 f    CIL library: CIL module
 0001:00066dd0       ?catch$0@?0??compress_file@CompressFiles@@QEAAXAEBVUnicodeString@col@@AEBUFindData@@@Z@4HA 0000000061067dd0 f    CIL library: CIL module
 0001:00066ddd       __catch$?compress_file@CompressFiles@@QEAAXAEBVUnicodeString@col@@AEBUFindData@@@Z$0 0000000061067ddd f    CIL library: CIL module
 0001:00066e00       ?catch$1@?0??compress_file@CompressFiles@@QEAAXAEBVUnicodeString@col@@AEBUFindData@@@Z@4HA 0000000061067e00 f    CIL library: CIL module
 0001:00066e0d       __catch$?compress_file@CompressFiles@@QEAAXAEBVUnicodeString@col@@AEBUFindData@@@Z$2 0000000061067e0d f    CIL library: CIL module
 0001:00066e30       ?catch$4@?0??compress_file@CompressFiles@@QEAAXAEBVUnicodeString@col@@AEBUFindData@@@Z@4HA 0000000061067e30 f    CIL library: CIL module
 0001:00066e3f       __catch$?compress_file@CompressFiles@@QEAAXAEBVUnicodeString@col@@AEBUFindData@@@Z$4 0000000061067e3f f    CIL library: CIL module
 0001:00066ee0       ?catch$3@?0??compress_file@CompressFiles@@QEAAXAEBVUnicodeString@col@@AEBUFindData@@@Z@4HA 0000000061067ee0 f    CIL library: CIL module
 0001:00066eed       __catch$?compress_file@CompressFiles@@QEAAXAEBVUnicodeString@col@@AEBUFindData@@@Z$5 0000000061067eed f    CIL library: CIL module
 0001:00066f10       ?catch$2@?0??compress_file@CompressFiles@@QEAAXAEBVUnicodeString@col@@AEBUFindData@@@Z@4HA 0000000061067f10 f    CIL library: CIL module
 0001:00066f1d       __catch$?compress_file@CompressFiles@@QEAAXAEBVUnicodeString@col@@AEBUFindData@@@Z$8 0000000061067f1d f    CIL library: CIL module
 0001:00066f40       ?catch$5@?0??compress_file@CompressFiles@@QEAAXAEBVUnicodeString@col@@AEBUFindData@@@Z@4HA 0000000061067f40 f    CIL library: CIL module
 0001:00066f4d       __catch$?compress_file@CompressFiles@@QEAAXAEBVUnicodeString@col@@AEBUFindData@@@Z$10 0000000061067f4d f    CIL library: CIL module
 0001:00066f70       ?catch$6@?0??compress_file@CompressFiles@@QEAAXAEBVUnicodeString@col@@AEBUFindData@@@Z@4HA 0000000061067f70 f    CIL library: CIL module
 0001:00066f7d       __catch$?compress_file@CompressFiles@@QEAAXAEBVUnicodeString@col@@AEBUFindData@@@Z$12 0000000061067f7d f    CIL library: CIL module
 0001:00066fa0       ?catch$7@?0??compress_file@CompressFiles@@QEAAXAEBVUnicodeString@col@@AEBUFindData@@@Z@4HA 0000000061067fa0 f    CIL library: CIL module
 0001:00066fad       __catch$?compress_file@CompressFiles@@QEAAXAEBVUnicodeString@col@@AEBUFindData@@@Z$14 0000000061067fad f    CIL library: CIL module
 0001:00066fd0       ?catch$8@?0??compress_file@CompressFiles@@QEAAXAEBVUnicodeString@col@@AEBUFindData@@@Z@4HA 0000000061067fd0 f    CIL library: CIL module
 0001:00066fdd       __catch$?compress_file@CompressFiles@@QEAAXAEBVUnicodeString@col@@AEBUFindData@@@Z$16 0000000061067fdd f    CIL library: CIL module
 0001:00067000       ?catch$9@?0??compress_file@CompressFiles@@QEAAXAEBVUnicodeString@col@@AEBUFindData@@@Z@4HA 0000000061068000 f    CIL library: CIL module
 0001:0006700e       __catch$?compress_file@CompressFiles@@QEAAXAEBVUnicodeString@col@@AEBUFindData@@@Z$18 000000006106800e f    CIL library: CIL module
 0001:00067080       ?dtor$5@?0??compress_file@CompressFiles@@QEAAXAEBVUnicodeString@col@@AEBUFindData@@@Z@4HA 0000000061068080 f    CIL library: CIL module
 0001:00067090       ?dtor$0@?0??show_file_version_dialog@@YAXAEBVUnicodeString@col@@AEBUVersionData@@@Z@4HA 0000000061068090 f    CIL library: CIL module
 0001:000670a0       ?dtor$1@?0??show_file_version_dialog@@YAXAEBVUnicodeString@col@@AEBUVersionData@@@Z@4HA 00000000610680a0 f    CIL library: CIL module
 0001:000670b0       ?dtor$2@?0??show_file_version_dialog@@YAXAEBVUnicodeString@col@@AEBUVersionData@@@Z@4HA 00000000610680b0 f    CIL library: CIL module
 0001:000670c0       ?dtor$3@?0??show_file_version_dialog@@YAXAEBVUnicodeString@col@@AEBUVersionData@@@Z@4HA 00000000610680c0 f    CIL library: CIL module
 0001:000670f0       ?dtor$5@?0??show_file_version_dialog@@YAXAEBVUnicodeString@col@@AEBUVersionData@@@Z@4HA 00000000610680f0 f    CIL library: CIL module
 0001:00067100       ?dtor$6@?0??show_file_version_dialog@@YAXAEBVUnicodeString@col@@AEBUVersionData@@@Z@4HA 0000000061068100 f    CIL library: CIL module
 0001:00067110       ?dtor$7@?0??show_file_version_dialog@@YAXAEBVUnicodeString@col@@AEBUVersionData@@@Z@4HA 0000000061068110 f    CIL library: CIL module
 0001:00067120       ?dtor$8@?0??show_file_version_dialog@@YAXAEBVUnicodeString@col@@AEBUVersionData@@@Z@4HA 0000000061068120 f    CIL library: CIL module
 0001:00067130       ?dtor$20@?0??show_file_version_dialog@@YAXAEBVUnicodeString@col@@AEBUVersionData@@@Z@4HA 0000000061068130 f    CIL library: CIL module
 0001:00067140       ?dtor$21@?0??show_file_version_dialog@@YAXAEBVUnicodeString@col@@AEBUVersionData@@@Z@4HA 0000000061068140 f    CIL library: CIL module
 0001:00067150       ?dtor$22@?0??show_file_version_dialog@@YAXAEBVUnicodeString@col@@AEBUVersionData@@@Z@4HA 0000000061068150 f    CIL library: CIL module
 0001:00067160       ?dtor$23@?0??show_file_version_dialog@@YAXAEBVUnicodeString@col@@AEBUVersionData@@@Z@4HA 0000000061068160 f    CIL library: CIL module
 0001:00067170       ?dtor$24@?0??show_file_version_dialog@@YAXAEBVUnicodeString@col@@AEBUVersionData@@@Z@4HA 0000000061068170 f    CIL library: CIL module
 0001:00067180       ?dtor$9@?0??show_file_version_dialog@@YAXAEBVUnicodeString@col@@AEBUVersionData@@@Z@4HA 0000000061068180 f    CIL library: CIL module
 0001:00067190       ?dtor$10@?0??show_file_version_dialog@@YAXAEBVUnicodeString@col@@AEBUVersionData@@@Z@4HA 0000000061068190 f    CIL library: CIL module
 0001:000671a0       ?dtor$11@?0??show_file_version_dialog@@YAXAEBVUnicodeString@col@@AEBUVersionData@@@Z@4HA 00000000610681a0 f    CIL library: CIL module
 0001:000671b0       ?dtor$12@?0??show_file_version_dialog@@YAXAEBVUnicodeString@col@@AEBUVersionData@@@Z@4HA 00000000610681b0 f    CIL library: CIL module
 0001:000671c0       ?dtor$13@?0??show_file_version_dialog@@YAXAEBVUnicodeString@col@@AEBUVersionData@@@Z@4HA 00000000610681c0 f    CIL library: CIL module
 0001:000671d0       ?dtor$14@?0??show_file_version_dialog@@YAXAEBVUnicodeString@col@@AEBUVersionData@@@Z@4HA 00000000610681d0 f    CIL library: CIL module
 0001:000671e0       ?dtor$15@?0??show_file_version_dialog@@YAXAEBVUnicodeString@col@@AEBUVersionData@@@Z@4HA 00000000610681e0 f    CIL library: CIL module
 0001:000671f0       ?dtor$16@?0??show_file_version_dialog@@YAXAEBVUnicodeString@col@@AEBUVersionData@@@Z@4HA 00000000610681f0 f    CIL library: CIL module
 0001:00067200       ?dtor$17@?0??show_file_version_dialog@@YAXAEBVUnicodeString@col@@AEBUVersionData@@@Z@4HA 0000000061068200 f    CIL library: CIL module
 0001:00067210       ?dtor$18@?0??show_file_version_dialog@@YAXAEBVUnicodeString@col@@AEBUVersionData@@@Z@4HA 0000000061068210 f    CIL library: CIL module
 0001:00067220       ?dtor$10@?0??defragment@@YAXAEBV?$ObjectArray@VUnicodeString@col@@@col@@AEAULog@@@Z@4HA 0000000061068220 f    CIL library: CIL module
 0001:00067230       ?dtor$0@?0??defragment@@YAXAEBV?$ObjectArray@VUnicodeString@col@@@col@@AEAULog@@@Z@4HA 0000000061068230 f    CIL library: CIL module
 0001:00067240       ?catch$0@?0??defragment@@YAXAEBV?$ObjectArray@VUnicodeString@col@@@col@@AEAULog@@@Z@4HA 0000000061068240 f    CIL library: CIL module
 0001:00067252       __catch$?defragment@@YAXAEBV?$ObjectArray@VUnicodeString@col@@@col@@AEAULog@@@Z$0 0000000061068252 f    CIL library: CIL module
 0001:00067410       ?dtor$1@?0??defragment@@YAXAEBV?$ObjectArray@VUnicodeString@col@@@col@@AEAULog@@@Z@4HA 0000000061068410 f    CIL library: CIL module
 0001:00067420       ?dtor$2@?0??defragment@@YAXAEBV?$ObjectArray@VUnicodeString@col@@@col@@AEAULog@@@Z@4HA 0000000061068420 f    CIL library: CIL module
 0001:00067430       ?dtor$3@?0??defragment@@YAXAEBV?$ObjectArray@VUnicodeString@col@@@col@@AEAULog@@@Z@4HA 0000000061068430 f    CIL library: CIL module
 0001:00067440       ?dtor$4@?0??defragment@@YAXAEBV?$ObjectArray@VUnicodeString@col@@@col@@AEAULog@@@Z@4HA 0000000061068440 f    CIL library: CIL module
 0001:00067450       ?dtor$5@?0??defragment@@YAXAEBV?$ObjectArray@VUnicodeString@col@@@col@@AEAULog@@@Z@4HA 0000000061068450 f    CIL library: CIL module
 0001:00067460       ?dtor$6@?0??defragment@@YAXAEBV?$ObjectArray@VUnicodeString@col@@@col@@AEAULog@@@Z@4HA 0000000061068460 f    CIL library: CIL module
 0001:00067470       ?dtor$7@?0??defragment@@YAXAEBV?$ObjectArray@VUnicodeString@col@@@col@@AEAULog@@@Z@4HA 0000000061068470 f    CIL library: CIL module
 0001:00067480       ?dtor$8@?0??defragment@@YAXAEBV?$ObjectArray@VUnicodeString@col@@@col@@AEAULog@@@Z@4HA 0000000061068480 f    CIL library: CIL module
 0001:00067490       ?dtor$9@?0??defragment@@YAXAEBV?$ObjectArray@VUnicodeString@col@@@col@@AEAULog@@@Z@4HA 0000000061068490 f    CIL library: CIL module
 0001:000674a0       ?dtor$15@?0??defragment@@YAXAEBV?$ObjectArray@VUnicodeString@col@@@col@@AEAULog@@@Z@4HA 00000000610684a0 f    CIL library: CIL module
 0001:000674b0       ?dtor$0@?0??load_plugin_options@@YAXXZ@4HA 00000000610684b0 f    CIL library: CIL module
 0001:000674c0       ?dtor$1@?0??load_plugin_options@@YAXXZ@4HA 00000000610684c0 f    CIL library: CIL module
 0001:000674d0       ?dtor$0@?0??process_base_file_rec@FileInfo@@QEAAXXZ@4HA 00000000610684d0 f    CIL library: CIL module
 0001:000674e0       ?catch$0@?0??process_base_file_rec@FileInfo@@QEAAXXZ@4HA 00000000610684e0 f    CIL library: CIL module
 0001:000674ed       __catch$?process_base_file_rec@FileInfo@@QEAAXXZ$0 00000000610684ed f    CIL library: CIL module
 0001:00067510       ?catch$1@?0??process_base_file_rec@FileInfo@@QEAAXXZ@4HA 0000000061068510 f    CIL library: CIL module
 0001:0006751d       __catch$?process_base_file_rec@FileInfo@@QEAAXXZ$2 000000006106851d f    CIL library: CIL module
 0001:00067540       ?catch$2@?0??process_base_file_rec@FileInfo@@QEAAXXZ@4HA 0000000061068540 f    CIL library: CIL module
 0001:0006754d       __catch$?process_base_file_rec@FileInfo@@QEAAXXZ$4 000000006106854d f    CIL library: CIL module
 0001:00067570       ?catch$3@?0??process_base_file_rec@FileInfo@@QEAAXXZ@4HA 0000000061068570 f    CIL library: CIL module
 0001:0006757d       __catch$?process_base_file_rec@FileInfo@@QEAAXXZ$6 000000006106857d f    CIL library: CIL module
 0001:000675a0       ?catch$4@?0??process_base_file_rec@FileInfo@@QEAAXXZ@4HA 00000000610685a0 f    CIL library: CIL module
 0001:000675ad       __catch$?process_base_file_rec@FileInfo@@QEAAXXZ$8 00000000610685ad f    CIL library: CIL module
 0001:000675d0       ?dtor$1@?0??process_base_file_rec@FileInfo@@QEAAXXZ@4HA 00000000610685d0 f    CIL library: CIL module
 0001:000675e0       ?catch$5@?0??process_base_file_rec@FileInfo@@QEAAXXZ@4HA 00000000610685e0 f    CIL library: CIL module
 0001:000675ed       __catch$?process_base_file_rec@FileInfo@@QEAAXXZ$10 00000000610685ed f    CIL library: CIL module
 0001:00067610       ?catch$6@?0??process_base_file_rec@FileInfo@@QEAAXXZ@4HA 0000000061068610 f    CIL library: CIL module
 0001:0006761d       __catch$?process_base_file_rec@FileInfo@@QEAAXXZ$12 000000006106861d f    CIL library: CIL module
 0001:00067640       ?catch$7@?0??process_base_file_rec@FileInfo@@QEAAXXZ@4HA 0000000061068640 f    CIL library: CIL module
 0001:0006764d       __catch$?process_base_file_rec@FileInfo@@QEAAXXZ$14 000000006106864d f    CIL library: CIL module
 0001:00067670       ?catch$8@?0??process_base_file_rec@FileInfo@@QEAAXXZ@4HA 0000000061068670 f    CIL library: CIL module
 0001:0006767d       __catch$?process_base_file_rec@FileInfo@@QEAAXXZ$16 000000006106867d f    CIL library: CIL module
 0001:000676a0       ?dtor$2@?0??process_base_file_rec@FileInfo@@QEAAXXZ@4HA 00000000610686a0 f    CIL library: CIL module
 0001:000676b0       ?catch$9@?0??process_base_file_rec@FileInfo@@QEAAXXZ@4HA 00000000610686b0 f    CIL library: CIL module
 0001:000676bd       __catch$?process_base_file_rec@FileInfo@@QEAAXXZ$18 00000000610686bd f    CIL library: CIL module
 0001:000676e0       ?catch$10@?0??process_base_file_rec@FileInfo@@QEAAXXZ@4HA 00000000610686e0 f    CIL library: CIL module
 0001:000676ed       __catch$?process_base_file_rec@FileInfo@@QEAAXXZ$20 00000000610686ed f    CIL library: CIL module
 0001:00067710       ?catch$11@?0??process_base_file_rec@FileInfo@@QEAAXXZ@4HA 0000000061068710 f    CIL library: CIL module
 0001:0006771d       __catch$?process_base_file_rec@FileInfo@@QEAAXXZ$22 000000006106871d f    CIL library: CIL module
 0001:00067740       ?catch$12@?0??process_base_file_rec@FileInfo@@QEAAXXZ@4HA 0000000061068740 f    CIL library: CIL module
 0001:0006774d       __catch$?process_base_file_rec@FileInfo@@QEAAXXZ$24 000000006106874d f    CIL library: CIL module
 0001:00067770       ?catch$13@?0??process_base_file_rec@FileInfo@@QEAAXXZ@4HA 0000000061068770 f    CIL library: CIL module
 0001:0006777d       __catch$?process_base_file_rec@FileInfo@@QEAAXXZ$26 000000006106877d f    CIL library: CIL module
 0001:000677a0       ?catch$14@?0??process_base_file_rec@FileInfo@@QEAAXXZ@4HA 00000000610687a0 f    CIL library: CIL module
 0001:000677ad       __catch$?process_base_file_rec@FileInfo@@QEAAXXZ$28 00000000610687ad f    CIL library: CIL module
 0001:000677d0       ?catch$15@?0??process_base_file_rec@FileInfo@@QEAAXXZ@4HA 00000000610687d0 f    CIL library: CIL module
 0001:000677dd       __catch$?process_base_file_rec@FileInfo@@QEAAXXZ$30 00000000610687dd f    CIL library: CIL module
 0001:00067800       ?catch$16@?0??process_base_file_rec@FileInfo@@QEAAXXZ@4HA 0000000061068800 f    CIL library: CIL module
 0001:0006780d       __catch$?process_base_file_rec@FileInfo@@QEAAXXZ$32 000000006106880d f    CIL library: CIL module
 0001:00067830       ?catch$17@?0??process_base_file_rec@FileInfo@@QEAAXXZ@4HA 0000000061068830 f    CIL library: CIL module
 0001:0006783d       __catch$?process_base_file_rec@FileInfo@@QEAAXXZ$34 000000006106883d f    CIL library: CIL module
 0001:00067860       ?dtor$0@?0??show_result_dialog@@YAXAEBVUnicodeString@col@@AEBUContentOptions@@AEBUContentInfo@@@Z@4HA 0000000061068860 f    CIL library: CIL module
 0001:00067870       ?dtor$41@?0??show_result_dialog@@YAXAEBVUnicodeString@col@@AEBUContentOptions@@AEBUContentInfo@@@Z@4HA 0000000061068870 f    CIL library: CIL module
 0001:00067880       ?dtor$42@?0??show_result_dialog@@YAXAEBVUnicodeString@col@@AEBUContentOptions@@AEBUContentInfo@@@Z@4HA 0000000061068880 f    CIL library: CIL module
 0001:00067890       ?dtor$43@?0??show_result_dialog@@YAXAEBVUnicodeString@col@@AEBUContentOptions@@AEBUContentInfo@@@Z@4HA 0000000061068890 f    CIL library: CIL module
 0001:000678a0       ?dtor$44@?0??show_result_dialog@@YAXAEBVUnicodeString@col@@AEBUContentOptions@@AEBUContentInfo@@@Z@4HA 00000000610688a0 f    CIL library: CIL module
 0001:000678b0       ?dtor$45@?0??show_result_dialog@@YAXAEBVUnicodeString@col@@AEBUContentOptions@@AEBUContentInfo@@@Z@4HA 00000000610688b0 f    CIL library: CIL module
 0001:000678c0       ?dtor$1@?0??show_result_dialog@@YAXAEBVUnicodeString@col@@AEBUContentOptions@@AEBUContentInfo@@@Z@4HA 00000000610688c0 f    CIL library: CIL module
 0001:000678d0       ?dtor$2@?0??show_result_dialog@@YAXAEBVUnicodeString@col@@AEBUContentOptions@@AEBUContentInfo@@@Z@4HA 00000000610688d0 f    CIL library: CIL module
 0001:000678e0       ?dtor$3@?0??show_result_dialog@@YAXAEBVUnicodeString@col@@AEBUContentOptions@@AEBUContentInfo@@@Z@4HA 00000000610688e0 f    CIL library: CIL module
 0001:000678f0       ?dtor$4@?0??show_result_dialog@@YAXAEBVUnicodeString@col@@AEBUContentOptions@@AEBUContentInfo@@@Z@4HA 00000000610688f0 f    CIL library: CIL module
 0001:00067900       ?dtor$5@?0??show_result_dialog@@YAXAEBVUnicodeString@col@@AEBUContentOptions@@AEBUContentInfo@@@Z@4HA 0000000061068900 f    CIL library: CIL module
 0001:00067910       ?dtor$6@?0??show_result_dialog@@YAXAEBVUnicodeString@col@@AEBUContentOptions@@AEBUContentInfo@@@Z@4HA 0000000061068910 f    CIL library: CIL module
 0001:00067920       ?dtor$7@?0??show_result_dialog@@YAXAEBVUnicodeString@col@@AEBUContentOptions@@AEBUContentInfo@@@Z@4HA 0000000061068920 f    CIL library: CIL module
 0001:00067930       ?dtor$8@?0??show_result_dialog@@YAXAEBVUnicodeString@col@@AEBUContentOptions@@AEBUContentInfo@@@Z@4HA 0000000061068930 f    CIL library: CIL module
 0001:00067940       ?dtor$9@?0??show_result_dialog@@YAXAEBVUnicodeString@col@@AEBUContentOptions@@AEBUContentInfo@@@Z@4HA 0000000061068940 f    CIL library: CIL module
 0001:00067950       ?dtor$10@?0??show_result_dialog@@YAXAEBVUnicodeString@col@@AEBUContentOptions@@AEBUContentInfo@@@Z@4HA 0000000061068950 f    CIL library: CIL module
 0001:00067960       ?dtor$11@?0??show_result_dialog@@YAXAEBVUnicodeString@col@@AEBUContentOptions@@AEBUContentInfo@@@Z@4HA 0000000061068960 f    CIL library: CIL module
 0001:00067970       ?dtor$12@?0??show_result_dialog@@YAXAEBVUnicodeString@col@@AEBUContentOptions@@AEBUContentInfo@@@Z@4HA 0000000061068970 f    CIL library: CIL module
 0001:00067980       ?dtor$13@?0??show_result_dialog@@YAXAEBVUnicodeString@col@@AEBUContentOptions@@AEBUContentInfo@@@Z@4HA 0000000061068980 f    CIL library: CIL module
 0001:00067990       ?dtor$14@?0??show_result_dialog@@YAXAEBVUnicodeString@col@@AEBUContentOptions@@AEBUContentInfo@@@Z@4HA 0000000061068990 f    CIL library: CIL module
 0001:000679a0       ?dtor$15@?0??show_result_dialog@@YAXAEBVUnicodeString@col@@AEBUContentOptions@@AEBUContentInfo@@@Z@4HA 00000000610689a0 f    CIL library: CIL module
 0001:000679b0       ?dtor$16@?0??show_result_dialog@@YAXAEBVUnicodeString@col@@AEBUContentOptions@@AEBUContentInfo@@@Z@4HA 00000000610689b0 f    CIL library: CIL module
 0001:000679c0       ?dtor$17@?0??show_result_dialog@@YAXAEBVUnicodeString@col@@AEBUContentOptions@@AEBUContentInfo@@@Z@4HA 00000000610689c0 f    CIL library: CIL module
 0001:000679d0       ?dtor$18@?0??show_result_dialog@@YAXAEBVUnicodeString@col@@AEBUContentOptions@@AEBUContentInfo@@@Z@4HA 00000000610689d0 f    CIL library: CIL module
 0001:000679e0       ?dtor$20@?0??show_result_dialog@@YAXAEBVUnicodeString@col@@AEBUContentOptions@@AEBUContentInfo@@@Z@4HA 00000000610689e0 f    CIL library: CIL module
 0001:000679f0       ?dtor$21@?0??show_result_dialog@@YAXAEBVUnicodeString@col@@AEBUContentOptions@@AEBUContentInfo@@@Z@4HA 00000000610689f0 f    CIL library: CIL module
 0001:00067a00       ?dtor$22@?0??show_result_dialog@@YAXAEBVUnicodeString@col@@AEBUContentOptions@@AEBUContentInfo@@@Z@4HA 0000000061068a00 f    CIL library: CIL module
 0001:00067a10       ?dtor$23@?0??show_result_dialog@@YAXAEBVUnicodeString@col@@AEBUContentOptions@@AEBUContentInfo@@@Z@4HA 0000000061068a10 f    CIL library: CIL module
 0001:00067a20       ?dtor$24@?0??show_result_dialog@@YAXAEBVUnicodeString@col@@AEBUContentOptions@@AEBUContentInfo@@@Z@4HA 0000000061068a20 f    CIL library: CIL module
 0001:00067a30       ?dtor$25@?0??show_result_dialog@@YAXAEBVUnicodeString@col@@AEBUContentOptions@@AEBUContentInfo@@@Z@4HA 0000000061068a30 f    CIL library: CIL module
 0001:00067a40       ?dtor$26@?0??show_result_dialog@@YAXAEBVUnicodeString@col@@AEBUContentOptions@@AEBUContentInfo@@@Z@4HA 0000000061068a40 f    CIL library: CIL module
 0001:00067a50       ?dtor$27@?0??show_result_dialog@@YAXAEBVUnicodeString@col@@AEBUContentOptions@@AEBUContentInfo@@@Z@4HA 0000000061068a50 f    CIL library: CIL module
 0001:00067a60       ?dtor$28@?0??show_result_dialog@@YAXAEBVUnicodeString@col@@AEBUContentOptions@@AEBUContentInfo@@@Z@4HA 0000000061068a60 f    CIL library: CIL module
 0001:00067a70       ?dtor$29@?0??show_result_dialog@@YAXAEBVUnicodeString@col@@AEBUContentOptions@@AEBUContentInfo@@@Z@4HA 0000000061068a70 f    CIL library: CIL module
 0001:00067a80       ?dtor$30@?0??show_result_dialog@@YAXAEBVUnicodeString@col@@AEBUContentOptions@@AEBUContentInfo@@@Z@4HA 0000000061068a80 f    CIL library: CIL module
 0001:00067a90       ?dtor$31@?0??show_result_dialog@@YAXAEBVUnicodeString@col@@AEBUContentOptions@@AEBUContentInfo@@@Z@4HA 0000000061068a90 f    CIL library: CIL module
 0001:00067aa0       ?dtor$32@?0??show_result_dialog@@YAXAEBVUnicodeString@col@@AEBUContentOptions@@AEBUContentInfo@@@Z@4HA 0000000061068aa0 f    CIL library: CIL module
 0001:00067ab0       ?dtor$33@?0??show_result_dialog@@YAXAEBVUnicodeString@col@@AEBUContentOptions@@AEBUContentInfo@@@Z@4HA 0000000061068ab0 f    CIL library: CIL module
 0001:00067ac0       ?dtor$34@?0??show_result_dialog@@YAXAEBVUnicodeString@col@@AEBUContentOptions@@AEBUContentInfo@@@Z@4HA 0000000061068ac0 f    CIL library: CIL module
 0001:00067ad0       ?dtor$35@?0??show_result_dialog@@YAXAEBVUnicodeString@col@@AEBUContentOptions@@AEBUContentInfo@@@Z@4HA 0000000061068ad0 f    CIL library: CIL module
 0001:00067ae0       ?dtor$36@?0??show_result_dialog@@YAXAEBVUnicodeString@col@@AEBUContentOptions@@AEBUContentInfo@@@Z@4HA 0000000061068ae0 f    CIL library: CIL module
 0001:00067af0       ?dtor$37@?0??show_result_dialog@@YAXAEBVUnicodeString@col@@AEBUContentOptions@@AEBUContentInfo@@@Z@4HA 0000000061068af0 f    CIL library: CIL module
 0001:00067b00       ?dtor$38@?0??show_result_dialog@@YAXAEBVUnicodeString@col@@AEBUContentOptions@@AEBUContentInfo@@@Z@4HA 0000000061068b00 f    CIL library: CIL module
 0001:00067b10       ?dtor$39@?0??show_result_dialog@@YAXAEBVUnicodeString@col@@AEBUContentOptions@@AEBUContentInfo@@@Z@4HA 0000000061068b10 f    CIL library: CIL module
 0001:00067b20       ?dtor$40@?0??show_result_dialog@@YAXAEBVUnicodeString@col@@AEBUContentOptions@@AEBUContentInfo@@@Z@4HA 0000000061068b20 f    CIL library: CIL module
 0001:00067b50       ?dtor$1@?0??plugin_process_contents@@YAXAEBV?$ObjectArray@VUnicodeString@col@@@col@@@Z@4HA 0000000061068b50 f    CIL library: CIL module
 0001:00067b60       ?dtor$2@?0??plugin_process_contents@@YAXAEBV?$ObjectArray@VUnicodeString@col@@@col@@@Z@4HA 0000000061068b60 f    CIL library: CIL module
 0001:00067b70       ?dtor$3@?0??plugin_process_contents@@YAXAEBV?$ObjectArray@VUnicodeString@col@@@col@@@Z@4HA 0000000061068b70 f    CIL library: CIL module
 0001:00067b80       ?dtor$4@?0??plugin_process_contents@@YAXAEBV?$ObjectArray@VUnicodeString@col@@@col@@@Z@4HA 0000000061068b80 f    CIL library: CIL module
 0001:00067b90       ?dtor$5@?0??plugin_process_contents@@YAXAEBV?$ObjectArray@VUnicodeString@col@@@col@@@Z@4HA 0000000061068b90 f    CIL library: CIL module
 0001:00067ba0       ?dtor$6@?0??plugin_process_contents@@YAXAEBV?$ObjectArray@VUnicodeString@col@@@col@@@Z@4HA 0000000061068ba0 f    CIL library: CIL module
 0001:00067bb0       ?dtor$0@?0??plugin_process_contents@@YAXAEBV?$ObjectArray@VUnicodeString@col@@@col@@@Z@4HA 0000000061068bb0 f    CIL library: CIL module
 0001:00067bc0       ?dtor$0@?0??get_device_path@@YA_NAEBV?$basic_string@_WU?$char_traits@_W@std@@V?$allocator@_W@2@@std@@AEAV12@@Z@4HA 0000000061068bc0 f    CIL library: CIL module
 0001:00067bd0       ?dtor$1@?0??get_device_path@@YA_NAEBV?$basic_string@_WU?$char_traits@_W@std@@V?$allocator@_W@2@@std@@AEAV12@@Z@4HA 0000000061068bd0 f    CIL library: CIL module
 0001:00067c00       ?dtor$2@?0??get_device_path@@YA_NAEBV?$basic_string@_WU?$char_traits@_W@std@@V?$allocator@_W@2@@std@@AEAV12@@Z@4HA 0000000061068c00 f    CIL library: CIL module
 0001:00067c10       ?dtor$3@?0??get_device_path@@YA_NAEBV?$basic_string@_WU?$char_traits@_W@std@@V?$allocator@_W@2@@std@@AEAV12@@Z@4HA 0000000061068c10 f    CIL library: CIL module
 0001:00067c20       ?dtor$0@?0??show_compress_files_dialog@@YA_NAEAUCompressFilesParams@@@Z@4HA 0000000061068c20 f    CIL library: CIL module
 0001:00067c30       ?dtor$0@?0??compress_directory@CompressFiles@@QEAAXAEBVUnicodeString@col@@@Z@4HA 0000000061068c30 f    CIL library: CIL module
 0001:00067c40       ?dtor$1@?0??compress_directory@CompressFiles@@QEAAXAEBVUnicodeString@col@@@Z@4HA 0000000061068c40 f    CIL library: CIL module
 0001:00067c50       ?catch$0@?0??compress_directory@CompressFiles@@QEAAXAEBVUnicodeString@col@@@Z@4HA 0000000061068c50 f    CIL library: CIL module
 0001:00067c5e       __catch$?compress_directory@CompressFiles@@QEAAXAEBVUnicodeString@col@@@Z$0 0000000061068c5e f    CIL library: CIL module
 0001:00067cb0       ?dtor$2@?0??compress_directory@CompressFiles@@QEAAXAEBVUnicodeString@col@@@Z@4HA 0000000061068cb0 f    CIL library: CIL module
 0001:00067cc0       ?dtor$3@?0??compress_directory@CompressFiles@@QEAAXAEBVUnicodeString@col@@@Z@4HA 0000000061068cc0 f    CIL library: CIL module
 0001:00067cd0       ?dtor$0@?0??plugin_show_file_version@@YAXAEBVUnicodeString@col@@@Z@4HA 0000000061068cd0 f    CIL library: CIL module
 0001:00067ce0       ?dtor$1@?0??plugin_show_file_version@@YAXAEBVUnicodeString@col@@@Z@4HA 0000000061068ce0 f    CIL library: CIL module
 0001:00067cf0       ?dtor$2@?0??plugin_show_file_version@@YAXAEBVUnicodeString@col@@@Z@4HA 0000000061068cf0 f    CIL library: CIL module
 0001:00067d00       ?dtor$3@?0??plugin_show_file_version@@YAXAEBVUnicodeString@col@@@Z@4HA 0000000061068d00 f    CIL library: CIL module
 0001:00067d10       ?dtor$4@?0??plugin_show_file_version@@YAXAEBVUnicodeString@col@@@Z@4HA 0000000061068d10 f    CIL library: CIL module
 0001:00067d20       ?dtor$5@?0??plugin_show_file_version@@YAXAEBVUnicodeString@col@@@Z@4HA 0000000061068d20 f    CIL library: CIL module
 0001:00067d30       ?dtor$6@?0??plugin_show_file_version@@YAXAEBVUnicodeString@col@@@Z@4HA 0000000061068d30 f    CIL library: CIL module
 0001:00067d40       ?dtor$7@?0??plugin_show_file_version@@YAXAEBVUnicodeString@col@@@Z@4HA 0000000061068d40 f    CIL library: CIL module
 0001:00067d50       ?dtor$8@?0??plugin_show_file_version@@YAXAEBVUnicodeString@col@@@Z@4HA 0000000061068d50 f    CIL library: CIL module
 0001:00067d60       ?dtor$0@?0??update_mft_index_from_usn@FilePanel@@AEAAXXZ@4HA 0000000061068d60 f    CIL library: CIL module
 0001:00067d70       ?dtor$1@?0??update_mft_index_from_usn@FilePanel@@AEAAXXZ@4HA 0000000061068d70 f    CIL library: CIL module
 0001:00067d80       ?dtor$2@?0??update_mft_index_from_usn@FilePanel@@AEAAXXZ@4HA 0000000061068d80 f    CIL library: CIL module
 0001:00067d90       ?catch$0@?0??update_mft_index_from_usn@FilePanel@@AEAAXXZ@4HA 0000000061068d90 f    CIL library: CIL module
 0001:00067d9d       __catch$?update_mft_index_from_usn@FilePanel@@AEAAXXZ$0 0000000061068d9d f    CIL library: CIL module
 0001:00067dc0       ?dtor$10@?0??update_mft_index_from_usn@FilePanel@@AEAAXXZ@4HA 0000000061068dc0 f    CIL library: CIL module
 0001:00067dd0       ?dtor$12@?0??update_mft_index_from_usn@FilePanel@@AEAAXXZ@4HA 0000000061068dd0 f    CIL library: CIL module
 0001:00067de0       ?dtor$3@?0??update_mft_index_from_usn@FilePanel@@AEAAXXZ@4HA 0000000061068de0 f    CIL library: CIL module
 0001:00067df0       ?dtor$14@?0??update_mft_index_from_usn@FilePanel@@AEAAXXZ@4HA 0000000061068df0 f    CIL library: CIL module
 0001:00067e00       ?dtor$15@?0??update_mft_index_from_usn@FilePanel@@AEAAXXZ@4HA 0000000061068e00 f    CIL library: CIL module
 0001:00067e10       ?dtor$16@?0??update_mft_index_from_usn@FilePanel@@AEAAXXZ@4HA 0000000061068e10 f    CIL library: CIL module
 0001:00067e20       ?dtor$17@?0??update_mft_index_from_usn@FilePanel@@AEAAXXZ@4HA 0000000061068e20 f    CIL library: CIL module
 0001:00067e30       ?dtor$4@?0??update_mft_index_from_usn@FilePanel@@AEAAXXZ@4HA 0000000061068e30 f    CIL library: CIL module
 0001:00067e40       ?catch$1@?0??update_mft_index_from_usn@FilePanel@@AEAAXXZ@4HA 0000000061068e40 f    CIL library: CIL module
 0001:00067e4d       __catch$?update_mft_index_from_usn@FilePanel@@AEAAXXZ$2 0000000061068e4d f    CIL library: CIL module
 0001:00067e70       ?dtor$20@?0??update_mft_index_from_usn@FilePanel@@AEAAXXZ@4HA 0000000061068e70 f    CIL library: CIL module
 0001:00067e80       ?dtor$22@?0??update_mft_index_from_usn@FilePanel@@AEAAXXZ@4HA 0000000061068e80 f    CIL library: CIL module
 0001:00067e90       ?dtor$0@?0??create_mft_index@FilePanel@@AEAAXXZ@4HA 0000000061068e90 f    CIL library: CIL module
 0001:00067ea0       ?dtor$5@?0??create_mft_index@FilePanel@@AEAAXXZ@4HA 0000000061068ea0 f    CIL library: CIL module
 0001:00067eb0       ?dtor$6@?0??create_mft_index@FilePanel@@AEAAXXZ@4HA 0000000061068eb0 f    CIL library: CIL module
 0001:00067ec0       ?dtor$7@?0??create_mft_index@FilePanel@@AEAAXXZ@4HA 0000000061068ec0 f    CIL library: CIL module
 0001:00067ed0       ?dtor$8@?0??create_mft_index@FilePanel@@AEAAXXZ@4HA 0000000061068ed0 f    CIL library: CIL module
 0001:00067ee0       ?dtor$1@?0??create_mft_index@FilePanel@@AEAAXXZ@4HA 0000000061068ee0 f    CIL library: CIL module
 0001:00067ef0       ?dtor$2@?0??create_mft_index@FilePanel@@AEAAXXZ@4HA 0000000061068ef0 f    CIL library: CIL module
 0001:00067f00       ?catch$0@?0??create_mft_index@FilePanel@@AEAAXXZ@4HA 0000000061068f00 f    CIL library: CIL module
 0001:00067f0d       __catch$?create_mft_index@FilePanel@@AEAAXXZ$0 0000000061068f0d f    CIL library: CIL module
 0001:00067f30       ?dtor$12@?0??create_mft_index@FilePanel@@AEAAXXZ@4HA 0000000061068f30 f    CIL library: CIL module
 0001:00067f40       ?dtor$0@?0??find_full_paths@FileInfo@@QEAAXXZ@4HA 0000000061068f40 f    CIL library: CIL module
 0001:00067f50       ?dtor$1@?0??find_full_paths@FileInfo@@QEAAXXZ@4HA 0000000061068f50 f    CIL library: CIL module
 0001:00067f60       ?dtor$5@?0??find_full_paths@FileInfo@@QEAAXXZ@4HA 0000000061068f60 f    CIL library: CIL module
 0001:00067f70       ?dtor$6@?0??find_full_paths@FileInfo@@QEAAXXZ@4HA 0000000061068f70 f    CIL library: CIL module
 0001:00067f80       ?dtor$7@?0??find_full_paths@FileInfo@@QEAAXXZ@4HA 0000000061068f80 f    CIL library: CIL module
 0001:00067f90       ?dtor$8@?0??find_full_paths@FileInfo@@QEAAXXZ@4HA 0000000061068f90 f    CIL library: CIL module
 0001:00067fa0       ?dtor$2@?0??find_full_paths@FileInfo@@QEAAXXZ@4HA 0000000061068fa0 f    CIL library: CIL module
 0001:00067fb0       ?catch$1@?0??find_full_paths@FileInfo@@QEAAXXZ@4HA 0000000061068fb0 f    CIL library: CIL module
 0001:00067fbd       __catch$?find_full_paths@FileInfo@@QEAAXXZ$0 0000000061068fbd f    CIL library: CIL module
 0001:00067fe0       ?catch$0@?0??find_full_paths@FileInfo@@QEAAXXZ@4HA 0000000061068fe0 f    CIL library: CIL module
 0001:00067fed       __catch$?find_full_paths@FileInfo@@QEAAXXZ$2 0000000061068fed f    CIL library: CIL module
 0001:00068010       ?dtor$3@?0??find_full_paths@FileInfo@@QEAAXXZ@4HA 0000000061069010 f    CIL library: CIL module
 0001:00068020       ?dtor$4@?0??find_full_paths@FileInfo@@QEAAXXZ@4HA 0000000061069020 f    CIL library: CIL module
 0001:00068030       ?dtor$0@?0??scan_dir@FilePanel@@AEAAXAEBVUnicodeString@col@@0AEAV?$list@UPanelItemData@FilePanel@@V?$allocator@UPanelItemData@FilePanel@@@std@@@std@@AEAVFileListProgress@@@Z@4HA 0000000061069030 f    CIL library: CIL module
 0001:00068040       ?dtor$1@?0??scan_dir@FilePanel@@AEAAXAEBVUnicodeString@col@@0AEAV?$list@UPanelItemData@FilePanel@@V?$allocator@UPanelItemData@FilePanel@@@std@@@std@@AEAVFileListProgress@@@Z@4HA 0000000061069040 f    CIL library: CIL module
 0001:00068050       ?dtor$2@?0??scan_dir@FilePanel@@AEAAXAEBVUnicodeString@col@@0AEAV?$list@UPanelItemData@FilePanel@@V?$allocator@UPanelItemData@FilePanel@@@std@@@std@@AEAVFileListProgress@@@Z@4HA 0000000061069050 f    CIL library: CIL module
 0001:00068060       ?dtor$3@?0??scan_dir@FilePanel@@AEAAXAEBVUnicodeString@col@@0AEAV?$list@UPanelItemData@FilePanel@@V?$allocator@UPanelItemData@FilePanel@@@std@@@std@@AEAVFileListProgress@@@Z@4HA 0000000061069060 f    CIL library: CIL module
 0001:00068070       ?catch$0@?0??scan_dir@FilePanel@@AEAAXAEBVUnicodeString@col@@0AEAV?$list@UPanelItemData@FilePanel@@V?$allocator@UPanelItemData@FilePanel@@@std@@@std@@AEAVFileListProgress@@@Z@4HA 0000000061069070 f    CIL library: CIL module
 0001:0006807d       __catch$?scan_dir@FilePanel@@AEAAXAEBVUnicodeString@col@@0AEAV?$list@UPanelItemData@FilePanel@@V?$allocator@UPanelItemData@FilePanel@@@std@@@std@@AEAVFileListProgress@@@Z$0 000000006106907d f    CIL library: CIL module
 0001:000680a0       ?dtor$6@?0??scan_dir@FilePanel@@AEAAXAEBVUnicodeString@col@@0AEAV?$list@UPanelItemData@FilePanel@@V?$allocator@UPanelItemData@FilePanel@@@std@@@std@@AEAVFileListProgress@@@Z@4HA 00000000610690a0 f    CIL library: CIL module
 0001:000680b0       ?dtor$7@?0??scan_dir@FilePanel@@AEAAXAEBVUnicodeString@col@@0AEAV?$list@UPanelItemData@FilePanel@@V?$allocator@UPanelItemData@FilePanel@@@std@@@std@@AEAVFileListProgress@@@Z@4HA 00000000610690b0 f    CIL library: CIL module
 0001:000680c0       ?dtor$8@?0??scan_dir@FilePanel@@AEAAXAEBVUnicodeString@col@@0AEAV?$list@UPanelItemData@FilePanel@@V?$allocator@UPanelItemData@FilePanel@@@std@@@std@@AEAVFileListProgress@@@Z@4HA 00000000610690c0 f    CIL library: CIL module
 0001:000680d0       ?catch$1@?0??scan_dir@FilePanel@@AEAAXAEBVUnicodeString@col@@0AEAV?$list@UPanelItemData@FilePanel@@V?$allocator@UPanelItemData@FilePanel@@@std@@@std@@AEAVFileListProgress@@@Z@4HA 00000000610690d0 f    CIL library: CIL module
 0001:000680dd       __catch$?scan_dir@FilePanel@@AEAAXAEBVUnicodeString@col@@0AEAV?$list@UPanelItemData@FilePanel@@V?$allocator@UPanelItemData@FilePanel@@@std@@@std@@AEAVFileListProgress@@@Z$2 00000000610690dd f    CIL library: CIL module
 0001:00068100       ?catch$2@?0??scan_dir@FilePanel@@AEAAXAEBVUnicodeString@col@@0AEAV?$list@UPanelItemData@FilePanel@@V?$allocator@UPanelItemData@FilePanel@@@std@@@std@@AEAVFileListProgress@@@Z@4HA 0000000061069100 f    CIL library: CIL module
 0001:0006810d       __catch$?scan_dir@FilePanel@@AEAAXAEBVUnicodeString@col@@0AEAV?$list@UPanelItemData@FilePanel@@V?$allocator@UPanelItemData@FilePanel@@@std@@@std@@AEAVFileListProgress@@@Z$4 000000006106910d f    CIL library: CIL module
 0001:00068130       ?catch$3@?0??scan_dir@FilePanel@@AEAAXAEBVUnicodeString@col@@0AEAV?$list@UPanelItemData@FilePanel@@V?$allocator@UPanelItemData@FilePanel@@@std@@@std@@AEAVFileListProgress@@@Z@4HA 0000000061069130 f    CIL library: CIL module
 0001:0006813d       __catch$?scan_dir@FilePanel@@AEAAXAEBVUnicodeString@col@@0AEAV?$list@UPanelItemData@FilePanel@@V?$allocator@UPanelItemData@FilePanel@@@std@@@std@@AEAVFileListProgress@@@Z$6 000000006106913d f    CIL library: CIL module
 0001:00068170       ?dtor$10@?0??scan_dir@FilePanel@@AEAAXAEBVUnicodeString@col@@0AEAV?$list@UPanelItemData@FilePanel@@V?$allocator@UPanelItemData@FilePanel@@@std@@@std@@AEAVFileListProgress@@@Z@4HA 0000000061069170 f    CIL library: CIL module
 0001:00068180       ?dtor$11@?0??scan_dir@FilePanel@@AEAAXAEBVUnicodeString@col@@0AEAV?$list@UPanelItemData@FilePanel@@V?$allocator@UPanelItemData@FilePanel@@@std@@@std@@AEAVFileListProgress@@@Z@4HA 0000000061069180 f    CIL library: CIL module
 0001:00068190       ?dtor$12@?0??scan_dir@FilePanel@@AEAAXAEBVUnicodeString@col@@0AEAV?$list@UPanelItemData@FilePanel@@V?$allocator@UPanelItemData@FilePanel@@@std@@@std@@AEAVFileListProgress@@@Z@4HA 0000000061069190 f    CIL library: CIL module
 0001:000681a0       ?dtor$13@?0??scan_dir@FilePanel@@AEAAXAEBVUnicodeString@col@@0AEAV?$list@UPanelItemData@FilePanel@@V?$allocator@UPanelItemData@FilePanel@@@std@@@std@@AEAVFileListProgress@@@Z@4HA 00000000610691a0 f    CIL library: CIL module
 0001:000681b0       ?dtor$14@?0??scan_dir@FilePanel@@AEAAXAEBVUnicodeString@col@@0AEAV?$list@UPanelItemData@FilePanel@@V?$allocator@UPanelItemData@FilePanel@@@std@@@std@@AEAVFileListProgress@@@Z@4HA 00000000610691b0 f    CIL library: CIL module
 0001:000681e0       ?dtor$16@?0??scan_dir@FilePanel@@AEAAXAEBVUnicodeString@col@@0AEAV?$list@UPanelItemData@FilePanel@@V?$allocator@UPanelItemData@FilePanel@@@std@@@std@@AEAVFileListProgress@@@Z@4HA 00000000610691e0 f    CIL library: CIL module
 0001:000681f0       ?dtor$29@?0??scan_dir@FilePanel@@AEAAXAEBVUnicodeString@col@@0AEAV?$list@UPanelItemData@FilePanel@@V?$allocator@UPanelItemData@FilePanel@@@std@@@std@@AEAVFileListProgress@@@Z@4HA 00000000610691f0 f    CIL library: CIL module
 0001:00068200       ?dtor$30@?0??scan_dir@FilePanel@@AEAAXAEBVUnicodeString@col@@0AEAV?$list@UPanelItemData@FilePanel@@V?$allocator@UPanelItemData@FilePanel@@@std@@@std@@AEAVFileListProgress@@@Z@4HA 0000000061069200 f    CIL library: CIL module
 0001:00068210       ?dtor$31@?0??scan_dir@FilePanel@@AEAAXAEBVUnicodeString@col@@0AEAV?$list@UPanelItemData@FilePanel@@V?$allocator@UPanelItemData@FilePanel@@@std@@@std@@AEAVFileListProgress@@@Z@4HA 0000000061069210 f    CIL library: CIL module
 0001:00068220       ?dtor$32@?0??scan_dir@FilePanel@@AEAAXAEBVUnicodeString@col@@0AEAV?$list@UPanelItemData@FilePanel@@V?$allocator@UPanelItemData@FilePanel@@@std@@@std@@AEAVFileListProgress@@@Z@4HA 0000000061069220 f    CIL library: CIL module
 0001:00068230       ?dtor$17@?0??scan_dir@FilePanel@@AEAAXAEBVUnicodeString@col@@0AEAV?$list@UPanelItemData@FilePanel@@V?$allocator@UPanelItemData@FilePanel@@@std@@@std@@AEAVFileListProgress@@@Z@4HA 0000000061069230 f    CIL library: CIL module
 0001:00068240       ?catch$4@?0??scan_dir@FilePanel@@AEAAXAEBVUnicodeString@col@@0AEAV?$list@UPanelItemData@FilePanel@@V?$allocator@UPanelItemData@FilePanel@@@std@@@std@@AEAVFileListProgress@@@Z@4HA 0000000061069240 f    CIL library: CIL module
 0001:0006824d       __catch$?scan_dir@FilePanel@@AEAAXAEBVUnicodeString@col@@0AEAV?$list@UPanelItemData@FilePanel@@V?$allocator@UPanelItemData@FilePanel@@@std@@@std@@AEAVFileListProgress@@@Z$8 000000006106924d f    CIL library: CIL module
 0001:00068270       ?catch$5@?0??scan_dir@FilePanel@@AEAAXAEBVUnicodeString@col@@0AEAV?$list@UPanelItemData@FilePanel@@V?$allocator@UPanelItemData@FilePanel@@@std@@@std@@AEAVFileListProgress@@@Z@4HA 0000000061069270 f    CIL library: CIL module
 0001:0006827d       __catch$?scan_dir@FilePanel@@AEAAXAEBVUnicodeString@col@@0AEAV?$list@UPanelItemData@FilePanel@@V?$allocator@UPanelItemData@FilePanel@@@std@@@std@@AEAVFileListProgress@@@Z$10 000000006106927d f    CIL library: CIL module
 0001:000682a0       ?catch$6@?0??scan_dir@FilePanel@@AEAAXAEBVUnicodeString@col@@0AEAV?$list@UPanelItemData@FilePanel@@V?$allocator@UPanelItemData@FilePanel@@@std@@@std@@AEAVFileListProgress@@@Z@4HA 00000000610692a0 f    CIL library: CIL module
 0001:000682ad       __catch$?scan_dir@FilePanel@@AEAAXAEBVUnicodeString@col@@0AEAV?$list@UPanelItemData@FilePanel@@V?$allocator@UPanelItemData@FilePanel@@@std@@@std@@AEAVFileListProgress@@@Z$12 00000000610692ad f    CIL library: CIL module
 0001:000682d0       ?catch$7@?0??scan_dir@FilePanel@@AEAAXAEBVUnicodeString@col@@0AEAV?$list@UPanelItemData@FilePanel@@V?$allocator@UPanelItemData@FilePanel@@@std@@@std@@AEAVFileListProgress@@@Z@4HA 00000000610692d0 f    CIL library: CIL module
 0001:000682dd       __catch$?scan_dir@FilePanel@@AEAAXAEBVUnicodeString@col@@0AEAV?$list@UPanelItemData@FilePanel@@V?$allocator@UPanelItemData@FilePanel@@@std@@@std@@AEAVFileListProgress@@@Z$14 00000000610692dd f    CIL library: CIL module
 0001:000682f0       ?dtor$34@?0??scan_dir@FilePanel@@AEAAXAEBVUnicodeString@col@@0AEAV?$list@UPanelItemData@FilePanel@@V?$allocator@UPanelItemData@FilePanel@@@std@@@std@@AEAVFileListProgress@@@Z@4HA 00000000610692f0 f    CIL library: CIL module
 0001:00068300       ?dtor$19@?0??scan_dir@FilePanel@@AEAAXAEBVUnicodeString@col@@0AEAV?$list@UPanelItemData@FilePanel@@V?$allocator@UPanelItemData@FilePanel@@@std@@@std@@AEAVFileListProgress@@@Z@4HA 0000000061069300 f    CIL library: CIL module
 0001:00068310       ?dtor$20@?0??scan_dir@FilePanel@@AEAAXAEBVUnicodeString@col@@0AEAV?$list@UPanelItemData@FilePanel@@V?$allocator@UPanelItemData@FilePanel@@@std@@@std@@AEAVFileListProgress@@@Z@4HA 0000000061069310 f    CIL library: CIL module
 0001:00068340       ?dtor$21@?0??scan_dir@FilePanel@@AEAAXAEBVUnicodeString@col@@0AEAV?$list@UPanelItemData@FilePanel@@V?$allocator@UPanelItemData@FilePanel@@@std@@@std@@AEAVFileListProgress@@@Z@4HA 0000000061069340 f    CIL library: CIL module
 0001:00068370       ?dtor$22@?0??scan_dir@FilePanel@@AEAAXAEBVUnicodeString@col@@0AEAV?$list@UPanelItemData@FilePanel@@V?$allocator@UPanelItemData@FilePanel@@@std@@@std@@AEAVFileListProgress@@@Z@4HA 0000000061069370 f    CIL library: CIL module
 0001:00068380       ?dtor$23@?0??scan_dir@FilePanel@@AEAAXAEBVUnicodeString@col@@0AEAV?$list@UPanelItemData@FilePanel@@V?$allocator@UPanelItemData@FilePanel@@@std@@@std@@AEAVFileListProgress@@@Z@4HA 0000000061069380 f    CIL library: CIL module
 0001:00068390       ?dtor$24@?0??scan_dir@FilePanel@@AEAAXAEBVUnicodeString@col@@0AEAV?$list@UPanelItemData@FilePanel@@V?$allocator@UPanelItemData@FilePanel@@@std@@@std@@AEAVFileListProgress@@@Z@4HA 0000000061069390 f    CIL library: CIL module
 0001:000683a0       ?dtor$25@?0??scan_dir@FilePanel@@AEAAXAEBVUnicodeString@col@@0AEAV?$list@UPanelItemData@FilePanel@@V?$allocator@UPanelItemData@FilePanel@@@std@@@std@@AEAVFileListProgress@@@Z@4HA 00000000610693a0 f    CIL library: CIL module
 0001:000683b0       ?dtor$26@?0??scan_dir@FilePanel@@AEAAXAEBVUnicodeString@col@@0AEAV?$list@UPanelItemData@FilePanel@@V?$allocator@UPanelItemData@FilePanel@@@std@@@std@@AEAVFileListProgress@@@Z@4HA 00000000610693b0 f    CIL library: CIL module
 0001:000683c0       ?dtor$27@?0??scan_dir@FilePanel@@AEAAXAEBVUnicodeString@col@@0AEAV?$list@UPanelItemData@FilePanel@@V?$allocator@UPanelItemData@FilePanel@@@std@@@std@@AEAVFileListProgress@@@Z@4HA 00000000610693c0 f    CIL library: CIL module
 0001:000683d0       ?dtor$36@?0??scan_dir@FilePanel@@AEAAXAEBVUnicodeString@col@@0AEAV?$list@UPanelItemData@FilePanel@@V?$allocator@UPanelItemData@FilePanel@@@std@@@std@@AEAVFileListProgress@@@Z@4HA 00000000610693d0 f    CIL library: CIL module
 0001:000683e0       ?dtor$28@?0??scan_dir@FilePanel@@AEAAXAEBVUnicodeString@col@@0AEAV?$list@UPanelItemData@FilePanel@@V?$allocator@UPanelItemData@FilePanel@@@std@@@std@@AEAVFileListProgress@@@Z@4HA 00000000610693e0 f    CIL library: CIL module
 0001:000683f0       ?catch$8@?0??scan_dir@FilePanel@@AEAAXAEBVUnicodeString@col@@0AEAV?$list@UPanelItemData@FilePanel@@V?$allocator@UPanelItemData@FilePanel@@@std@@@std@@AEAVFileListProgress@@@Z@4HA 00000000610693f0 f    CIL library: CIL module
 0001:000683fd       __catch$?scan_dir@FilePanel@@AEAAXAEBVUnicodeString@col@@0AEAV?$list@UPanelItemData@FilePanel@@V?$allocator@UPanelItemData@FilePanel@@@std@@@std@@AEAVFileListProgress@@@Z$16 00000000610693fd f    CIL library: CIL module
 0001:00068420       ?catch$9@?0??scan_dir@FilePanel@@AEAAXAEBVUnicodeString@col@@0AEAV?$list@UPanelItemData@FilePanel@@V?$allocator@UPanelItemData@FilePanel@@@std@@@std@@AEAVFileListProgress@@@Z@4HA 0000000061069420 f    CIL library: CIL module
 0001:0006842d       __catch$?scan_dir@FilePanel@@AEAAXAEBVUnicodeString@col@@0AEAV?$list@UPanelItemData@FilePanel@@V?$allocator@UPanelItemData@FilePanel@@@std@@@std@@AEAVFileListProgress@@@Z$18 000000006106942d f    CIL library: CIL module
 0001:00068450       ?catch$0@?0??process_file@FileAnalyzer@@QEAAXAEAVFileInfo@@_N@Z@4HA 0000000061069450 f    CIL library: CIL module
 0001:0006845d       __catch$?process_file@FileAnalyzer@@QEAAXAEAVFileInfo@@_N@Z$0 000000006106945d f    CIL library: CIL module
 0001:00068480       ?catch$1@?0??process_file@FileAnalyzer@@QEAAXAEAVFileInfo@@_N@Z@4HA 0000000061069480 f    CIL library: CIL module
 0001:0006848d       __catch$?process_file@FileAnalyzer@@QEAAXAEAVFileInfo@@_N@Z$2 000000006106948d f    CIL library: CIL module
 0001:000684b0       ?catch$2@?0??process_file@FileAnalyzer@@QEAAXAEAVFileInfo@@_N@Z@4HA 00000000610694b0 f    CIL library: CIL module
 0001:000684bd       __catch$?process_file@FileAnalyzer@@QEAAXAEAVFileInfo@@_N@Z$4 00000000610694bd f    CIL library: CIL module
 0001:000684e0       ?dtor$1@?0??process_file@FileAnalyzer@@QEAAXAEAVFileInfo@@_N@Z@4HA 00000000610694e0 f    CIL library: CIL module
 0001:000684f0       ?dtor$2@?0??process_file@FileAnalyzer@@QEAAXAEAVFileInfo@@_N@Z@4HA 00000000610694f0 f    CIL library: CIL module
 0001:00068500       ?dtor$3@?0??process_file@FileAnalyzer@@QEAAXAEAVFileInfo@@_N@Z@4HA 0000000061069500 f    CIL library: CIL module
 0001:00068510       ?dtor$0@?0??enum_volumes@@YA?AV?$list@UVolumeItem@@V?$allocator@UVolumeItem@@@std@@@std@@XZ@4HA 0000000061069510 f    CIL library: CIL module
 0001:00068540       ?dtor$1@?0??enum_volumes@@YA?AV?$list@UVolumeItem@@V?$allocator@UVolumeItem@@@std@@@std@@XZ@4HA 0000000061069540 f    CIL library: CIL module
 0001:00068550       ?dtor$2@?0??enum_volumes@@YA?AV?$list@UVolumeItem@@V?$allocator@UVolumeItem@@@std@@@std@@XZ@4HA 0000000061069550 f    CIL library: CIL module
 0001:00068560       ?dtor$3@?0??enum_volumes@@YA?AV?$list@UVolumeItem@@V?$allocator@UVolumeItem@@@std@@@std@@XZ@4HA 0000000061069560 f    CIL library: CIL module
 0001:00068570       ?dtor$4@?0??enum_volumes@@YA?AV?$list@UVolumeItem@@V?$allocator@UVolumeItem@@@std@@@std@@XZ@4HA 0000000061069570 f    CIL library: CIL module
 0001:00068580       ?dtor$13@?0??enum_volumes@@YA?AV?$list@UVolumeItem@@V?$allocator@UVolumeItem@@@std@@@std@@XZ@4HA 0000000061069580 f    CIL library: CIL module
 0001:00068590       ?dtor$5@?0??enum_volumes@@YA?AV?$list@UVolumeItem@@V?$allocator@UVolumeItem@@@std@@@std@@XZ@4HA 0000000061069590 f    CIL library: CIL module
 0001:000685a0       ?dtor$16@?0??enum_volumes@@YA?AV?$list@UVolumeItem@@V?$allocator@UVolumeItem@@@std@@@std@@XZ@4HA 00000000610695a0 f    CIL library: CIL module
 0001:000685b0       ?dtor$17@?0??enum_volumes@@YA?AV?$list@UVolumeItem@@V?$allocator@UVolumeItem@@@std@@@std@@XZ@4HA 00000000610695b0 f    CIL library: CIL module
 0001:000685c0       ?dtor$18@?0??enum_volumes@@YA?AV?$list@UVolumeItem@@V?$allocator@UVolumeItem@@@std@@@std@@XZ@4HA 00000000610695c0 f    CIL library: CIL module
 0001:000685d0       ?dtor$6@?0??enum_volumes@@YA?AV?$list@UVolumeItem@@V?$allocator@UVolumeItem@@@std@@@std@@XZ@4HA 00000000610695d0 f    CIL library: CIL module
 0001:000685e0       ?dtor$7@?0??enum_volumes@@YA?AV?$list@UVolumeItem@@V?$allocator@UVolumeItem@@@std@@@std@@XZ@4HA 00000000610695e0 f    CIL library: CIL module
 0001:000685f0       ?dtor$8@?0??enum_volumes@@YA?AV?$list@UVolumeItem@@V?$allocator@UVolumeItem@@@std@@@std@@XZ@4HA 00000000610695f0 f    CIL library: CIL module
 0001:00068600       ?dtor$22@?0??enum_volumes@@YA?AV?$list@UVolumeItem@@V?$allocator@UVolumeItem@@@std@@@std@@XZ@4HA 0000000061069600 f    CIL library: CIL module
 0001:00068610       ?catch$0@?0??process@CompressFiles@@QEAAXAEBV?$ObjectArray@VUnicodeString@col@@@col@@@Z@4HA 0000000061069610 f    CIL library: CIL module
 0001:0006861d       __catch$?process@CompressFiles@@QEAAXAEBV?$ObjectArray@VUnicodeString@col@@@col@@@Z$0 000000006106961d f    CIL library: CIL module
 0001:00068630       ?dtor$0@?0??process@CompressFiles@@QEAAXAEBV?$ObjectArray@VUnicodeString@col@@@col@@@Z@4HA 0000000061069630 f    CIL library: CIL module
 0001:00068640       ?catch$1@?0??process@CompressFiles@@QEAAXAEBV?$ObjectArray@VUnicodeString@col@@@col@@@Z@4HA 0000000061069640 f    CIL library: CIL module
 0001:0006864e       __catch$?process@CompressFiles@@QEAAXAEBV?$ObjectArray@VUnicodeString@col@@@col@@@Z$2 000000006106964e f    CIL library: CIL module
 0001:000686a0       ?dtor$1@?0??process@CompressFiles@@QEAAXAEBV?$ObjectArray@VUnicodeString@col@@@col@@@Z@4HA 00000000610696a0 f    CIL library: CIL module
 0001:000686b0       ?dtor$2@?0??process@CompressFiles@@QEAAXAEBV?$ObjectArray@VUnicodeString@col@@@col@@@Z@4HA 00000000610696b0 f    CIL library: CIL module
 0001:000686c0       ?dtor$0@?0??open_volume@FilePanel@@AEAAXAEBVUnicodeString@col@@@Z@4HA 00000000610696c0 f    CIL library: CIL module
 0001:000686d0       ?catch$0@?0??open_volume@FilePanel@@AEAAXAEBVUnicodeString@col@@@Z@4HA 00000000610696d0 f    CIL library: CIL module
 0001:000686dd       __catch$?open_volume@FilePanel@@AEAAXAEBVUnicodeString@col@@@Z$0 00000000610696dd f    CIL library: CIL module
 0001:00068700       ?dtor$0@?0??change_directory@FilePanel@@QEAAXAEBVUnicodeString@col@@_N@Z@4HA 0000000061069700 f    CIL library: CIL module
 0001:00068710       ?dtor$5@?0??change_directory@FilePanel@@QEAAXAEBVUnicodeString@col@@_N@Z@4HA 0000000061069710 f    CIL library: CIL module
 0001:00068720       ?catch$0@?0??change_directory@FilePanel@@QEAAXAEBVUnicodeString@col@@_N@Z@4HA 0000000061069720 f    CIL library: CIL module
 0001:0006872d       __catch$?change_directory@FilePanel@@QEAAXAEBVUnicodeString@col@@_N@Z$0 000000006106972d f    CIL library: CIL module
 0001:00068750       ?dtor$8@?0??change_directory@FilePanel@@QEAAXAEBVUnicodeString@col@@_N@Z@4HA 0000000061069750 f    CIL library: CIL module
 0001:00068760       ?dtor$9@?0??change_directory@FilePanel@@QEAAXAEBVUnicodeString@col@@_N@Z@4HA 0000000061069760 f    CIL library: CIL module
 0001:00068770       ?catch$1@?0??change_directory@FilePanel@@QEAAXAEBVUnicodeString@col@@_N@Z@4HA 0000000061069770 f    CIL library: CIL module
 0001:0006877d       __catch$?change_directory@FilePanel@@QEAAXAEBVUnicodeString@col@@_N@Z$2 000000006106977d f    CIL library: CIL module
 0001:000687a0       ?dtor$11@?0??change_directory@FilePanel@@QEAAXAEBVUnicodeString@col@@_N@Z@4HA 00000000610697a0 f    CIL library: CIL module
 0001:000687b0       ?dtor$12@?0??change_directory@FilePanel@@QEAAXAEBVUnicodeString@col@@_N@Z@4HA 00000000610697b0 f    CIL library: CIL module
 0001:000687c0       ProcessPanelInputW$catch$3 00000000610697c0 f    CIL library: CIL module
 0001:000687cd       __catch$ProcessPanelInputW$0 00000000610697cd f    CIL library: CIL module
 0001:000687e0       ProcessPanelInputW$catch$2 00000000610697e0 f    CIL library: CIL module
 0001:000687ed       __catch$ProcessPanelInputW$1 00000000610697ed f    CIL library: CIL module
 0001:00068810       ProcessPanelInputW$catch$1 0000000061069810 f    CIL library: CIL module
 0001:0006881d       __catch$ProcessPanelInputW$2 000000006106981d f    CIL library: CIL module
 0001:00068840       ProcessPanelInputW$catch$0 0000000061069840 f    CIL library: CIL module
 0001:0006884e       __catch$ProcessPanelInputW$3 000000006106984e f    CIL library: CIL module
 0001:000688d0       ProcessPanelInputW$dtor$0  00000000610698d0 f    CIL library: CIL module
 0001:000688e0       SetDirectoryW$dtor$0       00000000610698e0 f    CIL library: CIL module
 0001:000688f0       SetDirectoryW$catch$1      00000000610698f0 f    CIL library: CIL module
 0001:000688fd       __catch$SetDirectoryW$0    00000000610698fd f    CIL library: CIL module
 0001:00068930       SetDirectoryW$catch$0      0000000061069930 f    CIL library: CIL module
 0001:0006893d       __catch$SetDirectoryW$1    000000006106993d f    CIL library: CIL module
 0001:00068960       SetDirectoryW$catch$2      0000000061069960 f    CIL library: CIL module
 0001:0006896d       __catch$SetDirectoryW$4    000000006106996d f    CIL library: CIL module
 0001:00068980       SetDirectoryW$catch$3      0000000061069980 f    CIL library: CIL module
 0001:0006898d       __catch$SetDirectoryW$5    000000006106998d f    CIL library: CIL module
 0001:000689b0       SetDirectoryW$catch$4      00000000610699b0 f    CIL library: CIL module
 0001:000689bd       __catch$SetDirectoryW$6    00000000610699bd f    CIL library: CIL module
 0001:000689e0       SetDirectoryW$catch$5      00000000610699e0 f    CIL library: CIL module
 0001:000689ee       __catch$SetDirectoryW$7    00000000610699ee f    CIL library: CIL module
 0001:00068a70       SetDirectoryW$dtor$1       0000000061069a70 f    CIL library: CIL module
 0001:00068a80       ?dtor$0@?0??process_recursive@FileAnalyzer@@QEAAXAEBVUnicodeString@col@@@Z@4HA 0000000061069a80 f    CIL library: CIL module
 0001:00068a90       ?catch$0@?0??process_recursive@FileAnalyzer@@QEAAXAEBVUnicodeString@col@@@Z@4HA 0000000061069a90 f    CIL library: CIL module
 0001:00068a9d       __catch$?process_recursive@FileAnalyzer@@QEAAXAEBVUnicodeString@col@@@Z$0 0000000061069a9d f    CIL library: CIL module
 0001:00068ac0       ?catch$1@?0??process_recursive@FileAnalyzer@@QEAAXAEBVUnicodeString@col@@@Z@4HA 0000000061069ac0 f    CIL library: CIL module
 0001:00068acd       __catch$?process_recursive@FileAnalyzer@@QEAAXAEBVUnicodeString@col@@@Z$2 0000000061069acd f    CIL library: CIL module
 0001:00068af0       ?dtor$5@?0??process_recursive@FileAnalyzer@@QEAAXAEBVUnicodeString@col@@@Z@4HA 0000000061069af0 f    CIL library: CIL module
 0001:00068b00       ?dtor$6@?0??process_recursive@FileAnalyzer@@QEAAXAEBVUnicodeString@col@@@Z@4HA 0000000061069b00 f    CIL library: CIL module
 0001:00068b10       ?dtor$7@?0??process_recursive@FileAnalyzer@@QEAAXAEBVUnicodeString@col@@@Z@4HA 0000000061069b10 f    CIL library: CIL module
 0001:00068b20       ?dtor$8@?0??process_recursive@FileAnalyzer@@QEAAXAEBVUnicodeString@col@@@Z@4HA 0000000061069b20 f    CIL library: CIL module
 0001:00068b30       ?dtor$2@?0??process_recursive@FileAnalyzer@@QEAAXAEBVUnicodeString@col@@@Z@4HA 0000000061069b30 f    CIL library: CIL module
 0001:00068b40       ?dtor$3@?0??process_recursive@FileAnalyzer@@QEAAXAEBVUnicodeString@col@@@Z@4HA 0000000061069b40 f    CIL library: CIL module
 0001:00068b50       ?catch$2@?0??process_recursive@FileAnalyzer@@QEAAXAEBVUnicodeString@col@@@Z@4HA 0000000061069b50 f    CIL library: CIL module
 0001:00068b5d       __catch$?process_recursive@FileAnalyzer@@QEAAXAEBVUnicodeString@col@@@Z$4 0000000061069b5d f    CIL library: CIL module
 0001:00068b80       ?catch$3@?0??process_recursive@FileAnalyzer@@QEAAXAEBVUnicodeString@col@@@Z@4HA 0000000061069b80 f    CIL library: CIL module
 0001:00068b8d       __catch$?process_recursive@FileAnalyzer@@QEAAXAEBVUnicodeString@col@@@Z$6 0000000061069b8d f    CIL library: CIL module
 0001:00068bb0       ?catch$4@?0??process_recursive@FileAnalyzer@@QEAAXAEBVUnicodeString@col@@@Z@4HA 0000000061069bb0 f    CIL library: CIL module
 0001:00068bbd       __catch$?process_recursive@FileAnalyzer@@QEAAXAEBVUnicodeString@col@@@Z$8 0000000061069bbd f    CIL library: CIL module
 0001:00068be0       ?dtor$0@?0??create_volume_items@FilePanel@@AEAA?AUPluginItemList@@XZ@4HA 0000000061069be0 f    CIL library: CIL module
 0001:00068bf0       ?dtor$7@?0??create_volume_items@FilePanel@@AEAA?AUPluginItemList@@XZ@4HA 0000000061069bf0 f    CIL library: CIL module
 0001:00068c00       ?dtor$8@?0??create_volume_items@FilePanel@@AEAA?AUPluginItemList@@XZ@4HA 0000000061069c00 f    CIL library: CIL module
 0001:00068c10       ?dtor$9@?0??create_volume_items@FilePanel@@AEAA?AUPluginItemList@@XZ@4HA 0000000061069c10 f    CIL library: CIL module
 0001:00068c20       ?dtor$1@?0??create_volume_items@FilePanel@@AEAA?AUPluginItemList@@XZ@4HA 0000000061069c20 f    CIL library: CIL module
 0001:00068c50       ?dtor$2@?0??create_volume_items@FilePanel@@AEAA?AUPluginItemList@@XZ@4HA 0000000061069c50 f    CIL library: CIL module
 0001:00068c60       ?dtor$3@?0??create_volume_items@FilePanel@@AEAA?AUPluginItemList@@XZ@4HA 0000000061069c60 f    CIL library: CIL module
 0001:00068c70       ?dtor$4@?0??create_volume_items@FilePanel@@AEAA?AUPluginItemList@@XZ@4HA 0000000061069c70 f    CIL library: CIL module
 0001:00068c80       ?dtor$5@?0??create_volume_items@FilePanel@@AEAA?AUPluginItemList@@XZ@4HA 0000000061069c80 f    CIL library: CIL module
 0001:00068c90       ?dtor$6@?0??create_volume_items@FilePanel@@AEAA?AUPluginItemList@@XZ@4HA 0000000061069c90 f    CIL library: CIL module
 0001:00068ca0       ?catch$0@?0??toggle_mft_mode@FilePanel@@QEAAXXZ@4HA 0000000061069ca0 f    CIL library: CIL module
 0001:00068cad       __catch$?toggle_mft_mode@FilePanel@@QEAAXXZ$0 0000000061069cad f    CIL library: CIL module
 0001:00068cc0       ?dtor$2@?0??toggle_mft_mode@FilePanel@@QEAAXXZ@4HA 0000000061069cc0 f    CIL library: CIL module
 0001:00068cd0       ?dtor$3@?0??toggle_mft_mode@FilePanel@@QEAAXXZ@4HA 0000000061069cd0 f    CIL library: CIL module
 0001:00068ce0       ?dtor$0@?0??new_file_list@FilePanel@@QEAAXAEAPEAUPluginPanelItem@@AEA_K_N@Z@4HA 0000000061069ce0 f    CIL library: CIL module
 0001:00068cf0       ?dtor$1@?0??new_file_list@FilePanel@@QEAAXAEAPEAUPluginPanelItem@@AEA_K_N@Z@4HA 0000000061069cf0 f    CIL library: CIL module
 0001:00068d00       ?dtor$2@?0??new_file_list@FilePanel@@QEAAXAEAPEAUPluginPanelItem@@AEA_K_N@Z@4HA 0000000061069d00 f    CIL library: CIL module
 0001:00068d10       ?catch$0@?0??new_file_list@FilePanel@@QEAAXAEAPEAUPluginPanelItem@@AEA_K_N@Z@4HA 0000000061069d10 f    CIL library: CIL module
 0001:00068d1d       __catch$?new_file_list@FilePanel@@QEAAXAEAPEAUPluginPanelItem@@AEA_K_N@Z$0 0000000061069d1d f    CIL library: CIL module
 0001:00068d40       ?dtor$3@?0??new_file_list@FilePanel@@QEAAXAEAPEAUPluginPanelItem@@AEA_K_N@Z@4HA 0000000061069d40 f    CIL library: CIL module
 0001:00068d50       ?dtor$4@?0??new_file_list@FilePanel@@QEAAXAEAPEAUPluginPanelItem@@AEA_K_N@Z@4HA 0000000061069d50 f    CIL library: CIL module
 0001:00068d60       ?dtor$5@?0??new_file_list@FilePanel@@QEAAXAEAPEAUPluginPanelItem@@AEA_K_N@Z@4HA 0000000061069d60 f    CIL library: CIL module
 0001:00068d70       ?dtor$10@?0??new_file_list@FilePanel@@QEAAXAEAPEAUPluginPanelItem@@AEA_K_N@Z@4HA 0000000061069d70 f    CIL library: CIL module
 0001:00068d80       ?dtor$0@?0??open@FilePanel@@SAPEAV1@XZ@4HA 0000000061069d80 f    CIL library: CIL module
 0001:00068d90       ?catch$0@?0??open@FilePanel@@SAPEAV1@XZ@4HA 0000000061069d90 f    CIL library: CIL module
 0001:00068d9e       __catch$?open@FilePanel@@SAPEAV1@XZ$0 0000000061069d9e f    CIL library: CIL module
 0001:00068dd0       ConfigureW$dtor$0          0000000061069dd0 f    CIL library: CIL module
 0001:00068de0       ConfigureW$dtor$3          0000000061069de0 f    CIL library: CIL module
 0001:00068df0       ConfigureW$dtor$5          0000000061069df0 f    CIL library: CIL module
 0001:00068e00       ConfigureW$dtor$6          0000000061069e00 f    CIL library: CIL module
 0001:00068e10       ConfigureW$dtor$7          0000000061069e10 f    CIL library: CIL module
 0001:00068e20       ConfigureW$dtor$8          0000000061069e20 f    CIL library: CIL module
 0001:00068e30       ConfigureW$dtor$9          0000000061069e30 f    CIL library: CIL module
 0001:00068e40       ConfigureW$dtor$2          0000000061069e40 f    CIL library: CIL module
 0001:00068e50       ConfigureW$catch$0         0000000061069e50 f    CIL library: CIL module
 0001:00068e5d       __catch$ConfigureW$0       0000000061069e5d f    CIL library: CIL module
 0001:00068e70       ConfigureW$catch$1         0000000061069e70 f    CIL library: CIL module
 0001:00068e7d       __catch$ConfigureW$1       0000000061069e7d f    CIL library: CIL module
 0001:00068ea0       ConfigureW$catch$2         0000000061069ea0 f    CIL library: CIL module
 0001:00068ead       __catch$ConfigureW$2       0000000061069ead f    CIL library: CIL module
 0001:00068ed0       ConfigureW$catch$3         0000000061069ed0 f    CIL library: CIL module
 0001:00068ede       __catch$ConfigureW$3       0000000061069ede f    CIL library: CIL module
 0001:00068f60       ConfigureW$dtor$1          0000000061069f60 f    CIL library: CIL module
 0001:00068f70       GetFindDataW$catch$1       0000000061069f70 f    CIL library: CIL module
 0001:00068f7d       __catch$GetFindDataW$0     0000000061069f7d f    CIL library: CIL module
 0001:00068fb0       GetFindDataW$catch$0       0000000061069fb0 f    CIL library: CIL module
 0001:00068fbd       __catch$GetFindDataW$1     0000000061069fbd f    CIL library: CIL module
 0001:00068fe0       GetFindDataW$catch$2       0000000061069fe0 f    CIL library: CIL module
 0001:00068fed       __catch$GetFindDataW$4     0000000061069fed f    CIL library: CIL module
 0001:00069000       GetFindDataW$catch$3       000000006106a000 f    CIL library: CIL module
 0001:0006900d       __catch$GetFindDataW$5     000000006106a00d f    CIL library: CIL module
 0001:00069030       GetFindDataW$catch$4       000000006106a030 f    CIL library: CIL module
 0001:0006903d       __catch$GetFindDataW$6     000000006106a03d f    CIL library: CIL module
 0001:00069060       GetFindDataW$catch$5       000000006106a060 f    CIL library: CIL module
 0001:0006906e       __catch$GetFindDataW$7     000000006106a06e f    CIL library: CIL module
 0001:000690f0       GetFindDataW$dtor$0        000000006106a0f0 f    CIL library: CIL module
 0001:00069100       ?dtor$1@?0??process@FileAnalyzer@@QEAAXXZ@4HA 000000006106a100 f    CIL library: CIL module
 0001:00069110       ?dtor$2@?0??process@FileAnalyzer@@QEAAXXZ@4HA 000000006106a110 f    CIL library: CIL module
 0001:00069120       ?dtor$3@?0??process@FileAnalyzer@@QEAAXXZ@4HA 000000006106a120 f    CIL library: CIL module
 0001:00069130       ?dtor$4@?0??process@FileAnalyzer@@QEAAXXZ@4HA 000000006106a130 f    CIL library: CIL module
 0001:00069140       ?dtor$0@?0??process@FileAnalyzer@@QEAAXXZ@4HA 000000006106a140 f    CIL library: CIL module
 0001:00069150       ?catch$0@?0??process@FileAnalyzer@@QEAAXXZ@4HA 000000006106a150 f    CIL library: CIL module
 0001:0006915d       __catch$?process@FileAnalyzer@@QEAAXXZ$0 000000006106a15d f    CIL library: CIL module
 0001:00069180       ?catch$0@?0??th_proc@FileAnalyzer@@SAIPEAX@Z@4HA 000000006106a180 f    CIL library: CIL module
 0001:0006918d       __catch$?th_proc@FileAnalyzer@@SAIPEAX@Z$0 000000006106a18d f    CIL library: CIL module
 0001:000691b0       ?catch$0@?0??dialog_handler@FileAnalyzer@@QEAA_J_J0PEAX@Z@4HA 000000006106a1b0 f    CIL library: CIL module
 0001:000691bd       __catch$?dialog_handler@FileAnalyzer@@QEAA_J_J0PEAX@Z$0 000000006106a1bd f    CIL library: CIL module
 0001:000691d0       ?catch$1@?0??dialog_handler@FileAnalyzer@@QEAA_J_J0PEAX@Z@4HA 000000006106a1d0 f    CIL library: CIL module
 0001:000691dd       __catch$?dialog_handler@FileAnalyzer@@QEAA_J_J0PEAX@Z$2 000000006106a1dd f    CIL library: CIL module
 0001:00069200       ?catch$2@?0??dialog_handler@FileAnalyzer@@QEAA_J_J0PEAX@Z@4HA 000000006106a200 f    CIL library: CIL module
 0001:0006920d       __catch$?dialog_handler@FileAnalyzer@@QEAA_J_J0PEAX@Z$4 000000006106a20d f    CIL library: CIL module
 0001:00069230       ?catch$3@?0??dialog_handler@FileAnalyzer@@QEAA_J_J0PEAX@Z@4HA 000000006106a230 f    CIL library: CIL module
 0001:0006923d       __catch$?dialog_handler@FileAnalyzer@@QEAA_J_J0PEAX@Z$6 000000006106a23d f    CIL library: CIL module
 0001:00069250       ?dtor$0@?0??dialog_handler@FileAnalyzer@@QEAA_J_J0PEAX@Z@4HA 000000006106a250 f    CIL library: CIL module
 0001:00069260       ?catch$4@?0??dialog_handler@FileAnalyzer@@QEAA_J_J0PEAX@Z@4HA 000000006106a260 f    CIL library: CIL module
 0001:0006926d       __catch$?dialog_handler@FileAnalyzer@@QEAA_J_J0PEAX@Z$8 000000006106a26d f    CIL library: CIL module
 0001:00069280       ?catch$5@?0??dialog_handler@FileAnalyzer@@QEAA_J_J0PEAX@Z@4HA 000000006106a280 f    CIL library: CIL module
 0001:0006928d       __catch$?dialog_handler@FileAnalyzer@@QEAA_J_J0PEAX@Z$10 000000006106a28d f    CIL library: CIL module
 0001:000692a0       ?catch$0@?0??dlg_proc@FileAnalyzer@@SA_JPEAX_J10@Z@4HA 000000006106a2a0 f    CIL library: CIL module
 0001:000692ad       __catch$?dlg_proc@FileAnalyzer@@SA_JPEAX_J10@Z$0 000000006106a2ad f    CIL library: CIL module
 0001:000692c0       ?catch$1@?0??dlg_proc@FileAnalyzer@@SA_JPEAX_J10@Z@4HA 000000006106a2c0 f    CIL library: CIL module
 0001:000692cd       __catch$?dlg_proc@FileAnalyzer@@SA_JPEAX_J10@Z$1 000000006106a2cd f    CIL library: CIL module
 0001:000692f0       ?catch$2@?0??dlg_proc@FileAnalyzer@@SA_JPEAX_J10@Z@4HA 000000006106a2f0 f    CIL library: CIL module
 0001:000692fd       __catch$?dlg_proc@FileAnalyzer@@SA_JPEAX_J10@Z$2 000000006106a2fd f    CIL library: CIL module
 0001:00069320       ?catch$3@?0??dlg_proc@FileAnalyzer@@SA_JPEAX_J10@Z@4HA 000000006106a320 f    CIL library: CIL module
 0001:0006932e       __catch$?dlg_proc@FileAnalyzer@@SA_JPEAX_J10@Z$3 000000006106a32e f    CIL library: CIL module
 0001:000693b0       ?dtor$0@?0??dlg_proc@FileAnalyzer@@SA_JPEAX_J10@Z@4HA 000000006106a3b0 f    CIL library: CIL module
 0001:000693c0       ?dtor$0@?0??display_file_info@FileAnalyzer@@QEAAX_N@Z@4HA 000000006106a3c0 f    CIL library: CIL module
 0001:000693d0       ?catch$0@?0??display_file_info@FileAnalyzer@@QEAAX_N@Z@4HA 000000006106a3d0 f    CIL library: CIL module
 0001:000693e0       __catch$?display_file_info@FileAnalyzer@@QEAAX_N@Z$0 000000006106a3e0 f    CIL library: CIL module
 0001:00069410       ?dtor$5@?0??display_file_info@FileAnalyzer@@QEAAX_N@Z@4HA 000000006106a410 f    CIL library: CIL module
 0001:00069420       ?dtor$6@?0??display_file_info@FileAnalyzer@@QEAAX_N@Z@4HA 000000006106a420 f    CIL library: CIL module
 0001:00069430       ?dtor$7@?0??display_file_info@FileAnalyzer@@QEAAX_N@Z@4HA 000000006106a430 f    CIL library: CIL module
 0001:00069440       ?catch$1@?0??display_file_info@FileAnalyzer@@QEAAX_N@Z@4HA 000000006106a440 f    CIL library: CIL module
 0001:00069450       __catch$?display_file_info@FileAnalyzer@@QEAAX_N@Z$2 000000006106a450 f    CIL library: CIL module
 0001:00069480       ?dtor$8@?0??display_file_info@FileAnalyzer@@QEAAX_N@Z@4HA 000000006106a480 f    CIL library: CIL module
 0001:00069490       ?dtor$21@?0??display_file_info@FileAnalyzer@@QEAAX_N@Z@4HA 000000006106a490 f    CIL library: CIL module
 0001:000694a0       ?dtor$22@?0??display_file_info@FileAnalyzer@@QEAAX_N@Z@4HA 000000006106a4a0 f    CIL library: CIL module
 0001:000694b0       ?dtor$23@?0??display_file_info@FileAnalyzer@@QEAAX_N@Z@4HA 000000006106a4b0 f    CIL library: CIL module
 0001:000694c0       ?dtor$25@?0??display_file_info@FileAnalyzer@@QEAAX_N@Z@4HA 000000006106a4c0 f    CIL library: CIL module
 0001:000694d0       ?dtor$26@?0??display_file_info@FileAnalyzer@@QEAAX_N@Z@4HA 000000006106a4d0 f    CIL library: CIL module
 0001:000694e0       ?dtor$27@?0??display_file_info@FileAnalyzer@@QEAAX_N@Z@4HA 000000006106a4e0 f    CIL library: CIL module
 0001:000694f0       ?dtor$33@?0??display_file_info@FileAnalyzer@@QEAAX_N@Z@4HA 000000006106a4f0 f    CIL library: CIL module
 0001:00069500       ?dtor$34@?0??display_file_info@FileAnalyzer@@QEAAX_N@Z@4HA 000000006106a500 f    CIL library: CIL module
 0001:00069510       ?dtor$35@?0??display_file_info@FileAnalyzer@@QEAAX_N@Z@4HA 000000006106a510 f    CIL library: CIL module
 0001:00069520       ?dtor$37@?0??display_file_info@FileAnalyzer@@QEAAX_N@Z@4HA 000000006106a520 f    CIL library: CIL module
 0001:00069530       ?dtor$38@?0??display_file_info@FileAnalyzer@@QEAAX_N@Z@4HA 000000006106a530 f    CIL library: CIL module
 0001:00069540       ?dtor$39@?0??display_file_info@FileAnalyzer@@QEAAX_N@Z@4HA 000000006106a540 f    CIL library: CIL module
 0001:00069550       ?dtor$45@?0??display_file_info@FileAnalyzer@@QEAAX_N@Z@4HA 000000006106a550 f    CIL library: CIL module
 0001:00069560       ?dtor$46@?0??display_file_info@FileAnalyzer@@QEAAX_N@Z@4HA 000000006106a560 f    CIL library: CIL module
 0001:00069570       ?dtor$47@?0??display_file_info@FileAnalyzer@@QEAAX_N@Z@4HA 000000006106a570 f    CIL library: CIL module
 0001:00069580       ?dtor$49@?0??display_file_info@FileAnalyzer@@QEAAX_N@Z@4HA 000000006106a580 f    CIL library: CIL module
 0001:00069590       ?dtor$50@?0??display_file_info@FileAnalyzer@@QEAAX_N@Z@4HA 000000006106a590 f    CIL library: CIL module
 0001:000695a0       ?dtor$51@?0??display_file_info@FileAnalyzer@@QEAAX_N@Z@4HA 000000006106a5a0 f    CIL library: CIL module
 0001:000695b0       ?dtor$58@?0??display_file_info@FileAnalyzer@@QEAAX_N@Z@4HA 000000006106a5b0 f    CIL library: CIL module
 0001:000695c0       ?dtor$59@?0??display_file_info@FileAnalyzer@@QEAAX_N@Z@4HA 000000006106a5c0 f    CIL library: CIL module
 0001:000695d0       ?dtor$60@?0??display_file_info@FileAnalyzer@@QEAAX_N@Z@4HA 000000006106a5d0 f    CIL library: CIL module
 0001:000695e0       ?dtor$62@?0??display_file_info@FileAnalyzer@@QEAAX_N@Z@4HA 000000006106a5e0 f    CIL library: CIL module
 0001:000695f0       ?dtor$64@?0??display_file_info@FileAnalyzer@@QEAAX_N@Z@4HA 000000006106a5f0 f    CIL library: CIL module
 0001:00069600       ?dtor$65@?0??display_file_info@FileAnalyzer@@QEAAX_N@Z@4HA 000000006106a600 f    CIL library: CIL module
 0001:00069610       ?dtor$67@?0??display_file_info@FileAnalyzer@@QEAAX_N@Z@4HA 000000006106a610 f    CIL library: CIL module
 0001:00069620       ?dtor$68@?0??display_file_info@FileAnalyzer@@QEAAX_N@Z@4HA 000000006106a620 f    CIL library: CIL module
 0001:00069630       ?dtor$69@?0??display_file_info@FileAnalyzer@@QEAAX_N@Z@4HA 000000006106a630 f    CIL library: CIL module
 0001:00069640       ?dtor$70@?0??display_file_info@FileAnalyzer@@QEAAX_N@Z@4HA 000000006106a640 f    CIL library: CIL module
 0001:00069650       ?dtor$71@?0??display_file_info@FileAnalyzer@@QEAAX_N@Z@4HA 000000006106a650 f    CIL library: CIL module
 0001:00069660       ?dtor$73@?0??display_file_info@FileAnalyzer@@QEAAX_N@Z@4HA 000000006106a660 f    CIL library: CIL module
 0001:00069670       ?dtor$74@?0??display_file_info@FileAnalyzer@@QEAAX_N@Z@4HA 000000006106a670 f    CIL library: CIL module
 0001:00069680       ?dtor$75@?0??display_file_info@FileAnalyzer@@QEAAX_N@Z@4HA 000000006106a680 f    CIL library: CIL module
 0001:00069690       ?dtor$76@?0??display_file_info@FileAnalyzer@@QEAAX_N@Z@4HA 000000006106a690 f    CIL library: CIL module
 0001:000696a0       ?dtor$77@?0??display_file_info@FileAnalyzer@@QEAAX_N@Z@4HA 000000006106a6a0 f    CIL library: CIL module
 0001:000696b0       ?dtor$78@?0??display_file_info@FileAnalyzer@@QEAAX_N@Z@4HA 000000006106a6b0 f    CIL library: CIL module
 0001:000696c0       ?dtor$79@?0??display_file_info@FileAnalyzer@@QEAAX_N@Z@4HA 000000006106a6c0 f    CIL library: CIL module
 0001:000696d0       ?dtor$80@?0??display_file_info@FileAnalyzer@@QEAAX_N@Z@4HA 000000006106a6d0 f    CIL library: CIL module
 0001:000696e0       ?dtor$82@?0??display_file_info@FileAnalyzer@@QEAAX_N@Z@4HA 000000006106a6e0 f    CIL library: CIL module
 0001:000696f0       ?dtor$83@?0??display_file_info@FileAnalyzer@@QEAAX_N@Z@4HA 000000006106a6f0 f    CIL library: CIL module
 0001:00069700       ?dtor$84@?0??display_file_info@FileAnalyzer@@QEAAX_N@Z@4HA 000000006106a700 f    CIL library: CIL module
 0001:00069710       ?dtor$85@?0??display_file_info@FileAnalyzer@@QEAAX_N@Z@4HA 000000006106a710 f    CIL library: CIL module
 0001:00069720       ?dtor$86@?0??display_file_info@FileAnalyzer@@QEAAX_N@Z@4HA 000000006106a720 f    CIL library: CIL module
 0001:00069730       ?dtor$87@?0??display_file_info@FileAnalyzer@@QEAAX_N@Z@4HA 000000006106a730 f    CIL library: CIL module
 0001:00069740       ?dtor$88@?0??display_file_info@FileAnalyzer@@QEAAX_N@Z@4HA 000000006106a740 f    CIL library: CIL module
 0001:00069750       ?dtor$89@?0??display_file_info@FileAnalyzer@@QEAAX_N@Z@4HA 000000006106a750 f    CIL library: CIL module
 0001:00069760       ?dtor$90@?0??display_file_info@FileAnalyzer@@QEAAX_N@Z@4HA 000000006106a760 f    CIL library: CIL module
 0001:00069770       ?dtor$91@?0??display_file_info@FileAnalyzer@@QEAAX_N@Z@4HA 000000006106a770 f    CIL library: CIL module
 0001:00069780       ?dtor$92@?0??display_file_info@FileAnalyzer@@QEAAX_N@Z@4HA 000000006106a780 f    CIL library: CIL module
 0001:00069790       ?dtor$93@?0??display_file_info@FileAnalyzer@@QEAAX_N@Z@4HA 000000006106a790 f    CIL library: CIL module
 0001:000697a0       ?dtor$94@?0??display_file_info@FileAnalyzer@@QEAAX_N@Z@4HA 000000006106a7a0 f    CIL library: CIL module
 0001:000697b0       ?dtor$95@?0??display_file_info@FileAnalyzer@@QEAAX_N@Z@4HA 000000006106a7b0 f    CIL library: CIL module
 0001:000697c0       ?dtor$99@?0??display_file_info@FileAnalyzer@@QEAAX_N@Z@4HA 000000006106a7c0 f    CIL library: CIL module
 0001:000697d0       ?dtor$100@?0??display_file_info@FileAnalyzer@@QEAAX_N@Z@4HA 000000006106a7d0 f    CIL library: CIL module
 0001:000697e0       ?dtor$102@?0??display_file_info@FileAnalyzer@@QEAAX_N@Z@4HA 000000006106a7e0 f    CIL library: CIL module
 0001:000697f0       ?dtor$103@?0??display_file_info@FileAnalyzer@@QEAAX_N@Z@4HA 000000006106a7f0 f    CIL library: CIL module
 0001:00069800       ?dtor$104@?0??display_file_info@FileAnalyzer@@QEAAX_N@Z@4HA 000000006106a800 f    CIL library: CIL module
 0001:00069810       ?dtor$105@?0??display_file_info@FileAnalyzer@@QEAAX_N@Z@4HA 000000006106a810 f    CIL library: CIL module
 0001:00069820       ?dtor$107@?0??display_file_info@FileAnalyzer@@QEAAX_N@Z@4HA 000000006106a820 f    CIL library: CIL module
 0001:00069830       ?dtor$108@?0??display_file_info@FileAnalyzer@@QEAAX_N@Z@4HA 000000006106a830 f    CIL library: CIL module
 0001:00069840       ?dtor$109@?0??display_file_info@FileAnalyzer@@QEAAX_N@Z@4HA 000000006106a840 f    CIL library: CIL module
 0001:00069850       ?dtor$110@?0??display_file_info@FileAnalyzer@@QEAAX_N@Z@4HA 000000006106a850 f    CIL library: CIL module
 0001:00069860       ?dtor$121@?0??display_file_info@FileAnalyzer@@QEAAX_N@Z@4HA 000000006106a860 f    CIL library: CIL module
 0001:00069870       ?dtor$122@?0??display_file_info@FileAnalyzer@@QEAAX_N@Z@4HA 000000006106a870 f    CIL library: CIL module
 0001:00069880       ?dtor$123@?0??display_file_info@FileAnalyzer@@QEAAX_N@Z@4HA 000000006106a880 f    CIL library: CIL module
 0001:000698b0       ?dtor$127@?0??display_file_info@FileAnalyzer@@QEAAX_N@Z@4HA 000000006106a8b0 f    CIL library: CIL module
 0001:000698c0       ?dtor$128@?0??display_file_info@FileAnalyzer@@QEAAX_N@Z@4HA 000000006106a8c0 f    CIL library: CIL module
 0001:000698d0       ?dtor$129@?0??display_file_info@FileAnalyzer@@QEAAX_N@Z@4HA 000000006106a8d0 f    CIL library: CIL module
 0001:000698e0       ?dtor$130@?0??display_file_info@FileAnalyzer@@QEAAX_N@Z@4HA 000000006106a8e0 f    CIL library: CIL module
