 arj

 Timestamp is 613cfd4d (Sat Sep 11 22:02:37 2021)

 Preferred load address is 0000000180000000

 Start         Length     Name                   Class
 0001:00000000 0000db60H .text$mn                CODE
 0001:0000db60 00000040H .text$mn$00             CODE
 0001:0000dba0 000003aaH .text$x                 CODE
 0002:00000000 00000288H .idata$5                DATA
 0002:00000288 00000018H .00cfg                  DATA
 0002:000002a0 00000008H .CRT$XCA                DATA
 0002:000002a8 00000008H .CRT$XCZ                DATA
 0002:000002b0 00000008H .CRT$XIA                DATA
 0002:000002b8 00000018H .CRT$XIC                DATA
 0002:000002d0 00000008H .CRT$XIZ                DATA
 0002:000002d8 00000008H .CRT$XPA                DATA
 0002:000002e0 00000010H .CRT$XPX                DATA
 0002:000002f0 00000008H .CRT$XPXA               DATA
 0002:000002f8 00000008H .CRT$XPZ                DATA
 0002:00000300 00000008H .CRT$XTA                DATA
 0002:00000308 00000008H .CRT$XTZ                DATA
 0002:00000310 000075a8H .rdata                  DATA
 0002:000078b8 0000016cH .rdata$r                DATA
 0002:00007a24 0000035cH .rdata$zzzdbg           DATA
 0002:00007d80 00000008H .rtc$IAA                DATA
 0002:00007d88 00000008H .rtc$IZZ                DATA
 0002:00007d90 00000008H .rtc$TAA                DATA
 0002:00007d98 00000008H .rtc$TZZ                DATA
 0002:00007da0 00000dc0H .xdata                  DATA
 0002:00008b60 00000090H .xdata$x                DATA
 0002:00008bf0 000000d0H .edata                  DATA
 0002:00008cc0 00000014H .idata$2                DATA
 0002:00008cd4 00000014H .idata$3                DATA
 0002:00008ce8 00000288H .idata$4                DATA
 0002:00008f70 000005c2H .idata$6                DATA
 0003:00000000 000009f0H .data                   DATA
 0003:000009f0 00000070H .data$r                 DATA
 0003:00000a60 00001610H .bss                    DATA
 0004:00000000 00001020H .pdata                  DATA
 0005:00000000 000000b4H .gfids$y                DATA
 0006:00000000 00000f80H .gxfg$y                 DATA
 0007:00000000 0000000cH .gehcont$y              DATA
 0008:00000000 00000060H .rsrc$01                DATA
 0008:00000060 00000368H .rsrc$02                DATA

  Address         Publics by Value              Rva+Base               Lib:Object

 0000:00000000       __guard_iat_table          0000000000000000     <absolute>
 0000:00000000       __dynamic_value_reloc_table 0000000000000000     <absolute>
 0000:00000000       __guard_longjmp_count      0000000000000000     <absolute>
 0000:00000000       __guard_longjmp_table      0000000000000000     <absolute>
 0000:00000000       __guard_iat_count          0000000000000000     <absolute>
 0000:00000000       __guard_fids_count         0000000000000000     <absolute>
 0000:00000000       ___safe_se_handler_table   0000000000000000     <absolute>
 0000:00000000       ___safe_se_handler_count   0000000000000000     <absolute>
 0000:00000000       __guard_fids_table         0000000000000000     <absolute>
 0000:00000100       __guard_flags              0000000000000100     <absolute>
 0000:00000000       __ImageBase                0000000180000000     <linker-defined>
 0001:000000a0       IsArchive                  00000001800010a0 f   arj.obj
 0001:000001c0       OpenArchive                00000001800011c0 f   arj.obj
 0001:00000380       GetArcItem                 0000000180001380 f   arj.obj
 0001:00000690       CloseArchive               0000000180001690 f   arj.obj
 0001:000006d0       GetSFXPos                  00000001800016d0 f   arj.obj
 0001:000006e0       GetFormatName              00000001800016e0 f   arj.obj
 0001:00000730       GetDefaultCommands         0000000180001730 f   arj.obj
 0001:00000780       __security_check_cookie    0000000180001780 f   LIBCMT:_amdsecgs_.obj
 0001:000007a4       __raise_securityfailure    00000001800017a4 f   LIBCMT:gs_report.obj
 0001:000007d8       __report_gsfailure         00000001800017d8 f   LIBCMT:gs_report.obj
 0001:000008ac       __report_rangecheckfailure 00000001800018ac f   LIBCMT:gs_report.obj
 0001:000008c0       __report_securityfailure   00000001800018c0 f   LIBCMT:gs_report.obj
 0001:00000d8c       _DllMainCRTStartup         0000000180001d8c f   LIBCMT:dll_dllmain.obj
 0001:00000dcc       __scrt_acquire_startup_lock 0000000180001dcc f   LIBCMT:utility.obj
 0001:00000e08       __scrt_dllmain_after_initialize_c 0000000180001e08 f   LIBCMT:utility.obj
 0001:00000e3c       __scrt_dllmain_before_initialize_c 0000000180001e3c f   LIBCMT:utility.obj
 0001:00000e54       __scrt_dllmain_crt_thread_attach 0000000180001e54 f   LIBCMT:utility.obj
 0001:00000e7c       __scrt_dllmain_crt_thread_detach 0000000180001e7c f   LIBCMT:utility.obj
 0001:00000e94       __scrt_dllmain_exception_filter 0000000180001e94 f   LIBCMT:utility.obj
 0001:00000ef8       __scrt_dllmain_uninitialize_c 0000000180001ef8 f   LIBCMT:utility.obj
 0001:00000f28       __scrt_dllmain_uninitialize_critical 0000000180001f28 f   LIBCMT:utility.obj
 0001:00000f3c       __scrt_initialize_crt      0000000180001f3c f   LIBCMT:utility.obj
 0001:00000f88       __scrt_initialize_onexit_tables 0000000180001f88 f   LIBCMT:utility.obj
 0001:00001054       __scrt_is_nonwritable_in_current_image 0000000180002054 f   LIBCMT:utility.obj
 0001:000010f0       __scrt_release_startup_lock 00000001800020f0 f   LIBCMT:utility.obj
 0001:00001114       __scrt_uninitialize_crt    0000000180002114 f   LIBCMT:utility.obj
 0001:00001140       _onexit                    0000000180002140 f   LIBCMT:utility.obj
 0001:00001190       atexit                     0000000180002190 f   LIBCMT:utility.obj
 0001:000011a8       __security_init_cookie     00000001800021a8 f   LIBCMT:gs_support.obj
 0001:00001254       _get_startup_argv_mode     0000000180002254 f   LIBCMT:argv_mode.obj
 0001:00001254       DllMain                    0000000180002254 f   LIBCMT:dll_dllmain_stub.obj
 0001:0000125c       ?__scrt_initialize_type_info@@YAXXZ 000000018000225c f   LIBCMT:tncleanup.obj
 0001:0000126c       ?__scrt_uninitialize_type_info@@YAXXZ 000000018000226c f   LIBCMT:tncleanup.obj
 0001:00001278       __local_stdio_printf_options 0000000180002278 f i LIBCMT:default_local_stdio_options.obj
 0001:00001280       __local_stdio_scanf_options 0000000180002280 f i LIBCMT:default_local_stdio_options.obj
 0001:00001288       __scrt_initialize_default_local_stdio_options 0000000180002288 f   LIBCMT:default_local_stdio_options.obj
 0001:000012a4       __scrt_get_dyn_tls_init_callback 00000001800022a4 f   LIBCMT:dyn_tls_init.obj
 0001:000012ac       __crt_debugger_hook        00000001800022ac f   LIBCMT:utility_desktop.obj
 0001:000012b4       __scrt_fastfail            00000001800022b4 f   LIBCMT:utility_desktop.obj
 0001:000013fc       _RTC_Initialize            00000001800023fc f   LIBCMT:_initsect_.obj
 0001:00001448       _RTC_Terminate             0000000180002448 f   LIBCMT:_initsect_.obj
 0001:00001494       _guard_check_icall         0000000180002494 f i LIBCMT:checkcfg.obj
 0001:0000149c       __isa_available_init       000000018000249c f   LIBCMT:_cpu_disp_.obj
 0001:00001664       __scrt_is_ucrt_dll_in_use  0000000180002664 f   LIBCMT:ucrt_detection.obj
 0001:00001670       __except_validate_context_record 0000000180002670 f i libvcruntime:jbcxrval.obj
 0001:00001670       _guard_check_icall_nop     0000000180002670 f i LIBCMT:guard_support.obj
 0001:00001680       __C_specific_handler       0000000180002680 f   libvcruntime:_chandler_.obj
 0001:0000187c       __vcrt_initialize          000000018000287c f   libvcruntime:initialization.obj
 0001:000018b0       __vcrt_thread_attach       00000001800028b0 f   libvcruntime:initialization.obj
 0001:000018c4       __vcrt_thread_detach       00000001800028c4 f   libvcruntime:initialization.obj
 0001:000018d8       __vcrt_uninitialize        00000001800028d8 f   libvcruntime:initialization.obj
 0001:000018f8       __vcrt_uninitialize_critical 00000001800028f8 f   libvcruntime:initialization.obj
 0001:00001908       __std_type_info_compare    0000000180002908 f   libvcruntime:std_type_info.obj
 0001:00001930       __std_type_info_destroy_list 0000000180002930 f   libvcruntime:std_type_info.obj
 0001:00001970       memset                     0000000180002970 f   libvcruntime:memset.obj
 0001:00001b20       _local_unwind              0000000180002b20 f   libvcruntime:_jmpuwind_.obj
 0001:00001b50       _NLG_Notify                0000000180002b50 f   libvcruntime:_jmpuwind_.obj
 0001:00001b70       __NLG_Dispatch2            0000000180002b70 f   libvcruntime:_jmpuwind_.obj
 0001:00001b80       __NLG_Return2              0000000180002b80 f   libvcruntime:_jmpuwind_.obj
 0001:00001b84       __vcrt_freefls             0000000180002b84 f   libvcruntime:per_thread_data.obj
 0001:00001ba4       __vcrt_freeptd             0000000180002ba4 f   libvcruntime:per_thread_data.obj
 0001:00001bf4       __vcrt_getptd              0000000180002bf4 f   libvcruntime:per_thread_data.obj
 0001:00001c10       __vcrt_getptd_noexit       0000000180002c10 f   libvcruntime:per_thread_data.obj
 0001:00001cc8       __vcrt_initialize_ptd      0000000180002cc8 f   libvcruntime:per_thread_data.obj
 0001:00001d08       __vcrt_uninitialize_ptd    0000000180002d08 f   libvcruntime:per_thread_data.obj
 0001:00001d2c       __vcrt_initialize_locks    0000000180002d2c f   libvcruntime:locks.obj
 0001:00001d74       __vcrt_uninitialize_locks  0000000180002d74 f   libvcruntime:locks.obj
 0001:00001f74       __vcrt_FlsAlloc            0000000180002f74 f   libvcruntime:winapi_downlevel.obj
 0001:00001fc8       __vcrt_FlsFree             0000000180002fc8 f   libvcruntime:winapi_downlevel.obj
 0001:0000201c       __vcrt_FlsGetValue         000000018000301c f   libvcruntime:winapi_downlevel.obj
 0001:00002070       __vcrt_FlsSetValue         0000000180003070 f   libvcruntime:winapi_downlevel.obj
 0001:000020d8       __vcrt_InitializeCriticalSectionEx 00000001800030d8 f   libvcruntime:winapi_downlevel.obj
 0001:00002150       __vcrt_initialize_winapi_thunks 0000000180003150 f   libvcruntime:winapi_downlevel.obj
 0001:0000219c       __vcrt_uninitialize_winapi_thunks 000000018000319c f   libvcruntime:winapi_downlevel.obj
 0001:000021dc       __vcrt_initialize_pure_virtual_call_handler 00000001800031dc f   libvcruntime:purevirt_data.obj
 0001:00002200       _initterm                  0000000180003200 f   libucrt:initterm.obj
 0001:00002244       _initterm_e                0000000180003244 f   libucrt:initterm.obj
 0001:0000228c       _seh_filter_dll            000000018000328c f   libucrt:exception_filter.obj
 0001:000022a0       _seh_filter_exe            00000001800032a0 f   libucrt:exception_filter.obj
 0001:000026c4       __acrt_initialize_thread_local_exit_callback 00000001800036c4 f   libucrt:exit.obj
 0001:000026cc       _cexit                     00000001800036cc f   libucrt:exit.obj
 0001:000026dc       _exit                      00000001800036dc f   libucrt:exit.obj
 0001:000026e8       _is_c_termination_complete 00000001800036e8 f   libucrt:exit.obj
 0001:000028b0       __acrt_allocate_buffer_for_argv 00000001800038b0 f   libucrt:argv_parsing.obj
 0001:00002910       _configure_narrow_argv     0000000180003910 f   libucrt:argv_parsing.obj
 0001:00002cdc       __dcrt_uninitialize_environments_nolock 0000000180003cdc f   libucrt:environment_initialization.obj
 0001:00002d20       _initialize_narrow_environment 0000000180003d20 f   libucrt:environment_initialization.obj
 0001:00003070       _crt_atexit                0000000180004070 f   libucrt:onexit.obj
 0001:00003080       _execute_onexit_table      0000000180004080 f   libucrt:onexit.obj
 0001:000030c4       _initialize_onexit_table   00000001800040c4 f   libucrt:onexit.obj
 0001:000030ec       _register_onexit_function  00000001800040ec f   libucrt:onexit.obj
 0001:00003274       __acrt_initialize          0000000180004274 f   libucrt:initialization.obj
 0001:00003288       __acrt_thread_attach       0000000180004288 f   libucrt:initialization.obj
 0001:0000329c       __acrt_thread_detach       000000018000429c f   libucrt:initialization.obj
 0001:000032ac       __acrt_uninitialize        00000001800042ac f   libucrt:initialization.obj
 0001:000032e4       __acrt_uninitialize_critical 00000001800042e4 f   libucrt:initialization.obj
 0001:000032f4       terminate                  00000001800042f4 f   libucrt:terminate.obj
 0001:00003320       _free_base                 0000000180004320 f   libucrt:free_base.obj
 0001:0000335c       _malloc_base               000000018000435c f   libucrt:malloc_base.obj
 0001:000033bc       strcpy_s                   00000001800043bc f   libucrt:strcpy_s.obj
 0001:0000341c       abort                      000000018000441c f   libucrt:abort.obj
 0001:00003474       _calloc_base               0000000180004474 f   libucrt:calloc_base.obj
 0001:000034f0       ?get_raw_ptd@__crt_cached_ptd_host@@QEAAPEAU__acrt_ptd@@XZ 00000001800044f0 f i libucrt:output.obj
 0001:00003560       ?update_locale_slow@__crt_cached_ptd_host@@AEAAXXZ 0000000180004560 f i libucrt:output.obj
 0001:00003950       __acrt_freeptd             0000000180004950 f   libucrt:per_thread_data.obj
 0001:00003994       __acrt_getptd              0000000180004994 f   libucrt:per_thread_data.obj
 0001:00003a68       __acrt_getptd_head         0000000180004a68 f   libucrt:per_thread_data.obj
 0001:00003b0c       __acrt_getptd_noexit       0000000180004b0c f   libucrt:per_thread_data.obj
 0001:00003bd4       __acrt_getptd_noexit_explicit 0000000180004bd4 f   libucrt:per_thread_data.obj
 0001:00003c94       __acrt_initialize_ptd      0000000180004c94 f   libucrt:per_thread_data.obj
 0001:00003cd0       __acrt_uninitialize_ptd    0000000180004cd0 f   libucrt:per_thread_data.obj
 0001:00003cf4       __acrt_initialize_locks    0000000180004cf4 f   libucrt:locks.obj
 0001:00003d3c       __acrt_lock                0000000180004d3c f   libucrt:locks.obj
 0001:00003d58       __acrt_uninitialize_locks  0000000180004d58 f   libucrt:locks.obj
 0001:00003d90       __acrt_unlock              0000000180004d90 f   libucrt:locks.obj
 0001:00003dac       __acrt_get_process_end_policy 0000000180004dac f   libucrt:win_policies.obj
 0001:00003de8       ?get_raw_ptd_noexit@__crt_cached_ptd_host@@QEAAPEAU__acrt_ptd@@XZ 0000000180004de8 f i libucrt:invalid_parameter.obj
 0001:00003e54       ?value@?$dual_state_global@P6AXPEB_W00I_K@Z@__crt_state_management@@QEAAAEAP6AXPEB_W00I_K@ZAEAV__crt_cached_ptd_host@@@Z 0000000180004e54 f i libucrt:invalid_parameter.obj
 0001:00003ea0       __acrt_call_reportfault    0000000180004ea0 f   libucrt:invalid_parameter.obj
 0001:00003ffc       __acrt_initialize_invalid_parameter_handler 0000000180004ffc f   libucrt:invalid_parameter.obj
 0001:00004004       _invalid_parameter         0000000180005004 f   libucrt:invalid_parameter.obj
 0001:000040a0       _invalid_parameter_internal 00000001800050a0 f   libucrt:invalid_parameter.obj
 0001:00004170       _invalid_parameter_noinfo  0000000180005170 f   libucrt:invalid_parameter.obj
 0001:00004190       _invoke_watson             0000000180005190 f   libucrt:invalid_parameter.obj
 0001:000041d8       __acrt_errno_from_os_error 00000001800051d8 f   libucrt:errno.obj
 0001:00004220       __acrt_errno_map_os_error  0000000180005220 f   libucrt:errno.obj
 0001:00004268       __acrt_errno_map_os_error_ptd 0000000180005268 f   libucrt:errno.obj
 0001:0000428c       __doserrno                 000000018000528c f   libucrt:errno.obj
 0001:000042ac       _errno                     00000001800052ac f   libucrt:errno.obj
 0001:000042e0       ??$__acrt_convert_wcs_mbs_cp@D_WV<lambda_7c9dea7b4ca7285d2cdb541a38da6275>@@U__crt_win32_buffer_internal_dynamic_resizing@@@@YAHQEBDAEAV?$__crt_win32_buffer@_WU__crt_win32_buffer_internal_dynamic_resizing@@@@AEBV<lambda_7c9dea7b4ca7285d2cdb541a38da6275>@@I@Z 00000001800052e0 f i libucrt:argv_wildcards.obj
 0001:0000445c       ??$__acrt_convert_wcs_mbs_cp@_WDV<lambda_d8593a27d1aa8c02be35c86a17d324c4>@@U__crt_win32_buffer_internal_dynamic_resizing@@@@YAHQEB_WAEAV?$__crt_win32_buffer@DU__crt_win32_buffer_internal_dynamic_resizing@@@@AEBV<lambda_d8593a27d1aa8c02be35c86a17d324c4>@@I@Z 000000018000545c f i libucrt:argv_wildcards.obj
 0001:00004d04       ??0_LocaleUpdate@@QEAA@QEAU__crt_locale_pointers@@@Z 0000000180005d04 f i libucrt:argv_wildcards.obj
 0001:00004da0       __acrt_expand_narrow_argv_wildcards 0000000180005da0 f   libucrt:argv_wildcards.obj
 0001:00004da8       ??$__acrt_convert_wcs_mbs_cp@_WDV<lambda_f788ae46380686e8b737efdd8c720d07>@@U__crt_win32_buffer_no_resizing@@@@YAHQEB_WAEAV?$__crt_win32_buffer@DU__crt_win32_buffer_no_resizing@@@@AEBV<lambda_f788ae46380686e8b737efdd8c720d07>@@I@Z 0000000180005da8 f i libucrt:getmodulefilenamea.obj
 0001:00004ec4       __acrt_GetModuleFileNameA  0000000180005ec4 f   libucrt:getmodulefilenamea.obj
 0001:000057e0       __acrt_initialize_multibyte 00000001800067e0 f   libucrt:mbctype.obj
 0001:00005840       __acrt_update_thread_multibyte_data 0000000180006840 f   libucrt:mbctype.obj
 0001:0000585c       _setmbcp_nolock            000000018000685c f   libucrt:mbctype.obj
 0001:00005b90       _ismbblead                 0000000180006b90 f   libucrt:ismbbyte.obj
 0001:00005ba4       __acrt_initialize_command_line 0000000180006ba4 f   libucrt:argv_data.obj
 0001:00005bcc       __acrt_uninitialize_command_line 0000000180006bcc f   libucrt:argv_data.obj
 0001:00005bd0       __acrt_MultiByteToWideChar 0000000180006bd0 f   libucrt:multibytetowidechar.obj
 0001:00005c2c       __acrt_WideCharToMultiByte 0000000180006c2c f   libucrt:widechartomultibyte.obj
 0001:00005cdc       __dcrt_get_narrow_environment_from_os 0000000180006cdc f   libucrt:get_environment_from_os.obj
 0001:00005dec       _recalloc_base             0000000180006dec f   libucrt:recalloc.obj
 0001:00006044       __acrt_AppPolicyGetProcessTerminationMethodInternal 0000000180007044 f   libucrt:winapi_thunks.obj
 0001:0000609c       __acrt_AreFileApisANSI     000000018000709c f   libucrt:winapi_thunks.obj
 0001:000060e0       __acrt_FlsAlloc            00000001800070e0 f   libucrt:winapi_thunks.obj
 0001:000060e8       __acrt_FlsFree             00000001800070e8 f   libucrt:winapi_thunks.obj
 0001:000060f0       __acrt_FlsGetValue         00000001800070f0 f   libucrt:winapi_thunks.obj
 0001:000060f8       __acrt_FlsSetValue         00000001800070f8 f   libucrt:winapi_thunks.obj
 0001:00006100       __acrt_InitializeCriticalSectionEx 0000000180007100 f   libucrt:winapi_thunks.obj
 0001:00006170       __acrt_LCMapStringEx       0000000180007170 f   libucrt:winapi_thunks.obj
 0001:0000625c       __acrt_LocaleNameToLCID    000000018000725c f   libucrt:winapi_thunks.obj
 0001:000062bc       __acrt_initialize_winapi_thunks 00000001800072bc f   libucrt:winapi_thunks.obj
 0001:000062f0       __acrt_uninitialize_winapi_thunks 00000001800072f0 f   libucrt:winapi_thunks.obj
 0001:00006334       __acrt_initialize_heap     0000000180007334 f   libucrt:heap_handle.obj
 0001:00006350       __acrt_uninitialize_heap   0000000180007350 f   libucrt:heap_handle.obj
 0001:00006554       __acrt_initialize_lowio    0000000180007554 f   libucrt:ioinit.obj
 0001:00006590       __acrt_uninitialize_lowio  0000000180007590 f   libucrt:ioinit.obj
 0001:000065d0       __acrt_execute_initializers 00000001800075d0 f   libucrt:shared_initialization.obj
 0001:00006664       __acrt_execute_uninitializers 0000000180007664 f   libucrt:shared_initialization.obj
 0001:000066ac       __acrt_initialize_new_handler 00000001800076ac f   libucrt:new_handler.obj
 0001:000066b4       _callnewh                  00000001800076b4 f   libucrt:new_handler.obj
 0001:000066f0       _query_new_handler         00000001800076f0 f   libucrt:new_handler.obj
 0001:0000676c       __acrt_get_sigabrt_handler 000000018000776c f   libucrt:signal.obj
 0001:0000679c       __acrt_initialize_signal_handlers 000000018000779c f   libucrt:signal.obj
 0001:000067bc       raise                      00000001800077bc f   libucrt:signal.obj
 0001:00006a3c       __acrt_has_user_matherr    0000000180007a3c f   libucrt:matherr.obj
 0001:00006a5c       __acrt_initialize_user_matherr 0000000180007a5c f   libucrt:matherr.obj
 0001:00006a64       __acrt_invoke_user_matherr 0000000180007a64 f   libucrt:matherr.obj
 0001:00006c78       __acrt_stdio_flush_nolock  0000000180007c78 f   libucrt:fflush.obj
 0001:00006d04       _fflush_nolock             0000000180007d04 f   libucrt:fflush.obj
 0001:00006dd8       _flushall                  0000000180007dd8 f   libucrt:fflush.obj
 0001:00006de0       __acrt_initialize_stdio    0000000180007de0 f   libucrt:_file.obj
 0001:00006f00       __acrt_uninitialize_stdio  0000000180007f00 f   libucrt:_file.obj
 0001:00006f5c       _lock_file                 0000000180007f5c f   libucrt:_file.obj
 0001:00006f68       _unlock_file               0000000180007f68 f   libucrt:_file.obj
 0001:00006f74       _query_new_mode            0000000180007f74 f   libucrt:new_mode.obj
 0001:00006f7c       __acrt_update_locale_info  0000000180007f7c f   libucrt:locale_update.obj
 0001:00006fb0       __acrt_update_locale_info_explicit 0000000180007fb0 f   libucrt:locale_update.obj
 0001:00006fe8       __acrt_update_multibyte_info 0000000180007fe8 f   libucrt:locale_update.obj
 0001:0000701c       __acrt_update_multibyte_info_explicit 000000018000801c f   libucrt:locale_update.obj
 0001:00007054       _mbtowc_internal           0000000180008054 f   libucrt:mbtowc.obj
 0001:000071cc       _fileno                    00000001800081cc f   libucrt:fileno.obj
 0001:00007264       __acrt_set_locale_changed  0000000180008264 f   libucrt:wsetlocale.obj
 0001:00007270       __acrt_uninitialize_locale 0000000180008270 f   libucrt:wsetlocale.obj
 0001:000072a0       __acrt_add_locale_ref      00000001800082a0 f   libucrt:locale_refcounting.obj
 0001:0000732c       __acrt_free_locale         000000018000832c f   libucrt:locale_refcounting.obj
 0001:000074a4       __acrt_locale_add_lc_time_reference 00000001800084a4 f   libucrt:locale_refcounting.obj
 0001:000074cc       __acrt_locale_free_lc_time_if_unreferenced 00000001800084cc f   libucrt:locale_refcounting.obj
 0001:00007504       __acrt_locale_release_lc_time_reference 0000000180008504 f   libucrt:locale_refcounting.obj
 0001:0000752c       __acrt_release_locale_ref  000000018000852c f   libucrt:locale_refcounting.obj
 0001:000075d4       __acrt_update_thread_locale_data 00000001800085d4 f   libucrt:locale_refcounting.obj
 0001:00007644       _updatetlocinfoEx_nolock   0000000180008644 f   libucrt:locale_refcounting.obj
 0001:000076b0       qsort                      00000001800086b0 f   libucrt:qsort.obj
 0001:00007ac0       strncpy_s                  0000000180008ac0 f   libucrt:strncpy_s.obj
 0001:00007c50       strpbrk                    0000000180008c50 f   libucrt:strpbrk.obj
 0001:00008018       _mbsdec                    0000000180009018 f   libucrt:mbsdec.obj
 0001:00008020       _mbsdec_l                  0000000180009020 f   libucrt:mbsdec.obj
 0001:000080cc       __acrt_GetStringTypeA      00000001800090cc f   libucrt:getstringtypea.obj
 0001:00008588       __acrt_LCMapStringA        0000000180009588 f   libucrt:lcmapstringa.obj
 0001:00008620       _msize_base                0000000180009620 f   libucrt:msize.obj
 0001:0000865c       _realloc_base              000000018000965c f   libucrt:realloc_base.obj
 0001:000086d8       wcsncmp                    00000001800096d8 f   libucrt:wcsncmp.obj
 0001:00008704       __acrt_DownlevelLocaleNameToLCID 0000000180009704 f   libucrt:lcidtoname_downlevel.obj
 0001:000087ac       __acrt_lowio_create_handle_array 00000001800097ac f   libucrt:osfinfo.obj
 0001:00008854       __acrt_lowio_destroy_handle_array 0000000180009854 f   libucrt:osfinfo.obj
 0001:000088a4       __acrt_lowio_ensure_fh_exists 00000001800098a4 f   libucrt:osfinfo.obj
 0001:0000894c       __acrt_lowio_lock_fh       000000018000994c f   libucrt:osfinfo.obj
 0001:00008974       __acrt_lowio_unlock_fh     0000000180009974 f   libucrt:osfinfo.obj
 0001:0000899c       _free_osfhnd               000000018000999c f   libucrt:osfinfo.obj
 0001:00008a58       _get_osfhandle             0000000180009a58 f   libucrt:osfinfo.obj
 0001:00008b5c       _commit                    0000000180009b5c f   libucrt:commit.obj
 0001:0000940c       _write_internal            000000018000a40c f   libucrt:write.obj
 0001:00009534       _write_nolock              000000018000a534 f   libucrt:write.obj
 0001:00009844       _fcloseall                 000000018000a844 f   libucrt:closeall.obj
 0001:000098f8       __acrt_stdio_free_buffer_nolock 000000018000a8f8 f   libucrt:_freebuf.obj
 0001:00009938       _isatty                    000000018000a938 f   libucrt:isatty.obj
 0001:00009998       ?__mbrtowc_utf8@__crt_mbstring@@YA_KPEA_WPEBD_KPEAU_Mbstatet@@AEAV__crt_cached_ptd_host@@@Z 000000018000a998 f   libucrt:mbrtowc.obj
 0001:000099dc       ?__mbsrtowcs_utf8@__crt_mbstring@@YA_KPEA_WPEAPEBD_KPEAU_Mbstatet@@AEAV__crt_cached_ptd_host@@@Z 000000018000a9dc f   libucrt:mbrtowc.obj
 0001:00009b80       __acrt_locale_free_monetary 000000018000ab80 f   libucrt:initmon.obj
 0001:00009c8c       __acrt_locale_free_numeric 000000018000ac8c f   libucrt:initnum.obj
 0001:00009d2c       __acrt_locale_free_time    000000018000ad2c f   libucrt:inittime.obj
 0001:00009e34       __strncnt                  000000018000ae34 f   libucrt:strncnt.obj
 0001:00009e4c       __ascii_wcsnicmp           000000018000ae4c f   libucrt:wcsnicmp.obj
 0001:00009e98       _query_app_type            000000018000ae98 f   libucrt:report_runtime_error.obj
 0001:00009f4c       _lseeki64_nolock_internal  000000018000af4c f   libucrt:lseek.obj
 0001:00009f54       _putwch_nolock             000000018000af54 f   libucrt:putwch.obj
 0001:0000a0b0       fclose                     000000018000b0b0 f   libucrt:fclose.obj
 0001:0000a150       log10                      000000018000b150 f   libucrt:log10.obj
 0001:0000a6fc       ?reset_and_return@__crt_mbstring@@YA_K_KPEAU_Mbstatet@@@Z 000000018000b6fc f   libucrt:common_utf8.obj
 0001:0000a704       ?return_illegal_sequence@__crt_mbstring@@YA_KPEAU_Mbstatet@@AEAV__crt_cached_ptd_host@@@Z 000000018000b704 f   libucrt:common_utf8.obj
 0001:0000a718       ?__mbrtoc32_utf8@__crt_mbstring@@YA_KPEA_UPEBD_KPEAU_Mbstatet@@AEAV__crt_cached_ptd_host@@@Z 000000018000b718 f   libucrt:mbrtoc32.obj
 0001:0000a8f4       __dcrt_lowio_ensure_console_output_initialized 000000018000b8f4 f   libucrt:initcon.obj
 0001:0000a948       __dcrt_terminate_console_output 000000018000b948 f   libucrt:initcon.obj
 0001:0000a964       __dcrt_write_console       000000018000b964 f   libucrt:initcon.obj
 0001:0000aa9c       _close_internal            000000018000ba9c f   libucrt:close.obj
 0001:0000ab60       _close_nolock_internal     000000018000bb60 f   libucrt:close.obj
 0001:0000ac30       ?__acrt_stdio_free_stream@@YAXV__crt_stdio_stream@@@Z 000000018000bc30 f   libucrt:stream.obj
 0001:0000ad70       _handle_error              000000018000bd70 f   libucrt:libm_error.obj
 0001:0000aea0       __acrt_initialize_fma3     000000018000bea0 f   libucrt:fma3_available.obj
 0001:0000af10       _log10_special             000000018000bf10 f   libucrt:log_special.obj
 0001:0000afe0       _get_fpsr                  000000018000bfe0 f   libucrt:fpsr.obj
 0001:0000aff0       _set_fpsr                  000000018000bff0 f   libucrt:fpsr.obj
 0001:0000affa       _fclrf                     000000018000bffa f   libucrt:fpsr.obj
 0001:0000b00e       _frnd                      000000018000c00e f   libucrt:fpsr.obj
 0001:0000b030       _raise_exc                 000000018000c030 f   libucrt:fpexcept.obj
 0001:0000b058       _raise_exc_ex              000000018000c058 f   libucrt:fpexcept.obj
 0001:0000b368       _set_errno_from_matherr    000000018000c368 f   libucrt:fpexcept.obj
 0001:0000b398       _clrfp                     000000018000c398 f   libucrt:fpctrl.obj
 0001:0000b3b8       _ctrlfp                    000000018000c3b8 f   libucrt:fpctrl.obj
 0001:0000b434       _set_statfp                000000018000c434 f   libucrt:fpctrl.obj
 0001:0000b454       _statfp                    000000018000c454 f   libucrt:fpctrl.obj
 0001:0000b466       IsProcessorFeaturePresent  000000018000c466 f   kernel32:KERNEL32.dll
 0001:0000b46c       RtlUnwindEx                000000018000c46c f   kernel32:KERNEL32.dll
 0001:0000b480       _FindPESection             000000018000c480 f   LIBCMT:pesect.obj
 0001:0000b4d0       _IsNonwritableInCurrentImage 000000018000c4d0 f   LIBCMT:pesect.obj
 0001:0000b520       _ValidateImageBase         000000018000c520 f   LIBCMT:pesect.obj
 0001:0000b550       __GSHandlerCheck           000000018000c550 f   LIBCMT:_gshandler_.obj
 0001:0000b570       __GSHandlerCheckCommon     000000018000c570 f   LIBCMT:_gshandler_.obj
 0001:0000b5cc       ??_Gtype_info@@UEAAPEAXI@Z 000000018000c5cc f i LIBCMT:std_type_info_static.obj
 0001:0000b5cc       ??_Etype_info@@UEAAPEAXI@Z 000000018000c5cc f i LIBCMT:std_type_info_static.obj
 0001:0000b610       __chkstk                   000000018000c610 f   LIBCMT:_chkstk_.obj
 0001:0000b610       _alloca_probe              000000018000c610 f   LIBCMT:_chkstk_.obj
 0001:0000b664       __GSHandlerCheck_EH        000000018000c664 f   LIBCMT:gshandlereh.obj
 0001:0000b6e4       ??3@YAXPEAX_K@Z            000000018000c6e4 f   LIBCMT:delete_scalar_size.obj
 0001:0000b6ec       ??3@YAXPEAX@Z              000000018000c6ec f   LIBCMT:delete_scalar.obj
 0001:0000b6f4       __DestructExceptionObject  000000018000c6f4 f   libvcruntime:frame.obj
 0001:0000b77c       ??0bad_exception@std@@QEAA@AEBV01@@Z 000000018000c77c f i libvcruntime:frame.obj
 0001:0000b7bc       ??0bad_exception@std@@QEAA@XZ 000000018000c7bc f i libvcruntime:frame.obj
 0001:0000b7dc       ??0exception@std@@QEAA@AEBV01@@Z 000000018000c7dc f i libvcruntime:frame.obj
 0001:0000b814       ??1bad_exception@std@@UEAA@XZ 000000018000c814 f i libvcruntime:frame.obj
 0001:0000b828       ??_Eexception@std@@UEAAPEAXI@Z 000000018000c828 f i libvcruntime:frame.obj
 0001:0000b828       ??_Gbad_exception@std@@UEAAPEAXI@Z 000000018000c828 f i libvcruntime:frame.obj
 0001:0000b828       ??_Ebad_exception@std@@UEAAPEAXI@Z 000000018000c828 f i libvcruntime:frame.obj
 0001:0000b828       ??_Gexception@std@@UEAAPEAXI@Z 000000018000c828 f i libvcruntime:frame.obj
 0001:0000c1c8       ?_CallMemberFunction0@@YAXPEAXP6AX0@Z@Z 000000018000d1c8 f i libvcruntime:frame.obj
 0001:0000c1cc       ?_CallMemberFunction1@@YAXPEAXP6AX0@Z0@Z 000000018000d1cc f i libvcruntime:frame.obj
 0001:0000c1d8       ?_CallMemberFunction2@@YAXPEAXP6AX0@Z0H@Z 000000018000d1d8 f i libvcruntime:frame.obj
 0001:0000c1e8       ?what@exception@std@@UEBAPEBDXZ 000000018000d1e8 f i libvcruntime:frame.obj
 0001:0000c1fc       __AdjustPointer            000000018000d1fc f   libvcruntime:frame.obj
 0001:0000c220       __BuildCatchObject         000000018000d220 f   libvcruntime:frame.obj
 0001:0000c2e4       __BuildCatchObjectHelper   000000018000d2e4 f   libvcruntime:frame.obj
 0001:0000c4c4       __CxxCallCatchBlock        000000018000d4c4 f   libvcruntime:frame.obj
 0001:0000c6b0       __FrameUnwindFilter        000000018000d6b0 f   libvcruntime:frame.obj
 0001:0000c6fc       __FrameUnwindToState       000000018000d6fc f   libvcruntime:frame.obj
 0001:0000c890       __InternalCxxFrameHandler  000000018000d890 f   libvcruntime:frame.obj
 0001:0000cae8       __TypeMatch                000000018000dae8 f   libvcruntime:frame.obj
 0001:0000cc28       __std_terminate            000000018000dc28 f   libvcruntime:frame.obj
 0001:0000cc34       ?_ExecutionInCatch@@YAHPEAU_xDISPATCHER_CONTEXT@@PEBU_s_FuncInfo@@@Z 000000018000dc34 f   libvcruntime:trnsctrl.obj
 0001:0000cca8       ?_GetEstablisherFrame@@YAPEA_KPEA_KPEAU_xDISPATCHER_CONTEXT@@PEBU_s_FuncInfo@@0@Z 000000018000dca8 f   libvcruntime:trnsctrl.obj
 0001:0000cd74       ?_GetRangeOfTrysToCheck@@YAPEBU_s_TryBlockMapEntry@@PEA_KPEBU_s_FuncInfo@@HHPEAI2PEAU_xDISPATCHER_CONTEXT@@@Z 000000018000dd74 f   libvcruntime:trnsctrl.obj
 0001:0000cea0       ?__FrameUnwindToEmptyState@@YAXPEA_KPEAU_xDISPATCHER_CONTEXT@@PEBU_s_FuncInfo@@@Z 000000018000dea0 f   libvcruntime:trnsctrl.obj
 0001:0000cf34       ?__SehTransFilter@@YAHPEAU_EXCEPTION_POINTERS@@PEAUEHExceptionRecord@@PEA_KPEAU_CONTEXT@@PEAU_xDISPATCHER_CONTEXT@@PEBU_s_FuncInfo@@PEAH@Z 000000018000df34 f   libvcruntime:trnsctrl.obj
 0001:0000cfcc       _CallSETranslator          000000018000dfcc f   libvcruntime:trnsctrl.obj
 0001:0000d024       _CreateFrameInfo           000000018000e024 f   libvcruntime:trnsctrl.obj
 0001:0000d060       _FindAndUnlinkFrame        000000018000e060 f   libvcruntime:trnsctrl.obj
 0001:0000d0b8       _GetImageBase              000000018000e0b8 f   libvcruntime:trnsctrl.obj
 0001:0000d0cc       _GetThrowImageBase         000000018000e0cc f   libvcruntime:trnsctrl.obj
 0001:0000d0e0       _IsExceptionObjectToBeDestroyed 000000018000e0e0 f   libvcruntime:trnsctrl.obj
 0001:0000d110       _SetImageBase              000000018000e110 f   libvcruntime:trnsctrl.obj
 0001:0000d128       _SetThrowImageBase         000000018000e128 f   libvcruntime:trnsctrl.obj
 0001:0000d140       _UnwindNestedFrames        000000018000e140 f   libvcruntime:trnsctrl.obj
 0001:0000d264       __CxxFrameHandler3         000000018000e264 f   libvcruntime:trnsctrl.obj
 0001:0000d2e4       __C_specific_handler_noexcept 000000018000e2e4 f   libvcruntime:chandler_noexcept.obj
 0001:0000d330       memmove                    000000018000e330 f   libvcruntime:memcpy.obj
 0001:0000d330       memcpy                     000000018000e330 f   libvcruntime:memcpy.obj
 0001:0000d780       memcmp                     000000018000e780 f   libvcruntime:memcmp.obj
 0001:0000d848       ?__GetCurrentState@@YAHPEA_KPEAU_xDISPATCHER_CONTEXT@@PEBU_s_FuncInfo@@@Z 000000018000e848 f   libvcruntime:ehstate.obj
 0001:0000d870       ?__GetUnwindTryBlock@@YAHPEA_KPEAU_xDISPATCHER_CONTEXT@@PEBU_s_FuncInfo@@@Z 000000018000e870 f   libvcruntime:ehstate.obj
 0001:0000d89c       ?__SetState@@YAXPEA_KPEAU_xDISPATCHER_CONTEXT@@PEBU_s_FuncInfo@@H@Z 000000018000e89c f   libvcruntime:ehstate.obj
 0001:0000d8a8       ?__SetUnwindTryBlock@@YAXPEA_KPEAU_xDISPATCHER_CONTEXT@@PEBU_s_FuncInfo@@H@Z 000000018000e8a8 f   libvcruntime:ehstate.obj
 0001:0000d8e4       ?__StateFromControlPc@@YAHPEBU_s_FuncInfo@@PEAU_xDISPATCHER_CONTEXT@@@Z 000000018000e8e4 f   libvcruntime:ehstate.obj
 0001:0000d8ec       ?__StateFromIp@@YAHPEBU_s_FuncInfo@@PEAU_xDISPATCHER_CONTEXT@@_J@Z 000000018000e8ec f   libvcruntime:ehstate.obj
 0001:0000d970       _CallSettingFrame          000000018000e970 f   libvcruntime:handlers.obj
 0001:0000d9b0       __std_exception_copy       000000018000e9b0 f   libvcruntime:std_exception.obj
 0001:0000da40       __std_exception_destroy    000000018000ea40 f   libvcruntime:std_exception.obj
 0001:0000da68       _CxxThrowException         000000018000ea68 f   libvcruntime:throw.obj
 0001:0000db40       free                       000000018000eb40 f   libucrt:free.obj
 0001:0000db54       malloc                     000000018000eb54 f   libucrt:malloc.obj
 0001:0000db70       _guard_dispatch_icall_nop  000000018000eb70 f   LIBCMT:_guard_dispatch_.obj
 0001:0000db90       _guard_xfg_dispatch_icall_nop 000000018000eb90 f   libucrt:guard_xfg_dispatch.obj
 0002:00000000       __imp_ReadFile             000000018000f000     kernel32:KERNEL32.dll
 0002:00000008       __imp_SetFilePointer       000000018000f008     kernel32:KERNEL32.dll
 0002:00000010       __imp_lstrlenA             000000018000f010     kernel32:KERNEL32.dll
 0002:00000018       __imp_LocalFileTimeToFileTime 000000018000f018     kernel32:KERNEL32.dll
 0002:00000020       __imp_CreateFileA          000000018000f020     kernel32:KERNEL32.dll
 0002:00000028       __imp_lstrcpyA             000000018000f028     kernel32:KERNEL32.dll
 0002:00000030       __imp_CloseHandle          000000018000f030     kernel32:KERNEL32.dll
 0002:00000038       __imp_GetFileSize          000000018000f038     kernel32:KERNEL32.dll
 0002:00000040       __imp_DosDateTimeToFileTime 000000018000f040     kernel32:KERNEL32.dll
 0002:00000048       __imp_RtlCaptureContext    000000018000f048     kernel32:KERNEL32.dll
 0002:00000050       __imp_RtlLookupFunctionEntry 000000018000f050     kernel32:KERNEL32.dll
 0002:00000058       __imp_RtlVirtualUnwind     000000018000f058     kernel32:KERNEL32.dll
 0002:00000060       __imp_UnhandledExceptionFilter 000000018000f060     kernel32:KERNEL32.dll
 0002:00000068       __imp_SetUnhandledExceptionFilter 000000018000f068     kernel32:KERNEL32.dll
 0002:00000070       __imp_GetCurrentProcess    000000018000f070     kernel32:KERNEL32.dll
 0002:00000078       __imp_TerminateProcess     000000018000f078     kernel32:KERNEL32.dll
 0002:00000080       __imp_IsProcessorFeaturePresent 000000018000f080     kernel32:KERNEL32.dll
 0002:00000088       __imp_QueryPerformanceCounter 000000018000f088     kernel32:KERNEL32.dll
 0002:00000090       __imp_GetCurrentProcessId  000000018000f090     kernel32:KERNEL32.dll
 0002:00000098       __imp_GetCurrentThreadId   000000018000f098     kernel32:KERNEL32.dll
 0002:000000a0       __imp_GetSystemTimeAsFileTime 000000018000f0a0     kernel32:KERNEL32.dll
 0002:000000a8       __imp_InitializeSListHead  000000018000f0a8     kernel32:KERNEL32.dll
 0002:000000b0       __imp_IsDebuggerPresent    000000018000f0b0     kernel32:KERNEL32.dll
 0002:000000b8       __imp_GetStartupInfoW      000000018000f0b8     kernel32:KERNEL32.dll
 0002:000000c0       __imp_GetModuleHandleW     000000018000f0c0     kernel32:KERNEL32.dll
 0002:000000c8       __imp_RtlUnwindEx          000000018000f0c8     kernel32:KERNEL32.dll
 0002:000000d0       __imp_InterlockedFlushSList 000000018000f0d0     kernel32:KERNEL32.dll
 0002:000000d8       __imp_GetLastError         000000018000f0d8     kernel32:KERNEL32.dll
 0002:000000e0       __imp_SetLastError         000000018000f0e0     kernel32:KERNEL32.dll
 0002:000000e8       __imp_EnterCriticalSection 000000018000f0e8     kernel32:KERNEL32.dll
 0002:000000f0       __imp_LeaveCriticalSection 000000018000f0f0     kernel32:KERNEL32.dll
 0002:000000f8       __imp_DeleteCriticalSection 000000018000f0f8     kernel32:KERNEL32.dll
 0002:00000100       __imp_InitializeCriticalSectionAndSpinCount 000000018000f100     kernel32:KERNEL32.dll
 0002:00000108       __imp_TlsAlloc             000000018000f108     kernel32:KERNEL32.dll
 0002:00000110       __imp_TlsGetValue          000000018000f110     kernel32:KERNEL32.dll
 0002:00000118       __imp_TlsSetValue          000000018000f118     kernel32:KERNEL32.dll
 0002:00000120       __imp_TlsFree              000000018000f120     kernel32:KERNEL32.dll
 0002:00000128       __imp_FreeLibrary          000000018000f128     kernel32:KERNEL32.dll
 0002:00000130       __imp_GetProcAddress       000000018000f130     kernel32:KERNEL32.dll
 0002:00000138       __imp_LoadLibraryExW       000000018000f138     kernel32:KERNEL32.dll
 0002:00000140       __imp_ExitProcess          000000018000f140     kernel32:KERNEL32.dll
 0002:00000148       __imp_GetModuleHandleExW   000000018000f148     kernel32:KERNEL32.dll
 0002:00000150       __imp_GetModuleFileNameW   000000018000f150     kernel32:KERNEL32.dll
 0002:00000158       __imp_HeapFree             000000018000f158     kernel32:KERNEL32.dll
 0002:00000160       __imp_HeapAlloc            000000018000f160     kernel32:KERNEL32.dll
 0002:00000168       __imp_FindClose            000000018000f168     kernel32:KERNEL32.dll
 0002:00000170       __imp_FindFirstFileExW     000000018000f170     kernel32:KERNEL32.dll
 0002:00000178       __imp_FindNextFileW        000000018000f178     kernel32:KERNEL32.dll
 0002:00000180       __imp_IsValidCodePage      000000018000f180     kernel32:KERNEL32.dll
 0002:00000188       __imp_GetACP               000000018000f188     kernel32:KERNEL32.dll
 0002:00000190       __imp_GetOEMCP             000000018000f190     kernel32:KERNEL32.dll
 0002:00000198       __imp_GetCPInfo            000000018000f198     kernel32:KERNEL32.dll
 0002:000001a0       __imp_GetCommandLineA      000000018000f1a0     kernel32:KERNEL32.dll
 0002:000001a8       __imp_GetCommandLineW      000000018000f1a8     kernel32:KERNEL32.dll
 0002:000001b0       __imp_MultiByteToWideChar  000000018000f1b0     kernel32:KERNEL32.dll
 0002:000001b8       __imp_WideCharToMultiByte  000000018000f1b8     kernel32:KERNEL32.dll
 0002:000001c0       __imp_GetEnvironmentStringsW 000000018000f1c0     kernel32:KERNEL32.dll
 0002:000001c8       __imp_FreeEnvironmentStringsW 000000018000f1c8     kernel32:KERNEL32.dll
 0002:000001d0       __imp_FlsAlloc             000000018000f1d0     kernel32:KERNEL32.dll
 0002:000001d8       __imp_FlsGetValue          000000018000f1d8     kernel32:KERNEL32.dll
 0002:000001e0       __imp_FlsSetValue          000000018000f1e0     kernel32:KERNEL32.dll
 0002:000001e8       __imp_FlsFree              000000018000f1e8     kernel32:KERNEL32.dll
 0002:000001f0       __imp_LCMapStringW         000000018000f1f0     kernel32:KERNEL32.dll
 0002:000001f8       __imp_GetProcessHeap       000000018000f1f8     kernel32:KERNEL32.dll
 0002:00000200       __imp_GetStdHandle         000000018000f200     kernel32:KERNEL32.dll
 0002:00000208       __imp_GetFileType          000000018000f208     kernel32:KERNEL32.dll
 0002:00000210       __imp_GetStringTypeW       000000018000f210     kernel32:KERNEL32.dll
 0002:00000218       __imp_HeapSize             000000018000f218     kernel32:KERNEL32.dll
 0002:00000220       __imp_HeapReAlloc          000000018000f220     kernel32:KERNEL32.dll
 0002:00000228       __imp_SetStdHandle         000000018000f228     kernel32:KERNEL32.dll
 0002:00000230       __imp_FlushFileBuffers     000000018000f230     kernel32:KERNEL32.dll
 0002:00000238       __imp_WriteFile            000000018000f238     kernel32:KERNEL32.dll
 0002:00000240       __imp_GetConsoleOutputCP   000000018000f240     kernel32:KERNEL32.dll
 0002:00000248       __imp_GetConsoleMode       000000018000f248     kernel32:KERNEL32.dll
 0002:00000250       __imp_SetFilePointerEx     000000018000f250     kernel32:KERNEL32.dll
 0002:00000258       __imp_CreateFileW          000000018000f258     kernel32:KERNEL32.dll
 0002:00000260       __imp_WriteConsoleW        000000018000f260     kernel32:KERNEL32.dll
 0002:00000268       __imp_RaiseException       000000018000f268     kernel32:KERNEL32.dll
 0002:00000270       __imp_RtlPcToFileHeader    000000018000f270     kernel32:KERNEL32.dll
 0002:00000278       __imp_EncodePointer        000000018000f278     kernel32:KERNEL32.dll
 0002:00000280       \177KERNEL32_NULL_THUNK_DATA 000000018000f280     kernel32:KERNEL32.dll
 0002:00000288       __guard_check_icall_fptr   000000018000f288     LIBCMT:guard_support.obj
 0002:00000290       __guard_dispatch_icall_fptr 000000018000f290     LIBCMT:guard_support.obj
 0002:00000298       __guard_xfg_dispatch_icall_fptr 000000018000f298     libucrt:guard_support.obj
 0002:000002a0       __xc_a                     000000018000f2a0     LIBCMT:initializers.obj
 0002:000002a8       __xc_z                     000000018000f2a8     LIBCMT:initializers.obj
 0002:000002b0       __xi_a                     000000018000f2b0     LIBCMT:initializers.obj
 0002:000002b8       __acrt_multibyte_initializer 000000018000f2b8     libucrt:multibyte_initializer.obj
 0002:000002c0       __acrt_stdio_initializer   000000018000f2c0     libucrt:stdio_initializer.obj
 0002:000002c8       __acrt_tran_fma3_initializer 000000018000f2c8     libucrt:fma3_initializer.obj
 0002:000002d0       __xi_z                     000000018000f2d0     LIBCMT:initializers.obj
 0002:000002d8       __xp_a                     000000018000f2d8     LIBCMT:initializers.obj
 0002:000002e0       __acrt_locale_terminator   000000018000f2e0     libucrt:locale_initializer.obj
 0002:000002e8       __dcrt_console_output_terminator 000000018000f2e8     libucrt:console_output_initializer.obj
 0002:000002f0       __acrt_stdio_terminator    000000018000f2f0     libucrt:stdio_initializer.obj
 0002:000002f8       __xp_z                     000000018000f2f8     LIBCMT:initializers.obj
 0002:00000300       __xt_a                     000000018000f300     LIBCMT:initializers.obj
 0002:00000308       __xt_z                     000000018000f308     LIBCMT:initializers.obj
 0002:00000320       _pDefaultRawDllMain        000000018000f320     LIBCMT:dll_dllmain.obj
 0002:00000320       _pRawDllMain               000000018000f320     LIBCMT:dll_dllmain.obj
 0002:00000348       ??_C@_1BC@DNHGCMLG@?$AAa?$AAd?$AAv?$AAa?$AAp?$AAi?$AA3?$AA2?$AA?$AA@ 000000018000f348     libvcruntime:winapi_downlevel.obj
 0002:00000360       ??_C@_1DM@KHCHBNEB@?$AAa?$AAp?$AAi?$AA?9?$AAm?$AAs?$AA?9?$AAw?$AAi?$AAn?$AA?9?$AAc?$AAo?$AAr?$AAe?$AA?9?$AAf?$AAi?$AAb?$AAe?$AAr?$AAs?$AA?9?$AAl?$AA1?$AA?9?$AA1?$AA?9?$AA1?$AA?$AA@ 000000018000f360     libvcruntime:winapi_downlevel.obj
 0002:000003a0       ??_C@_1DK@LPPGFMPP@?$AAa?$AAp?$AAi?$AA?9?$AAm?$AAs?$AA?9?$AAw?$AAi?$AAn?$AA?9?$AAc?$AAo?$AAr?$AAe?$AA?9?$AAs?$AAy?$AAn?$AAc?$AAh?$AA?9?$AAl?$AA1?$AA?9?$AA2?$AA?9?$AA0?$AA?$AA@ 000000018000f3a0     libvcruntime:winapi_downlevel.obj
 0002:000003e0       ??_C@_1BC@GDMECMAK@?$AAk?$AAe?$AAr?$AAn?$AAe?$AAl?$AA3?$AA2?$AA?$AA@ 000000018000f3e0     libvcruntime:winapi_downlevel.obj
 0002:00000400       ??_C@_08KNHFBNJ@FlsAlloc?$AA@ 000000018000f400     libvcruntime:winapi_downlevel.obj
 0002:00000418       ??_C@_07PEJMOBNF@FlsFree?$AA@ 000000018000f418     libvcruntime:winapi_downlevel.obj
 0002:00000428       ??_C@_0M@GDNOONDI@FlsGetValue?$AA@ 000000018000f428     libvcruntime:winapi_downlevel.obj
 0002:00000440       ??_C@_0M@JCPCPOEF@FlsSetValue?$AA@ 000000018000f440     libvcruntime:winapi_downlevel.obj
 0002:00000458       ??_C@_0BM@HCFOFFN@InitializeCriticalSectionEx?$AA@ 000000018000f458     libvcruntime:winapi_downlevel.obj
 0002:000007a0       ??_C@_08EHJDFFNH@__based?$CI?$AA@ 000000018000f7a0     libvcruntime:undname.obj
 0002:000007b0       ??_C@_07KOLFKCDI@__cdecl?$AA@ 000000018000f7b0     libvcruntime:undname.obj
 0002:000007b8       ??_C@_08GHMPAG@__pascal?$AA@ 000000018000f7b8     libvcruntime:undname.obj
 0002:000007c8       ??_C@_09IFJBGAPI@__stdcall?$AA@ 000000018000f7c8     libvcruntime:undname.obj
 0002:000007d8       ??_C@_0L@NPHFGOKO@__thiscall?$AA@ 000000018000f7d8     libvcruntime:undname.obj
 0002:000007e8       ??_C@_0L@JMKHOMEK@__fastcall?$AA@ 000000018000f7e8     libvcruntime:undname.obj
 0002:000007f8       ??_C@_0N@BCKKPABJ@__vectorcall?$AA@ 000000018000f7f8     libvcruntime:undname.obj
 0002:00000808       ??_C@_09HIJEGCPM@__clrcall?$AA@ 000000018000f808     libvcruntime:undname.obj
 0002:00000814       ??_C@_06GHPCKEAG@__eabi?$AA@ 000000018000f814     libvcruntime:undname.obj
 0002:00000820       ??_C@_07JOMMBBKO@__ptr64?$AA@ 000000018000f820     libvcruntime:undname.obj
 0002:00000828       ??_C@_0L@PILCLIHE@__restrict?$AA@ 000000018000f828     libvcruntime:undname.obj
 0002:00000838       ??_C@_0M@GFIIJFMG@__unaligned?$AA@ 000000018000f838     libvcruntime:undname.obj
 0002:00000848       ??_C@_09DHDLOLLB@restrict?$CI?$AA@ 000000018000f848     libvcruntime:undname.obj
 0002:00000854       ??_C@_04NIHEBCM@?5new?$AA@ 000000018000f854     libvcruntime:undname.obj
 0002:00000860       ??_C@_07FPCDHGMM@?5delete?$AA@ 000000018000f860     libvcruntime:undname.obj
 0002:00000868       ??_C@_01NEMOKFLO@?$DN?$AA@ 000000018000f868     libvcruntime:undname.obj
 0002:0000086c       ??_C@_02GPIOPFAK@?$DO?$DO?$AA@ 000000018000f86c     libvcruntime:undname.obj
 0002:00000870       ??_C@_02FODMEDOG@?$DM?$DM?$AA@ 000000018000f870     libvcruntime:undname.obj
 0002:00000874       ??_C@_01DCLJPIOD@?$CB?$AA@ 000000018000f874     libvcruntime:undname.obj
 0002:00000878       ??_C@_02EGOFBIJA@?$DN?$DN?$AA@ 000000018000f878     libvcruntime:undname.obj
 0002:0000087c       ??_C@_02FDNJECIE@?$CB?$DN?$AA@ 000000018000f87c     libvcruntime:undname.obj
 0002:00000880       ??_C@_02GPECMEKF@?$FL?$FN?$AA@ 000000018000f880     libvcruntime:undname.obj
 0002:00000888       ??_C@_08LHJFAFGD@operator?$AA@ 000000018000f888     libvcruntime:undname.obj
 0002:00000894       ??_C@_02HBOOOICD@?9?$DO?$AA@ 000000018000f894     libvcruntime:undname.obj
 0002:00000898       ??_C@_01NBENCBCI@?$CK?$AA@ 000000018000f898     libvcruntime:undname.obj
 0002:0000089c       ??_C@_02ECNGHCIF@?$CL?$CL?$AA@ 000000018000f89c     libvcruntime:undname.obj
 0002:000008a0       ??_C@_02BAABKJLB@?9?9?$AA@ 000000018000f8a0     libvcruntime:undname.obj
 0002:000008a4       ??_C@_01JOAMLHOP@?9?$AA@   000000018000f8a4     libvcruntime:undname.obj
 0002:000008a8       ??_C@_01MIFGBAGJ@?$CL?$AA@ 000000018000f8a8     libvcruntime:undname.obj
 0002:000008ac       ??_C@_01HNPIGOCE@?$CG?$AA@ 000000018000f8ac     libvcruntime:undname.obj
 0002:000008b0       ??_C@_03MNHNFDLC@?9?$DO?$CK?$AA@ 000000018000f8b0     libvcruntime:undname.obj
 0002:000008b4       ??_C@_01KMDKNFGN@?1?$AA@   000000018000f8b4     libvcruntime:undname.obj
 0002:000008b8       ??_C@_01FGNFDNOH@?$CF?$AA@ 000000018000f8b8     libvcruntime:undname.obj
 0002:000008bc       ??_C@_01MNNFJEPP@?$DM?$AA@ 000000018000f8bc     libvcruntime:undname.obj
 0002:000008c0       ??_C@_02EHCHHCKH@?$DM?$DN?$AA@ 000000018000f8c0     libvcruntime:undname.obj
 0002:000008c4       ??_C@_01PPODPGHN@?$DO?$AA@ 000000018000f8c4     libvcruntime:undname.obj
 0002:000008c8       ??_C@_02EEKDKGMJ@?$DO?$DN?$AA@ 000000018000f8c8     libvcruntime:undname.obj
 0002:000008cc       ??_C@_01IHBHIGKO@?0?$AA@   000000018000f8cc     libvcruntime:undname.obj
 0002:000008d0       ??_C@_02HCKGKOFO@?$CI?$CJ?$AA@ 000000018000f8d0     libvcruntime:undname.obj
 0002:000008d4       ??_C@_01PJKLJHI@?$HO?$AA@  000000018000f8d4     libvcruntime:undname.obj
 0002:000008d8       ??_C@_01JKBOJNNK@?$FO?$AA@ 000000018000f8d8     libvcruntime:undname.obj
 0002:000008dc       ??_C@_01DNKMNLPK@?$HM?$AA@ 000000018000f8dc     libvcruntime:undname.obj
 0002:000008e0       ??_C@_02PPKAJPJL@?$CG?$CG?$AA@ 000000018000f8e0     libvcruntime:undname.obj
 0002:000008e4       ??_C@_02NONPIBCD@?$HM?$HM?$AA@ 000000018000f8e4     libvcruntime:undname.obj
 0002:000008e8       ??_C@_02FPIMKNGF@?$CK?$DN?$AA@ 000000018000f8e8     libvcruntime:undname.obj
 0002:000008ec       ??_C@_02FOEOMHFC@?$CL?$DN?$AA@ 000000018000f8ec     libvcruntime:undname.obj
 0002:000008f0       ??_C@_02FKMDLLOA@?9?$DN?$AA@ 000000018000f8f0     libvcruntime:undname.obj
 0002:000008f4       ??_C@_02FJEHGPIO@?1?$DN?$AA@ 000000018000f8f4     libvcruntime:undname.obj
 0002:000008f8       ??_C@_02FENAOKFI@?$CF?$DN?$AA@ 000000018000f8f8     libvcruntime:undname.obj
 0002:000008fc       ??_C@_03IKFCCPFF@?$DO?$DO?$DN?$AA@ 000000018000f8fc     libvcruntime:undname.obj
 0002:00000900       ??_C@_03CDNPDDLA@?$DM?$DM?$DN?$AA@ 000000018000f900     libvcruntime:undname.obj
 0002:00000904       ??_C@_02FGJGFEAB@?$CG?$DN?$AA@ 000000018000f904     libvcruntime:undname.obj
 0002:00000908       ??_C@_02DHLNPPGH@?$HM?$DN?$AA@ 000000018000f908     libvcruntime:undname.obj
 0002:0000090c       ??_C@_02MHEGNOJ@?$FO?$DN?$AA@ 000000018000f90c     libvcruntime:undname.obj
 0002:00000910       ??_C@_09IFPLHPGF@?$GAvftable?8?$AA@ 000000018000f910     libvcruntime:undname.obj
 0002:00000920       ??_C@_09BLBHBJP@?$GAvbtable?8?$AA@ 000000018000f920     libvcruntime:undname.obj
 0002:00000930       ??_C@_07FEEIOKP@?$GAvcall?8?$AA@ 000000018000f930     libvcruntime:undname.obj
 0002:00000938       ??_C@_08LLFFHHDJ@?$GAtypeof?8?$AA@ 000000018000f938     libvcruntime:undname.obj
 0002:00000948       ??_C@_0BF@KDPPACIK@?$GAlocal?5static?5guard?8?$AA@ 000000018000f948     libvcruntime:undname.obj
 0002:00000960       ??_C@_08OBABFOLI@?$GAstring?8?$AA@ 000000018000f960     libvcruntime:undname.obj
 0002:00000970       ??_C@_0BD@JDLKDPAB@?$GAvbase?5destructor?8?$AA@ 000000018000f970     libvcruntime:undname.obj
 0002:00000988       ??_C@_0BN@DEGPLNFK@?$GAvector?5deleting?5destructor?8?$AA@ 000000018000f988     libvcruntime:undname.obj
 0002:000009a8       ??_C@_0BO@OBMKPJIG@?$GAdefault?5constructor?5closure?8?$AA@ 000000018000f9a8     libvcruntime:undname.obj
 0002:000009c8       ??_C@_0BN@IMDCHIKM@?$GAscalar?5deleting?5destructor?8?$AA@ 000000018000f9c8     libvcruntime:undname.obj
 0002:000009e8       ??_C@_0BO@PFGOCPJJ@?$GAvector?5constructor?5iterator?8?$AA@ 000000018000f9e8     libvcruntime:undname.obj
 0002:00000a08       ??_C@_0BN@LFPFMEDL@?$GAvector?5destructor?5iterator?8?$AA@ 000000018000fa08     libvcruntime:undname.obj
 0002:00000a28       ??_C@_0CE@IKBNEHA@?$GAvector?5vbase?5constructor?5iterat@ 000000018000fa28     libvcruntime:undname.obj
 0002:00000a50       ??_C@_0BL@NILFHHPC@?$GAvirtual?5displacement?5map?8?$AA@ 000000018000fa50     libvcruntime:undname.obj
 0002:00000a70       ??_C@_0CB@JONCMFFK@?$GAeh?5vector?5constructor?5iterator?8@ 000000018000fa70     libvcruntime:undname.obj
 0002:00000a98       ??_C@_0CA@GCEOPDGL@?$GAeh?5vector?5destructor?5iterator?8?$AA@ 000000018000fa98     libvcruntime:undname.obj
 0002:00000ab8       ??_C@_0CH@OOJPLCPH@?$GAeh?5vector?5vbase?5constructor?5ite@ 000000018000fab8     libvcruntime:undname.obj
 0002:00000ae0       ??_C@_0BL@LLKPOHJI@?$GAcopy?5constructor?5closure?8?$AA@ 000000018000fae0     libvcruntime:undname.obj
 0002:00000b00       ??_C@_0BA@KBCDOMBN@?$GAudt?5returning?8?$AA@ 000000018000fb00     libvcruntime:undname.obj
 0002:00000b10       ??_C@_03KLGMFNMG@?$GAEH?$AA@ 000000018000fb10     libvcruntime:undname.obj
 0002:00000b14       ??_C@_05KHLCHHI@?$GARTTI?$AA@ 000000018000fb14     libvcruntime:undname.obj
 0002:00000b20       ??_C@_0BA@KKLDJDLB@?$GAlocal?5vftable?8?$AA@ 000000018000fb20     libvcruntime:undname.obj
 0002:00000b30       ??_C@_0CE@IIHCMGGL@?$GAlocal?5vftable?5constructor?5closu@ 000000018000fb30     libvcruntime:undname.obj
 0002:00000b54       ??_C@_06FHBGPFGH@?5new?$FL?$FN?$AA@ 000000018000fb54     libvcruntime:undname.obj
 0002:00000b60       ??_C@_09LBNFPBCA@?5delete?$FL?$FN?$AA@ 000000018000fb60     libvcruntime:undname.obj
 0002:00000b70       ??_C@_0P@HJKNJFNN@?$GAomni?5callsig?8?$AA@ 000000018000fb70     libvcruntime:undname.obj
 0002:00000b80       ??_C@_0BL@CNOONJFP@?$GAplacement?5delete?5closure?8?$AA@ 000000018000fb80     libvcruntime:undname.obj
 0002:00000ba0       ??_C@_0BN@CKNJLHMB@?$GAplacement?5delete?$FL?$FN?5closure?8?$AA@ 000000018000fba0     libvcruntime:undname.obj
 0002:00000bc0       ??_C@_0CG@CFDHKGGD@?$GAmanaged?5vector?5constructor?5iter@ 000000018000fbc0     libvcruntime:undname.obj
 0002:00000be8       ??_C@_0CF@IMGKMJNO@?$GAmanaged?5vector?5destructor?5itera@ 000000018000fbe8     libvcruntime:undname.obj
 0002:00000c10       ??_C@_0CG@HLDDJMAG@?$GAeh?5vector?5copy?5constructor?5iter@ 000000018000fc10     libvcruntime:undname.obj
 0002:00000c38       ??_C@_0CM@FCBBDIGB@?$GAeh?5vector?5vbase?5copy?5constructo@ 000000018000fc38     libvcruntime:undname.obj
 0002:00000c68       ??_C@_0BL@CLIPGLGB@?$GAdynamic?5initializer?5for?5?8?$AA@ 000000018000fc68     libvcruntime:undname.obj
 0002:00000c88       ??_C@_0CB@PDBIFEP@?$GAdynamic?5atexit?5destructor?5for?5?8@ 000000018000fc88     libvcruntime:undname.obj
 0002:00000cb0       ??_C@_0CD@CGAJBKEJ@?$GAvector?5copy?5constructor?5iterato@ 000000018000fcb0     libvcruntime:undname.obj
 0002:00000cd8       ??_C@_0CJ@GJELGAMM@?$GAvector?5vbase?5copy?5constructor?5i@ 000000018000fcd8     libvcruntime:undname.obj
 0002:00000d08       ??_C@_0CL@FGIJHLCE@?$GAmanaged?5vector?5copy?5constructor@ 000000018000fd08     libvcruntime:undname.obj
 0002:00000d38       ??_C@_0BM@PMGGMLDN@?$GAlocal?5static?5thread?5guard?8?$AA@ 000000018000fd38     libvcruntime:undname.obj
 0002:00000d58       ??_C@_0N@BDNMDMOL@operator?5?$CC?$CC?5?$AA@ 000000018000fd58     libvcruntime:undname.obj
 0002:00000d68       ??_C@_0BC@DAFEJGAK@?5Type?5Descriptor?8?$AA@ 000000018000fd68     libvcruntime:undname.obj
 0002:00000d80       ??_C@_0BM@LDKODKLH@?5Base?5Class?5Descriptor?5at?5?$CI?$AA@ 000000018000fd80     libvcruntime:undname.obj
 0002:00000da0       ??_C@_0BD@LGICGFMM@?5Base?5Class?5Array?8?$AA@ 000000018000fda0     libvcruntime:undname.obj
 0002:00000db8       ??_C@_0BN@MECKDCOJ@?5Class?5Hierarchy?5Descriptor?8?$AA@ 000000018000fdb8     libvcruntime:undname.obj
 0002:00000dd8       ??_C@_0BK@CFCOFLF@?5Complete?5Object?5Locator?8?$AA@ 000000018000fdd8     libvcruntime:undname.obj
 0002:00000e00       __acrt_exception_action_table 000000018000fe00     libucrt:exception_filter.obj
 0002:00000ec0       __acrt_signal_action_table_count 000000018000fec0     libucrt:exception_filter.obj
 0002:00000ec8       __acrt_signal_action_first_fpe_index 000000018000fec8     libucrt:exception_filter.obj
 0002:00000ed0       __acrt_signal_action_fpe_count 000000018000fed0     libucrt:exception_filter.obj
 0002:00000f28       ??_C@_1BI@BGOHAHKC@?$AAm?$AAs?$AAc?$AAo?$AAr?$AAe?$AAe?$AA?4?$AAd?$AAl?$AAl@ 000000018000ff28     libucrt:exit.obj
 0002:00000f40       ??_C@_0P@MIGLKIOC@CorExitProcess@ 000000018000ff40     libucrt:exit.obj
 0002:00001228       ??_C@_1M@HPNHIDJI@?$AAj?$AAa?$AA?9?$AAJ?$AAP@ 0000000180010228     libucrt:mbctype.obj
 0002:00001238       ??_C@_1M@BIBDDEMK@?$AAz?$AAh?$AA?9?$AAC?$AAN@ 0000000180010238     libucrt:mbctype.obj
 0002:00001248       ??_C@_1M@JLOOOEGK@?$AAk?$AAo?$AA?9?$AAK?$AAR@ 0000000180010248     libucrt:mbctype.obj
 0002:00001258       ??_C@_1M@CLNBBOPM@?$AAz?$AAh?$AA?9?$AAT?$AAW@ 0000000180010258     libucrt:mbctype.obj
 0002:00001310       ??_C@_1EA@JGEFHKEI@?$AAa?$AAp?$AAi?$AA?9?$AAm?$AAs?$AA?9?$AAw?$AAi?$AAn?$AA?9?$AAc?$AAo?$AAr?$AAe@ 0000000180010310     libucrt:winapi_thunks.obj
 0002:00001350       ??_C@_1DI@IJCEHOCB@?$AAa?$AAp?$AAi?$AA?9?$AAm?$AAs?$AA?9?$AAw?$AAi?$AAn?$AA?9?$AAc?$AAo?$AAr?$AAe@ 0000000180010350     libucrt:winapi_thunks.obj
 0002:00001390       ??_C@_1EI@MPIAOHOC@?$AAa?$AAp?$AAi?$AA?9?$AAm?$AAs?$AA?9?$AAw?$AAi?$AAn?$AA?9?$AAc?$AAo?$AAr?$AAe@ 0000000180010390     libucrt:winapi_thunks.obj
 0002:000013e0       ??_C@_1FK@FPHCKFIE@?$AAa?$AAp?$AAi?$AA?9?$AAm?$AAs?$AA?9?$AAw?$AAi?$AAn?$AA?9?$AAc?$AAo?$AAr?$AAe@ 00000001800103e0     libucrt:winapi_thunks.obj
 0002:00001440       ??_C@_1EM@DILCGIIO@?$AAa?$AAp?$AAi?$AA?9?$AAm?$AAs?$AA?9?$AAw?$AAi?$AAn?$AA?9?$AAc?$AAo?$AAr?$AAe@ 0000000180010440     libucrt:winapi_thunks.obj
 0002:00001490       ??_C@_1DM@LNCGDDPN@?$AAa?$AAp?$AAi?$AA?9?$AAm?$AAs?$AA?9?$AAw?$AAi?$AAn?$AA?9?$AAc?$AAo?$AAr?$AAe@ 0000000180010490     libucrt:winapi_thunks.obj
 0002:000014d0       ??_C@_1DK@LPPGFMPP@?$AAa?$AAp?$AAi?$AA?9?$AAm?$AAs?$AA?9?$AAw?$AAi?$AAn?$AA?9?$AAc?$AAo?$AAr?$AAe@ 00000001800104d0     libucrt:winapi_thunks.obj
 0002:00001510       ??_C@_1DO@FPAPJEMD@?$AAa?$AAp?$AAi?$AA?9?$AAm?$AAs?$AA?9?$AAw?$AAi?$AAn?$AA?9?$AAc?$AAo?$AAr?$AAe@ 0000000180010510     libucrt:winapi_thunks.obj
 0002:00001550       ??_C@_1DK@NDHNAHIO@?$AAa?$AAp?$AAi?$AA?9?$AAm?$AAs?$AA?9?$AAw?$AAi?$AAn?$AA?9?$AAc?$AAo?$AAr?$AAe@ 0000000180010550     libucrt:winapi_thunks.obj
 0002:00001590       ??_C@_1DM@KGHDGBCM@?$AAa?$AAp?$AAi?$AA?9?$AAm?$AAs?$AA?9?$AAw?$AAi?$AAn?$AA?9?$AAc?$AAo?$AAr?$AAe@ 0000000180010590     libucrt:winapi_thunks.obj
 0002:000015d0       ??_C@_1EO@IJIOEFOH@?$AAa?$AAp?$AAi?$AA?9?$AAm?$AAs?$AA?9?$AAw?$AAi?$AAn?$AA?9?$AAr?$AAt?$AAc?$AAo@ 00000001800105d0     libucrt:winapi_thunks.obj
 0002:00001620       ??_C@_1FG@HHGEKANL@?$AAa?$AAp?$AAi?$AA?9?$AAm?$AAs?$AA?9?$AAw?$AAi?$AAn?$AA?9?$AAs?$AAe?$AAc?$AAu@ 0000000180010620     libucrt:winapi_thunks.obj
 0002:00001680       ??_C@_1EG@DBIOJECG@?$AAe?$AAx?$AAt?$AA?9?$AAm?$AAs?$AA?9?$AAw?$AAi?$AAn?$AA?9?$AAn?$AAt?$AAu?$AAs@ 0000000180010680     libucrt:winapi_thunks.obj
 0002:000016d0       ??_C@_1EO@FIHMJCLF@?$AAe?$AAx?$AAt?$AA?9?$AAm?$AAs?$AA?9?$AAw?$AAi?$AAn?$AA?9?$AAn?$AAt?$AAu?$AAs@ 00000001800106d0     libucrt:winapi_thunks.obj
 0002:00001720       ??_C@_1BC@DNHGCMLG@?$AAa?$AAd?$AAv?$AAa?$AAp?$AAi?$AA3?$AA2@ 0000000180010720     libucrt:winapi_thunks.obj
 0002:00001738       ??_C@_1BC@GDMECMAK@?$AAk?$AAe?$AAr?$AAn?$AAe?$AAl?$AA3?$AA2@ 0000000180010738     libucrt:winapi_thunks.obj
 0002:00001750       ??_C@_1M@OAIMIKLP@?$AAn?$AAt?$AAd?$AAl?$AAl@ 0000000180010750     libucrt:winapi_thunks.obj
 0002:00001760       ??_C@_1EG@DPGNFKGC@?$AAa?$AAp?$AAi?$AA?9?$AAm?$AAs?$AA?9?$AAw?$AAi?$AAn?$AA?9?$AAa?$AAp?$AAp?$AAm@ 0000000180010760     libucrt:winapi_thunks.obj
 0002:000017a8       ??_C@_1O@BCCLBEOE@?$AAu?$AAs?$AAe?$AAr?$AA3?$AA2@ 00000001800107a8     libucrt:winapi_thunks.obj
 0002:000017b8       ??_C@_1BA@PFFKHIOG@?$AAa?$AAp?$AAi?$AA?9?$AAm?$AAs?$AA?9@ 00000001800107b8     libucrt:winapi_thunks.obj
 0002:000017c8       ??_C@_1BA@IAIFMGEF@?$AAe?$AAx?$AAt?$AA?9?$AAm?$AAs?$AA?9@ 00000001800107c8     libucrt:winapi_thunks.obj
 0002:000017e0       ??_C@_0BA@FHFNEAED@AreFileApisANSI@ 00000001800107e0     libucrt:winapi_thunks.obj
 0002:000017f8       ??_C@_0BM@HCFOFFN@InitializeCriticalSectionEx@ 00000001800107f8     libucrt:winapi_thunks.obj
 0002:00001820       ??_C@_0O@KKBNKAPF@LCMapStringEx@ 0000000180010820     libucrt:winapi_thunks.obj
 0002:00001838       ??_C@_0BB@HBDEELFH@LocaleNameToLCID@ 0000000180010838     libucrt:winapi_thunks.obj
 0002:00001850       ??_C@_0CF@OJOFEIGO@AppPolicyGetProcessTerminationM@ 0000000180010850     libucrt:winapi_thunks.obj
 0002:00001880       __lc_time_c                0000000180010880     libucrt:nlsdata.obj
 0002:00001b40       ??_C@_03KOEHGMDN@Sun@      0000000180010b40     libucrt:nlsdata.obj
 0002:00001b44       ??_C@_03PDAGKDH@Mon@       0000000180010b44     libucrt:nlsdata.obj
 0002:00001b48       ??_C@_03NAGEINEP@Tue@      0000000180010b48     libucrt:nlsdata.obj
 0002:00001b4c       ??_C@_03MHOMLAJA@Wed@      0000000180010b4c     libucrt:nlsdata.obj
 0002:00001b50       ??_C@_03IOFIKPDN@Thu@      0000000180010b50     libucrt:nlsdata.obj
 0002:00001b54       ??_C@_03IDIOELNC@Fri@      0000000180010b54     libucrt:nlsdata.obj
 0002:00001b58       ??_C@_03FEFJNEK@Sat@       0000000180010b58     libucrt:nlsdata.obj
 0002:00001b5c       ??_C@_06OOPIFAJ@Sunday@    0000000180010b5c     libucrt:nlsdata.obj
 0002:00001b64       ??_C@_06JLEDEDGH@Monday@   0000000180010b64     libucrt:nlsdata.obj
 0002:00001b70       ??_C@_07BAAGCFCM@Tuesday@  0000000180010b70     libucrt:nlsdata.obj
 0002:00001b78       ??_C@_09DLIGFAKA@Wednesday@ 0000000180010b78     libucrt:nlsdata.obj
 0002:00001b88       ??_C@_08HACCIKIA@Thursday@ 0000000180010b88     libucrt:nlsdata.obj
 0002:00001b94       ??_C@_06JECMNKMI@Friday@   0000000180010b94     libucrt:nlsdata.obj
 0002:00001ba0       ??_C@_08INBOOONO@Saturday@ 0000000180010ba0     libucrt:nlsdata.obj
 0002:00001bac       ??_C@_03JIHJHPIE@Jan@      0000000180010bac     libucrt:nlsdata.obj
 0002:00001bb0       ??_C@_03HJBDCHOM@Feb@      0000000180010bb0     libucrt:nlsdata.obj
 0002:00001bb4       ??_C@_03ODNJBKGA@Mar@      0000000180010bb4     libucrt:nlsdata.obj
 0002:00001bb8       ??_C@_03LEOLGMJP@Apr@      0000000180010bb8     libucrt:nlsdata.obj
 0002:00001bbc       ??_C@_03CNMDKL@May@        0000000180010bbc     libucrt:nlsdata.obj
 0002:00001bc0       ??_C@_03IDFGHECI@Jun@      0000000180010bc0     libucrt:nlsdata.obj
 0002:00001bc4       ??_C@_03LBGABGKK@Jul@      0000000180010bc4     libucrt:nlsdata.obj
 0002:00001bc8       ??_C@_03IFJFEIGA@Aug@      0000000180010bc8     libucrt:nlsdata.obj
 0002:00001bcc       ??_C@_03GGCAPAJC@Sep@      0000000180010bcc     libucrt:nlsdata.obj
 0002:00001bd0       ??_C@_03BMAOKBAD@Oct@      0000000180010bd0     libucrt:nlsdata.obj
 0002:00001bd4       ??_C@_03JPJOFNIA@Nov@      0000000180010bd4     libucrt:nlsdata.obj
 0002:00001bd8       ??_C@_03MKABNOCG@Dec@      0000000180010bd8     libucrt:nlsdata.obj
 0002:00001be0       ??_C@_07CGJPFGJA@January@  0000000180010be0     libucrt:nlsdata.obj
 0002:00001be8       ??_C@_08GNJGEPFN@February@ 0000000180010be8     libucrt:nlsdata.obj
 0002:00001bf4       ??_C@_05HPCKOFNC@March@    0000000180010bf4     libucrt:nlsdata.obj
 0002:00001bfc       ??_C@_05DMJDNLEJ@April@    0000000180010bfc     libucrt:nlsdata.obj
 0002:00001c04       ??_C@_04CNLMGBGM@June@     0000000180010c04     libucrt:nlsdata.obj
 0002:00001c0c       ??_C@_04MIEPOIFP@July@     0000000180010c0c     libucrt:nlsdata.obj
 0002:00001c14       ??_C@_06LBBHFDDG@August@   0000000180010c14     libucrt:nlsdata.obj
 0002:00001c20       ??_C@_09BHHEALKD@September@ 0000000180010c20     libucrt:nlsdata.obj
 0002:00001c30       ??_C@_07JJNFCEND@October@  0000000180010c30     libucrt:nlsdata.obj
 0002:00001c38       ??_C@_08HCHEGEOA@November@ 0000000180010c38     libucrt:nlsdata.obj
 0002:00001c48       ??_C@_08EDHMEBNP@December@ 0000000180010c48     libucrt:nlsdata.obj
 0002:00001c54       ??_C@_02DEDBPAFC@AM@       0000000180010c54     libucrt:nlsdata.obj
 0002:00001c58       ??_C@_02CJNFDJBF@PM@       0000000180010c58     libucrt:nlsdata.obj
 0002:00001c60       ??_C@_08BPBNCDIB@MM?1dd?1yy@ 0000000180010c60     libucrt:nlsdata.obj
 0002:00001c70       ??_C@_0BE@CKGJFCPC@dddd?0?5MMMM?5dd?0?5yyyy@ 0000000180010c70     libucrt:nlsdata.obj
 0002:00001c88       ??_C@_08JCCMCCIL@HH?3mm?3ss@ 0000000180010c88     libucrt:nlsdata.obj
 0002:00001c98       ??_C@_17MBGCMIPB@?$AAS?$AAu?$AAn@ 0000000180010c98     libucrt:nlsdata.obj
 0002:00001ca0       ??_C@_17KBOMKBF@?$AAM?$AAo?$AAn@ 0000000180010ca0     libucrt:nlsdata.obj
 0002:00001ca8       ??_C@_17BMKGEGOJ@?$AAT?$AAu?$AAe@ 0000000180010ca8     libucrt:nlsdata.obj
 0002:00001cb0       ??_C@_17CJEDCEPE@?$AAW?$AAe?$AAd@ 0000000180010cb0     libucrt:nlsdata.obj
 0002:00001cb8       ??_C@_17PDPHAADD@?$AAT?$AAh?$AAu@ 0000000180010cb8     libucrt:nlsdata.obj
 0002:00001cc0       ??_C@_17HFOLPPLP@?$AAF?$AAr?$AAi@ 0000000180010cc0     libucrt:nlsdata.obj
 0002:00001cc8       ??_C@_17GGIBDPIH@?$AAS?$AAa?$AAt@ 0000000180010cc8     libucrt:nlsdata.obj
 0002:00001cd0       ??_C@_1O@IHNHDHPB@?$AAS?$AAu?$AAn?$AAd?$AAa?$AAy@ 0000000180010cd0     libucrt:nlsdata.obj
 0002:00001ce0       ??_C@_1O@MMNBFLIA@?$AAM?$AAo?$AAn?$AAd?$AAa?$AAy@ 0000000180010ce0     libucrt:nlsdata.obj
 0002:00001cf0       ??_C@_1BA@ENFBFFEK@?$AAT?$AAu?$AAe?$AAs?$AAd?$AAa?$AAy@ 0000000180010cf0     libucrt:nlsdata.obj
 0002:00001d00       ??_C@_1BE@EBOGMDOH@?$AAW?$AAe?$AAd?$AAn?$AAe?$AAs?$AAd?$AAa?$AAy@ 0000000180010d00     libucrt:nlsdata.obj
 0002:00001d18       ??_C@_1BC@HHMNLIHE@?$AAT?$AAh?$AAu?$AAr?$AAs?$AAd?$AAa?$AAy@ 0000000180010d18     libucrt:nlsdata.obj
 0002:00001d30       ??_C@_1O@PDICJHAG@?$AAF?$AAr?$AAi?$AAd?$AAa?$AAy@ 0000000180010d30     libucrt:nlsdata.obj
 0002:00001d40       ??_C@_1BC@ENMNNPAJ@?$AAS?$AAa?$AAt?$AAu?$AAr?$AAd?$AAa?$AAy@ 0000000180010d40     libucrt:nlsdata.obj
 0002:00001d58       ??_C@_17DKNBKCHM@?$AAJ?$AAa?$AAn@ 0000000180010d58     libucrt:nlsdata.obj
 0002:00001d60       ??_C@_17LMDJEKJN@?$AAF?$AAe?$AAb@ 0000000180010d60     libucrt:nlsdata.obj
 0002:00001d68       ??_C@_17CKNLEDEC@?$AAM?$AAa?$AAr@ 0000000180010d68     libucrt:nlsdata.obj
 0002:00001d70       ??_C@_17LFPOIHDD@?$AAA?$AAp?$AAr@ 0000000180010d70     libucrt:nlsdata.obj
 0002:00001d78       ??_C@_17PNNKMEED@?$AAM?$AAa?$AAy@ 0000000180010d78     libucrt:nlsdata.obj
 0002:00001d80       ??_C@_17KCJGOCPB@?$AAJ?$AAu?$AAn@ 0000000180010d80     libucrt:nlsdata.obj
 0002:00001d88       ??_C@_17IJPCKHK@?$AAJ?$AAu?$AAl@ 0000000180010d88     libucrt:nlsdata.obj
 0002:00001d90       ??_C@_17ICPELBCN@?$AAA?$AAu?$AAg@ 0000000180010d90     libucrt:nlsdata.obj
 0002:00001d98       ??_C@_17HCHCOKMG@?$AAS?$AAe?$AAp@ 0000000180010d98     libucrt:nlsdata.obj
 0002:00001da0       ??_C@_17FNLKOI@?$AAO?$AAc?$AAt@ 0000000180010da0     libucrt:nlsdata.obj
 0002:00001da8       ??_C@_17BBDMLCIG@?$AAN?$AAo?$AAv@ 0000000180010da8     libucrt:nlsdata.obj
 0002:00001db0       ??_C@_17EGKACKIF@?$AAD?$AAe?$AAc@ 0000000180010db0     libucrt:nlsdata.obj
 0002:00001db8       ??_C@_1BA@EFMEIEBA@?$AAJ?$AAa?$AAn?$AAu?$AAa?$AAr?$AAy@ 0000000180010db8     libucrt:nlsdata.obj
 0002:00001dc8       ??_C@_1BC@JGDDFFAM@?$AAF?$AAe?$AAb?$AAr?$AAu?$AAa?$AAr?$AAy@ 0000000180010dc8     libucrt:nlsdata.obj
 0002:00001de0       ??_C@_1M@IKEENEDF@?$AAM?$AAa?$AAr?$AAc?$AAh@ 0000000180010de0     libucrt:nlsdata.obj
 0002:00001df0       ??_C@_1M@GJNLMHFD@?$AAA?$AAp?$AAr?$AAi?$AAl@ 0000000180010df0     libucrt:nlsdata.obj
 0002:00001e00       ??_C@_19EPFLPGAP@?$AAJ?$AAu?$AAn?$AAe@ 0000000180010e00     libucrt:nlsdata.obj
 0002:00001e10       ??_C@_19BIFMLPCD@?$AAJ?$AAu?$AAl?$AAy@ 0000000180010e10     libucrt:nlsdata.obj
 0002:00001e20       ??_C@_1O@PAHLKOAC@?$AAA?$AAu?$AAg?$AAu?$AAs?$AAt@ 0000000180010e20     libucrt:nlsdata.obj
 0002:00001e30       ??_C@_1BE@DKAAMBJL@?$AAS?$AAe?$AAp?$AAt?$AAe?$AAm?$AAb?$AAe?$AAr@ 0000000180010e30     libucrt:nlsdata.obj
 0002:00001e48       ??_C@_1BA@EPANDLNG@?$AAO?$AAc?$AAt?$AAo?$AAb?$AAe?$AAr@ 0000000180010e48     libucrt:nlsdata.obj
 0002:00001e58       ??_C@_1BC@BGLIFPF@?$AAN?$AAo?$AAv?$AAe?$AAm?$AAb?$AAe?$AAr@ 0000000180010e58     libucrt:nlsdata.obj
 0002:00001e70       ??_C@_1BC@FEMKIFH@?$AAD?$AAe?$AAc?$AAe?$AAm?$AAb?$AAe?$AAr@ 0000000180010e70     libucrt:nlsdata.obj
 0002:00001e84       ??_C@_15ODEHAHHF@?$AAA?$AAM@ 0000000180010e84     libucrt:nlsdata.obj
 0002:00001e8c       ??_C@_15CLMNNGEL@?$AAP?$AAM@ 0000000180010e8c     libucrt:nlsdata.obj
 0002:00001e98       ??_C@_1BC@IEBCMHCM@?$AAM?$AAM?$AA?1?$AAd?$AAd?$AA?1?$AAy?$AAy@ 0000000180010e98     libucrt:nlsdata.obj
 0002:00001eb0       ??_C@_1CI@KNAKOEBC@?$AAd?$AAd?$AAd?$AAd?$AA?0?$AA?5?$AAM?$AAM?$AAM?$AAM?$AA?5?$AAd?$AAd?$AA?0?$AA?5@ 0000000180010eb0     libucrt:nlsdata.obj
 0002:00001ed8       ??_C@_1BC@GDGBMEMK@?$AAH?$AAH?$AA?3?$AAm?$AAm?$AA?3?$AAs?$AAs@ 0000000180010ed8     libucrt:nlsdata.obj
 0002:00001ef0       ??_C@_1M@BMHNFIME@?$AAe?$AAn?$AA?9?$AAU?$AAS@ 0000000180010ef0     libucrt:nlsdata.obj
 0002:00001f00       __newctype                 0000000180010f00     libucrt:ctype.obj
 0002:00002200       __newclmap                 0000000180011200     libucrt:ctype.obj
 0002:00002380       __newcumap                 0000000180011380     libucrt:ctype.obj
 0002:00003340       ??_C@_15EMKDOKLE@?$AAa?$AAr@ 0000000180012340     libucrt:lcidtoname_downlevel.obj
 0002:00003348       ??_C@_15KNPADPLH@?$AAb?$AAg@ 0000000180012348     libucrt:lcidtoname_downlevel.obj
 0002:00003350       ??_C@_15EDMHLDMO@?$AAc?$AAa@ 0000000180012350     libucrt:lcidtoname_downlevel.obj
 0002:00003358       ??_C@_1O@BPEAJADD@?$AAz?$AAh?$AA?9?$AAC?$AAH?$AAS@ 0000000180012358     libucrt:lcidtoname_downlevel.obj
 0002:00003368       ??_C@_15LJNHCMNK@?$AAc?$AAs@ 0000000180012368     libucrt:lcidtoname_downlevel.obj
 0002:00003370       ??_C@_15FOMCIDHG@?$AAd?$AAa@ 0000000180012370     libucrt:lcidtoname_downlevel.obj
 0002:00003378       ??_C@_15NBKABECB@?$AAd?$AAe@ 0000000180012378     libucrt:lcidtoname_downlevel.obj
 0002:00003380       ??_C@_15GHPEIIAO@?$AAe?$AAl@ 0000000180012380     libucrt:lcidtoname_downlevel.obj
 0002:00003388       ??_C@_15MNPNEAIF@?$AAe?$AAn@ 0000000180012388     libucrt:lcidtoname_downlevel.obj
 0002:00003390       ??_C@_15GPIOMPMH@?$AAe?$AAs@ 0000000180012390     libucrt:lcidtoname_downlevel.obj
 0002:00003398       ??_C@_15NGLOAKJC@?$AAf?$AAi@ 0000000180012398     libucrt:lcidtoname_downlevel.obj
 0002:000033a0       ??_C@_15FBKGNKAM@?$AAf?$AAr@ 00000001800123a0     libucrt:lcidtoname_downlevel.obj
 0002:000033a8       ??_C@_15KGGCNEFK@?$AAh?$AAe@ 00000001800123a8     libucrt:lcidtoname_downlevel.obj
 0002:000033b0       ??_C@_15PGHLIDMF@?$AAh?$AAu@ 00000001800123b0     libucrt:lcidtoname_downlevel.obj
 0002:000033b8       ??_C@_15BIEMAPLM@?$AAi?$AAs@ 00000001800123b8     libucrt:lcidtoname_downlevel.obj
 0002:000033c0       ??_C@_15IFJLDHAF@?$AAi?$AAt@ 00000001800123c0     libucrt:lcidtoname_downlevel.obj
 0002:000033c8       ??_C@_15GEMIOCAG@?$AAj?$AAa@ 00000001800123c8     libucrt:lcidtoname_downlevel.obj
 0002:000033d0       ??_C@_15EPELEGJA@?$AAk?$AAo@ 00000001800123d0     libucrt:lcidtoname_downlevel.obj
 0002:000033d8       ??_C@_15NDDHIMN@?$AAn?$AAl@ 00000001800123d8     libucrt:lcidtoname_downlevel.obj
 0002:000033e0       ??_C@_15BPIGNHCD@?$AAn?$AAo@ 00000001800123e0     libucrt:lcidtoname_downlevel.obj
 0002:000033e8       ??_C@_15DEOPBLCG@?$AAp?$AAl@ 00000001800123e8     libucrt:lcidtoname_downlevel.obj
 0002:000033f0       ??_C@_15KBECGEFG@?$AAp?$AAt@ 00000001800123f0     libucrt:lcidtoname_downlevel.obj
 0002:000033f8       ??_C@_15GLJCBFMD@?$AAr?$AAo@ 00000001800123f8     libucrt:lcidtoname_downlevel.obj
 0002:00003400       ??_C@_15FEDGKCDI@?$AAr?$AAu@ 0000000180012400     libucrt:lcidtoname_downlevel.obj
 0002:00003408       ??_C@_15GLKMLLHM@?$AAh?$AAr@ 0000000180012408     libucrt:lcidtoname_downlevel.obj
 0002:00003410       ??_C@_15CPKMFBDB@?$AAs?$AAk@ 0000000180012410     libucrt:lcidtoname_downlevel.obj
 0002:00003418       ??_C@_15BAAIOGMK@?$AAs?$AAq@ 0000000180012418     libucrt:lcidtoname_downlevel.obj
 0002:00003420       ??_C@_15INNPNOHD@?$AAs?$AAv@ 0000000180012420     libucrt:lcidtoname_downlevel.obj
 0002:00003428       ??_C@_15CABMMOGH@?$AAt?$AAh@ 0000000180012428     libucrt:lcidtoname_downlevel.obj
 0002:00003430       ??_C@_15BPLIHJJM@?$AAt?$AAr@ 0000000180012430     libucrt:lcidtoname_downlevel.obj
 0002:00003438       ??_C@_15NEOEKKDJ@?$AAu?$AAr@ 0000000180012438     libucrt:lcidtoname_downlevel.obj
 0002:00003440       ??_C@_15NFICGAJK@?$AAi?$AAd@ 0000000180012440     libucrt:lcidtoname_downlevel.obj
 0002:00003448       ??_C@_15PJPFLCCM@?$AAu?$AAk@ 0000000180012448     libucrt:lcidtoname_downlevel.obj
 0002:00003450       ??_C@_15HPJPHDM@?$AAb?$AAe@ 0000000180012450     libucrt:lcidtoname_downlevel.obj
 0002:00003458       ??_C@_15LCHLGJII@?$AAs?$AAl@ 0000000180012458     libucrt:lcidtoname_downlevel.obj
 0002:00003460       ??_C@_15PCFJPHHO@?$AAe?$AAt@ 0000000180012460     libucrt:lcidtoname_downlevel.obj
 0002:00003468       ??_C@_15HPFPGODN@?$AAl?$AAv@ 0000000180012468     libucrt:lcidtoname_downlevel.obj
 0002:00003470       ??_C@_15NFFGKGLG@?$AAl?$AAt@ 0000000180012470     libucrt:lcidtoname_downlevel.obj
 0002:00003478       ??_C@_15BDAKCCHN@?$AAf?$AAa@ 0000000180012478     libucrt:lcidtoname_downlevel.obj
 0002:00003480       ??_C@_15NFGIAIAJ@?$AAv?$AAi@ 0000000180012480     libucrt:lcidtoname_downlevel.obj
 0002:00003488       ??_C@_15LMKNDMHN@?$AAh?$AAy@ 0000000180012488     libucrt:lcidtoname_downlevel.obj
 0002:00003490       ??_C@_15IJBHMCFL@?$AAa?$AAz@ 0000000180012490     libucrt:lcidtoname_downlevel.obj
 0002:00003498       ??_C@_15EKOFJABL@?$AAe?$AAu@ 0000000180012498     libucrt:lcidtoname_downlevel.obj
 0002:000034a0       ??_C@_15BGHADCNK@?$AAm?$AAk@ 00000001800124a0     libucrt:lcidtoname_downlevel.obj
 0002:000034a8       ??_C@_15JDNICKHM@?$AAa?$AAf@ 00000001800124a8     libucrt:lcidtoname_downlevel.obj
 0002:000034b0       ??_C@_15KPJEDBKD@?$AAk?$AAa@ 00000001800124b0     libucrt:lcidtoname_downlevel.obj
 0002:000034b8       ??_C@_15PDNFFFEO@?$AAf?$AAo@ 00000001800124b8     libucrt:lcidtoname_downlevel.obj
 0002:000034c0       ??_C@_15OMLEGLOC@?$AAh?$AAi@ 00000001800124c0     libucrt:lcidtoname_downlevel.obj
 0002:000034c8       ??_C@_15IDNNENKK@?$AAm?$AAs@ 00000001800124c8     libucrt:lcidtoname_downlevel.obj
 0002:000034d0       ??_C@_15MACJNBMH@?$AAk?$AAk@ 00000001800124d0     libucrt:lcidtoname_downlevel.obj
 0002:000034d8       ??_C@_15DKDJEOND@?$AAk?$AAy@ 00000001800124d8     libucrt:lcidtoname_downlevel.obj
 0002:000034e0       ??_C@_15DFGDLJBG@?$AAs?$AAw@ 00000001800124e0     libucrt:lcidtoname_downlevel.obj
 0002:000034e8       ??_C@_15BBFAICNG@?$AAu?$AAz@ 00000001800124e8     libucrt:lcidtoname_downlevel.obj
 0002:000034f0       ??_C@_15DKNDCGEA@?$AAt?$AAt@ 00000001800124f0     libucrt:lcidtoname_downlevel.obj
 0002:000034f8       ??_C@_15MGIFMDPL@?$AAp?$AAa@ 00000001800124f8     libucrt:lcidtoname_downlevel.obj
 0002:00003500       ??_C@_15HCNDBBA@?$AAg?$AAu@ 0000000180012500     libucrt:lcidtoname_downlevel.obj
 0002:00003508       ??_C@_15FNBEIBON@?$AAt?$AAa@ 0000000180012508     libucrt:lcidtoname_downlevel.obj
 0002:00003510       ??_C@_15NCHGBGLK@?$AAt?$AAe@ 0000000180012510     libucrt:lcidtoname_downlevel.obj
 0002:00003518       ??_C@_15PHPHCBPF@?$AAk?$AAn@ 0000000180012518     libucrt:lcidtoname_downlevel.obj
 0002:00003520       ??_C@_15DLGBCKMP@?$AAm?$AAr@ 0000000180012520     libucrt:lcidtoname_downlevel.obj
 0002:00003528       ??_C@_15EABBLBFF@?$AAs?$AAa@ 0000000180012528     libucrt:lcidtoname_downlevel.obj
 0002:00003530       ??_C@_15CBKOMCOI@?$AAm?$AAn@ 0000000180012530     libucrt:lcidtoname_downlevel.obj
 0002:00003538       ??_C@_15CKDMCJAF@?$AAg?$AAl@ 0000000180012538     libucrt:lcidtoname_downlevel.obj
 0002:00003540       ??_C@_17CNJFBPG@?$AAk?$AAo?$AAk@ 0000000180012540     libucrt:lcidtoname_downlevel.obj
 0002:00003548       ??_C@_17FFBJICPL@?$AAs?$AAy?$AAr@ 0000000180012548     libucrt:lcidtoname_downlevel.obj
 0002:00003550       ??_C@_17KPNDCPAF@?$AAd?$AAi?$AAv@ 0000000180012550     libucrt:lcidtoname_downlevel.obj
 0002:00003558       ??_C@_11LOCGONAA@@         0000000180012558     libucrt:lcidtoname_downlevel.obj
 0002:00003560       ??_C@_1M@OKAHONE@?$AAa?$AAr?$AA?9?$AAS?$AAA@ 0000000180012560     libucrt:lcidtoname_downlevel.obj
 0002:00003570       ??_C@_1M@FFFIGIGK@?$AAb?$AAg?$AA?9?$AAB?$AAG@ 0000000180012570     libucrt:lcidtoname_downlevel.obj
 0002:00003580       ??_C@_1M@BJNKEDC@?$AAc?$AAa?$AA?9?$AAE?$AAS@ 0000000180012580     libucrt:lcidtoname_downlevel.obj
 0002:00003590       ??_C@_1M@IJJHFJHA@?$AAc?$AAs?$AA?9?$AAC?$AAZ@ 0000000180012590     libucrt:lcidtoname_downlevel.obj
 0002:000035a0       ??_C@_1M@CLPEOBGI@?$AAd?$AAa?$AA?9?$AAD?$AAK@ 00000001800125a0     libucrt:lcidtoname_downlevel.obj
 0002:000035b0       ??_C@_1M@MCMADGCB@?$AAd?$AAe?$AA?9?$AAD?$AAE@ 00000001800125b0     libucrt:lcidtoname_downlevel.obj
 0002:000035c0       ??_C@_1M@OOCKEMAM@?$AAe?$AAl?$AA?9?$AAG?$AAR@ 00000001800125c0     libucrt:lcidtoname_downlevel.obj
 0002:000035d0       ??_C@_1M@DDNJFGID@?$AAf?$AAi?$AA?9?$AAF?$AAI@ 00000001800125d0     libucrt:lcidtoname_downlevel.obj
 0002:000035e0       ??_C@_1M@GLIPPMAC@?$AAf?$AAr?$AA?9?$AAF?$AAR@ 00000001800125e0     libucrt:lcidtoname_downlevel.obj
 0002:000035f0       ??_C@_1M@GFMCHPE@?$AAh?$AAe?$AA?9?$AAI?$AAL@ 00000001800125f0     libucrt:lcidtoname_downlevel.obj
 0002:00003600       ??_C@_1M@MHLPGNKM@?$AAh?$AAu?$AA?9?$AAH?$AAU@ 0000000180012600     libucrt:lcidtoname_downlevel.obj
 0002:00003610       ??_C@_1M@LPDDNNPN@?$AAi?$AAs?$AA?9?$AAI?$AAS@ 0000000180012610     libucrt:lcidtoname_downlevel.obj
 0002:00003620       ??_C@_1M@MADIPODN@?$AAi?$AAt?$AA?9?$AAI?$AAT@ 0000000180012620     libucrt:lcidtoname_downlevel.obj
 0002:00003630       ??_C@_1M@IHBJJGG@?$AAn?$AAl?$AA?9?$AAN?$AAL@ 0000000180012630     libucrt:lcidtoname_downlevel.obj
 0002:00003640       ??_C@_1M@EANAGDL@?$AAn?$AAb?$AA?9?$AAN?$AAO@ 0000000180012640     libucrt:lcidtoname_downlevel.obj
 0002:00003650       ??_C@_1M@NEIEMEGP@?$AAp?$AAl?$AA?9?$AAP?$AAL@ 0000000180012650     libucrt:lcidtoname_downlevel.obj
 0002:00003660       ??_C@_1M@BOCFIGEP@?$AAp?$AAt?$AA?9?$AAB?$AAR@ 0000000180012660     libucrt:lcidtoname_downlevel.obj
 0002:00003670       ??_C@_1M@IMPFOPBG@?$AAr?$AAo?$AA?9?$AAR?$AAO@ 0000000180012670     libucrt:lcidtoname_downlevel.obj
 0002:00003680       ??_C@_1M@IDNNEJMM@?$AAr?$AAu?$AA?9?$AAR?$AAU@ 0000000180012680     libucrt:lcidtoname_downlevel.obj
 0002:00003690       ??_C@_1M@LILEEOGM@?$AAh?$AAr?$AA?9?$AAH?$AAR@ 0000000180012690     libucrt:lcidtoname_downlevel.obj
 0002:000036a0       ??_C@_1M@FKIFEHPB@?$AAs?$AAk?$AA?9?$AAS?$AAK@ 00000001800126a0     libucrt:lcidtoname_downlevel.obj
 0002:000036b0       ??_C@_1M@LJMAMNPJ@?$AAs?$AAq?$AA?9?$AAA?$AAL@ 00000001800126b0     libucrt:lcidtoname_downlevel.obj
 0002:000036c0       ??_C@_1M@GIAKDKJK@?$AAs?$AAv?$AA?9?$AAS?$AAE@ 00000001800126c0     libucrt:lcidtoname_downlevel.obj
 0002:000036d0       ??_C@_1M@MKJKIKCL@?$AAt?$AAh?$AA?9?$AAT?$AAH@ 00000001800126d0     libucrt:lcidtoname_downlevel.obj
 0002:000036e0       ??_C@_1M@MFLCCMPB@?$AAt?$AAr?$AA?9?$AAT?$AAR@ 00000001800126e0     libucrt:lcidtoname_downlevel.obj
 0002:000036f0       ??_C@_1M@OIJHDKJN@?$AAu?$AAr?$AA?9?$AAP?$AAK@ 00000001800126f0     libucrt:lcidtoname_downlevel.obj
 0002:00003700       ??_C@_1M@LHIPCIEK@?$AAi?$AAd?$AA?9?$AAI?$AAD@ 0000000180012700     libucrt:lcidtoname_downlevel.obj
 0002:00003710       ??_C@_1M@MFMOBGI@?$AAu?$AAk?$AA?9?$AAU?$AAA@ 0000000180012710     libucrt:lcidtoname_downlevel.obj
 0002:00003720       ??_C@_1M@OBGLJIPL@?$AAb?$AAe?$AA?9?$AAB?$AAY@ 0000000180012720     libucrt:lcidtoname_downlevel.obj
 0002:00003730       ??_C@_1M@BCFAJEAD@?$AAs?$AAl?$AA?9?$AAS?$AAI@ 0000000180012730     libucrt:lcidtoname_downlevel.obj
 0002:00003740       ??_C@_1M@FKFFEDDN@?$AAe?$AAt?$AA?9?$AAE?$AAE@ 0000000180012740     libucrt:lcidtoname_downlevel.obj
 0002:00003750       ??_C@_1M@KGKKAACI@?$AAl?$AAv?$AA?9?$AAL?$AAV@ 0000000180012750     libucrt:lcidtoname_downlevel.obj
 0002:00003760       ??_C@_1M@IFGBIJO@?$AAl?$AAt?$AA?9?$AAL?$AAT@ 0000000180012760     libucrt:lcidtoname_downlevel.obj
 0002:00003770       ??_C@_1M@FGEAHEDM@?$AAf?$AAa?$AA?9?$AAI?$AAR@ 0000000180012770     libucrt:lcidtoname_downlevel.obj
 0002:00003780       ??_C@_1M@KBMAIBFN@?$AAv?$AAi?$AA?9?$AAV?$AAN@ 0000000180012780     libucrt:lcidtoname_downlevel.obj
 0002:00003790       ??_C@_1M@GPCBKDJK@?$AAh?$AAy?$AA?9?$AAA?$AAM@ 0000000180012790     libucrt:lcidtoname_downlevel.obj
 0002:000037a0       ??_C@_1BG@BECMDDJB@?$AAa?$AAz?$AA?9?$AAA?$AAZ?$AA?9?$AAL?$AAa?$AAt?$AAn@ 00000001800127a0     libucrt:lcidtoname_downlevel.obj
 0002:000037b8       ??_C@_1M@MAOFCAEA@?$AAe?$AAu?$AA?9?$AAE?$AAS@ 00000001800127b8     libucrt:lcidtoname_downlevel.obj
 0002:000037c8       ??_C@_1M@IGHABKPI@?$AAm?$AAk?$AA?9?$AAM?$AAK@ 00000001800127c8     libucrt:lcidtoname_downlevel.obj
 0002:000037d8       ??_C@_1M@IAIGNEJG@?$AAt?$AAn?$AA?9?$AAZ?$AAA@ 00000001800127d8     libucrt:lcidtoname_downlevel.obj
 0002:000037e8       ??_C@_1M@IIJCOJFA@?$AAx?$AAh?$AA?9?$AAZ?$AAA@ 00000001800127e8     libucrt:lcidtoname_downlevel.obj
 0002:000037f8       ??_C@_1M@LGPJHNJH@?$AAz?$AAu?$AA?9?$AAZ?$AAA@ 00000001800127f8     libucrt:lcidtoname_downlevel.obj
 0002:00003808       ??_C@_1M@HOKAOIO@?$AAa?$AAf?$AA?9?$AAZ?$AAA@ 0000000180012808     libucrt:lcidtoname_downlevel.obj
 0002:00003818       ??_C@_1M@DPCLHLIE@?$AAk?$AAa?$AA?9?$AAG?$AAE@ 0000000180012818     libucrt:lcidtoname_downlevel.obj
 0002:00003828       ??_C@_1M@BLKMHJBI@?$AAf?$AAo?$AA?9?$AAF?$AAO@ 0000000180012828     libucrt:lcidtoname_downlevel.obj
 0002:00003838       ??_C@_1M@LGGJAPPB@?$AAh?$AAi?$AA?9?$AAI?$AAN@ 0000000180012838     libucrt:lcidtoname_downlevel.obj
 0002:00003848       ??_C@_1M@FIKPIHFE@?$AAm?$AAt?$AA?9?$AAM?$AAT@ 0000000180012848     libucrt:lcidtoname_downlevel.obj
 0002:00003858       ??_C@_1M@HEGGPBFA@?$AAs?$AAe?$AA?9?$AAN?$AAO@ 0000000180012858     libucrt:lcidtoname_downlevel.obj
 0002:00003868       ??_C@_1M@EIBJEEPA@?$AAm?$AAs?$AA?9?$AAM?$AAY@ 0000000180012868     libucrt:lcidtoname_downlevel.obj
 0002:00003878       ??_C@_1M@FHLBGMPP@?$AAk?$AAk?$AA?9?$AAK?$AAZ@ 0000000180012878     libucrt:lcidtoname_downlevel.obj
 0002:00003888       ??_C@_1M@NGJJLCGI@?$AAk?$AAy?$AA?9?$AAK?$AAG@ 0000000180012888     libucrt:lcidtoname_downlevel.obj
 0002:00003898       ??_C@_1M@GIENNBFC@?$AAs?$AAw?$AA?9?$AAK?$AAE@ 0000000180012898     libucrt:lcidtoname_downlevel.obj
 0002:000038a8       ??_C@_1BG@NDGMJIMJ@?$AAu?$AAz?$AA?9?$AAU?$AAZ?$AA?9?$AAL?$AAa?$AAt?$AAn@ 00000001800128a8     libucrt:lcidtoname_downlevel.obj
 0002:000038c0       ??_C@_1M@IDCCIHBC@?$AAt?$AAt?$AA?9?$AAR?$AAU@ 00000001800128c0     libucrt:lcidtoname_downlevel.obj
 0002:000038d0       ??_C@_1M@LOICPMOJ@?$AAb?$AAn?$AA?9?$AAI?$AAN@ 00000001800128d0     libucrt:lcidtoname_downlevel.obj
 0002:000038e0       ??_C@_1M@KPKKNEAH@?$AAp?$AAa?$AA?9?$AAI?$AAN@ 00000001800128e0     libucrt:lcidtoname_downlevel.obj
 0002:000038f0       ??_C@_1M@PJGPPBOG@?$AAg?$AAu?$AA?9?$AAI?$AAN@ 00000001800128f0     libucrt:lcidtoname_downlevel.obj
 0002:00003900       ??_C@_1M@KMKMOPHI@?$AAt?$AAa?$AA?9?$AAI?$AAN@ 0000000180012900     libucrt:lcidtoname_downlevel.obj
 0002:00003910       ??_C@_1M@KFEHEPAC@?$AAt?$AAe?$AA?9?$AAI?$AAN@ 0000000180012910     libucrt:lcidtoname_downlevel.obj
 0002:00003920       ??_C@_1M@CDCLMGHI@?$AAk?$AAn?$AA?9?$AAI?$AAN@ 0000000180012920     libucrt:lcidtoname_downlevel.obj
 0002:00003930       ??_C@_1M@MIODLDKF@?$AAm?$AAl?$AA?9?$AAI?$AAN@ 0000000180012930     libucrt:lcidtoname_downlevel.obj
 0002:00003940       ??_C@_1M@PBIEACPO@?$AAm?$AAr?$AA?9?$AAI?$AAN@ 0000000180012940     libucrt:lcidtoname_downlevel.obj
 0002:00003950       ??_C@_1M@NIDEAGPH@?$AAs?$AAa?$AA?9?$AAI?$AAN@ 0000000180012950     libucrt:lcidtoname_downlevel.obj
 0002:00003960       ??_C@_1M@FHIHCBIO@?$AAm?$AAn?$AA?9?$AAM?$AAN@ 0000000180012960     libucrt:lcidtoname_downlevel.obj
 0002:00003970       ??_C@_1M@JAIJPENP@?$AAc?$AAy?$AA?9?$AAG?$AAB@ 0000000180012970     libucrt:lcidtoname_downlevel.obj
 0002:00003980       ??_C@_1M@PHGFBEPN@?$AAg?$AAl?$AA?9?$AAE?$AAS@ 0000000180012980     libucrt:lcidtoname_downlevel.obj
 0002:00003990       ??_C@_1O@KPIPDNCP@?$AAk?$AAo?$AAk?$AA?9?$AAI?$AAN@ 0000000180012990     libucrt:lcidtoname_downlevel.obj
 0002:000039a0       ??_C@_1O@KNHJLDJA@?$AAs?$AAy?$AAr?$AA?9?$AAS?$AAY@ 00000001800129a0     libucrt:lcidtoname_downlevel.obj
 0002:000039b0       ??_C@_1O@MKEKBLAH@?$AAd?$AAi?$AAv?$AA?9?$AAM?$AAV@ 00000001800129b0     libucrt:lcidtoname_downlevel.obj
 0002:000039c0       ??_C@_1O@OHDCKDDF@?$AAq?$AAu?$AAz?$AA?9?$AAB?$AAO@ 00000001800129c0     libucrt:lcidtoname_downlevel.obj
 0002:000039d0       ??_C@_1M@LEPJNLFD@?$AAn?$AAs?$AA?9?$AAZ?$AAA@ 00000001800129d0     libucrt:lcidtoname_downlevel.obj
 0002:000039e0       ??_C@_1M@OMLEIIJB@?$AAm?$AAi?$AA?9?$AAN?$AAZ@ 00000001800129e0     libucrt:lcidtoname_downlevel.obj
 0002:000039f0       ??_C@_1M@PMPEAILG@?$AAa?$AAr?$AA?9?$AAI?$AAQ@ 00000001800129f0     libucrt:lcidtoname_downlevel.obj
 0002:00003a00       ??_C@_1M@CNKPNOEE@?$AAd?$AAe?$AA?9?$AAC?$AAH@ 0000000180012a00     libucrt:lcidtoname_downlevel.obj
 0002:00003a10       ??_C@_1M@LKMGMLKO@?$AAe?$AAn?$AA?9?$AAG?$AAB@ 0000000180012a10     libucrt:lcidtoname_downlevel.obj
 0002:00003a20       ??_C@_1M@PGKJFFGL@?$AAe?$AAs?$AA?9?$AAM?$AAX@ 0000000180012a20     libucrt:lcidtoname_downlevel.obj
 0002:00003a30       ??_C@_1M@DNNANBDC@?$AAf?$AAr?$AA?9?$AAB?$AAE@ 0000000180012a30     libucrt:lcidtoname_downlevel.obj
 0002:00003a40       ??_C@_1M@HLGMDFHM@?$AAi?$AAt?$AA?9?$AAC?$AAH@ 0000000180012a40     libucrt:lcidtoname_downlevel.obj
 0002:00003a50       ??_C@_1M@CLLBGJH@?$AAn?$AAl?$AA?9?$AAB?$AAE@ 0000000180012a50     libucrt:lcidtoname_downlevel.obj
 0002:00003a60       ??_C@_1M@BODBOGLF@?$AAn?$AAn?$AA?9?$AAN?$AAO@ 0000000180012a60     libucrt:lcidtoname_downlevel.obj
 0002:00003a70       ??_C@_1M@HFFAHKAD@?$AAp?$AAt?$AA?9?$AAP?$AAT@ 0000000180012a70     libucrt:lcidtoname_downlevel.obj
 0002:00003a80       ??_C@_1BG@LNOAKHIE@?$AAs?$AAr?$AA?9?$AAS?$AAP?$AA?9?$AAL?$AAa?$AAt?$AAn@ 0000000180012a80     libucrt:lcidtoname_downlevel.obj
 0002:00003a98       ??_C@_1M@HBMHBGAK@?$AAs?$AAv?$AA?9?$AAF?$AAI@ 0000000180012a98     libucrt:lcidtoname_downlevel.obj
 0002:00003aa8       ??_C@_1BG@DGCJGJBE@?$AAa?$AAz?$AA?9?$AAA?$AAZ?$AA?9?$AAC?$AAy?$AAr?$AAl@ 0000000180012aa8     libucrt:lcidtoname_downlevel.obj
 0002:00003ac0       ??_C@_1M@KEJDAAHB@?$AAs?$AAe?$AA?9?$AAS?$AAE@ 0000000180012ac0     libucrt:lcidtoname_downlevel.obj
 0002:00003ad0       ??_C@_1M@HEIBJJAD@?$AAm?$AAs?$AA?9?$AAB?$AAN@ 0000000180012ad0     libucrt:lcidtoname_downlevel.obj
 0002:00003ae0       ??_C@_1BG@PBGJMCEM@?$AAu?$AAz?$AA?9?$AAU?$AAZ?$AA?9?$AAC?$AAy?$AAr?$AAl@ 0000000180012ae0     libucrt:lcidtoname_downlevel.obj
 0002:00003af8       ??_C@_1O@LAOBCMDF@?$AAq?$AAu?$AAz?$AA?9?$AAE?$AAC@ 0000000180012af8     libucrt:lcidtoname_downlevel.obj
 0002:00003b08       ??_C@_1M@POEEMAIO@?$AAa?$AAr?$AA?9?$AAE?$AAG@ 0000000180012b08     libucrt:lcidtoname_downlevel.obj
 0002:00003b18       ??_C@_1M@EFAKDEDL@?$AAz?$AAh?$AA?9?$AAH?$AAK@ 0000000180012b18     libucrt:lcidtoname_downlevel.obj
 0002:00003b28       ??_C@_1M@HKKIJHGI@?$AAd?$AAe?$AA?9?$AAA?$AAT@ 0000000180012b28     libucrt:lcidtoname_downlevel.obj
 0002:00003b38       ??_C@_1M@KBFBEHJF@?$AAe?$AAn?$AA?9?$AAA?$AAU@ 0000000180012b38     libucrt:lcidtoname_downlevel.obj
 0002:00003b48       ??_C@_1M@MNPLFAAH@?$AAe?$AAs?$AA?9?$AAE?$AAS@ 0000000180012b48     libucrt:lcidtoname_downlevel.obj
 0002:00003b58       ??_C@_1M@HJOOJFMA@?$AAf?$AAr?$AA?9?$AAC?$AAA@ 0000000180012b58     libucrt:lcidtoname_downlevel.obj
 0002:00003b68       ??_C@_1BG@JPOFPNAB@?$AAs?$AAr?$AA?9?$AAS?$AAP?$AA?9?$AAC?$AAy?$AAr?$AAl@ 0000000180012b68     libucrt:lcidtoname_downlevel.obj
 0002:00003b80       ??_C@_1M@LNFOCMOB@?$AAs?$AAe?$AA?9?$AAF?$AAI@ 0000000180012b80     libucrt:lcidtoname_downlevel.obj
 0002:00003b90       ??_C@_1O@MGJBOAMB@?$AAq?$AAu?$AAz?$AA?9?$AAP?$AAE@ 0000000180012b90     libucrt:lcidtoname_downlevel.obj
 0002:00003ba0       ??_C@_1M@GJINLBOK@?$AAa?$AAr?$AA?9?$AAL?$AAY@ 0000000180012ba0     libucrt:lcidtoname_downlevel.obj
 0002:00003bb0       ??_C@_1M@GGMNHJNL@?$AAz?$AAh?$AA?9?$AAS?$AAG@ 0000000180012bb0     libucrt:lcidtoname_downlevel.obj
 0002:00003bc0       ??_C@_1M@HOIKODND@?$AAd?$AAe?$AA?9?$AAL?$AAU@ 0000000180012bc0     libucrt:lcidtoname_downlevel.obj
 0002:00003bd0       ??_C@_1M@DDOCCGFG@?$AAe?$AAn?$AA?9?$AAC?$AAA@ 0000000180012bd0     libucrt:lcidtoname_downlevel.obj
 0002:00003be0       ??_C@_1M@BNOEMJLF@?$AAe?$AAs?$AA?9?$AAG?$AAT@ 0000000180012be0     libucrt:lcidtoname_downlevel.obj
 0002:00003bf0       ??_C@_1M@EOGNKEK@?$AAf?$AAr?$AA?9?$AAC?$AAH@ 0000000180012bf0     libucrt:lcidtoname_downlevel.obj
 0002:00003c00       ??_C@_1M@FLIDJFHL@?$AAh?$AAr?$AA?9?$AAB?$AAA@ 0000000180012c00     libucrt:lcidtoname_downlevel.obj
 0002:00003c10       ??_C@_1O@FMCELNAJ@?$AAs?$AAm?$AAj?$AA?9?$AAN?$AAO@ 0000000180012c10     libucrt:lcidtoname_downlevel.obj
 0002:00003c20       ??_C@_1M@JHGLJMGJ@?$AAa?$AAr?$AA?9?$AAD?$AAZ@ 0000000180012c20     libucrt:lcidtoname_downlevel.obj
 0002:00003c30       ??_C@_1M@JKKFDCNP@?$AAz?$AAh?$AA?9?$AAM?$AAO@ 0000000180012c30     libucrt:lcidtoname_downlevel.obj
 0002:00003c40       ??_C@_1M@GEEFALPE@?$AAd?$AAe?$AA?9?$AAL?$AAI@ 0000000180012c40     libucrt:lcidtoname_downlevel.obj
 0002:00003c50       ??_C@_1M@IGEOFBG@?$AAe?$AAn?$AA?9?$AAN?$AAZ@ 0000000180012c50     libucrt:lcidtoname_downlevel.obj
 0002:00003c60       ??_C@_1M@KDBONEHP@?$AAe?$AAs?$AA?9?$AAC?$AAR@ 0000000180012c60     libucrt:lcidtoname_downlevel.obj
 0002:00003c70       ??_C@_1M@FHMDOHNN@?$AAf?$AAr?$AA?9?$AAL?$AAU@ 0000000180012c70     libucrt:lcidtoname_downlevel.obj
 0002:00003c80       ??_C@_1BG@NFKKMAFG@?$AAb?$AAs?$AA?9?$AAB?$AAA?$AA?9?$AAL?$AAa?$AAt?$AAn@ 0000000180012c80     libucrt:lcidtoname_downlevel.obj
 0002:00003c98       ??_C@_1O@IMNBEMCI@?$AAs?$AAm?$AAj?$AA?9?$AAS?$AAE@ 0000000180012c98     libucrt:lcidtoname_downlevel.obj
 0002:00003ca8       ??_C@_1M@DHHMBNDP@?$AAa?$AAr?$AA?9?$AAM?$AAA@ 0000000180012ca8     libucrt:lcidtoname_downlevel.obj
 0002:00003cb8       ??_C@_1M@BNBLJCGH@?$AAe?$AAn?$AA?9?$AAI?$AAE@ 0000000180012cb8     libucrt:lcidtoname_downlevel.obj
 0002:00003cc8       ??_C@_1M@GEPAFMDL@?$AAe?$AAs?$AA?9?$AAP?$AAA@ 0000000180012cc8     libucrt:lcidtoname_downlevel.obj
 0002:00003cd8       ??_C@_1M@OJONDMDL@?$AAf?$AAr?$AA?9?$AAM?$AAC@ 0000000180012cd8     libucrt:lcidtoname_downlevel.obj
 0002:00003ce8       ??_C@_1BG@OBCNFJB@?$AAs?$AAr?$AA?9?$AAB?$AAA?$AA?9?$AAL?$AAa?$AAt?$AAn@ 0000000180012ce8     libucrt:lcidtoname_downlevel.obj
 0002:00003d00       ??_C@_1O@KEMEEGPO@?$AAs?$AAm?$AAa?$AA?9?$AAN?$AAO@ 0000000180012d00     libucrt:lcidtoname_downlevel.obj
 0002:00003d10       ??_C@_1M@ELMGFODK@?$AAa?$AAr?$AA?9?$AAT?$AAN@ 0000000180012d10     libucrt:lcidtoname_downlevel.obj
 0002:00003d20       ??_C@_1M@BHDLHFAF@?$AAe?$AAn?$AA?9?$AAZ?$AAA@ 0000000180012d20     libucrt:lcidtoname_downlevel.obj
 0002:00003d30       ??_C@_1M@BMGIGLIF@?$AAe?$AAs?$AA?9?$AAD?$AAO@ 0000000180012d30     libucrt:lcidtoname_downlevel.obj
 0002:00003d40       ??_C@_1BG@CMBHIPBE@?$AAs?$AAr?$AA?9?$AAB?$AAA?$AA?9?$AAC?$AAy?$AAr?$AAl@ 0000000180012d40     libucrt:lcidtoname_downlevel.obj
 0002:00003d58       ??_C@_1O@HEDBLHNP@?$AAs?$AAm?$AAa?$AA?9?$AAS?$AAE@ 0000000180012d58     libucrt:lcidtoname_downlevel.obj
 0002:00003d68       ??_C@_1M@DAGCADIM@?$AAa?$AAr?$AA?9?$AAO?$AAM@ 0000000180012d68     libucrt:lcidtoname_downlevel.obj
 0002:00003d78       ??_C@_1M@FODLMICG@?$AAe?$AAn?$AA?9?$AAJ?$AAM@ 0000000180012d78     libucrt:lcidtoname_downlevel.obj
 0002:00003d88       ??_C@_1M@DNMLCIHB@?$AAe?$AAs?$AA?9?$AAV?$AAE@ 0000000180012d88     libucrt:lcidtoname_downlevel.obj
 0002:00003d98       ??_C@_1O@EOKHMKJK@?$AAs?$AAm?$AAs?$AA?9?$AAF?$AAI@ 0000000180012d98     libucrt:lcidtoname_downlevel.obj
 0002:00003da8       ??_C@_1M@CAFJMKOF@?$AAa?$AAr?$AA?9?$AAY?$AAE@ 0000000180012da8     libucrt:lcidtoname_downlevel.obj
 0002:00003db8       ??_C@_1M@CBFHIJLI@?$AAe?$AAn?$AA?9?$AAC?$AAB@ 0000000180012db8     libucrt:lcidtoname_downlevel.obj
 0002:00003dc8       ??_C@_1M@BGNFLDN@?$AAe?$AAs?$AA?9?$AAC?$AAO@ 0000000180012dc8     libucrt:lcidtoname_downlevel.obj
 0002:00003dd8       ??_C@_1O@JMPHMAMC@?$AAs?$AAm?$AAn?$AA?9?$AAF?$AAI@ 0000000180012dd8     libucrt:lcidtoname_downlevel.obj
 0002:00003de8       ??_C@_1M@JLANABKE@?$AAa?$AAr?$AA?9?$AAS?$AAY@ 0000000180012de8     libucrt:lcidtoname_downlevel.obj
 0002:00003df8       ??_C@_1M@HPKGCFGN@?$AAe?$AAn?$AA?9?$AAB?$AAZ@ 0000000180012df8     libucrt:lcidtoname_downlevel.obj
 0002:00003e08       ??_C@_1M@OLJCMLGM@?$AAe?$AAs?$AA?9?$AAP?$AAE@ 0000000180012e08     libucrt:lcidtoname_downlevel.obj
 0002:00003e18       ??_C@_1M@MKKGFKLE@?$AAa?$AAr?$AA?9?$AAJ?$AAO@ 0000000180012e18     libucrt:lcidtoname_downlevel.obj
 0002:00003e28       ??_C@_1M@EKPGLDNI@?$AAe?$AAn?$AA?9?$AAT?$AAT@ 0000000180012e28     libucrt:lcidtoname_downlevel.obj
 0002:00003e38       ??_C@_1M@OONGHFHE@?$AAe?$AAs?$AA?9?$AAA?$AAR@ 0000000180012e38     libucrt:lcidtoname_downlevel.obj
 0002:00003e48       ??_C@_1M@OOJFGBHE@?$AAa?$AAr?$AA?9?$AAL?$AAB@ 0000000180012e48     libucrt:lcidtoname_downlevel.obj
 0002:00003e58       ??_C@_1M@GCEJHNEG@?$AAe?$AAn?$AA?9?$AAZ?$AAW@ 0000000180012e58     libucrt:lcidtoname_downlevel.obj
 0002:00003e68       ??_C@_1M@JNOCAHJI@?$AAe?$AAs?$AA?9?$AAE?$AAC@ 0000000180012e68     libucrt:lcidtoname_downlevel.obj
 0002:00003e78       ??_C@_1M@JEFHPGGB@?$AAa?$AAr?$AA?9?$AAK?$AAW@ 0000000180012e78     libucrt:lcidtoname_downlevel.obj
 0002:00003e88       ??_C@_1M@MLKIBJOJ@?$AAe?$AAn?$AA?9?$AAP?$AAH@ 0000000180012e88     libucrt:lcidtoname_downlevel.obj
 0002:00003e98       ??_C@_1M@BDNIPEND@?$AAe?$AAs?$AA?9?$AAC?$AAL@ 0000000180012e98     libucrt:lcidtoname_downlevel.obj
 0002:00003ea8       ??_C@_1M@MPNMEKBD@?$AAa?$AAr?$AA?9?$AAA?$AAE@ 0000000180012ea8     libucrt:lcidtoname_downlevel.obj
 0002:00003eb8       ??_C@_1M@KBJALCPI@?$AAe?$AAs?$AA?9?$AAU?$AAY@ 0000000180012eb8     libucrt:lcidtoname_downlevel.obj
 0002:00003ec8       ??_C@_1M@LLCCOAGA@?$AAa?$AAr?$AA?9?$AAB?$AAH@ 0000000180012ec8     libucrt:lcidtoname_downlevel.obj
 0002:00003ed8       ??_C@_1M@PBFNCDEL@?$AAe?$AAs?$AA?9?$AAP?$AAY@ 0000000180012ed8     libucrt:lcidtoname_downlevel.obj
 0002:00003ee8       ??_C@_1M@EDGINPNP@?$AAa?$AAr?$AA?9?$AAQ?$AAA@ 0000000180012ee8     libucrt:lcidtoname_downlevel.obj
 0002:00003ef8       ??_C@_1M@MKDBIIJI@?$AAe?$AAs?$AA?9?$AAB?$AAO@ 0000000180012ef8     libucrt:lcidtoname_downlevel.obj
 0002:00003f08       ??_C@_1M@CPKKEBLD@?$AAe?$AAs?$AA?9?$AAS?$AAV@ 0000000180012f08     libucrt:lcidtoname_downlevel.obj
 0002:00003f18       ??_C@_1M@NDBGMMJL@?$AAe?$AAs?$AA?9?$AAH?$AAN@ 0000000180012f18     libucrt:lcidtoname_downlevel.obj
 0002:00003f28       ??_C@_1M@JIJIBHDP@?$AAe?$AAs?$AA?9?$AAN?$AAI@ 0000000180012f28     libucrt:lcidtoname_downlevel.obj
 0002:00003f38       ??_C@_1M@CGFMKEEK@?$AAe?$AAs?$AA?9?$AAP?$AAR@ 0000000180012f38     libucrt:lcidtoname_downlevel.obj
 0002:00003f48       ??_C@_1O@ICJHKIIK@?$AAz?$AAh?$AA?9?$AAC?$AAH?$AAT@ 0000000180012f48     libucrt:lcidtoname_downlevel.obj
 0002:00003f58       ??_C@_15CLNEJCE@?$AAs?$AAr@ 0000000180012f58     libucrt:lcidtoname_downlevel.obj
 0002:00004da0       ??_C@_1M@KAHEKEIG@?$AAa?$AAf?$AA?9?$AAz?$AAa@ 0000000180013da0     libucrt:lcidtoname_downlevel.obj
 0002:00004db0       ??_C@_1M@GIECOABL@?$AAa?$AAr?$AA?9?$AAa?$AAe@ 0000000180013db0     libucrt:lcidtoname_downlevel.obj
 0002:00004dc0       ??_C@_1M@BMLMEKGI@?$AAa?$AAr?$AA?9?$AAb?$AAh@ 0000000180013dc0     libucrt:lcidtoname_downlevel.obj
 0002:00004dd0       ??_C@_1M@DAPFDGGB@?$AAa?$AAr?$AA?9?$AAd?$AAz@ 0000000180013dd0     libucrt:lcidtoname_downlevel.obj
 0002:00004de0       ??_C@_1M@FJNKGKIG@?$AAa?$AAr?$AA?9?$AAe?$AAg@ 0000000180013de0     libucrt:lcidtoname_downlevel.obj
 0002:00004df0       ??_C@_1M@FLGKKCLO@?$AAa?$AAr?$AA?9?$AAi?$AAq@ 0000000180013df0     libucrt:lcidtoname_downlevel.obj
 0002:00004e00       ??_C@_1M@GNDIPALM@?$AAa?$AAr?$AA?9?$AAj?$AAo@ 0000000180013e00     libucrt:lcidtoname_downlevel.obj
 0002:00004e10       ??_C@_1M@DDMJFMGJ@?$AAa?$AAr?$AA?9?$AAk?$AAw@ 0000000180013e10     libucrt:lcidtoname_downlevel.obj
 0002:00004e20       ??_C@_1M@EJALMLHM@?$AAa?$AAr?$AA?9?$AAl?$AAb@ 0000000180013e20     libucrt:lcidtoname_downlevel.obj
 0002:00004e30       ??_C@_1M@MOBDBLOC@?$AAa?$AAr?$AA?9?$AAl?$AAy@ 0000000180013e30     libucrt:lcidtoname_downlevel.obj
 0002:00004e40       ??_C@_1M@JAOCLHDH@?$AAa?$AAr?$AA?9?$AAm?$AAa@ 0000000180013e40     libucrt:lcidtoname_downlevel.obj
 0002:00004e50       ??_C@_1M@JHPMKJIE@?$AAa?$AAr?$AA?9?$AAo?$AAm@ 0000000180013e50     libucrt:lcidtoname_downlevel.obj
 0002:00004e60       ??_C@_1M@OEPGHFNH@?$AAa?$AAr?$AA?9?$AAq?$AAa@ 0000000180013e60     libucrt:lcidtoname_downlevel.obj
 0002:00004e70       ??_C@_1M@KJDONENM@?$AAa?$AAr?$AA?9?$AAs?$AAa@ 0000000180013e70     libucrt:lcidtoname_downlevel.obj
 0002:00004e80       ??_C@_1M@DMJDKLKM@?$AAa?$AAr?$AA?9?$AAs?$AAy@ 0000000180013e80     libucrt:lcidtoname_downlevel.obj
 0002:00004e90       ??_C@_1M@OMFIPEDC@?$AAa?$AAr?$AA?9?$AAt?$AAn@ 0000000180013e90     libucrt:lcidtoname_downlevel.obj
 0002:00004ea0       ??_C@_1M@IHMHGAON@?$AAa?$AAr?$AA?9?$AAy?$AAe@ 0000000180013ea0     libucrt:lcidtoname_downlevel.obj
 0002:00004eb0       ??_C@_1BG@KDCPGJGB@?$AAa?$AAz?$AA?9?$AAa?$AAz?$AA?9?$AAc?$AAy?$AAr?$AAl@ 0000000180013eb0     libucrt:lcidtoname_downlevel.obj
 0002:00004ec8       ??_C@_1BG@IBCKDDOE@?$AAa?$AAz?$AA?9?$AAa?$AAz?$AA?9?$AAl?$AAa?$AAt?$AAn@ 0000000180013ec8     libucrt:lcidtoname_downlevel.obj
 0002:00004ee0       ??_C@_1M@EGPFDCPD@?$AAb?$AAe?$AA?9?$AAb?$AAy@ 0000000180013ee0     libucrt:lcidtoname_downlevel.obj
 0002:00004ef0       ??_C@_1M@PCMGMCGC@?$AAb?$AAg?$AA?9?$AAb?$AAg@ 0000000180013ef0     libucrt:lcidtoname_downlevel.obj
 0002:00004f00       ??_C@_1M@BJBMFGOB@?$AAb?$AAn?$AA?9?$AAi?$AAn@ 0000000180013f00     libucrt:lcidtoname_downlevel.obj
 0002:00004f10       ??_C@_1BG@EAKMMACD@?$AAb?$AAs?$AA?9?$AAb?$AAa?$AA?9?$AAl?$AAa?$AAt?$AAn@ 0000000180013f10     libucrt:lcidtoname_downlevel.obj
 0002:00004f28       ??_C@_1M@KGADAODK@?$AAc?$AAa?$AA?9?$AAe?$AAs@ 0000000180013f28     libucrt:lcidtoname_downlevel.obj
 0002:00004f38       ??_C@_1M@COAJPDHI@?$AAc?$AAs?$AA?9?$AAc?$AAz@ 0000000180013f38     libucrt:lcidtoname_downlevel.obj
 0002:00004f48       ??_C@_1M@DHBHFONH@?$AAc?$AAy?$AA?9?$AAg?$AAb@ 0000000180013f48     libucrt:lcidtoname_downlevel.obj
 0002:00004f58       ??_C@_1M@IMGKELGA@?$AAd?$AAa?$AA?9?$AAd?$AAk@ 0000000180013f58     libucrt:lcidtoname_downlevel.obj
 0002:00004f68       ??_C@_1M@NNDGDNGA@?$AAd?$AAe?$AA?9?$AAa?$AAt@ 0000000180013f68     libucrt:lcidtoname_downlevel.obj
 0002:00004f78       ??_C@_1M@IKDBHEEM@?$AAd?$AAe?$AA?9?$AAc?$AAh@ 0000000180013f78     libucrt:lcidtoname_downlevel.obj
 0002:00004f88       ??_C@_1M@GFFOJMCJ@?$AAd?$AAe?$AA?9?$AAd?$AAe@ 0000000180013f88     libucrt:lcidtoname_downlevel.obj
 0002:00004f98       ??_C@_1M@MDNLKBPM@?$AAd?$AAe?$AA?9?$AAl?$AAi@ 0000000180013f98     libucrt:lcidtoname_downlevel.obj
 0002:00004fa8       ??_C@_1M@NJBEEJNL@?$AAd?$AAe?$AA?9?$AAl?$AAu@ 0000000180013fa8     libucrt:lcidtoname_downlevel.obj
 0002:00004fb8       ??_C@_1O@GNNELBAP@?$AAd?$AAi?$AAv?$AA?9?$AAm?$AAv@ 0000000180013fb8     libucrt:lcidtoname_downlevel.obj
 0002:00004fc8       ??_C@_1M@EJLEOGAE@?$AAe?$AAl?$AA?9?$AAg?$AAr@ 0000000180013fc8     libucrt:lcidtoname_downlevel.obj
 0002:00004fd8       ??_C@_1M@GMPONJN@?$AAe?$AAn?$AA?9?$AAa?$AAu@ 0000000180013fd8     libucrt:lcidtoname_downlevel.obj
 0002:00004fe8       ??_C@_1M@NIDIIPGF@?$AAe?$AAn?$AA?9?$AAb?$AAz@ 0000000180013fe8     libucrt:lcidtoname_downlevel.obj
 0002:00004ff8       ??_C@_1M@JEHMIMFO@?$AAe?$AAn?$AA?9?$AAc?$AAa@ 0000000180013ff8     libucrt:lcidtoname_downlevel.obj
 0002:00005008       ??_C@_1M@IGMJCDLA@?$AAe?$AAn?$AA?9?$AAc?$AAb@ 0000000180014008     libucrt:lcidtoname_downlevel.obj
 0002:00005018       ??_C@_1M@BNFIGBKG@?$AAe?$AAn?$AA?9?$AAg?$AAb@ 0000000180014018     libucrt:lcidtoname_downlevel.obj
 0002:00005028       ??_C@_1M@LKIFDIGP@?$AAe?$AAn?$AA?9?$AAi?$AAe@ 0000000180014028     libucrt:lcidtoname_downlevel.obj
 0002:00005038       ??_C@_1M@PJKFGCCO@?$AAe?$AAn?$AA?9?$AAj?$AAm@ 0000000180014038     libucrt:lcidtoname_downlevel.obj
 0002:00005048       ??_C@_1M@KPPKEPBO@?$AAe?$AAn?$AA?9?$AAn?$AAz@ 0000000180014048     libucrt:lcidtoname_downlevel.obj
 0002:00005058       ??_C@_1M@GMDGLDOB@?$AAe?$AAn?$AA?9?$AAp?$AAh@ 0000000180014058     libucrt:lcidtoname_downlevel.obj
 0002:00005068       ??_C@_1M@ONGIBJNA@?$AAe?$AAn?$AA?9?$AAt?$AAt@ 0000000180014068     libucrt:lcidtoname_downlevel.obj
 0002:00005078       ??_C@_1M@LLODPCMM@?$AAe?$AAn?$AA?9?$AAu?$AAs@ 0000000180014078     libucrt:lcidtoname_downlevel.obj
 0002:00005088       ??_C@_1M@LAKFNPAN@?$AAe?$AAn?$AA?9?$AAz?$AAa@ 0000000180014088     libucrt:lcidtoname_downlevel.obj
 0002:00005098       ??_C@_1M@MFNHNHEO@?$AAe?$AAn?$AA?9?$AAz?$AAw@ 0000000180014098     libucrt:lcidtoname_downlevel.obj
 0002:000050a8       ??_C@_1M@EJEINPHM@?$AAe?$AAs?$AA?9?$AAa?$AAr@ 00000001800140a8     libucrt:lcidtoname_downlevel.obj
 0002:000050b8       ??_C@_1M@GNKPCCJA@?$AAe?$AAs?$AA?9?$AAb?$AAo@ 00000001800140b8     libucrt:lcidtoname_downlevel.obj
 0002:000050c8       ??_C@_1M@LEEGFONL@?$AAe?$AAs?$AA?9?$AAc?$AAl@ 00000001800140c8     libucrt:lcidtoname_downlevel.obj
 0002:000050d8       ??_C@_1M@KGPDPBDF@?$AAe?$AAs?$AA?9?$AAc?$AAo@ 00000001800140d8     libucrt:lcidtoname_downlevel.obj
 0002:000050e8       ??_C@_1M@EIAHOHH@?$AAe?$AAs?$AA?9?$AAc?$AAr@ 00000001800140e8     libucrt:lcidtoname_downlevel.obj
 0002:000050f8       ??_C@_1M@LLPGMBIN@?$AAe?$AAs?$AA?9?$AAd?$AAo@ 00000001800140f8     libucrt:lcidtoname_downlevel.obj
 0002:00005108       ??_C@_1M@DKHMKNJA@?$AAe?$AAs?$AA?9?$AAe?$AAc@ 0000000180014108     libucrt:lcidtoname_downlevel.obj
 0002:00005118       ??_C@_1M@GKGFPKAP@?$AAe?$AAs?$AA?9?$AAe?$AAs@ 0000000180014118     libucrt:lcidtoname_downlevel.obj
 0002:00005128       ??_C@_1M@LKHKGDLN@?$AAe?$AAs?$AA?9?$AAg?$AAt@ 0000000180014128     libucrt:lcidtoname_downlevel.obj
 0002:00005138       ??_C@_1M@HEIIGGJD@?$AAe?$AAs?$AA?9?$AAh?$AAn@ 0000000180014138     libucrt:lcidtoname_downlevel.obj
 0002:00005148       ??_C@_1M@FBDHPPGD@?$AAe?$AAs?$AA?9?$AAm?$AAx@ 0000000180014148     libucrt:lcidtoname_downlevel.obj
 0002:00005158       ??_C@_1M@DPAGLNDH@?$AAe?$AAs?$AA?9?$AAn?$AAi@ 0000000180014158     libucrt:lcidtoname_downlevel.obj
 0002:00005168       ??_C@_1M@MDGOPGDD@?$AAe?$AAs?$AA?9?$AAp?$AAa@ 0000000180014168     libucrt:lcidtoname_downlevel.obj
 0002:00005178       ??_C@_1M@EMAMGBGE@?$AAe?$AAs?$AA?9?$AAp?$AAe@ 0000000180014178     libucrt:lcidtoname_downlevel.obj
 0002:00005188       ??_C@_1M@IBMCAOEC@?$AAe?$AAs?$AA?9?$AAp?$AAr@ 0000000180014188     libucrt:lcidtoname_downlevel.obj
 0002:00005198       ??_C@_1M@FGMDIJED@?$AAe?$AAs?$AA?9?$AAp?$AAy@ 0000000180014198     libucrt:lcidtoname_downlevel.obj
 0002:000051a8       ??_C@_1M@IIDEOLLL@?$AAe?$AAs?$AA?9?$AAs?$AAv@ 00000001800141a8     libucrt:lcidtoname_downlevel.obj
 0002:000051b8       ??_C@_1M@GAOBIPA@?$AAe?$AAs?$AA?9?$AAu?$AAy@ 00000001800141b8     libucrt:lcidtoname_downlevel.obj
 0002:000051c8       ??_C@_1M@JKFFICHJ@?$AAe?$AAs?$AA?9?$AAv?$AAe@ 00000001800141c8     libucrt:lcidtoname_downlevel.obj
 0002:000051d8       ??_C@_1M@PNMLOJDF@?$AAe?$AAt?$AA?9?$AAe?$AAe@ 00000001800141d8     libucrt:lcidtoname_downlevel.obj
 0002:000051e8       ??_C@_1M@GHHLIKEI@?$AAe?$AAu?$AA?9?$AAe?$AAs@ 00000001800141e8     libucrt:lcidtoname_downlevel.obj
 0002:000051f8       ??_C@_1M@PBNONODE@?$AAf?$AAa?$AA?9?$AAi?$AAr@ 00000001800141f8     libucrt:lcidtoname_downlevel.obj
 0002:00005208       ??_C@_1M@JEEHPMIL@?$AAf?$AAi?$AA?9?$AAf?$AAi@ 0000000180014208     libucrt:lcidtoname_downlevel.obj
 0002:00005218       ??_C@_1M@LMDCNDBA@?$AAf?$AAo?$AA?9?$AAf?$AAo@ 0000000180014218     libucrt:lcidtoname_downlevel.obj
 0002:00005228       ??_C@_1M@JKEOHLDK@?$AAf?$AAr?$AA?9?$AAb?$AAe@ 0000000180014228     libucrt:lcidtoname_downlevel.obj
 0002:00005238       ??_C@_1M@NOHADPMI@?$AAf?$AAr?$AA?9?$AAc?$AAa@ 0000000180014238     libucrt:lcidtoname_downlevel.obj
 0002:00005248       ??_C@_1M@KDHIHAEC@?$AAf?$AAr?$AA?9?$AAc?$AAh@ 0000000180014248     libucrt:lcidtoname_downlevel.obj
 0002:00005258       ??_C@_1M@MMBBFGAK@?$AAf?$AAr?$AA?9?$AAf?$AAr@ 0000000180014258     libucrt:lcidtoname_downlevel.obj
 0002:00005268       ??_C@_1M@PAFNENNF@?$AAf?$AAr?$AA?9?$AAl?$AAu@ 0000000180014268     libucrt:lcidtoname_downlevel.obj
 0002:00005278       ??_C@_1M@EOHDJGDD@?$AAf?$AAr?$AA?9?$AAm?$AAc@ 0000000180014278     libucrt:lcidtoname_downlevel.obj
 0002:00005288       ??_C@_1M@FAPLLOPF@?$AAg?$AAl?$AA?9?$AAe?$AAs@ 0000000180014288     libucrt:lcidtoname_downlevel.obj
 0002:00005298       ??_C@_1M@FOPBFLOO@?$AAg?$AAu?$AA?9?$AAi?$AAn@ 0000000180014298     libucrt:lcidtoname_downlevel.obj
 0002:000052a8       ??_C@_1M@KBMCINPM@?$AAh?$AAe?$AA?9?$AAi?$AAl@ 00000001800142a8     libucrt:lcidtoname_downlevel.obj
 0002:000052b8       ??_C@_1M@BBPHKFPJ@?$AAh?$AAi?$AA?9?$AAi?$AAn@ 00000001800142b8     libucrt:lcidtoname_downlevel.obj
 0002:000052c8       ??_C@_1M@PMBNDPHD@?$AAh?$AAr?$AA?9?$AAb?$AAa@ 00000001800142c8     libucrt:lcidtoname_downlevel.obj
 0002:000052d8       ??_C@_1M@BPCKOEGE@?$AAh?$AAr?$AA?9?$AAh?$AAr@ 00000001800142d8     libucrt:lcidtoname_downlevel.obj
 0002:000052e8       ??_C@_1M@GACBMHKE@?$AAh?$AAu?$AA?9?$AAh?$AAu@ 00000001800142e8     libucrt:lcidtoname_downlevel.obj
 0002:000052f8       ??_C@_1M@MILPAJJC@?$AAh?$AAy?$AA?9?$AAa?$AAm@ 00000001800142f8     libucrt:lcidtoname_downlevel.obj
 0002:00005308       ??_C@_1M@BABBICEC@?$AAi?$AAd?$AA?9?$AAi?$AAd@ 0000000180014308     libucrt:lcidtoname_downlevel.obj
 0002:00005318       ??_C@_1M@BIKNHHPF@?$AAi?$AAs?$AA?9?$AAi?$AAs@ 0000000180014318     libucrt:lcidtoname_downlevel.obj
 0002:00005328       ??_C@_1M@NMPCJPHE@?$AAi?$AAt?$AA?9?$AAc?$AAh@ 0000000180014328     libucrt:lcidtoname_downlevel.obj
 0002:00005338       ??_C@_1M@GHKGFEDF@?$AAi?$AAt?$AA?9?$AAi?$AAt@ 0000000180014338     libucrt:lcidtoname_downlevel.obj
 0002:00005348       ??_C@_1M@NIEJCJJA@?$AAj?$AAa?$AA?9?$AAj?$AAp@ 0000000180014348     libucrt:lcidtoname_downlevel.obj
 0002:00005358       ??_C@_1M@JILFNBIM@?$AAk?$AAa?$AA?9?$AAg?$AAe@ 0000000180014358     libucrt:lcidtoname_downlevel.obj
 0002:00005368       ??_C@_1M@PACPMGPH@?$AAk?$AAk?$AA?9?$AAk?$AAz@ 0000000180014368     libucrt:lcidtoname_downlevel.obj
 0002:00005378       ??_C@_1M@IELFGMHA@?$AAk?$AAn?$AA?9?$AAi?$AAn@ 0000000180014378     libucrt:lcidtoname_downlevel.obj
 0002:00005388       ??_C@_1O@IBBJHCH@?$AAk?$AAo?$AAk?$AA?9?$AAi?$AAn@ 0000000180014388     libucrt:lcidtoname_downlevel.obj
 0002:00005398       ??_C@_1M@DMHAEOGC@?$AAk?$AAo?$AA?9?$AAk?$AAr@ 0000000180014398     libucrt:lcidtoname_downlevel.obj
 0002:000053a8       ??_C@_1M@HBAHBIGA@?$AAk?$AAy?$AA?9?$AAk?$AAg@ 00000001800143a8     libucrt:lcidtoname_downlevel.obj
 0002:000053b8       ??_C@_1M@KPMILCJG@?$AAl?$AAt?$AA?9?$AAl?$AAt@ 00000001800143b8     libucrt:lcidtoname_downlevel.obj
 0002:000053c8       ??_C@_1M@BDEKKCA@?$AAl?$AAv?$AA?9?$AAl?$AAv@ 00000001800143c8     libucrt:lcidtoname_downlevel.obj
 0002:000053d8       ??_C@_1M@ELCKCCJJ@?$AAm?$AAi?$AA?9?$AAn?$AAz@ 00000001800143d8     libucrt:lcidtoname_downlevel.obj
 0002:000053e8       ??_C@_1M@CBOOLAPA@?$AAm?$AAk?$AA?9?$AAm?$AAk@ 00000001800143e8     libucrt:lcidtoname_downlevel.obj
 0002:000053f8       ??_C@_1M@GPHNBJKN@?$AAm?$AAl?$AA?9?$AAi?$AAn@ 00000001800143f8     libucrt:lcidtoname_downlevel.obj
 0002:00005408       ??_C@_1M@PABJILIG@?$AAm?$AAn?$AA?9?$AAm?$AAn@ 0000000180014408     libucrt:lcidtoname_downlevel.obj
 0002:00005418       ??_C@_1M@FGBKKIPG@?$AAm?$AAr?$AA?9?$AAi?$AAn@ 0000000180014418     libucrt:lcidtoname_downlevel.obj
 0002:00005428       ??_C@_1M@NDBPDDAL@?$AAm?$AAs?$AA?9?$AAb?$AAn@ 0000000180014428     libucrt:lcidtoname_downlevel.obj
 0002:00005438       ??_C@_1M@OPIHOOPI@?$AAm?$AAs?$AA?9?$AAm?$AAy@ 0000000180014438     libucrt:lcidtoname_downlevel.obj
 0002:00005448       ??_C@_1M@PPDBCNFM@?$AAm?$AAt?$AA?9?$AAm?$AAt@ 0000000180014448     libucrt:lcidtoname_downlevel.obj
 0002:00005458       ??_C@_1M@KDJDKMDD@?$AAn?$AAb?$AA?9?$AAn?$AAo@ 0000000180014458     libucrt:lcidtoname_downlevel.obj
 0002:00005468       ??_C@_1M@KFCFLMJP@?$AAn?$AAl?$AA?9?$AAb?$AAe@ 0000000180014468     libucrt:lcidtoname_downlevel.obj
 0002:00005478       ??_C@_1M@KPOPDDGO@?$AAn?$AAl?$AA?9?$AAn?$AAl@ 0000000180014478     libucrt:lcidtoname_downlevel.obj
 0002:00005488       ??_C@_1M@LJKPEMLN@?$AAn?$AAn?$AA?9?$AAn?$AAo@ 0000000180014488     libucrt:lcidtoname_downlevel.obj
 0002:00005498       ??_C@_1M@BDGHHBFL@?$AAn?$AAs?$AA?9?$AAz?$AAa@ 0000000180014498     libucrt:lcidtoname_downlevel.obj
 0002:000054a8       ??_C@_1M@IDEHOAP@?$AAp?$AAa?$AA?9?$AAi?$AAn@ 00000001800144a8     libucrt:lcidtoname_downlevel.obj
 0002:000054b8       ??_C@_1M@HDBKGOGH@?$AAp?$AAl?$AA?9?$AAp?$AAl@ 00000001800144b8     libucrt:lcidtoname_downlevel.obj
 0002:000054c8       ??_C@_1M@LJLLCMEH@?$AAp?$AAt?$AA?9?$AAb?$AAr@ 00000001800144c8     libucrt:lcidtoname_downlevel.obj
 0002:000054d8       ??_C@_1M@NCMONAAL@?$AAp?$AAt?$AA?9?$AAp?$AAt@ 00000001800144d8     libucrt:lcidtoname_downlevel.obj
 0002:000054e8       ??_C@_1O@EAKMAJDN@?$AAq?$AAu?$AAz?$AA?9?$AAb?$AAo@ 00000001800144e8     libucrt:lcidtoname_downlevel.obj
 0002:000054f8       ??_C@_1O@BHHPIGDN@?$AAq?$AAu?$AAz?$AA?9?$AAe?$AAc@ 00000001800144f8     libucrt:lcidtoname_downlevel.obj
 0002:00005508       ??_C@_1O@GBAPEKMJ@?$AAq?$AAu?$AAz?$AA?9?$AAp?$AAe@ 0000000180014508     libucrt:lcidtoname_downlevel.obj
 0002:00005518       ??_C@_1M@CLGLEFBO@?$AAr?$AAo?$AA?9?$AAr?$AAo@ 0000000180014518     libucrt:lcidtoname_downlevel.obj
 0002:00005528       ??_C@_1M@CEEDODME@?$AAr?$AAu?$AA?9?$AAr?$AAu@ 0000000180014528     libucrt:lcidtoname_downlevel.obj
 0002:00005538       ??_C@_1M@HPKKKMPP@?$AAs?$AAa?$AA?9?$AAi?$AAn@ 0000000180014538     libucrt:lcidtoname_downlevel.obj
 0002:00005548       ??_C@_1M@BKMAIGOJ@?$AAs?$AAe?$AA?9?$AAf?$AAi@ 0000000180014548     libucrt:lcidtoname_downlevel.obj
 0002:00005558       ??_C@_1M@NDPIFLFI@?$AAs?$AAe?$AA?9?$AAn?$AAo@ 0000000180014558     libucrt:lcidtoname_downlevel.obj
 0002:00005568       ??_C@_1M@DANKKHJ@?$AAs?$AAe?$AA?9?$AAs?$AAe@ 0000000180014568     libucrt:lcidtoname_downlevel.obj
 0002:00005578       ??_C@_1M@PNBLONPJ@?$AAs?$AAk?$AA?9?$AAs?$AAk@ 0000000180014578     libucrt:lcidtoname_downlevel.obj
 0002:00005588       ??_C@_1M@LFMODOAL@?$AAs?$AAl?$AA?9?$AAs?$AAi@ 0000000180014588     libucrt:lcidtoname_downlevel.obj
 0002:00005598       ??_C@_1O@DFKOMPG@?$AAs?$AAm?$AAa?$AA?9?$AAn?$AAo@ 0000000180014598     libucrt:lcidtoname_downlevel.obj
 0002:000055a8       ??_C@_1O@NDKPBNNH@?$AAs?$AAm?$AAa?$AA?9?$AAs?$AAe@ 00000001800145a8     libucrt:lcidtoname_downlevel.obj
 0002:000055b8       ??_C@_1O@PLLKBHAB@?$AAs?$AAm?$AAj?$AA?9?$AAn?$AAo@ 00000001800145b8     libucrt:lcidtoname_downlevel.obj
 0002:000055c8       ??_C@_1O@CLEPOGCA@?$AAs?$AAm?$AAj?$AA?9?$AAs?$AAe@ 00000001800145c8     libucrt:lcidtoname_downlevel.obj
 0002:000055d8       ??_C@_1O@DLGJGKMK@?$AAs?$AAm?$AAn?$AA?9?$AAf?$AAi@ 00000001800145d8     libucrt:lcidtoname_downlevel.obj
 0002:000055e8       ??_C@_1O@OJDJGAJC@?$AAs?$AAm?$AAs?$AA?9?$AAf?$AAi@ 00000001800145e8     libucrt:lcidtoname_downlevel.obj
 0002:000055f8       ??_C@_1M@BOFOGHPB@?$AAs?$AAq?$AA?9?$AAa?$AAl@ 00000001800145f8     libucrt:lcidtoname_downlevel.obj
 0002:00005608       ??_C@_1BG@LJBBIPGB@?$AAs?$AAr?$AA?9?$AAb?$AAa?$AA?9?$AAc?$AAy?$AAr?$AAl@ 0000000180014608     libucrt:lcidtoname_downlevel.obj
 0002:00005620       ??_C@_1BG@JLBENFOE@?$AAs?$AAr?$AA?9?$AAb?$AAa?$AA?9?$AAl?$AAa?$AAt?$AAn@ 0000000180014620     libucrt:lcidtoname_downlevel.obj
 0002:00005638       ??_C@_1BG@KODPNHE@?$AAs?$AAr?$AA?9?$AAs?$AAp?$AA?9?$AAc?$AAy?$AAr?$AAl@ 0000000180014638     libucrt:lcidtoname_downlevel.obj
 0002:00005650       ??_C@_1BG@CIOGKHPB@?$AAs?$AAr?$AA?9?$AAs?$AAp?$AA?9?$AAl?$AAa?$AAt?$AAn@ 0000000180014650     libucrt:lcidtoname_downlevel.obj
 0002:00005668       ??_C@_1M@NGFJLMAC@?$AAs?$AAv?$AA?9?$AAf?$AAi@ 0000000180014668     libucrt:lcidtoname_downlevel.obj
 0002:00005678       ??_C@_1M@MPJEJAJC@?$AAs?$AAv?$AA?9?$AAs?$AAe@ 0000000180014678     libucrt:lcidtoname_downlevel.obj
 0002:00005688       ??_C@_1M@MPNDHLFK@?$AAs?$AAw?$AA?9?$AAk?$AAe@ 0000000180014688     libucrt:lcidtoname_downlevel.obj
 0002:00005698       ??_C@_1O@KOHBJJI@?$AAs?$AAy?$AAr?$AA?9?$AAs?$AAy@ 0000000180014698     libucrt:lcidtoname_downlevel.obj
 0002:000056a8       ??_C@_1M@LDCEFHA@?$AAt?$AAa?$AA?9?$AAi?$AAn@ 00000001800146a8     libucrt:lcidtoname_downlevel.obj
 0002:000056b8       ??_C@_1M@CNJOFAK@?$AAt?$AAe?$AA?9?$AAi?$AAn@ 00000001800146b8     libucrt:lcidtoname_downlevel.obj
 0002:000056c8       ??_C@_1M@GNAECACD@?$AAt?$AAh?$AA?9?$AAt?$AAh@ 00000001800146c8     libucrt:lcidtoname_downlevel.obj
 0002:000056d8       ??_C@_1M@CHBIHOJO@?$AAt?$AAn?$AA?9?$AAz?$AAa@ 00000001800146d8     libucrt:lcidtoname_downlevel.obj
 0002:000056e8       ??_C@_1M@GCCMIGPJ@?$AAt?$AAr?$AA?9?$AAt?$AAr@ 00000001800146e8     libucrt:lcidtoname_downlevel.obj
 0002:000056f8       ??_C@_1M@CELMCNBK@?$AAt?$AAt?$AA?9?$AAr?$AAu@ 00000001800146f8     libucrt:lcidtoname_downlevel.obj
 0002:00005708       ??_C@_1M@KLMCELGA@?$AAu?$AAk?$AA?9?$AAu?$AAa@ 0000000180014708     libucrt:lcidtoname_downlevel.obj
 0002:00005718       ??_C@_1M@EPAJJAJF@?$AAu?$AAr?$AA?9?$AAp?$AAk@ 0000000180014718     libucrt:lcidtoname_downlevel.obj
 0002:00005728       ??_C@_1BG@GEGPMCDJ@?$AAu?$AAz?$AA?9?$AAu?$AAz?$AA?9?$AAc?$AAy?$AAr?$AAl@ 0000000180014728     libucrt:lcidtoname_downlevel.obj
 0002:00005740       ??_C@_1BG@EGGKJILM@?$AAu?$AAz?$AA?9?$AAu?$AAz?$AA?9?$AAl?$AAa?$AAt?$AAn@ 0000000180014740     libucrt:lcidtoname_downlevel.obj
 0002:00005758       ??_C@_1M@GFOCLFF@?$AAv?$AAi?$AA?9?$AAv?$AAn@ 0000000180014758     libucrt:lcidtoname_downlevel.obj
 0002:00005768       ??_C@_1M@CPAMEDFI@?$AAx?$AAh?$AA?9?$AAz?$AAa@ 0000000180014768     libucrt:lcidtoname_downlevel.obj
 0002:00005778       ??_C@_1O@EBKIFIGN@?$AAz?$AAh?$AA?9?$AAc?$AAh?$AAs@ 0000000180014778     libucrt:lcidtoname_downlevel.obj
 0002:00005788       ??_C@_1O@NMHPGANE@?$AAz?$AAh?$AA?9?$AAc?$AAh?$AAt@ 0000000180014788     libucrt:lcidtoname_downlevel.obj
 0002:00005798       ??_C@_1M@LPINJOMC@?$AAz?$AAh?$AA?9?$AAc?$AAn@ 0000000180014798     libucrt:lcidtoname_downlevel.obj
 0002:000057a8       ??_C@_1M@OCJEJODD@?$AAz?$AAh?$AA?9?$AAh?$AAk@ 00000001800147a8     libucrt:lcidtoname_downlevel.obj
 0002:000057b8       ??_C@_1M@DNDLJINH@?$AAz?$AAh?$AA?9?$AAm?$AAo@ 00000001800147b8     libucrt:lcidtoname_downlevel.obj
 0002:000057c8       ??_C@_1M@MBFDNDND@?$AAz?$AAh?$AA?9?$AAs?$AAg@ 00000001800147c8     libucrt:lcidtoname_downlevel.obj
 0002:000057d8       ??_C@_1M@IMEPLEPE@?$AAz?$AAh?$AA?9?$AAt?$AAw@ 00000001800147d8     libucrt:lcidtoname_downlevel.obj
 0002:000057e8       ??_C@_1M@BBGHNHJP@?$AAz?$AAu?$AA?9?$AAz?$AAa@ 00000001800147e8     libucrt:lcidtoname_downlevel.obj
 0002:00005820       ??_C@_00CNPNBAHC@@         0000000180014820     libucrt:mbrtowc.obj
 0002:00005a80       ??_C@_1BA@BALFACEM@?$AAC?$AAO?$AAN?$AAO?$AAU?$AAT?$AA$@ 0000000180014a80     libucrt:initcon.obj
 0002:00005a90       __log10_256_lead           0000000180014a90     libucrt:log10_256_lead_tail_table.obj
 0002:000062a0       __log10_256_tail           00000001800152a0     libucrt:log10_256_lead_tail_table.obj
 0002:00006ab0       __log_F_inv_qword          0000000180015ab0     libucrt:log_f_inv_qword_table.obj
 0002:000072c0       ??_C@_05HGHHAHAP@log10@    00000001800162c0     libucrt:log_special.obj
 0002:000072e8       ??_7type_info@@6B@         00000001800162e8     LIBCMT:std_type_info_static.obj
 0002:000072f0       _pDestructExceptionObject  00000001800162f0     libvcruntime:frame.obj
 0002:00007300       ??_7exception@std@@6B@     0000000180016300     libvcruntime:frame.obj
 0002:00007310       ??_C@_0BC@EOODALEL@Unknown?5exception?$AA@ 0000000180016310     libvcruntime:frame.obj
 0002:00007330       ??_7bad_exception@std@@6B@ 0000000180016330     libvcruntime:frame.obj
 0002:00007340       ??_C@_0O@DPKOEFFH@bad?5exception?$AA@ 0000000180016340     libvcruntime:frame.obj
 0002:00007430       ??_C@_05HMGOPJPF@MSDOS?$AA@ 0000000180016430     arj.obj
 0002:00007438       ??_C@_06NGMNBOHI@PRIMOS?$AA@ 0000000180016438     arj.obj
 0002:00007440       ??_C@_04LPMMAGEE@UNIX?$AA@ 0000000180016440     arj.obj
 0002:00007448       ??_C@_05FAPBOJNL@AMIGA?$AA@ 0000000180016448     arj.obj
 0002:00007450       ??_C@_06CEBAHMOB@MAC?9OS?$AA@ 0000000180016450     arj.obj
 0002:00007458       ??_C@_04OEKHDCJK@OS?12?$AA@ 0000000180016458     arj.obj
 0002:00007460       ??_C@_08KBEMBKG@APPLE?5GS?$AA@ 0000000180016460     arj.obj
 0002:00007470       ??_C@_08OHLFELKH@ATARI?5ST?$AA@ 0000000180016470     arj.obj
 0002:0000747c       ??_C@_04MOKMKBJN@NEXT?$AA@ 000000018001647c     arj.obj
 0002:00007488       ??_C@_07MNEGEBPO@VAX?5VMS?$AA@ 0000000180016488     arj.obj
 0002:00007490       ??_C@_05PIBFGPIM@WIN95?$AA@ 0000000180016490     arj.obj
 0002:00007498       ??_C@_05LKMDHMJN@WIN32?$AA@ 0000000180016498     arj.obj
 0002:000074a0       ??_C@_03JILNECOK@ARJ?$AA@  00000001800164a0     arj.obj
 0002:000074a4       ??_C@_03JFEGIPJG@arj?$AA@  00000001800164a4     arj.obj
 0002:000074a8       ??_C@_0CK@FEJAHKGO@arj32?5x?5?9?$CL?5?$HL?9g?$CF?$CFP?$HN?5?9v?5?9y?5?9p1?5?9?9?5@ 00000001800164a8     arj.obj
 0002:000074d8       ??_C@_0CK@GIFBCFBO@arj32?5e?5?9?$CL?5?$HL?9g?$CF?$CFP?$HN?5?9v?5?9y?5?9p1?5?9?9?5@ 00000001800164d8     arj.obj
 0002:00007508       ??_C@_0CE@JPJHMIAF@arj32?5t?5?9?$CL?5?9y?5?$HL?9g?$CF?$CFP?$HN?5?9v?5?9p1?5?9?9?5@ 0000000180016508     arj.obj
 0002:00007530       ??_C@_0CI@ECCHAOPG@arj32?5d?5?9?$CL?5?9y?5?$HL?9w?$CF?$CFW?$HN?5?9p1?5?9?9?5?$CF?$CFA@ 0000000180016530     arj.obj
 0002:00007558       ??_C@_0CA@EAILPDHA@arj32?5c?5?9?$CL?5?9y?5?$HL?9w?$CF?$CFW?$HN?5?9z?5?9?9?5?$CF?$CFA?$AA@ 0000000180016558     arj.obj
 0002:00007578       ??_C@_0CH@DGALAGBO@arj32?5c?5?9?$CL?5?9y?5?$HL?9w?$CF?$CFW?$HN?5?9p1?5?9?9?5?$CF?$CFA@ 0000000180016578     arj.obj
 0002:000075a0       ??_C@_0BJ@FHBKIOHK@arj32?5y?5?9?$CL?5?9je?5?9y?5?9p?5?$CF?$CFA?$AA@ 00000001800165a0     arj.obj
 0002:000075b9       ??_C@_00CNPNBAHC@?$AA@     00000001800165b9     arj.obj
 0002:000075c0       ??_C@_0BD@KMPDHKGC@arj32?5t?5?9hk?5?9y?5?$CF?$CFA?$AA@ 00000001800165c0     arj.obj
 0002:000075d8       ??_C@_0P@KNIIIHKI@arj32?5q?5?9y?5?$CF?$CFA?$AA@ 00000001800165d8     arj.obj
 0002:000075e8       ??_C@_0DI@FBOPMJN@arj32?5a?5?9?$CL?5?9y?5?9a1?5?$HL?9g?$CF?$CFP?$HN?5?$HL?9w?$CF?$CFW@ 00000001800165e8     arj.obj
 0002:00007620       ??_C@_0DI@ICOHELJE@arj32?5m?5?9?$CL?5?9y?5?9a1?5?$HL?9g?$CF?$CFP?$HN?5?$HL?9w?$CF?$CFW@ 0000000180016620     arj.obj
 0002:00007658       ??_C@_0DL@DFOKFEKG@arj32?5a?5?9?$CL?5?9r?5?9y?5?9a1?5?$HL?9g?$CF?$CFP?$HN?5?$HL?9w@ 0000000180016658     arj.obj
 0002:00007698       ??_C@_0DL@FFNOBNGJ@arj32?5m?5?9?$CL?5?9r?5?9y?5?9a1?5?$HL?9g?$CF?$CFP?$HN?5?$HL?9w@ 0000000180016698     arj.obj
 0002:000076d4       ??_C@_03EMIMMIHL@?$CK?4?$CK?$AA@ 00000001800166d4     arj.obj
 0002:00007820       _load_config_used          0000000180016820     LIBCMT:loadcfg.obj
 0002:000078b8       ??_R4type_info@@6B@        00000001800168b8     LIBCMT:std_type_info_static.obj
 0002:000078e0       ??_R3type_info@@8          00000001800168e0     LIBCMT:std_type_info_static.obj
 0002:000078f8       ??_R2type_info@@8          00000001800168f8     LIBCMT:std_type_info_static.obj
 0002:00007908       ??_R1A@?0A@EA@type_info@@8 0000000180016908     LIBCMT:std_type_info_static.obj
 0002:00007930       ??_R4exception@std@@6B@    0000000180016930     libvcruntime:frame.obj
 0002:00007958       ??_R3exception@std@@8      0000000180016958     libvcruntime:frame.obj
 0002:00007970       ??_R2exception@std@@8      0000000180016970     libvcruntime:frame.obj
 0002:00007980       ??_R1A@?0A@EA@exception@std@@8 0000000180016980     libvcruntime:frame.obj
 0002:000079a8       ??_R4bad_exception@std@@6B@ 00000001800169a8     libvcruntime:frame.obj
 0002:000079d0       ??_R3bad_exception@std@@8  00000001800169d0     libvcruntime:frame.obj
 0002:000079e8       ??_R2bad_exception@std@@8  00000001800169e8     libvcruntime:frame.obj
 0002:00007a00       ??_R1A@?0A@EA@bad_exception@std@@8 0000000180016a00     libvcruntime:frame.obj
 0002:00007d80       __rtc_iaa                  0000000180016d80     LIBCMT:_initsect_.obj
 0002:00007d88       __rtc_izz                  0000000180016d88     LIBCMT:_initsect_.obj
 0002:00007d90       __rtc_taa                  0000000180016d90     LIBCMT:_initsect_.obj
 0002:00007d98       __rtc_tzz                  0000000180016d98     LIBCMT:_initsect_.obj
 0002:00008b60       _TI2?AVbad_exception@std@@ 0000000180017b60     libvcruntime:frame.obj
 0002:00008b80       _CTA2?AVbad_exception@std@@ 0000000180017b80     libvcruntime:frame.obj
 0002:00008b98       _CT??_R0?AVbad_exception@std@@@8??0bad_exception@std@@QEAA@AEBV01@@Z24 0000000180017b98     libvcruntime:frame.obj
 0002:00008bc0       _CT??_R0?AVexception@std@@@8??0exception@std@@QEAA@AEBV01@@Z24 0000000180017bc0     libvcruntime:frame.obj
 0002:00008cc0       __IMPORT_DESCRIPTOR_KERNEL32 0000000180017cc0     kernel32:KERNEL32.dll
 0002:00008cd4       __NULL_IMPORT_DESCRIPTOR   0000000180017cd4     kernel32:KERNEL32.dll
 0003:00000000       __security_cookie          0000000180019000     LIBCMT:gs_cookie.obj
 0003:00000008       __security_cookie_complement 0000000180019008     LIBCMT:gs_cookie.obj
 0003:00000010       __scrt_native_dllmain_reason 0000000180019010     LIBCMT:utility.obj
 0003:00000018       __isa_available            0000000180019018     LIBCMT:_cpu_disp_.obj
 0003:0000001c       __isa_enabled              000000018001901c     LIBCMT:_cpu_disp_.obj
 0003:00000020       __memcpy_nt_iters          0000000180019020     LIBCMT:_cpu_disp_.obj
 0003:00000034       __abort_behavior           0000000180019034     libucrt:abort.obj
 0003:00000050       __acrt_initial_multibyte_data 0000000180019050     libucrt:mbctype.obj
 0003:00000590       __acrt_initial_locale_data 0000000180019590     libucrt:nlsdata.obj
 0003:000006e8       __acrt_initial_locale_pointers 00000001800196e8     libucrt:nlsdata.obj
 0003:000006f8       __acrt_wide_c_locale_string 00000001800196f8     libucrt:nlsdata.obj
 0003:00000700       _iob                       0000000180019700     libucrt:_file.obj
 0003:00000810       __globallocalestatus       0000000180019810     libucrt:glstatus.obj
 0003:00000820       __acrt_lconv_c             0000000180019820     libucrt:localeconv.obj
 0003:000008b8       __acrt_lconv_static_decimal 00000001800198b8     libucrt:localeconv.obj
 0003:000008bc       __acrt_lconv_static_W_decimal 00000001800198bc     libucrt:localeconv.obj
 0003:000008c0       _lookuptrailbytes          00000001800198c0     libucrt:read.obj
 0003:000009e0       _fltused                   00000001800199e0     LIBCMT:fltused.obj
 0003:000009f0       ??_R0?AVtype_info@@@8      00000001800199f0     LIBCMT:std_type_info_static.obj
 0003:00000a10       ??_R0?AVbad_exception@std@@@8 0000000180019a10     libvcruntime:frame.obj
 0003:00000a38       ??_R0?AVexception@std@@@8  0000000180019a38     libvcruntime:frame.obj
 0003:00000fd8       __scrt_current_native_startup_state 0000000180019fd8     LIBCMT:utility.obj
 0003:00000fe0       __scrt_native_startup_lock 0000000180019fe0     LIBCMT:utility.obj
 0003:00001020       ?__type_info_root_node@@3U__type_info_node@@A 000000018001a020     LIBCMT:tncleanup.obj
 0003:00001030       ?_OptionsStorage@?1??__local_stdio_printf_options@@9@4_KA 000000018001a030     LIBCMT:default_local_stdio_options.obj
 0003:00001038       ?_OptionsStorage@?1??__local_stdio_scanf_options@@9@4_KA 000000018001a038     LIBCMT:default_local_stdio_options.obj
 0003:00001040       __scrt_debugger_hook_flag  000000018001a040     LIBCMT:utility_desktop.obj
 0003:00001044       __favor                    000000018001a044     LIBCMT:_cpu_disp_.obj
 0003:00001168       __pPurecall                000000018001a168     libvcruntime:purevirt_data.obj
 0003:00001170       ?pArgList@UnDecorator@@0PEAVReplicator@@EA 000000018001a170     libvcruntime:undname.obj
 0003:00001178       ?pZNameList@UnDecorator@@0PEAVReplicator@@EA 000000018001a178     libvcruntime:undname.obj
 0003:00001180       ?pTemplateArgList@UnDecorator@@0PEAVReplicator@@EA 000000018001a180     libvcruntime:undname.obj
 0003:00001188       ?gName@UnDecorator@@0PEBDEB 000000018001a188     libvcruntime:undname.obj
 0003:00001190       ?name@UnDecorator@@0PEBDEB 000000018001a190     libvcruntime:undname.obj
 0003:00001198       ?outputString@UnDecorator@@0PEADEA 000000018001a198     libvcruntime:undname.obj
 0003:000011a0       ?maxStringLength@UnDecorator@@0HA 000000018001a1a0     libvcruntime:undname.obj
 0003:000011a4       ?disableFlags@UnDecorator@@0KA 000000018001a1a4     libvcruntime:undname.obj
 0003:000011a8       ?fExplicitTemplateParams@UnDecorator@@0_NA 000000018001a1a8     libvcruntime:undname.obj
 0003:000011a9       ?fGetTemplateArgumentList@UnDecorator@@0_NA 000000018001a1a9     libvcruntime:undname.obj
 0003:000011b0       ?m_pGetParameter@UnDecorator@@0P6APEADJ@ZEA 000000018001a1b0     libvcruntime:undname.obj
 0003:000011f0       ?c_exit_complete@?1???R<lambda_6e4b09c48022b2350581041d5f6b0c4c>@@QEBA@XZ@4_NA 000000018001a1f0     libucrt:exit.obj
 0003:00001308       _environ_table             000000018001a308     libucrt:environment_initialization.obj
 0003:00001310       _wenviron_table            000000018001a310     libucrt:environment_initialization.obj
 0003:00001318       __dcrt_initial_wide_environment 000000018001a318     libucrt:environment_initialization.obj
 0003:00001320       __dcrt_initial_narrow_environment 000000018001a320     libucrt:environment_initialization.obj
 0003:00001328       __acrt_atexit_table        000000018001a328     libucrt:onexit.obj
 0003:00001340       __acrt_at_quick_exit_table 000000018001a340     libucrt:onexit.obj
 0003:000015a0       _mbctype                   000000018001a5a0     libucrt:mbctype.obj
 0003:000015a8       _mbcasemap                 000000018001a5a8     libucrt:mbctype.obj
 0003:000015b0       __acrt_current_multibyte_data 000000018001a5b0     libucrt:mbctype.obj
 0003:000015c0       _pgmptr                    000000018001a5c0     libucrt:argv_data.obj
 0003:000015c8       __argc                     000000018001a5c8     libucrt:argv_data.obj
 0003:000015d0       __argv                     000000018001a5d0     libucrt:argv_data.obj
 0003:000015d8       __wargv                    000000018001a5d8     libucrt:argv_data.obj
 0003:000015e0       _acmdln                    000000018001a5e0     libucrt:argv_data.obj
 0003:000015e8       _wcmdln                    000000018001a5e8     libucrt:argv_data.obj
 0003:00001780       __acrt_heap                000000018001a780     libucrt:heap_handle.obj
 0003:00001790       __pioinfo                  000000018001a790     libucrt:ioinit.obj
 0003:00001b90       _nhandle                   000000018001ab90     libucrt:ioinit.obj
 0003:00001bc8       __acrt_current_locale_data 000000018001abc8     libucrt:nlsdata.obj
 0003:00001bd0       _nstream                   000000018001abd0     libucrt:_file.obj
 0003:00001bd8       __piob                     000000018001abd8     libucrt:_file.obj
 0003:00001be0       __acrt_stdout_buffer       000000018001abe0     libucrt:_sftbuf.obj
 0003:00001be8       __acrt_stderr_buffer       000000018001abe8     libucrt:_sftbuf.obj
 0003:00001c00       __acrt_locale_changed_data 000000018001ac00     libucrt:wsetlocale.obj
 0003:00001c04       __acrt_lconv_static_null   000000018001ac04     libucrt:localeconv.obj
 0003:00001c08       __acrt_lconv_static_W_null 000000018001ac08     libucrt:localeconv.obj
 0003:00001c18       __fma3_is_available        000000018001ac18     libucrt:fma3_available.obj
 0003:00001c1c       __use_fma3_lib             000000018001ac1c     libucrt:fma3_available.obj
 0003:00001c20       ?g_OutOfMemoryExceptionCallback@@3P6APEAXXZEA 000000018001ac20     libvcruntime:frame.obj
 0003:00001c30       ?CRC@@3KA                  000000018001ac30     arj.obj
 0003:00002064       __scrt_ucrt_dll_is_in_use  000000018001b064     <common>
 0003:00002068       __dyn_tls_init_callback    000000018001b068     <common>

 entry point at        0001:00000d8c

 Static symbols

 0000:fffdd000       .debug$S                   0000000180000000     kernel32:KERNEL32.dll
 0000:fffdd000       .debug$S                   0000000180000000     kernel32:KERNEL32.dll
 0000:fffdd000       .debug$S                   0000000180000000     kernel32:KERNEL32.dll
 0000:fffdd000       .debug$S                   0000000180000000     kernel32:KERNEL32.dll
 0000:fffdd000       .debug$S                   0000000180000000     kernel32:KERNEL32.dll
 0000:fffdd000       .debug$S                   0000000180000000     kernel32:KERNEL32.dll
 0000:fffdd000       .debug$S                   0000000180000000     kernel32:KERNEL32.dll
 0000:fffdd000       .debug$S                   0000000180000000     kernel32:KERNEL32.dll
 0000:fffdd000       .debug$S                   0000000180000000     kernel32:KERNEL32.dll
 0000:fffdd000       .debug$S                   0000000180000000     kernel32:KERNEL32.dll
 0000:fffdd000       .debug$S                   0000000180000000     kernel32:KERNEL32.dll
 0000:fffdd000       .debug$S                   0000000180000000     kernel32:KERNEL32.dll
 0000:fffdd000       .debug$S                   0000000180000000     kernel32:KERNEL32.dll
 0000:fffdd000       .debug$S                   0000000180000000     kernel32:KERNEL32.dll
 0000:fffdd000       .debug$S                   0000000180000000     kernel32:KERNEL32.dll
 0000:fffdd000       .debug$S                   0000000180000000     kernel32:KERNEL32.dll
 0000:fffdd000       .debug$S                   0000000180000000     kernel32:KERNEL32.dll
 0000:fffdd000       .debug$S                   0000000180000000     kernel32:KERNEL32.dll
 0000:fffdd000       .debug$S                   0000000180000000     kernel32:KERNEL32.dll
 0000:fffdd000       .debug$S                   0000000180000000     kernel32:KERNEL32.dll
 0000:fffdd000       .debug$S                   0000000180000000     kernel32:KERNEL32.dll
 0000:fffdd000       .debug$S                   0000000180000000     kernel32:KERNEL32.dll
 0000:fffdd000       .debug$S                   0000000180000000     kernel32:KERNEL32.dll
 0000:fffdd000       .debug$S                   0000000180000000     kernel32:KERNEL32.dll
 0000:fffdd000       .debug$S                   0000000180000000     kernel32:KERNEL32.dll
 0000:fffdd000       .debug$S                   0000000180000000     kernel32:KERNEL32.dll
 0000:fffdd000       .debug$S                   0000000180000000     kernel32:KERNEL32.dll
 0000:fffdd000       .debug$S                   0000000180000000     kernel32:KERNEL32.dll
 0000:fffdd000       .debug$S                   0000000180000000     kernel32:KERNEL32.dll
 0000:fffdd000       .debug$S                   0000000180000000     arj.exp
 0000:fffdd000       .debug$S                   0000000180000000     kernel32:KERNEL32.dll
 0000:fffdd000       .debug$S                   0000000180000000     kernel32:KERNEL32.dll
 0000:fffdd000       .debug$S                   0000000180000000     kernel32:KERNEL32.dll
 0000:fffdd000       .debug$S                   0000000180000000     kernel32:KERNEL32.dll
 0000:fffdd000       .debug$S                   0000000180000000     kernel32:KERNEL32.dll
 0000:fffdd000       .debug$S                   0000000180000000     kernel32:KERNEL32.dll
 0000:fffdd000       .debug$S                   0000000180000000     kernel32:KERNEL32.dll
 0000:fffdd000       .debug$S                   0000000180000000     kernel32:KERNEL32.dll
 0000:fffdd000       .debug$S                   0000000180000000     kernel32:KERNEL32.dll
 0000:fffdd000       .debug$S                   0000000180000000     kernel32:KERNEL32.dll
 0000:fffdd000       .debug$S                   0000000180000000     kernel32:KERNEL32.dll
 0000:fffdd000       .debug$S                   0000000180000000     kernel32:KERNEL32.dll
 0000:fffdd000       .debug$S                   0000000180000000     kernel32:KERNEL32.dll
 0000:fffdd000       .debug$S                   0000000180000000     kernel32:KERNEL32.dll
 0000:fffdd000       .debug$S                   0000000180000000     kernel32:KERNEL32.dll
 0000:fffdd000       .debug$S                   0000000180000000     kernel32:KERNEL32.dll
 0000:fffdd000       .debug$S                   0000000180000000     kernel32:KERNEL32.dll
 0000:fffdd000       .debug$S                   0000000180000000     kernel32:KERNEL32.dll
 0000:fffdd000       .debug$S                   0000000180000000     kernel32:KERNEL32.dll
 0000:fffdd000       .debug$S                   0000000180000000     kernel32:KERNEL32.dll
 0000:fffdd000       .debug$S                   0000000180000000     kernel32:KERNEL32.dll
 0000:fffdd000       .debug$S                   0000000180000000     kernel32:KERNEL32.dll
 0000:fffdd000       .debug$S                   0000000180000000     kernel32:KERNEL32.dll
 0000:fffdd000       .debug$S                   0000000180000000     kernel32:KERNEL32.dll
 0000:fffdd000       .debug$S                   0000000180000000     kernel32:KERNEL32.dll
 0000:fffdd000       .debug$S                   0000000180000000     kernel32:KERNEL32.dll
 0000:fffdd000       .debug$S                   0000000180000000     kernel32:KERNEL32.dll
 0000:fffdd000       .debug$S                   0000000180000000     kernel32:KERNEL32.dll
 0000:fffdd000       .debug$S                   0000000180000000     kernel32:KERNEL32.dll
 0000:fffdd000       .debug$S                   0000000180000000     kernel32:KERNEL32.dll
 0000:fffdd000       .debug$S                   0000000180000000     kernel32:KERNEL32.dll
 0000:fffdd000       .debug$S                   0000000180000000     kernel32:KERNEL32.dll
 0000:fffdd000       .debug$S                   0000000180000000     kernel32:KERNEL32.dll
 0000:fffdd000       .debug$S                   0000000180000000     kernel32:KERNEL32.dll
 0000:fffdd000       .debug$S                   0000000180000000     kernel32:KERNEL32.dll
 0000:fffdd000       .debug$S                   0000000180000000     kernel32:KERNEL32.dll
 0000:fffdd000       .debug$S                   0000000180000000     kernel32:KERNEL32.dll
 0000:fffdd000       .debug$S                   0000000180000000     kernel32:KERNEL32.dll
 0000:fffdd000       .debug$S                   0000000180000000     kernel32:KERNEL32.dll
 0000:fffdd000       .debug$S                   0000000180000000     kernel32:KERNEL32.dll
 0000:fffdd000       .debug$S                   0000000180000000     kernel32:KERNEL32.dll
 0000:fffdd000       .debug$S                   0000000180000000     kernel32:KERNEL32.dll
 0000:fffdd000       .debug$S                   0000000180000000     kernel32:KERNEL32.dll
 0000:fffdd000       .debug$S                   0000000180000000     kernel32:KERNEL32.dll
 0000:fffdd000       .debug$S                   0000000180000000     kernel32:KERNEL32.dll
 0000:fffdd000       .debug$S                   0000000180000000     kernel32:KERNEL32.dll
 0000:fffdd000       .debug$S                   0000000180000000     kernel32:KERNEL32.dll
 0000:fffdd000       .debug$S                   0000000180000000     kernel32:KERNEL32.dll
 0000:fffdd000       .debug$S                   0000000180000000     kernel32:KERNEL32.dll
 0000:fffdd000       .debug$S                   0000000180000000     kernel32:KERNEL32.dll
 0000:fffdd000       .debug$S                   0000000180000000     kernel32:KERNEL32.dll
 0000:fffdd000       .debug$S                   0000000180000000     kernel32:KERNEL32.dll
 0000:fffdd000       .debug$S                   0000000180000000     kernel32:KERNEL32.dll
 0000:fffdd000       .debug$S                   0000000180000000     kernel32:KERNEL32.dll
 0000:fffdd000       .debug$S                   0000000180000000     kernel32:KERNEL32.dll
 0000:fffdd000       .debug$S                   0000000180000000     kernel32:KERNEL32.dll
 0000:fffdd000       .debug$S                   0000000180000000     kernel32:KERNEL32.dll
 0000:fffdd000       .debug$S                   0000000180000000     kernel32:KERNEL32.dll
 0000:fffdd000       .debug$S                   0000000180000000     kernel32:KERNEL32.dll
 0000:fffdd000       .debug$S                   0000000180000000     kernel32:KERNEL32.dll
 0000:fffdd000       .debug$S                   0000000180000000     kernel32:KERNEL32.dll
 0000:fffdd000       .debug$S                   0000000180000000     kernel32:KERNEL32.dll
 0000:fffdd000       .debug$S                   0000000180000000     kernel32:KERNEL32.dll
 0000:fffdd000       .debug$S                   0000000180000000     kernel32:KERNEL32.dll
 0000:fffdd000       .debug$S                   0000000180000000     kernel32:KERNEL32.dll
 0001:00000000       ?make_crctable@@YAXXZ      0000000180001000 f   arj.obj
 0001:00000770       $$000000                   0000000180001770     LIBCMT:_amdsecgs_.obj
 0001:0000095c       capture_current_context    000000018000195c f   LIBCMT:gs_report.obj
 0001:000009cc       capture_previous_context   00000001800019cc f   LIBCMT:gs_report.obj
 0001:00000a40       ?dllmain_crt_dispatch@@YAHQEAUHINSTANCE__@@KQEAX@Z 0000000180001a40 f   LIBCMT:dll_dllmain.obj
 0001:00000a90       ?dllmain_crt_process_attach@@YAHQEAUHINSTANCE__@@QEAX@Z 0000000180001a90 f   LIBCMT:dll_dllmain.obj
 0001:00000bbc       ?dllmain_crt_process_detach@@YAH_N@Z 0000000180001bbc f   LIBCMT:dll_dllmain.obj
 0001:00000c40       ?dllmain_dispatch@@YAHQEAUHINSTANCE__@@KQEAX@Z 0000000180001c40 f   LIBCMT:dll_dllmain.obj
 0001:00000d38       ?dllmain_raw@@YAHQEAUHINSTANCE__@@KQEAX@Z 0000000180001d38 f   LIBCMT:dll_dllmain.obj
 0001:00001960       $$000000                   0000000180002960     libvcruntime:memset.obj
 0001:00001a4c       MsetTab                    0000000180002a4c     libvcruntime:memset.obj
 0001:00001b10       $$000000                   0000000180002b10     libvcruntime:_jmpuwind_.obj
 0001:00001dac       ?try_get_function@@YAPEAXW4function_id@?A0x679b24ab@@QEBDQEBW4module_id@2@2@Z 0000000180002dac f   libvcruntime:winapi_downlevel.obj
 0001:00002424       ??$?RV<lambda_d80eeec6fff315bfe5c115232f3240e3>@@AEAV<lambda_6e4b09c48022b2350581041d5f6b0c4c>@@V<lambda_2358e3775559c9db80273638284d5e45>@@@?$__crt_seh_guarded_call@X@@QEAAX$$QEAV<lambda_d80eeec6fff315bfe5c115232f3240e3>@@AEAV<lambda_6e4b09c48022b2350581041d5f6b0c4c>@@$$QEAV<lambda_2358e3775559c9db80273638284d5e45>@@@Z 0000000180003424 f   libucrt:exit.obj
 0001:0000245c       ??R<lambda_6e4b09c48022b2350581041d5f6b0c4c>@@QEBA@XZ 000000018000345c f   libucrt:exit.obj
 0001:00002528       ?common_exit@@YAXHW4_crt_exit_cleanup_mode@@W4_crt_exit_return_mode@@@Z 0000000180003528 f   libucrt:exit.obj
 0001:000025f0       ?exit_or_terminate_process@@YAXI@Z 00000001800035f0 f   libucrt:exit.obj
 0001:00002624       ?should_call_terminate_process@@YA_NXZ 0000000180003624 f   libucrt:exit.obj
 0001:00002654       ?try_cor_exit_process@@YAXI@Z 0000000180003654 f   libucrt:exit.obj
 0001:000026f0       ??$parse_command_line@D@@YAXPEADPEAPEAD0PEA_K2@Z 00000001800036f0 f   libucrt:argv_parsing.obj
 0001:00002a98       ??$common_initialize_environment_nolock@D@@YAHXZ 0000000180003a98 f   libucrt:environment_initialization.obj
 0001:00002b0c       ??$create_environment@D@@YAQEAPEADQEAD@Z 0000000180003b0c f   libucrt:environment_initialization.obj
 0001:00002c1c       ??$free_environment@D@@YAXQEAPEAD@Z 0000000180003c1c f   libucrt:environment_initialization.obj
 0001:00002c60       ??$free_environment@_W@@YAXQEAPEA_W@Z 0000000180003c60 f   libucrt:environment_initialization.obj
 0001:00002ca4       ??$uninitialize_environment_internal@D@@YAXAEAPEAPEAD@Z 0000000180003ca4 f   libucrt:environment_initialization.obj
 0001:00002cc0       ??$uninitialize_environment_internal@_W@@YAXAEAPEAPEA_W@Z 0000000180003cc0 f   libucrt:environment_initialization.obj
 0001:00002d28       ??$?RV<lambda_638799b9deba96c50f710eeac98168cd>@@AEAV<lambda_22ebabd17bc4fa466a2aca6d8deb888d>@@V<lambda_a6f7d7db0129f75315ebf26d50c089f1>@@@?$__crt_seh_guarded_call@H@@QEAAH$$QEAV<lambda_638799b9deba96c50f710eeac98168cd>@@AEAV<lambda_22ebabd17bc4fa466a2aca6d8deb888d>@@$$QEAV<lambda_a6f7d7db0129f75315ebf26d50c089f1>@@@Z 0000000180003d28 f   libucrt:onexit.obj
 0001:00002d64       ??$?RV<lambda_7777bce6b2f8c936911f934f8298dc43>@@AEAV<lambda_f03950bc5685219e0bcd2087efbe011e>@@V<lambda_3883c3dff614d5e0c5f61bb1ac94921c>@@@?$__crt_seh_guarded_call@H@@QEAAH$$QEAV<lambda_7777bce6b2f8c936911f934f8298dc43>@@AEAV<lambda_f03950bc5685219e0bcd2087efbe011e>@@$$QEAV<lambda_3883c3dff614d5e0c5f61bb1ac94921c>@@@Z 0000000180003d64 f   libucrt:onexit.obj
 0001:00002da0       ??R<lambda_22ebabd17bc4fa466a2aca6d8deb888d>@@QEBAHXZ 0000000180003da0 f   libucrt:onexit.obj
 0001:00002f50       ??R<lambda_f03950bc5685219e0bcd2087efbe011e>@@QEBAHXZ 0000000180003f50 f   libucrt:onexit.obj
 0001:00003134       uninitialize_allocated_io_buffers 0000000180004134 f   libucrt:initialization.obj
 0001:00003190       report_memory_leaks        0000000180004190 f   libucrt:initialization.obj
 0001:00003194       initialize_global_variables 0000000180004194 f   libucrt:initialization.obj
 0001:000031a8       initialize_c               00000001800041a8 f   libucrt:initialization.obj
 0001:000031cc       uninitialize_c             00000001800041cc f   libucrt:initialization.obj
 0001:000031d0       initialize_environment     00000001800041d0 f   libucrt:initialization.obj
 0001:000031d4       uninitialize_environment   00000001800041d4 f   libucrt:initialization.obj
 0001:000031e4       initialize_global_state_isolation 00000001800041e4 f   libucrt:initialization.obj
 0001:000031e8       uninitialize_global_state_isolation 00000001800041e8 f   libucrt:initialization.obj
 0001:000031ec       initialize_pointers        00000001800041ec f   libucrt:initialization.obj
 0001:0000322c       uninitialize_vcruntime     000000018000422c f   libucrt:initialization.obj
 0001:00003234       uninitialize_allocated_memory 0000000180004234 f   libucrt:initialization.obj
 0001:000035d8       ??$?RV<lambda_0ae27a3a962d80f24befdcbee591983d>@@AEAV<lambda_8d0ee55de4b1038c4002e0adecdf1839>@@V<lambda_dc504788e8f1664fe9b84e20bfb512f2>@@@?$__crt_seh_guarded_call@X@@QEAAX$$QEAV<lambda_0ae27a3a962d80f24befdcbee591983d>@@AEAV<lambda_8d0ee55de4b1038c4002e0adecdf1839>@@$$QEAV<lambda_dc504788e8f1664fe9b84e20bfb512f2>@@@Z 00000001800045d8 f   libucrt:per_thread_data.obj
 0001:00003618       ??$?RV<lambda_2d41944a1d46af3157314b8a01080d33>@@AEAV<lambda_8f455de75cd7d7f24b4096f044d8b9e6>@@V<lambda_aa500f224e6afead328df44964fe2772>@@@?$__crt_seh_guarded_call@X@@QEAAX$$QEAV<lambda_2d41944a1d46af3157314b8a01080d33>@@AEAV<lambda_8f455de75cd7d7f24b4096f044d8b9e6>@@$$QEAV<lambda_aa500f224e6afead328df44964fe2772>@@@Z 0000000180004618 f   libucrt:per_thread_data.obj
 0001:00003658       ??$?RV<lambda_aa87e3671a710a21b5dc78c0bdf72e11>@@AEAV<lambda_92619d2358a28f41a33ba319515a20b9>@@V<lambda_6992ecaafeb10aed2b74cb1fae11a551>@@@?$__crt_seh_guarded_call@X@@QEAAX$$QEAV<lambda_aa87e3671a710a21b5dc78c0bdf72e11>@@AEAV<lambda_92619d2358a28f41a33ba319515a20b9>@@$$QEAV<lambda_6992ecaafeb10aed2b74cb1fae11a551>@@@Z 0000000180004658 f   libucrt:per_thread_data.obj
 0001:000036a0       ??$?RV<lambda_f2e299630e499de9f9a165e60fcd3db5>@@AEAV<lambda_2ae9d31cdba2644fcbeaf08da7c24588>@@V<lambda_40d01ff24d0e7b3814fdbdcee8eab3c7>@@@?$__crt_seh_guarded_call@X@@QEAAX$$QEAV<lambda_f2e299630e499de9f9a165e60fcd3db5>@@AEAV<lambda_2ae9d31cdba2644fcbeaf08da7c24588>@@$$QEAV<lambda_40d01ff24d0e7b3814fdbdcee8eab3c7>@@@Z 00000001800046a0 f   libucrt:per_thread_data.obj
 0001:00003700       ?construct_ptd_array@@YAXQEAU__acrt_ptd@@@Z 0000000180004700 f   libucrt:per_thread_data.obj
 0001:000037d0       ?destroy_fls@@YAXPEAX@Z    00000001800047d0 f   libucrt:per_thread_data.obj
 0001:000037f0       ?destroy_ptd_array@@YAXQEAU__acrt_ptd@@@Z 00000001800047f0 f   libucrt:per_thread_data.obj
 0001:000038e8       ?replace_current_thread_locale_nolock@@YAXQEAU__acrt_ptd@@QEAU__crt_locale_data@@@Z 00000001800048e8 f   libucrt:per_thread_data.obj
 0001:000042cc       ?<lambda_invoker_cdecl>@<lambda_a1ce4c8ae42411fd470c77163914f50e>@@CAHPEBX0@Z 00000001800052cc f   libucrt:argv_wildcards.obj
 0001:000045e8       ??$common_expand_argv_wildcards@D@@YAHQEAPEADQEAPEAPEAD@Z 00000001800055e8 f   libucrt:argv_wildcards.obj
 0001:0000482c       ??$copy_and_add_argument_to_buffer@D@@YAHQEBD0_KAEAV?$argument_list@D@?A0x5f5c8891@@@Z 000000018000582c f   libucrt:argv_wildcards.obj
 0001:000049b4       ??$expand_argument_wildcards@D@@YAHQEAD0AEAV?$argument_list@D@?A0x5f5c8891@@@Z 00000001800059b4 f   libucrt:argv_wildcards.obj
 0001:00004fe8       ??$?RV<lambda_efdfa57d1f175319df784efa44bb7b81>@@AEAV<lambda_5f0a4c1567f8adc6734073e5d1e1b35c>@@V<lambda_2e8a7d3640ea6ccb4c2413664c2db6fd>@@@?$__crt_seh_guarded_call@X@@QEAAX$$QEAV<lambda_efdfa57d1f175319df784efa44bb7b81>@@AEAV<lambda_5f0a4c1567f8adc6734073e5d1e1b35c>@@$$QEAV<lambda_2e8a7d3640ea6ccb4c2413664c2db6fd>@@@Z 0000000180005fe8 f   libucrt:mbctype.obj
 0001:000051b8       ?getSystemCP@@YAHH@Z       00000001800061b8 f   libucrt:mbctype.obj
 0001:00005238       ?setSBCS@@YAXPEAU__crt_multibyte_data@@@Z 0000000180006238 f   libucrt:mbctype.obj
 0001:000052d0       ?setSBUpLow@@YAXPEAU__crt_multibyte_data@@@Z 00000001800062d0 f   libucrt:mbctype.obj
 0001:000054b8       ?setmbcp_internal@@YAHH_NQEAU__acrt_ptd@@QEAPEAU__crt_multibyte_data@@@Z 00000001800064b8 f   libucrt:mbctype.obj
 0001:00005728       ?update_thread_multibyte_data_internal@@YAPEAU__crt_multibyte_data@@QEAU__acrt_ptd@@QEAPEAU1@@Z 0000000180006728 f   libucrt:mbctype.obj
 0001:00005b1c       ?x_ismbbtype_l@@YAHPEAU__crt_locale_pointers@@IHH@Z 0000000180006b1c f   libucrt:ismbbyte.obj
 0001:00005e84       ?try_get_function@@YAPEAXW4function_id@?A0x391cf84c@@QEBDQEBW4module_id@2@2@Z 0000000180006e84 f   libucrt:winapi_thunks.obj
 0001:0000635c       ?initialize_inherited_file_handles_nolock@@YAXXZ 000000018000735c f   libucrt:ioinit.obj
 0001:0000644c       ?initialize_stdio_handles_nolock@@YAXXZ 000000018000744c f   libucrt:ioinit.obj
 0001:00006724       ??$?RV<lambda_450d765d439847d4c735a33c368b5fc0>@@AEAV<lambda_44731a7d0e6d81c3e6aa82d741081786>@@V<lambda_601a2a7da3b7a96e9554ac7215c4b07c>@@@?$__crt_seh_guarded_call@P6AXH@Z@@QEAAP6AXH@Z$$QEAV<lambda_450d765d439847d4c735a33c368b5fc0>@@AEAV<lambda_44731a7d0e6d81c3e6aa82d741081786>@@$$QEAV<lambda_601a2a7da3b7a96e9554ac7215c4b07c>@@@Z 0000000180007724 f   libucrt:signal.obj
 0001:00006a9c       ??$?RV<lambda_842d9ff0dc9ef11c61343bbaebe7f885>@@AEAV<lambda_c5860995281e5c4ce005b3de8f5874ee>@@V<lambda_d90129c13df834fdcbf8d2b88dafcf2d>@@@?$__crt_seh_guarded_call@X@@QEAAX$$QEAV<lambda_842d9ff0dc9ef11c61343bbaebe7f885>@@AEAV<lambda_c5860995281e5c4ce005b3de8f5874ee>@@$$QEAV<lambda_d90129c13df834fdcbf8d2b88dafcf2d>@@@Z 0000000180007a9c f   libucrt:fflush.obj
 0001:00006b38       ??$?RV<lambda_886d6c58226a84441f68b9f2b8217b83>@@AEAV<lambda_ab61a845afdef5b7c387490eaf3616ee>@@V<lambda_f7f22ab5edc0698d5f6905b0d3f44752>@@@?$__crt_seh_guarded_call@X@@QEAAX$$QEAV<lambda_886d6c58226a84441f68b9f2b8217b83>@@AEAV<lambda_ab61a845afdef5b7c387490eaf3616ee>@@$$QEAV<lambda_f7f22ab5edc0698d5f6905b0d3f44752>@@@Z 0000000180007b38 f   libucrt:fflush.obj
 0001:00006c18       ?common_flush_all@@YAH_N@Z 0000000180007c18 f   libucrt:fflush.obj
 0001:000071f4       ??$?RV<lambda_410d79af7f07d98d83a3f525b3859a53>@@AEAV<lambda_3e16ef9562a7dcce91392c22ab16ea36>@@V<lambda_38119f0e861e05405d8a144b9b982f0a>@@@?$__crt_seh_guarded_call@X@@QEAAX$$QEAV<lambda_410d79af7f07d98d83a3f525b3859a53>@@AEAV<lambda_3e16ef9562a7dcce91392c22ab16ea36>@@$$QEAV<lambda_38119f0e861e05405d8a144b9b982f0a>@@@Z 00000001800081f4 f   libucrt:wsetlocale.obj
 0001:00007bb0       fallbackMethod             0000000180008bb0 f   libucrt:strpbrk.obj
 0001:00007f5c       $LN78                      0000000180008f5c     libucrt:strpbrk.obj
 0001:00007f98       $LN77                      0000000180008f98     libucrt:strpbrk.obj
 0001:00007fd8       $LN76                      0000000180008fd8     libucrt:strpbrk.obj
 0001:000080b4       ?initialize_multibyte@@YAHXZ 00000001800090b4 f   libucrt:multibyte_initializer.obj
 0001:00008268       ?__acrt_LCMapStringA_stat@@YAHPEAU__crt_locale_pointers@@PEB_WKPEBDHPEADHHH@Z 0000000180009268 f   libucrt:lcmapstringa.obj
 0001:00008ad0       ??$?RV<lambda_a37b2b86f63e897a80ea819b0eb08c01>@@AEAV<lambda_38ce7e780aa69e748d6df282ebc68efe>@@V<lambda_99fb1378e971ab6e7edea83e3a7a83a2>@@@?$__crt_seh_guarded_call@H@@QEAAH$$QEAV<lambda_a37b2b86f63e897a80ea819b0eb08c01>@@AEAV<lambda_38ce7e780aa69e748d6df282ebc68efe>@@$$QEAV<lambda_99fb1378e971ab6e7edea83e3a7a83a2>@@@Z 0000000180009ad0 f   libucrt:commit.obj
 0001:00008bf0       ?write_double_translated_ansi_nolock@@YA?AUwrite_result@?A0x17268360@@HQEBDIAEAV__crt_cached_ptd_host@@@Z 0000000180009bf0 f   libucrt:write.obj
 0001:0000907c       ?write_text_ansi_nolock@@YA?AUwrite_result@?A0x17268360@@HQEBDI@Z 000000018000a07c f   libucrt:write.obj
 0001:00009180       ?write_text_utf16le_nolock@@YA?AUwrite_result@?A0x17268360@@HQEBDI@Z 000000018000a180 f   libucrt:write.obj
 0001:0000929c       ?write_text_utf8_nolock@@YA?AUwrite_result@?A0x17268360@@HQEBDI@Z 000000018000a29c f   libucrt:write.obj
 0001:00009cf8       ?free_crt_array_internal@@YAXQEAPEBX_K@Z 000000018000acf8 f   libucrt:inittime.obj
 0001:00009ea0       ??$common_lseek_nolock@_J@@YA_JH_JHAEAV__crt_cached_ptd_host@@@Z 000000018000aea0 f   libucrt:lseek.obj
 0001:00009f90       ?_fclose_internal@@YAHQEAU_iobuf@@AEAV__crt_cached_ptd_host@@@Z 000000018000af90 f   libucrt:fclose.obj
 0001:0000a00c       ?_fclose_nolock_internal@@YAHQEAU_iobuf@@AEAV__crt_cached_ptd_host@@@Z 000000018000b00c f   libucrt:fclose.obj
 0001:0000a150       $$000000                   000000018000b150     libucrt:log10.obj
 0001:0000aa24       ??$?RV<lambda_ad8af0d99a0adf03d037d7dffe354bb5>@@AEAV<lambda_c9ba49e555ba839a7b07aa3fbecb7617>@@V<lambda_2f1ebd5d68526518146ae959c9e734c8>@@@?$__crt_seh_guarded_call@H@@QEAAH$$QEAV<lambda_ad8af0d99a0adf03d037d7dffe354bb5>@@AEAV<lambda_c9ba49e555ba839a7b07aa3fbecb7617>@@$$QEAV<lambda_2f1ebd5d68526518146ae959c9e734c8>@@@Z 000000018000ba24 f   libucrt:close.obj
 0001:0000ac4c       _call_matherr              000000018000bc4c f   libucrt:libm_error.obj
 0001:0000acb4       _exception_enabled         000000018000bcb4 f   libucrt:libm_error.obj
 0001:0000af30       _log_special_common        000000018000bf30 f   libucrt:log_special.obj
 0001:0000afd0       $$000000                   000000018000bfd0     libucrt:fpsr.obj
 0001:0000b600       $$000000                   000000018000c600     LIBCMT:_chkstk_.obj
 0001:0000b86c       ?CatchIt@@YAXPEAUEHExceptionRecord@@PEA_KPEAU_CONTEXT@@PEAU_xDISPATCHER_CONTEXT@@PEBU_s_FuncInfo@@PEBU_s_HandlerType@@PEBU_s_CatchableType@@PEBU_s_TryBlockMapEntry@@H1EE@Z 000000018000c86c f   libvcruntime:frame.obj
 0001:0000b930       ?ExFilterRethrow@@YAHPEAU_EXCEPTION_POINTERS@@PEAUEHExceptionRecord@@PEAH@Z 000000018000c930 f   libvcruntime:frame.obj
 0001:0000b9b8       ?FindHandler@@YAXPEAUEHExceptionRecord@@PEA_KPEAU_CONTEXT@@PEAU_xDISPATCHER_CONTEXT@@PEBU_s_FuncInfo@@EH1@Z 000000018000c9b8 f   libvcruntime:frame.obj
 0001:0000be88       ?FindHandlerForForeignException@@YAXPEAUEHExceptionRecord@@PEA_KPEAU_CONTEXT@@PEAU_xDISPATCHER_CONTEXT@@PEBU_s_FuncInfo@@HH1@Z 000000018000ce88 f   libvcruntime:frame.obj
 0001:0000c0f4       ?IsInExceptionSpec@@YAEPEAUEHExceptionRecord@@PEBU_s_ESTypeList@@@Z 000000018000d0f4 f   libvcruntime:frame.obj
 0001:0000d320       $$000000                   000000018000e320     libvcruntime:memcpy.obj
 0001:0000d3c7       MoveSmall                  000000018000e3c7     libvcruntime:memcpy.obj
 0001:0000d770       $$000000                   000000018000e770     libvcruntime:memcmp.obj
 0001:0000d960       $$000000                   000000018000e960     libvcruntime:handlers.obj
 0001:0000db60       $$000000                   000000018000eb60     LIBCMT:_guard_dispatch_.obj
 0001:0000db80       $$000000                   000000018000eb80     libucrt:guard_xfg_dispatch.obj
 0001:0000dba0       ?fin$0@?0??dllmain_crt_process_attach@@YAHQEAUHINSTANCE__@@QEAX@Z@4HA 000000018000eba0 f   LIBCMT:dll_dllmain.obj
 0001:0000dbb7       ?fin$0@?0??dllmain_crt_process_detach@@YAH_N@Z@4HA 000000018000ebb7 f   LIBCMT:dll_dllmain.obj
 0001:0000dbd3       ?filt$0@?0??dllmain_dispatch@@YAHQEAUHINSTANCE__@@KQEAX@Z@4HA 000000018000ebd3 f   LIBCMT:dll_dllmain.obj
 0001:0000dc09       __scrt_is_nonwritable_in_current_image$filt$0 000000018000ec09 f   LIBCMT:utility.obj
 0001:0000dc21       ?filt$0@?0???R<lambda_6e4b09c48022b2350581041d5f6b0c4c>@@QEBA@XZ@4HA 000000018000ec21 f   libucrt:exit.obj
 0001:0000dc4e       ?fin$0@?0???$?RV<lambda_7777bce6b2f8c936911f934f8298dc43>@@AEAV<lambda_f03950bc5685219e0bcd2087efbe011e>@@V<lambda_3883c3dff614d5e0c5f61bb1ac94921c>@@@?$__crt_seh_guarded_call@H@@QEAAH$$QEAV<lambda_7777bce6b2f8c936911f934f8298dc43>@@AEAV<lambda_f03950bc5685219e0bcd2087efbe011e>@@$$QEAV<lambda_3883c3dff614d5e0c5f61bb1ac94921c>@@@Z@4HA 000000018000ec4e f   libucrt:onexit.obj
 0001:0000dc4e       ?fin$0@?0???$?RV<lambda_638799b9deba96c50f710eeac98168cd>@@AEAV<lambda_22ebabd17bc4fa466a2aca6d8deb888d>@@V<lambda_a6f7d7db0129f75315ebf26d50c089f1>@@@?$__crt_seh_guarded_call@H@@QEAAH$$QEAV<lambda_638799b9deba96c50f710eeac98168cd>@@AEAV<lambda_22ebabd17bc4fa466a2aca6d8deb888d>@@$$QEAV<lambda_a6f7d7db0129f75315ebf26d50c089f1>@@@Z@4HA 000000018000ec4e f   libucrt:onexit.obj
 0001:0000dc4e       ?fin$0@?0???$?RV<lambda_450d765d439847d4c735a33c368b5fc0>@@AEAV<lambda_44731a7d0e6d81c3e6aa82d741081786>@@V<lambda_601a2a7da3b7a96e9554ac7215c4b07c>@@@?$__crt_seh_guarded_call@P6AXH@Z@@QEAAP6AXH@Z$$QEAV<lambda_450d765d439847d4c735a33c368b5fc0>@@AEAV<lambda_44731a7d0e6d81c3e6aa82d741081786>@@$$QEAV<lambda_601a2a7da3b7a96e9554ac7215c4b07c>@@@Z@4HA 000000018000ec4e f   libucrt:signal.obj
 0001:0000dc4e       ?fin$0@?0???$?RV<lambda_d80eeec6fff315bfe5c115232f3240e3>@@AEAV<lambda_6e4b09c48022b2350581041d5f6b0c4c>@@V<lambda_2358e3775559c9db80273638284d5e45>@@@?$__crt_seh_guarded_call@X@@QEAAX$$QEAV<lambda_d80eeec6fff315bfe5c115232f3240e3>@@AEAV<lambda_6e4b09c48022b2350581041d5f6b0c4c>@@$$QEAV<lambda_2358e3775559c9db80273638284d5e45>@@@Z@4HA 000000018000ec4e f   libucrt:exit.obj
 0001:0000dc4e       ?fin$0@?0???$?RV<lambda_aa87e3671a710a21b5dc78c0bdf72e11>@@AEAV<lambda_92619d2358a28f41a33ba319515a20b9>@@V<lambda_6992ecaafeb10aed2b74cb1fae11a551>@@@?$__crt_seh_guarded_call@X@@QEAAX$$QEAV<lambda_aa87e3671a710a21b5dc78c0bdf72e11>@@AEAV<lambda_92619d2358a28f41a33ba319515a20b9>@@$$QEAV<lambda_6992ecaafeb10aed2b74cb1fae11a551>@@@Z@4HA 000000018000ec4e f   libucrt:per_thread_data.obj
 0001:0000dc4e       ?fin$0@?0???$?RV<lambda_f2e299630e499de9f9a165e60fcd3db5>@@AEAV<lambda_2ae9d31cdba2644fcbeaf08da7c24588>@@V<lambda_40d01ff24d0e7b3814fdbdcee8eab3c7>@@@?$__crt_seh_guarded_call@X@@QEAAX$$QEAV<lambda_f2e299630e499de9f9a165e60fcd3db5>@@AEAV<lambda_2ae9d31cdba2644fcbeaf08da7c24588>@@$$QEAV<lambda_40d01ff24d0e7b3814fdbdcee8eab3c7>@@@Z@4HA 000000018000ec4e f   libucrt:per_thread_data.obj
 0001:0000dc4e       ?fin$0@?0???$?RV<lambda_2d41944a1d46af3157314b8a01080d33>@@AEAV<lambda_8f455de75cd7d7f24b4096f044d8b9e6>@@V<lambda_aa500f224e6afead328df44964fe2772>@@@?$__crt_seh_guarded_call@X@@QEAAX$$QEAV<lambda_2d41944a1d46af3157314b8a01080d33>@@AEAV<lambda_8f455de75cd7d7f24b4096f044d8b9e6>@@$$QEAV<lambda_aa500f224e6afead328df44964fe2772>@@@Z@4HA 000000018000ec4e f   libucrt:per_thread_data.obj
 0001:0000dc4e       ?fin$0@?0???$?RV<lambda_0ae27a3a962d80f24befdcbee591983d>@@AEAV<lambda_8d0ee55de4b1038c4002e0adecdf1839>@@V<lambda_dc504788e8f1664fe9b84e20bfb512f2>@@@?$__crt_seh_guarded_call@X@@QEAAX$$QEAV<lambda_0ae27a3a962d80f24befdcbee591983d>@@AEAV<lambda_8d0ee55de4b1038c4002e0adecdf1839>@@$$QEAV<lambda_dc504788e8f1664fe9b84e20bfb512f2>@@@Z@4HA 000000018000ec4e f   libucrt:per_thread_data.obj
 0001:0000dc68       ?fin$0@?0???$?RV<lambda_efdfa57d1f175319df784efa44bb7b81>@@AEAV<lambda_5f0a4c1567f8adc6734073e5d1e1b35c>@@V<lambda_2e8a7d3640ea6ccb4c2413664c2db6fd>@@@?$__crt_seh_guarded_call@X@@QEAAX$$QEAV<lambda_efdfa57d1f175319df784efa44bb7b81>@@AEAV<lambda_5f0a4c1567f8adc6734073e5d1e1b35c>@@$$QEAV<lambda_2e8a7d3640ea6ccb4c2413664c2db6fd>@@@Z@4HA 000000018000ec68 f   libucrt:mbctype.obj
 0001:0000dc82       ?fin$0@?0??update_thread_multibyte_data_internal@@YAPEAU__crt_multibyte_data@@QEAU__acrt_ptd@@QEAPEAU1@@Z@4HA 000000018000ec82 f   libucrt:mbctype.obj
 0001:0000dc9b       __acrt_lowio_ensure_fh_exists$fin$0 000000018000ec9b f   libucrt:osfinfo.obj
 0001:0000dc9b       __acrt_initialize_lowio$fin$0 000000018000ec9b f   libucrt:ioinit.obj
 0001:0000dcb4       _query_new_handler$fin$0   000000018000ecb4 f   libucrt:new_handler.obj
 0001:0000dcca       raise$fin$0                000000018000ecca f   libucrt:signal.obj
 0001:0000dceb       ?fin$0@?0???$?RV<lambda_842d9ff0dc9ef11c61343bbaebe7f885>@@AEAV<lambda_c5860995281e5c4ce005b3de8f5874ee>@@V<lambda_d90129c13df834fdcbf8d2b88dafcf2d>@@@?$__crt_seh_guarded_call@X@@QEAAX$$QEAV<lambda_842d9ff0dc9ef11c61343bbaebe7f885>@@AEAV<lambda_c5860995281e5c4ce005b3de8f5874ee>@@$$QEAV<lambda_d90129c13df834fdcbf8d2b88dafcf2d>@@@Z@4HA 000000018000eceb f   libucrt:fflush.obj
 0001:0000dd06       ?fin$0@?0???$?RV<lambda_886d6c58226a84441f68b9f2b8217b83>@@AEAV<lambda_ab61a845afdef5b7c387490eaf3616ee>@@V<lambda_f7f22ab5edc0698d5f6905b0d3f44752>@@@?$__crt_seh_guarded_call@X@@QEAAX$$QEAV<lambda_886d6c58226a84441f68b9f2b8217b83>@@AEAV<lambda_ab61a845afdef5b7c387490eaf3616ee>@@$$QEAV<lambda_f7f22ab5edc0698d5f6905b0d3f44752>@@@Z@4HA 000000018000ed06 f   libucrt:fflush.obj
 0001:0000dd23       ?fin$0@?0???$?RV<lambda_410d79af7f07d98d83a3f525b3859a53>@@AEAV<lambda_3e16ef9562a7dcce91392c22ab16ea36>@@V<lambda_38119f0e861e05405d8a144b9b982f0a>@@@?$__crt_seh_guarded_call@X@@QEAAX$$QEAV<lambda_410d79af7f07d98d83a3f525b3859a53>@@AEAV<lambda_3e16ef9562a7dcce91392c22ab16ea36>@@$$QEAV<lambda_38119f0e861e05405d8a144b9b982f0a>@@@Z@4HA 000000018000ed23 f   libucrt:wsetlocale.obj
 0001:0000dd3d       __acrt_update_thread_locale_data$fin$0 000000018000ed3d f   libucrt:locale_refcounting.obj
 0001:0000dd56       ?fin$0@?0???$?RV<lambda_ad8af0d99a0adf03d037d7dffe354bb5>@@AEAV<lambda_c9ba49e555ba839a7b07aa3fbecb7617>@@V<lambda_2f1ebd5d68526518146ae959c9e734c8>@@@?$__crt_seh_guarded_call@H@@QEAAH$$QEAV<lambda_ad8af0d99a0adf03d037d7dffe354bb5>@@AEAV<lambda_c9ba49e555ba839a7b07aa3fbecb7617>@@$$QEAV<lambda_2f1ebd5d68526518146ae959c9e734c8>@@@Z@4HA 000000018000ed56 f   libucrt:close.obj
 0001:0000dd56       ?fin$0@?0???$?RV<lambda_a37b2b86f63e897a80ea819b0eb08c01>@@AEAV<lambda_38ce7e780aa69e748d6df282ebc68efe>@@V<lambda_99fb1378e971ab6e7edea83e3a7a83a2>@@@?$__crt_seh_guarded_call@H@@QEAAH$$QEAV<lambda_a37b2b86f63e897a80ea819b0eb08c01>@@AEAV<lambda_38ce7e780aa69e748d6df282ebc68efe>@@$$QEAV<lambda_99fb1378e971ab6e7edea83e3a7a83a2>@@@Z@4HA 000000018000ed56 f   libucrt:commit.obj
 0001:0000dd70       _write_internal$fin$0      000000018000ed70 f   libucrt:write.obj
 0001:0000dd87       _fcloseall$fin$0           000000018000ed87 f   libucrt:closeall.obj
 0001:0000dda0       ?fin$0@?0??_fclose_internal@@YAHQEAU_iobuf@@AEAV__crt_cached_ptd_host@@@Z@4HA 000000018000eda0 f   libucrt:fclose.obj
 0001:0000ddb8       _ctrlfp$filt$0             000000018000edb8 f   libucrt:fpctrl.obj
 0001:0000ddf0       _IsNonwritableInCurrentImage$filt$0 000000018000edf0 f   LIBCMT:pesect.obj
 0001:0000de10       __CxxCallCatchBlock$filt$0 000000018000ee10 f   libvcruntime:frame.obj
 0001:0000de35       __CxxCallCatchBlock$fin$1  000000018000ee35 f   libvcruntime:frame.obj
 0001:0000dead       __DestructExceptionObject$filt$0 000000018000eead f   libvcruntime:frame.obj
 0001:0000dec5       __FrameUnwindToState$filt$0 000000018000eec5 f   libvcruntime:frame.obj
 0001:0000dedb       __FrameUnwindToState$fin$1 000000018000eedb f   libvcruntime:frame.obj
 0001:0000defe       _CallSETranslator$filt$0   000000018000eefe f   libvcruntime:trnsctrl.obj
 0002:00000310       GS_ExceptionPointers       000000018000f310     LIBCMT:gs_report.obj
 0002:00000328       ?module_names@?A0x679b24ab@@3QBQEB_WB 000000018000f328     libvcruntime:winapi_downlevel.obj
 0002:000003f8       ?candidate_modules@?1??try_get_FlsAlloc@@YAP6AKP6AXPEAX@Z@ZXZ@4QBW4module_id@?A0x679b24ab@@B 000000018000f3f8     libvcruntime:winapi_downlevel.obj
 0002:00000410       ?candidate_modules@?1??try_get_FlsFree@@YAP6AHK@ZXZ@4QBW4module_id@?A0x679b24ab@@B 000000018000f410     libvcruntime:winapi_downlevel.obj
 0002:00000420       ?candidate_modules@?1??try_get_FlsGetValue@@YAP6APEAXK@ZXZ@4QBW4module_id@?A0x679b24ab@@B 000000018000f420     libvcruntime:winapi_downlevel.obj
 0002:00000438       ?candidate_modules@?1??try_get_FlsSetValue@@YAP6AHKPEAX@ZXZ@4QBW4module_id@?A0x679b24ab@@B 000000018000f438     libvcruntime:winapi_downlevel.obj
 0002:00000450       ?candidate_modules@?1??try_get_InitializeCriticalSectionEx@@YAP6AHPEAU_RTL_CRITICAL_SECTION@@KK@ZXZ@4QBW4module_id@?A0x679b24ab@@B 000000018000f450     libvcruntime:winapi_downlevel.obj
 0002:00000480       ?tokenTable@@3QBQEBDB      000000018000f480     libvcruntime:undname.obj
 0002:000004f0       ?nameTable@@3QBQEBDB       000000018000f4f0     libvcruntime:undname.obj
 0002:00000778       ?rttiTable@@3QBQEBDB       000000018000f778     libvcruntime:undname.obj
 0002:00000ed8       $cppxdata$?try_cor_exit_process@@YAXI@Z 000000018000fed8     libucrt:exit.obj
 0002:00000f00       $cppxdata$?common_exit@@YAXHW4_crt_exit_cleanup_mode@@W4_crt_exit_return_mode@@@Z 000000018000ff00     libucrt:exit.obj
 0002:00000f50       $cppxdata$__dcrt_uninitialize_environments_nolock 000000018000ff50     libucrt:environment_initialization.obj
 0002:00000f78       $cppxdata$_execute_onexit_table 000000018000ff78     libucrt:onexit.obj
 0002:00000fa0       __acrt_initializers        000000018000ffa0     libucrt:initialization.obj
 0002:000010a0       ?errtable@@3QBUerrentry@?A0x31fdb9ec@@B 00000001800100a0     libucrt:errno.obj
 0002:00001208       ?_mb_locale_names@@3QBQEB_WB 0000000180010208     libucrt:mbctype.obj
 0002:00001270       ?module_names@?A0x391cf84c@@3QBQEB_WB 0000000180010270     libucrt:winapi_thunks.obj
 0002:000017d8       ?candidate_modules@?1??try_get_AreFileApisANSI@@YAP6AHXZXZ@4QBW4module_id@?A0x391cf84c@@B 00000001800107d8     libucrt:winapi_thunks.obj
 0002:000017f0       ?candidate_modules@?1??try_get_InitializeCriticalSectionEx@@YAP6AHPEAU_RTL_CRITICAL_SECTION@@KK@ZXZ@4QBW4module_id@?A0x391cf84c@@B 00000001800107f0     libucrt:winapi_thunks.obj
 0002:00001818       ?candidate_modules@?1??try_get_LCMapStringEx@@YAP6AHPEB_WK0HPEA_WHPEAU_nlsversioninfo@@PEAX_J@ZXZ@4QBW4module_id@?A0x391cf84c@@B 0000000180010818     libucrt:winapi_thunks.obj
 0002:00001830       ?candidate_modules@?1??try_get_LocaleNameToLCID@@YAP6AKPEB_WK@ZXZ@4QBW4module_id@?A0x391cf84c@@B 0000000180010830     libucrt:winapi_thunks.obj
 0002:0000184c       ?candidate_modules@?1??try_get_AppPolicyGetProcessTerminationMethod@@YAP6AJPEAXPEAW4AppPolicyProcessTerminationMethod@@@ZXZ@4QBW4module_id@?A0x391cf84c@@B 000000018001084c     libucrt:winapi_thunks.obj
 0002:00002500       ?LcidToLocaleNameTable@?A0x881e4c05@@3QBULcidToLocaleName@1@B 0000000180011500     libucrt:lcidtoname_downlevel.obj
 0002:00003f60       ?LocaleNameToIndexTable@?A0x881e4c05@@3QBULocaleNameIndex@1@B 0000000180012f60     libucrt:lcidtoname_downlevel.obj
 0002:000057f8       $cppxdata$?write_double_translated_ansi_nolock@@YA?AUwrite_result@?A0x17268360@@HQEBDIAEAV__crt_cached_ptd_host@@@Z 00000001800147f8     libucrt:write.obj
 0002:00005830       __real_ninf                0000000180014830     libucrt:log10.obj
 0002:00005840       __real_inf                 0000000180014840     libucrt:log10.obj
 0002:00005850       __real_neg_qnan            0000000180014850     libucrt:log10.obj
 0002:00005860       __real_qnanbit             0000000180014860     libucrt:log10.obj
 0002:00005870       __int_1023                 0000000180014870     libucrt:log10.obj
 0002:00005880       __mask_001                 0000000180014880     libucrt:log10.obj
 0002:00005890       __mask_mant                0000000180014890     libucrt:log10.obj
 0002:000058a0       __mask_mant_top8           00000001800148a0     libucrt:log10.obj
 0002:000058b0       __mask_mant9               00000001800148b0     libucrt:log10.obj
 0002:000058c0       __real_log10_e             00000001800148c0     libucrt:log10.obj
 0002:000058d0       __real_log10_e_lead        00000001800148d0     libucrt:log10.obj
 0002:000058e0       __real_log10_e_tail        00000001800148e0     libucrt:log10.obj
 0002:000058f0       __real_log10_2_lead        00000001800148f0     libucrt:log10.obj
 0002:00005900       __real_log10_2_tail        0000000180014900     libucrt:log10.obj
 0002:00005910       __real_two                 0000000180014910     libucrt:log10.obj
 0002:00005920       __real_one                 0000000180014920     libucrt:log10.obj
 0002:00005930       __real_half                0000000180014930     libucrt:log10.obj
 0002:00005940       __mask_100                 0000000180014940     libucrt:log10.obj
 0002:00005950       __real_1_over_512          0000000180014950     libucrt:log10.obj
 0002:00005960       __real_1_over_2            0000000180014960     libucrt:log10.obj
 0002:00005970       __real_1_over_3            0000000180014970     libucrt:log10.obj
 0002:00005980       __real_1_over_4            0000000180014980     libucrt:log10.obj
 0002:00005990       __real_1_over_5            0000000180014990     libucrt:log10.obj
 0002:000059a0       __real_1_over_6            00000001800149a0     libucrt:log10.obj
 0002:000059b0       __real_neg_1023            00000001800149b0     libucrt:log10.obj
 0002:000059c0       __mask_2045                00000001800149c0     libucrt:log10.obj
 0002:000059d0       __real_threshold           00000001800149d0     libucrt:log10.obj
 0002:000059e0       __real_near_one_lt         00000001800149e0     libucrt:log10.obj
 0002:000059f0       __real_near_one_gt         00000001800149f0     libucrt:log10.obj
 0002:00005a00       __real_min_norm            0000000180014a00     libucrt:log10.obj
 0002:00005a10       __real_notsign             0000000180014a10     libucrt:log10.obj
 0002:00005a20       __real_ca1                 0000000180014a20     libucrt:log10.obj
 0002:00005a30       __real_ca2                 0000000180014a30     libucrt:log10.obj
 0002:00005a40       __real_ca3                 0000000180014a40     libucrt:log10.obj
 0002:00005a50       __real_ca4                 0000000180014a50     libucrt:log10.obj
 0002:00005a60       __mask_lower               0000000180014a60     libucrt:log10.obj
 0002:00005a70       __flag_x_zero              0000000180014a70     libucrt:log10.obj
 0002:00005a74       __flag_x_neg               0000000180014a74     libucrt:log10.obj
 0002:00005a78       __flag_x_nan               0000000180014a78     libucrt:log10.obj
 0002:000072d0       __real@433fffffffffffff    00000001800162d0     libucrt:fpsr.obj
 0002:000072d8       __real@c33fffffffffffff    00000001800162d8     libucrt:fpsr.obj
 0002:00007350       ?ExceptionTemplate@?1??_UnwindNestedFrames@@9@4U_EXCEPTION_RECORD@@B 0000000180016350     libvcruntime:trnsctrl.obj
 0002:000073f0       ?ExceptionTemplate@?1??_CxxThrowException@@9@4UEHExceptionRecord@@B 00000001800163f0     libvcruntime:throw.obj
 0002:000076e0       ?Commands@?4??GetDefaultCommands@@9@4PAPEBDA 00000001800166e0     arj.obj
 0002:00007760       ?ArjOS@@3PAPEBDA           0000000180016760     arj.obj
 0002:00007da0       $unwind$IsArchive          0000000180016da0     arj.obj
 0002:00007db8       $unwind$OpenArchive        0000000180016db8     arj.obj
 0002:00007dcc       $unwind$GetArcItem         0000000180016dcc     arj.obj
 0002:00007de4       $chain$0$GetArcItem        0000000180016de4     arj.obj
 0002:00007df8       $chain$1$GetArcItem        0000000180016df8     arj.obj
 0002:00007e08       $unwind$_SetThrowImageBase 0000000180016e08     libvcruntime:trnsctrl.obj
 0002:00007e08       $unwind$_set_statfp        0000000180016e08     libucrt:fpctrl.obj
 0002:00007e08       $unwind$_SetImageBase      0000000180016e08     libvcruntime:trnsctrl.obj
 0002:00007e08       $unwind$initialize_pointers 0000000180016e08     libucrt:initialization.obj
 0002:00007e08       $unwind$__acrt_update_multibyte_info 0000000180016e08     libucrt:locale_update.obj
 0002:00007e08       $unwind$_IsExceptionObjectToBeDestroyed 0000000180016e08     libvcruntime:trnsctrl.obj
 0002:00007e08       $unwind$_malloc_base       0000000180016e08     libucrt:malloc_base.obj
 0002:00007e08       $unwind$__C_specific_handler_noexcept 0000000180016e08     libvcruntime:chandler_noexcept.obj
 0002:00007e08       $unwind$?__StateFromIp@@YAHPEBU_s_FuncInfo@@PEAU_xDISPATCHER_CONTEXT@@_J@Z 0000000180016e08     libvcruntime:ehstate.obj
 0002:00007e08       $unwind$?__GetUnwindTryBlock@@YAHPEA_KPEAU_xDISPATCHER_CONTEXT@@PEBU_s_FuncInfo@@@Z 0000000180016e08     libvcruntime:ehstate.obj
 0002:00007e08       $unwind$_onexit            0000000180016e08     LIBCMT:utility.obj
 0002:00007e08       $unwind$__acrt_allocate_buffer_for_argv 0000000180016e08     libucrt:argv_parsing.obj
 0002:00007e08       $unwind$??0exception@std@@QEAA@AEBV01@@Z 0000000180016e08     libvcruntime:frame.obj
 0002:00007e08       $unwind$_calloc_base       0000000180016e08     libucrt:calloc_base.obj
 0002:00007e08       $unwind$__scrt_release_startup_lock 0000000180016e08     LIBCMT:utility.obj
 0002:00007e08       $unwind$__scrt_initialize_crt 0000000180016e08     LIBCMT:utility.obj
 0002:00007e08       $unwind$_CreateFrameInfo   0000000180016e08     libvcruntime:trnsctrl.obj
 0002:00007e08       $unwind$__std_exception_destroy 0000000180016e08     libvcruntime:std_exception.obj
 0002:00007e08       $unwind$__scrt_uninitialize_crt 0000000180016e08     LIBCMT:utility.obj
 0002:00007e08       $unwind$__std_type_info_destroy_list 0000000180016e08     libvcruntime:std_type_info.obj
 0002:00007e08       $unwind$__acrt_update_locale_info_explicit 0000000180016e08     libucrt:locale_update.obj
 0002:00007e08       $unwind$??0bad_exception@std@@QEAA@AEBV01@@Z 0000000180016e08     libvcruntime:frame.obj
 0002:00007e08       $unwind$GetFormatName      0000000180016e08     arj.obj
 0002:00007e08       $unwind$_callnewh          0000000180016e08     libucrt:new_handler.obj
 0002:00007e08       $unwind$__acrt_uninitialize_stdio 0000000180016e08     libucrt:_file.obj
 0002:00007e08       $unwind$strcpy_s           0000000180016e08     libucrt:strcpy_s.obj
 0002:00007e08       $unwind$__acrt_stdio_free_buffer_nolock 0000000180016e08     libucrt:_freebuf.obj
 0002:00007e08       $unwind$__acrt_getptd_head 0000000180016e08     libucrt:per_thread_data.obj
 0002:00007e08       $unwind$?exit_or_terminate_process@@YAXI@Z 0000000180016e08     libucrt:exit.obj
 0002:00007e08       $unwind$__acrt_AppPolicyGetProcessTerminationMethodInternal 0000000180016e08     libucrt:winapi_thunks.obj
 0002:00007e08       $unwind$__acrt_get_process_end_policy 0000000180016e08     libucrt:win_policies.obj
 0002:00007e08       $unwind$_clrfp             0000000180016e08     libucrt:fpctrl.obj
 0002:00007e08       $unwind$__acrt_uninitialize_locks 0000000180016e08     libucrt:locks.obj
 0002:00007e08       $unwind$??_Gtype_info@@UEAAPEAXI@Z 0000000180016e08     LIBCMT:std_type_info_static.obj
 0002:00007e08       $unwind$__vcrt_initialize_locks 0000000180016e08     libvcruntime:locks.obj
 0002:00007e08       $unwind$__acrt_update_locale_info 0000000180016e08     libucrt:locale_update.obj
 0002:00007e08       $unwind$__vcrt_uninitialize_locks 0000000180016e08     libvcruntime:locks.obj
 0002:00007e08       $unwind$__acrt_freeptd     0000000180016e08     libucrt:per_thread_data.obj
 0002:00007e08       $unwind$__raise_securityfailure 0000000180016e08     LIBCMT:gs_report.obj
 0002:00007e08       $unwind$__acrt_initialize_locks 0000000180016e08     libucrt:locks.obj
 0002:00007e08       $unwind$__acrt_uninitialize_winapi_thunks 0000000180016e08     libucrt:winapi_thunks.obj
 0002:00007e08       $unwind$__acrt_errno_map_os_error_ptd 0000000180016e08     libucrt:errno.obj
 0002:00007e08       $unwind$__acrt_update_multibyte_info_explicit 0000000180016e08     libucrt:locale_update.obj
 0002:00007e08       $unwind$__vcrt_freeptd     0000000180016e08     libvcruntime:per_thread_data.obj
 0002:00007e08       $unwind$uninitialize_allocated_memory 0000000180016e08     libucrt:initialization.obj
 0002:00007e08       $unwind$__acrt_errno_map_os_error 0000000180016e08     libucrt:errno.obj
 0002:00007e10       $unwind$__vcrt_getptd      0000000180016e10     libvcruntime:per_thread_data.obj
 0002:00007e10       $unwind$_isatty            0000000180016e10     libucrt:isatty.obj
 0002:00007e10       $unwind$__vcrt_uninitialize_ptd 0000000180016e10     libvcruntime:per_thread_data.obj
 0002:00007e10       $unwind$__doserrno         0000000180016e10     libucrt:errno.obj
 0002:00007e10       $unwind$__scrt_dllmain_crt_thread_detach 0000000180016e10     LIBCMT:utility.obj
 0002:00007e10       $unwind$_errno             0000000180016e10     libucrt:errno.obj
 0002:00007e10       $unwind$__vcrt_freefls     0000000180016e10     libvcruntime:per_thread_data.obj
 0002:00007e10       $unwind$__vcrt_initialize_ptd 0000000180016e10     libvcruntime:per_thread_data.obj
 0002:00007e10       $unwind$__acrt_AreFileApisANSI 0000000180016e10     libucrt:winapi_thunks.obj
 0002:00007e10       $unwind$__scrt_initialize_default_local_stdio_options 0000000180016e10     LIBCMT:default_local_stdio_options.obj
 0002:00007e10       $unwind$__dcrt_terminate_console_output 0000000180016e10     libucrt:initcon.obj
 0002:00007e10       $unwind$?initialize_multibyte@@YAHXZ 0000000180016e10     libucrt:multibyte_initializer.obj
 0002:00007e10       $unwind$__vcrt_thread_detach 0000000180016e10     libvcruntime:initialization.obj
 0002:00007e10       $unwind$__scrt_dllmain_crt_thread_attach 0000000180016e10     LIBCMT:utility.obj
 0002:00007e10       $unwind$__GSHandlerCheck   0000000180016e10     LIBCMT:_gshandler_.obj
 0002:00007e10       $unwind$?should_call_terminate_process@@YA_NXZ 0000000180016e10     libucrt:exit.obj
 0002:00007e10       $unwind$abort              0000000180016e10     libucrt:abort.obj
 0002:00007e10       $unwind$__vcrt_thread_attach 0000000180016e10     libvcruntime:initialization.obj
 0002:00007e10       $unwind$__vcrt_uninitialize_critical 0000000180016e10     libvcruntime:initialization.obj
 0002:00007e10       $unwind$uninitialize_allocated_io_buffers 0000000180016e10     libucrt:initialization.obj
 0002:00007e10       $unwind$__scrt_dllmain_uninitialize_critical 0000000180016e10     LIBCMT:utility.obj
 0002:00007e10       $unwind$__vcrt_uninitialize 0000000180016e10     libvcruntime:initialization.obj
 0002:00007e10       $unwind$__std_terminate    0000000180016e10     libvcruntime:frame.obj
 0002:00007e10       $unwind$__scrt_dllmain_uninitialize_c 0000000180016e10     LIBCMT:utility.obj
 0002:00007e10       $unwind$??$uninitialize_environment_internal@_W@@YAXAEAPEAPEA_W@Z 0000000180016e10     libucrt:environment_initialization.obj
 0002:00007e10       $unwind$__vcrt_initialize  0000000180016e10     libvcruntime:initialization.obj
 0002:00007e10       $unwind$??$uninitialize_environment_internal@D@@YAXAEAPEAPEAD@Z 0000000180016e10     libucrt:environment_initialization.obj
 0002:00007e10       $unwind$__scrt_dllmain_after_initialize_c 0000000180016e10     LIBCMT:utility.obj
 0002:00007e10       $unwind$__scrt_dllmain_before_initialize_c 0000000180016e10     LIBCMT:utility.obj
 0002:00007e10       $unwind$__acrt_update_thread_multibyte_data 0000000180016e10     libucrt:mbctype.obj
 0002:00007e10       $unwind$__report_rangecheckfailure 0000000180016e10     LIBCMT:gs_report.obj
 0002:00007e10       $unwind$GetDefaultCommands 0000000180016e10     arj.obj
 0002:00007e10       $unwind$__acrt_uninitialize 0000000180016e10     libucrt:initialization.obj
 0002:00007e10       $unwind$__acrt_uninitialize_critical 0000000180016e10     libucrt:initialization.obj
 0002:00007e10       $unwind$__acrt_thread_attach 0000000180016e10     libucrt:initialization.obj
 0002:00007e10       $unwind$__acrt_thread_detach 0000000180016e10     libucrt:initialization.obj
 0002:00007e10       $unwind$?__GetCurrentState@@YAHPEA_KPEAU_xDISPATCHER_CONTEXT@@PEBU_s_FuncInfo@@@Z 0000000180016e10     libvcruntime:ehstate.obj
 0002:00007e10       $unwind$__scrt_acquire_startup_lock 0000000180016e10     LIBCMT:utility.obj
 0002:00007e10       $unwind$initialize_c       0000000180016e10     libucrt:initialization.obj
 0002:00007e10       $unwind$__acrt_initialize_heap 0000000180016e10     libucrt:heap_handle.obj
 0002:00007e10       $unwind$atexit             0000000180016e10     LIBCMT:utility.obj
 0002:00007e10       $unwind$uninitialize_environment 0000000180016e10     libucrt:initialization.obj
 0002:00007e10       $unwind$__acrt_initialize_multibyte 0000000180016e10     libucrt:mbctype.obj
 0002:00007e10       $unwind$_fileno            0000000180016e10     libucrt:fileno.obj
 0002:00007e10       $unwind$_invoke_watson     0000000180016e10     libucrt:invalid_parameter.obj
 0002:00007e10       $unwind$__acrt_initialize_command_line 0000000180016e10     libucrt:argv_data.obj
 0002:00007e10       $unwind$?dllmain_crt_dispatch@@YAHQEAUHINSTANCE__@@KQEAX@Z 0000000180016e10     LIBCMT:dll_dllmain.obj
 0002:00007e10       $unwind$_GetImageBase      0000000180016e10     libvcruntime:trnsctrl.obj
 0002:00007e10       $unwind$_msize_base        0000000180016e10     libucrt:msize.obj
 0002:00007e10       $unwind$_GetThrowImageBase 0000000180016e10     libvcruntime:trnsctrl.obj
 0002:00007e10       $unwind$__acrt_release_locale_ref 0000000180016e10     libucrt:locale_refcounting.obj
 0002:00007e10       $unwind$__acrt_uninitialize_ptd 0000000180016e10     libucrt:per_thread_data.obj
 0002:00007e10       $unwind$_set_errno_from_matherr 0000000180016e10     libucrt:fpexcept.obj
 0002:00007e10       $unwind$__acrt_initialize_ptd 0000000180016e10     libucrt:per_thread_data.obj
 0002:00007e10       $unwind$__FrameUnwindFilter 0000000180016e10     libvcruntime:frame.obj
 0002:00007e10       $unwind$_get_osfhandle     0000000180016e10     libucrt:osfinfo.obj
 0002:00007e10       $unwind$_statfp            0000000180016e10     libucrt:fpctrl.obj
 0002:00007e18       $xdatasym                  0000000180016e18     LIBCMT:_amdsecgs_.obj
 0002:00007e1c       $unwind$__report_securityfailure 0000000180016e1c     LIBCMT:gs_report.obj
 0002:00007e24       $unwind$__report_gsfailure 0000000180016e24     LIBCMT:gs_report.obj
 0002:00007e2c       $unwind$capture_current_context 0000000180016e2c     LIBCMT:gs_report.obj
 0002:00007e38       $unwind$capture_previous_context 0000000180016e38     LIBCMT:gs_report.obj
 0002:00007e44       $unwind$?dllmain_crt_process_attach@@YAHQEAUHINSTANCE__@@QEAX@Z 0000000180016e44     LIBCMT:dll_dllmain.obj
 0002:00007e70       $unwind$?dllmain_crt_process_detach@@YAH_N@Z 0000000180016e70     LIBCMT:dll_dllmain.obj
 0002:00007e98       $unwind$_seh_filter_exe    0000000180016e98     libucrt:exception_filter.obj
 0002:00007e98       $unwind$__acrt_lowio_create_handle_array 0000000180016e98     libucrt:osfinfo.obj
 0002:00007e98       $unwind$__scrt_dllmain_exception_filter 0000000180016e98     LIBCMT:utility.obj
 0002:00007e98       $unwind$__acrt_free_locale 0000000180016e98     libucrt:locale_refcounting.obj
 0002:00007e98       $unwind$__acrt_stdio_flush_nolock 0000000180016e98     libucrt:fflush.obj
 0002:00007e98       $unwind$__vcrt_InitializeCriticalSectionEx 0000000180016e98     libvcruntime:winapi_downlevel.obj
 0002:00007e98       $unwind$?dllmain_raw@@YAHQEAUHINSTANCE__@@KQEAX@Z 0000000180016e98     LIBCMT:dll_dllmain.obj
 0002:00007e98       $unwind$_recalloc_base     0000000180016e98     libucrt:recalloc.obj
 0002:00007e98       $unwind$?_ExecutionInCatch@@YAHPEAU_xDISPATCHER_CONTEXT@@PEBU_s_FuncInfo@@@Z 0000000180016e98     libvcruntime:trnsctrl.obj
 0002:00007eac       $unwind$?dllmain_dispatch@@YAHQEAUHINSTANCE__@@KQEAX@Z 0000000180016eac     LIBCMT:dll_dllmain.obj
 0002:00007ed4       $unwind$__scrt_is_nonwritable_in_current_image 0000000180016ed4     LIBCMT:utility.obj
 0002:00007ef4       $unwind$__scrt_is_nonwritable_in_current_image$filt$0 0000000180016ef4     LIBCMT:utility.obj
 0002:00007efc       $unwind$__scrt_initialize_onexit_tables 0000000180016efc     LIBCMT:utility.obj
 0002:00007f08       $unwind$__security_init_cookie 0000000180016f08     LIBCMT:gs_support.obj
 0002:00007f14       $unwind$__scrt_fastfail    0000000180016f14     LIBCMT:utility_desktop.obj
 0002:00007f24       $unwind$__isa_available_init 0000000180016f24     LIBCMT:_cpu_disp_.obj
 0002:00007f38       $xdatasym                  0000000180016f38     LIBCMT:_guard_dispatch_.obj
 0002:00007f3c       $unwind$__C_specific_handler 0000000180016f3c     libvcruntime:_chandler_.obj
 0002:00007f3c       $unwind$__InternalCxxFrameHandler 0000000180016f3c     libvcruntime:frame.obj
 0002:00007f58       $xdatasym                  0000000180016f58     libvcruntime:memset.obj
 0002:00007f60       $xdatasym                  0000000180016f60     libvcruntime:_jmpuwind_.obj
 0002:00007f74       $unwind$__acrt_getptd_noexit_explicit 0000000180016f74     libucrt:per_thread_data.obj
 0002:00007f74       $unwind$__acrt_InitializeCriticalSectionEx 0000000180016f74     libucrt:winapi_thunks.obj
 0002:00007f74       $unwind$?update_locale_slow@__crt_cached_ptd_host@@AEAAXXZ 0000000180016f74     libucrt:output.obj
 0002:00007f74       $unwind$__acrt_getptd_noexit 0000000180016f74     libucrt:per_thread_data.obj
 0002:00007f74       $unwind$_close_nolock_internal 0000000180016f74     libucrt:close.obj
 0002:00007f74       $unwind$__acrt_getptd      0000000180016f74     libucrt:per_thread_data.obj
 0002:00007f74       $unwind$__vcrt_FlsSetValue 0000000180016f74     libvcruntime:winapi_downlevel.obj
 0002:00007f74       $unwind$?value@?$dual_state_global@P6AXPEB_W00I_K@Z@__crt_state_management@@QEAAAEAP6AXPEB_W00I_K@ZAEAV__crt_cached_ptd_host@@@Z 0000000180016f74     libucrt:invalid_parameter.obj
 0002:00007f74       $unwind$??0_LocaleUpdate@@QEAA@QEAU__crt_locale_pointers@@@Z 0000000180016f74     libucrt:argv_wildcards.obj
 0002:00007f74       $unwind$__acrt_execute_initializers 0000000180016f74     libucrt:shared_initialization.obj
 0002:00007f74       $unwind$_DllMainCRTStartup 0000000180016f74     LIBCMT:dll_dllmain.obj
 0002:00007f74       $unwind$__vcrt_getptd_noexit 0000000180016f74     libvcruntime:per_thread_data.obj
 0002:00007f74       $unwind$_exception_enabled 0000000180016f74     libucrt:libm_error.obj
 0002:00007f74       $unwind$_RTC_Initialize    0000000180016f74     LIBCMT:_initsect_.obj
 0002:00007f74       $unwind$_RTC_Terminate     0000000180016f74     LIBCMT:_initsect_.obj
 0002:00007f74       $unwind$strncpy_s          0000000180016f74     libucrt:strncpy_s.obj
 0002:00007f84       $unwind$_realloc_base      0000000180016f84     libucrt:realloc_base.obj
 0002:00007f84       $unwind$_initterm_e        0000000180016f84     libucrt:initterm.obj
 0002:00007f84       $unwind$__vcrt_FlsGetValue 0000000180016f84     libvcruntime:winapi_downlevel.obj
 0002:00007f84       $unwind$?ExFilterRethrow@@YAHPEAU_EXCEPTION_POINTERS@@PEAUEHExceptionRecord@@PEAH@Z 0000000180016f84     libvcruntime:frame.obj
 0002:00007f84       $unwind$__vcrt_FlsAlloc    0000000180016f84     libvcruntime:winapi_downlevel.obj
 0002:00007f84       $unwind$??$common_initialize_environment_nolock@D@@YAHXZ 0000000180016f84     libucrt:environment_initialization.obj
 0002:00007f84       $unwind$??_Gexception@std@@UEAAPEAXI@Z 0000000180016f84     libvcruntime:frame.obj
 0002:00007f84       $unwind$__acrt_uninitialize_lowio 0000000180016f84     libucrt:ioinit.obj
 0002:00007f84       $unwind$?free_crt_array_internal@@YAXQEAPEBX_K@Z 0000000180016f84     libucrt:inittime.obj
 0002:00007f84       $unwind$?__SetUnwindTryBlock@@YAXPEA_KPEAU_xDISPATCHER_CONTEXT@@PEBU_s_FuncInfo@@H@Z 0000000180016f84     libvcruntime:ehstate.obj
 0002:00007f84       $unwind$?replace_current_thread_locale_nolock@@YAXQEAU__acrt_ptd@@QEAU__crt_locale_data@@@Z 0000000180016f84     libucrt:per_thread_data.obj
 0002:00007f84       $unwind$__acrt_LocaleNameToLCID 0000000180016f84     libucrt:winapi_thunks.obj
 0002:00007f84       $unwind$__acrt_execute_uninitializers 0000000180016f84     libucrt:shared_initialization.obj
 0002:00007f84       $unwind$__vcrt_FlsFree     0000000180016f84     libvcruntime:winapi_downlevel.obj
 0002:00007f84       $unwind$??_Gbad_exception@std@@UEAAPEAXI@Z 0000000180016f84     libvcruntime:frame.obj
 0002:00007f84       $unwind$_FindAndUnlinkFrame 0000000180016f84     libvcruntime:trnsctrl.obj
 0002:00007f84       $unwind$_updatetlocinfoEx_nolock 0000000180016f84     libucrt:locale_refcounting.obj
 0002:00007f84       $unwind$?setSBCS@@YAXPEAU__crt_multibyte_data@@@Z 0000000180016f84     libucrt:mbctype.obj
 0002:00007f90       $unwind$__vcrt_uninitialize_winapi_thunks 0000000180016f90     libvcruntime:winapi_downlevel.obj
 0002:00007f98       $unwind$?try_cor_exit_process@@YAXI@Z 0000000180016f98     libucrt:exit.obj
 0002:00007fa8       $ip2state$?try_cor_exit_process@@YAXI@Z 0000000180016fa8     libucrt:exit.obj
 0002:00007fb0       $unwind$?common_exit@@YAXHW4_crt_exit_cleanup_mode@@W4_crt_exit_return_mode@@@Z 0000000180016fb0     libucrt:exit.obj
 0002:00007fc4       $stateUnwindMap$__dcrt_uninitialize_environments_nolock 0000000180016fc4     libucrt:environment_initialization.obj
 0002:00007fc4       $stateUnwindMap$_execute_onexit_table 0000000180016fc4     libucrt:onexit.obj
 0002:00007fc4       $stateUnwindMap$?common_exit@@YAXHW4_crt_exit_cleanup_mode@@W4_crt_exit_return_mode@@@Z 0000000180016fc4     libucrt:exit.obj
 0002:00007fd0       $ip2state$?common_exit@@YAXHW4_crt_exit_cleanup_mode@@W4_crt_exit_return_mode@@@Z 0000000180016fd0     libucrt:exit.obj
 0002:00007fd8       $unwind$??R<lambda_6e4b09c48022b2350581041d5f6b0c4c>@@QEBA@XZ 0000000180016fd8     libucrt:exit.obj
 0002:00007ff8       $unwind$?fin$0@?0???$?RV<lambda_efdfa57d1f175319df784efa44bb7b81>@@AEAV<lambda_5f0a4c1567f8adc6734073e5d1e1b35c>@@V<lambda_2e8a7d3640ea6ccb4c2413664c2db6fd>@@@?$__crt_seh_guarded_call@X@@QEAAX$$QEAV<lambda_efdfa57d1f175319df784efa44bb7b81>@@AEAV<lambda_5f0a4c1567f8adc6734073e5d1e1b35c>@@$$QEAV<lambda_2e8a7d3640ea6ccb4c2413664c2db6fd>@@@Z@4HA 0000000180016ff8     libucrt:mbctype.obj
 0002:00007ff8       $unwind$?fin$0@?0???$?RV<lambda_886d6c58226a84441f68b9f2b8217b83>@@AEAV<lambda_ab61a845afdef5b7c387490eaf3616ee>@@V<lambda_f7f22ab5edc0698d5f6905b0d3f44752>@@@?$__crt_seh_guarded_call@X@@QEAAX$$QEAV<lambda_886d6c58226a84441f68b9f2b8217b83>@@AEAV<lambda_ab61a845afdef5b7c387490eaf3616ee>@@$$QEAV<lambda_f7f22ab5edc0698d5f6905b0d3f44752>@@@Z@4HA 0000000180016ff8     libucrt:fflush.obj
 0002:00007ff8       $unwind$?fin$0@?0??update_thread_multibyte_data_internal@@YAPEAU__crt_multibyte_data@@QEAU__acrt_ptd@@QEAPEAU1@@Z@4HA 0000000180016ff8     libucrt:mbctype.obj
 0002:00007ff8       $unwind$?fin$0@?0???$?RV<lambda_410d79af7f07d98d83a3f525b3859a53>@@AEAV<lambda_3e16ef9562a7dcce91392c22ab16ea36>@@V<lambda_38119f0e861e05405d8a144b9b982f0a>@@@?$__crt_seh_guarded_call@X@@QEAAX$$QEAV<lambda_410d79af7f07d98d83a3f525b3859a53>@@AEAV<lambda_3e16ef9562a7dcce91392c22ab16ea36>@@$$QEAV<lambda_38119f0e861e05405d8a144b9b982f0a>@@@Z@4HA 0000000180016ff8     libucrt:wsetlocale.obj
 0002:00007ff8       $unwind$?fin$0@?0???$?RV<lambda_ad8af0d99a0adf03d037d7dffe354bb5>@@AEAV<lambda_c9ba49e555ba839a7b07aa3fbecb7617>@@V<lambda_2f1ebd5d68526518146ae959c9e734c8>@@@?$__crt_seh_guarded_call@H@@QEAAH$$QEAV<lambda_ad8af0d99a0adf03d037d7dffe354bb5>@@AEAV<lambda_c9ba49e555ba839a7b07aa3fbecb7617>@@$$QEAV<lambda_2f1ebd5d68526518146ae959c9e734c8>@@@Z@4HA 0000000180016ff8     libucrt:close.obj
 0002:00007ff8       $unwind$raise$fin$0        0000000180016ff8     libucrt:signal.obj
 0002:00007ff8       $unwind$__CxxCallCatchBlock$filt$0 0000000180016ff8     libvcruntime:frame.obj
 0002:00007ff8       $unwind$?fin$0@?0???$?RV<lambda_2d41944a1d46af3157314b8a01080d33>@@AEAV<lambda_8f455de75cd7d7f24b4096f044d8b9e6>@@V<lambda_aa500f224e6afead328df44964fe2772>@@@?$__crt_seh_guarded_call@X@@QEAAX$$QEAV<lambda_2d41944a1d46af3157314b8a01080d33>@@AEAV<lambda_8f455de75cd7d7f24b4096f044d8b9e6>@@$$QEAV<lambda_aa500f224e6afead328df44964fe2772>@@@Z@4HA 0000000180016ff8     libucrt:per_thread_data.obj
 0002:00007ff8       $unwind$__acrt_lowio_ensure_fh_exists$fin$0 0000000180016ff8     libucrt:osfinfo.obj
 0002:00007ff8       $unwind$__FrameUnwindToState$filt$0 0000000180016ff8     libvcruntime:frame.obj
 0002:00007ff8       $unwind$?fin$0@?0???$?RV<lambda_a37b2b86f63e897a80ea819b0eb08c01>@@AEAV<lambda_38ce7e780aa69e748d6df282ebc68efe>@@V<lambda_99fb1378e971ab6e7edea83e3a7a83a2>@@@?$__crt_seh_guarded_call@H@@QEAAH$$QEAV<lambda_a37b2b86f63e897a80ea819b0eb08c01>@@AEAV<lambda_38ce7e780aa69e748d6df282ebc68efe>@@$$QEAV<lambda_99fb1378e971ab6e7edea83e3a7a83a2>@@@Z@4HA 0000000180016ff8     libucrt:commit.obj
 0002:00007ff8       $unwind$__DestructExceptionObject$filt$0 0000000180016ff8     libvcruntime:frame.obj
 0002:00007ff8       $unwind$?fin$0@?0???$?RV<lambda_0ae27a3a962d80f24befdcbee591983d>@@AEAV<lambda_8d0ee55de4b1038c4002e0adecdf1839>@@V<lambda_dc504788e8f1664fe9b84e20bfb512f2>@@@?$__crt_seh_guarded_call@X@@QEAAX$$QEAV<lambda_0ae27a3a962d80f24befdcbee591983d>@@AEAV<lambda_8d0ee55de4b1038c4002e0adecdf1839>@@$$QEAV<lambda_dc504788e8f1664fe9b84e20bfb512f2>@@@Z@4HA 0000000180016ff8     libucrt:per_thread_data.obj
 0002:00007ff8       $unwind$__FrameUnwindToState$fin$1 0000000180016ff8     libvcruntime:frame.obj
 0002:00007ff8       $unwind$?fin$0@?0??dllmain_crt_process_detach@@YAH_N@Z@4HA 0000000180016ff8     LIBCMT:dll_dllmain.obj
 0002:00007ff8       $unwind$__acrt_initialize_lowio$fin$0 0000000180016ff8     libucrt:ioinit.obj
 0002:00007ff8       $unwind$__acrt_update_thread_locale_data$fin$0 0000000180016ff8     libucrt:locale_refcounting.obj
 0002:00007ff8       $unwind$?fin$0@?0???$?RV<lambda_7777bce6b2f8c936911f934f8298dc43>@@AEAV<lambda_f03950bc5685219e0bcd2087efbe011e>@@V<lambda_3883c3dff614d5e0c5f61bb1ac94921c>@@@?$__crt_seh_guarded_call@H@@QEAAH$$QEAV<lambda_7777bce6b2f8c936911f934f8298dc43>@@AEAV<lambda_f03950bc5685219e0bcd2087efbe011e>@@$$QEAV<lambda_3883c3dff614d5e0c5f61bb1ac94921c>@@@Z@4HA 0000000180016ff8     libucrt:onexit.obj
 0002:00007ff8       $unwind$?fin$0@?0???$?RV<lambda_d80eeec6fff315bfe5c115232f3240e3>@@AEAV<lambda_6e4b09c48022b2350581041d5f6b0c4c>@@V<lambda_2358e3775559c9db80273638284d5e45>@@@?$__crt_seh_guarded_call@X@@QEAAX$$QEAV<lambda_d80eeec6fff315bfe5c115232f3240e3>@@AEAV<lambda_6e4b09c48022b2350581041d5f6b0c4c>@@$$QEAV<lambda_2358e3775559c9db80273638284d5e45>@@@Z@4HA 0000000180016ff8     libucrt:exit.obj
 0002:00007ff8       $unwind$_query_new_handler$fin$0 0000000180016ff8     libucrt:new_handler.obj
 0002:00007ff8       $unwind$_IsNonwritableInCurrentImage$filt$0 0000000180016ff8     LIBCMT:pesect.obj
 0002:00007ff8       $unwind$?fin$0@?0??dllmain_crt_process_attach@@YAHQEAUHINSTANCE__@@QEAX@Z@4HA 0000000180016ff8     LIBCMT:dll_dllmain.obj
 0002:00007ff8       $unwind$?fin$0@?0???$?RV<lambda_842d9ff0dc9ef11c61343bbaebe7f885>@@AEAV<lambda_c5860995281e5c4ce005b3de8f5874ee>@@V<lambda_d90129c13df834fdcbf8d2b88dafcf2d>@@@?$__crt_seh_guarded_call@X@@QEAAX$$QEAV<lambda_842d9ff0dc9ef11c61343bbaebe7f885>@@AEAV<lambda_c5860995281e5c4ce005b3de8f5874ee>@@$$QEAV<lambda_d90129c13df834fdcbf8d2b88dafcf2d>@@@Z@4HA 0000000180016ff8     libucrt:fflush.obj
 0002:00007ff8       $unwind$?fin$0@?0???$?RV<lambda_638799b9deba96c50f710eeac98168cd>@@AEAV<lambda_22ebabd17bc4fa466a2aca6d8deb888d>@@V<lambda_a6f7d7db0129f75315ebf26d50c089f1>@@@?$__crt_seh_guarded_call@H@@QEAAH$$QEAV<lambda_638799b9deba96c50f710eeac98168cd>@@AEAV<lambda_22ebabd17bc4fa466a2aca6d8deb888d>@@$$QEAV<lambda_a6f7d7db0129f75315ebf26d50c089f1>@@@Z@4HA 0000000180016ff8     libucrt:onexit.obj
 0002:00007ff8       $unwind$?filt$0@?0???R<lambda_6e4b09c48022b2350581041d5f6b0c4c>@@QEBA@XZ@4HA 0000000180016ff8     libucrt:exit.obj
 0002:00007ff8       $unwind$_ctrlfp$filt$0     0000000180016ff8     libucrt:fpctrl.obj
 0002:00007ff8       $unwind$?fin$0@?0???$?RV<lambda_f2e299630e499de9f9a165e60fcd3db5>@@AEAV<lambda_2ae9d31cdba2644fcbeaf08da7c24588>@@V<lambda_40d01ff24d0e7b3814fdbdcee8eab3c7>@@@?$__crt_seh_guarded_call@X@@QEAAX$$QEAV<lambda_f2e299630e499de9f9a165e60fcd3db5>@@AEAV<lambda_2ae9d31cdba2644fcbeaf08da7c24588>@@$$QEAV<lambda_40d01ff24d0e7b3814fdbdcee8eab3c7>@@@Z@4HA 0000000180016ff8     libucrt:per_thread_data.obj
 0002:00007ff8       $unwind$?fin$0@?0???$?RV<lambda_450d765d439847d4c735a33c368b5fc0>@@AEAV<lambda_44731a7d0e6d81c3e6aa82d741081786>@@V<lambda_601a2a7da3b7a96e9554ac7215c4b07c>@@@?$__crt_seh_guarded_call@P6AXH@Z@@QEAAP6AXH@Z$$QEAV<lambda_450d765d439847d4c735a33c368b5fc0>@@AEAV<lambda_44731a7d0e6d81c3e6aa82d741081786>@@$$QEAV<lambda_601a2a7da3b7a96e9554ac7215c4b07c>@@@Z@4HA 0000000180016ff8     libucrt:signal.obj
 0002:00007ff8       $unwind$_fcloseall$fin$0   0000000180016ff8     libucrt:closeall.obj
 0002:00007ff8       $unwind$?fin$0@?0???$?RV<lambda_aa87e3671a710a21b5dc78c0bdf72e11>@@AEAV<lambda_92619d2358a28f41a33ba319515a20b9>@@V<lambda_6992ecaafeb10aed2b74cb1fae11a551>@@@?$__crt_seh_guarded_call@X@@QEAAX$$QEAV<lambda_aa87e3671a710a21b5dc78c0bdf72e11>@@AEAV<lambda_92619d2358a28f41a33ba319515a20b9>@@$$QEAV<lambda_6992ecaafeb10aed2b74cb1fae11a551>@@@Z@4HA 0000000180016ff8     libucrt:per_thread_data.obj
 0002:00008000       $unwind$??$?RV<lambda_d80eeec6fff315bfe5c115232f3240e3>@@AEAV<lambda_6e4b09c48022b2350581041d5f6b0c4c>@@V<lambda_2358e3775559c9db80273638284d5e45>@@@?$__crt_seh_guarded_call@X@@QEAAX$$QEAV<lambda_d80eeec6fff315bfe5c115232f3240e3>@@AEAV<lambda_6e4b09c48022b2350581041d5f6b0c4c>@@$$QEAV<lambda_2358e3775559c9db80273638284d5e45>@@@Z 0000000180017000     libucrt:exit.obj
 0002:00008024       $unwind$_configure_narrow_argv 0000000180017024     libucrt:argv_parsing.obj
 0002:00008038       $unwind$??$parse_command_line@D@@YAXPEADPEAPEAD0PEA_K2@Z 0000000180017038     libucrt:argv_parsing.obj
 0002:00008038       $unwind$?_GetRangeOfTrysToCheck@@YAPEBU_s_TryBlockMapEntry@@PEA_KPEBU_s_FuncInfo@@HHPEAI2PEAU_xDISPATCHER_CONTEXT@@@Z 0000000180017038     libvcruntime:trnsctrl.obj
 0002:00008054       $unwind$__dcrt_uninitialize_environments_nolock 0000000180017054     libucrt:environment_initialization.obj
 0002:00008064       $unwind$??$free_environment@D@@YAXQEAPEAD@Z 0000000180017064     libucrt:environment_initialization.obj
 0002:00008064       $unwind$??$free_environment@_W@@YAXQEAPEA_W@Z 0000000180017064     libucrt:environment_initialization.obj
 0002:00008064       $unwind$_initterm          0000000180017064     libucrt:initterm.obj
 0002:00008070       $unwind$??$create_environment@D@@YAQEAPEADQEAD@Z 0000000180017070     libucrt:environment_initialization.obj
 0002:00008070       $unwind$_mbtowc_internal   0000000180017070     libucrt:mbtowc.obj
 0002:00008070       $unwind$??$__acrt_convert_wcs_mbs_cp@D_WV<lambda_7c9dea7b4ca7285d2cdb541a38da6275>@@U__crt_win32_buffer_internal_dynamic_resizing@@@@YAHQEBDAEAV?$__crt_win32_buffer@_WU__crt_win32_buffer_internal_dynamic_resizing@@@@AEBV<lambda_7c9dea7b4ca7285d2cdb541a38da6275>@@I@Z 0000000180017070     libucrt:argv_wildcards.obj
 0002:00008088       $unwind$_register_onexit_function 0000000180017088     libucrt:onexit.obj
 0002:00008090       $unwind$_execute_onexit_table 0000000180017090     libucrt:onexit.obj
 0002:000080a0       $ip2state$_execute_onexit_table 00000001800170a0     libucrt:onexit.obj
 0002:000080a8       $unwind$??R<lambda_22ebabd17bc4fa466a2aca6d8deb888d>@@QEBAHXZ 00000001800170a8     libucrt:onexit.obj
 0002:000080c0       $unwind$??$?RV<lambda_638799b9deba96c50f710eeac98168cd>@@AEAV<lambda_22ebabd17bc4fa466a2aca6d8deb888d>@@V<lambda_a6f7d7db0129f75315ebf26d50c089f1>@@@?$__crt_seh_guarded_call@H@@QEAAH$$QEAV<lambda_638799b9deba96c50f710eeac98168cd>@@AEAV<lambda_22ebabd17bc4fa466a2aca6d8deb888d>@@$$QEAV<lambda_a6f7d7db0129f75315ebf26d50c089f1>@@@Z 00000001800170c0     libucrt:onexit.obj
 0002:000080e4       $unwind$??$?RV<lambda_7777bce6b2f8c936911f934f8298dc43>@@AEAV<lambda_f03950bc5685219e0bcd2087efbe011e>@@V<lambda_3883c3dff614d5e0c5f61bb1ac94921c>@@@?$__crt_seh_guarded_call@H@@QEAAH$$QEAV<lambda_7777bce6b2f8c936911f934f8298dc43>@@AEAV<lambda_f03950bc5685219e0bcd2087efbe011e>@@$$QEAV<lambda_3883c3dff614d5e0c5f61bb1ac94921c>@@@Z 00000001800170e4     libucrt:onexit.obj
 0002:00008108       $unwind$terminate          0000000180017108     libucrt:terminate.obj
 0002:00008128       $unwind$?get_raw_ptd@__crt_cached_ptd_host@@QEAAPEAU__acrt_ptd@@XZ 0000000180017128     libucrt:output.obj
 0002:00008130       $chain$0$?get_raw_ptd@__crt_cached_ptd_host@@QEAAPEAU__acrt_ptd@@XZ 0000000180017130     libucrt:output.obj
 0002:00008144       $chain$1$?get_raw_ptd@__crt_cached_ptd_host@@QEAAPEAU__acrt_ptd@@XZ 0000000180017144     libucrt:output.obj
 0002:00008154       $unwind$?construct_ptd_array@@YAXQEAU__acrt_ptd@@@Z 0000000180017154     libucrt:per_thread_data.obj
 0002:0000815c       $unwind$?destroy_ptd_array@@YAXQEAU__acrt_ptd@@@Z 000000018001715c     libucrt:per_thread_data.obj
 0002:00008164       $unwind$??$?RV<lambda_0ae27a3a962d80f24befdcbee591983d>@@AEAV<lambda_8d0ee55de4b1038c4002e0adecdf1839>@@V<lambda_dc504788e8f1664fe9b84e20bfb512f2>@@@?$__crt_seh_guarded_call@X@@QEAAX$$QEAV<lambda_0ae27a3a962d80f24befdcbee591983d>@@AEAV<lambda_8d0ee55de4b1038c4002e0adecdf1839>@@$$QEAV<lambda_dc504788e8f1664fe9b84e20bfb512f2>@@@Z 0000000180017164     libucrt:per_thread_data.obj
 0002:00008188       $unwind$??$?RV<lambda_aa87e3671a710a21b5dc78c0bdf72e11>@@AEAV<lambda_92619d2358a28f41a33ba319515a20b9>@@V<lambda_6992ecaafeb10aed2b74cb1fae11a551>@@@?$__crt_seh_guarded_call@X@@QEAAX$$QEAV<lambda_aa87e3671a710a21b5dc78c0bdf72e11>@@AEAV<lambda_92619d2358a28f41a33ba319515a20b9>@@$$QEAV<lambda_6992ecaafeb10aed2b74cb1fae11a551>@@@Z 0000000180017188     libucrt:per_thread_data.obj
 0002:000081ac       $unwind$??$?RV<lambda_f2e299630e499de9f9a165e60fcd3db5>@@AEAV<lambda_2ae9d31cdba2644fcbeaf08da7c24588>@@V<lambda_40d01ff24d0e7b3814fdbdcee8eab3c7>@@@?$__crt_seh_guarded_call@X@@QEAAX$$QEAV<lambda_f2e299630e499de9f9a165e60fcd3db5>@@AEAV<lambda_2ae9d31cdba2644fcbeaf08da7c24588>@@$$QEAV<lambda_40d01ff24d0e7b3814fdbdcee8eab3c7>@@@Z 00000001800171ac     libucrt:per_thread_data.obj
 0002:000081d0       $unwind$??$?RV<lambda_2d41944a1d46af3157314b8a01080d33>@@AEAV<lambda_8f455de75cd7d7f24b4096f044d8b9e6>@@V<lambda_aa500f224e6afead328df44964fe2772>@@@?$__crt_seh_guarded_call@X@@QEAAX$$QEAV<lambda_2d41944a1d46af3157314b8a01080d33>@@AEAV<lambda_8f455de75cd7d7f24b4096f044d8b9e6>@@$$QEAV<lambda_aa500f224e6afead328df44964fe2772>@@@Z 00000001800171d0     libucrt:per_thread_data.obj
 0002:000081f4       $unwind$__acrt_call_reportfault 00000001800171f4     libucrt:invalid_parameter.obj
 0002:00008214       $unwind$?get_raw_ptd_noexit@__crt_cached_ptd_host@@QEAAPEAU__acrt_ptd@@XZ 0000000180017214     libucrt:invalid_parameter.obj
 0002:00008224       $unwind$_invalid_parameter 0000000180017224     libucrt:invalid_parameter.obj
 0002:00008230       $unwind$??$common_expand_argv_wildcards@D@@YAHQEAPEADQEAPEAPEAD@Z 0000000180017230     libucrt:argv_wildcards.obj
 0002:00008248       $unwind$??$copy_and_add_argument_to_buffer@D@@YAHQEBD0_KAEAV?$argument_list@D@?A0x5f5c8891@@@Z 0000000180017248     libucrt:argv_wildcards.obj
 0002:00008264       $unwind$??$expand_argument_wildcards@D@@YAHQEAD0AEAV?$argument_list@D@?A0x5f5c8891@@@Z 0000000180017264     libucrt:argv_wildcards.obj
 0002:00008284       $unwind$__acrt_GetModuleFileNameA 0000000180017284     libucrt:getmodulefilenamea.obj
 0002:000082a0       $unwind$_setmbcp_nolock    00000001800172a0     libucrt:mbctype.obj
 0002:000082c0       $unwind$?update_thread_multibyte_data_internal@@YAPEAU__crt_multibyte_data@@QEAU__acrt_ptd@@QEAPEAU1@@Z 00000001800172c0     libucrt:mbctype.obj
 0002:000082e8       $unwind$?setmbcp_internal@@YAHH_NQEAU__acrt_ptd@@QEAPEAU__crt_multibyte_data@@@Z 00000001800172e8     libucrt:mbctype.obj
 0002:00008300       $unwind$?setSBUpLow@@YAXPEAU__crt_multibyte_data@@@Z 0000000180017300     libucrt:mbctype.obj
 0002:0000831c       $unwind$??$?RV<lambda_efdfa57d1f175319df784efa44bb7b81>@@AEAV<lambda_5f0a4c1567f8adc6734073e5d1e1b35c>@@V<lambda_2e8a7d3640ea6ccb4c2413664c2db6fd>@@@?$__crt_seh_guarded_call@X@@QEAAX$$QEAV<lambda_efdfa57d1f175319df784efa44bb7b81>@@AEAV<lambda_5f0a4c1567f8adc6734073e5d1e1b35c>@@$$QEAV<lambda_2e8a7d3640ea6ccb4c2413664c2db6fd>@@@Z 000000018001731c     libucrt:mbctype.obj
 0002:00008340       $unwind$?x_ismbbtype_l@@YAHPEAU__crt_locale_pointers@@IHH@Z 0000000180017340     libucrt:ismbbyte.obj
 0002:00008350       $unwind$__acrt_WideCharToMultiByte 0000000180017350     libucrt:widechartomultibyte.obj
 0002:0000835c       $unwind$??$__acrt_convert_wcs_mbs_cp@_WDV<lambda_d8593a27d1aa8c02be35c86a17d324c4>@@U__crt_win32_buffer_internal_dynamic_resizing@@@@YAHQEB_WAEAV?$__crt_win32_buffer@DU__crt_win32_buffer_internal_dynamic_resizing@@@@AEBV<lambda_d8593a27d1aa8c02be35c86a17d324c4>@@I@Z 000000018001735c     libucrt:argv_wildcards.obj
 0002:0000835c       $unwind$__dcrt_get_narrow_environment_from_os 000000018001735c     libucrt:get_environment_from_os.obj
 0002:00008374       $unwind$__acrt_initialize_winapi_thunks 0000000180017374     libucrt:winapi_thunks.obj
 0002:0000837c       $unwind$__acrt_LCMapStringEx 000000018001737c     libucrt:winapi_thunks.obj
 0002:00008390       $unwind$__acrt_initialize_lowio 0000000180017390     libucrt:ioinit.obj
 0002:000083b0       $unwind$?initialize_inherited_file_handles_nolock@@YAXXZ 00000001800173b0     libucrt:ioinit.obj
 0002:000083cc       $unwind$_query_new_handler 00000001800173cc     libucrt:new_handler.obj
 0002:000083ec       $unwind$__acrt_get_sigabrt_handler 00000001800173ec     libucrt:signal.obj
 0002:000083ec       $unwind$__acrt_uninitialize_locale 00000001800173ec     libucrt:wsetlocale.obj
 0002:000083f4       $unwind$raise              00000001800173f4     libucrt:signal.obj
 0002:00008430       $unwind$??$?RV<lambda_450d765d439847d4c735a33c368b5fc0>@@AEAV<lambda_44731a7d0e6d81c3e6aa82d741081786>@@V<lambda_601a2a7da3b7a96e9554ac7215c4b07c>@@@?$__crt_seh_guarded_call@P6AXH@Z@@QEAAP6AXH@Z$$QEAV<lambda_450d765d439847d4c735a33c368b5fc0>@@AEAV<lambda_44731a7d0e6d81c3e6aa82d741081786>@@$$QEAV<lambda_601a2a7da3b7a96e9554ac7215c4b07c>@@@Z 0000000180017430     libucrt:signal.obj
 0002:00008454       $unwind$_fflush_nolock     0000000180017454     libucrt:fflush.obj
 0002:00008454       $unwind$fclose             0000000180017454     libucrt:fclose.obj
 0002:00008464       $unwind$?common_flush_all@@YAH_N@Z 0000000180017464     libucrt:fflush.obj
 0002:0000846c       $unwind$??$?RV<lambda_842d9ff0dc9ef11c61343bbaebe7f885>@@AEAV<lambda_c5860995281e5c4ce005b3de8f5874ee>@@V<lambda_d90129c13df834fdcbf8d2b88dafcf2d>@@@?$__crt_seh_guarded_call@X@@QEAAX$$QEAV<lambda_842d9ff0dc9ef11c61343bbaebe7f885>@@AEAV<lambda_c5860995281e5c4ce005b3de8f5874ee>@@$$QEAV<lambda_d90129c13df834fdcbf8d2b88dafcf2d>@@@Z 000000018001746c     libucrt:fflush.obj
 0002:00008490       $unwind$??$?RV<lambda_886d6c58226a84441f68b9f2b8217b83>@@AEAV<lambda_ab61a845afdef5b7c387490eaf3616ee>@@V<lambda_f7f22ab5edc0698d5f6905b0d3f44752>@@@?$__crt_seh_guarded_call@X@@QEAAX$$QEAV<lambda_886d6c58226a84441f68b9f2b8217b83>@@AEAV<lambda_ab61a845afdef5b7c387490eaf3616ee>@@$$QEAV<lambda_f7f22ab5edc0698d5f6905b0d3f44752>@@@Z 0000000180017490     libucrt:fflush.obj
 0002:000084b8       $unwind$__GSHandlerCheck_EH 00000001800174b8     LIBCMT:gshandlereh.obj
 0002:000084b8       $unwind$__TypeMatch        00000001800174b8     libvcruntime:frame.obj
 0002:000084b8       $unwind$?initialize_stdio_handles_nolock@@YAXXZ 00000001800174b8     libucrt:ioinit.obj
 0002:000084b8       $unwind$__acrt_initialize_stdio 00000001800174b8     libucrt:_file.obj
 0002:000084d0       $unwind$??$?RV<lambda_410d79af7f07d98d83a3f525b3859a53>@@AEAV<lambda_3e16ef9562a7dcce91392c22ab16ea36>@@V<lambda_38119f0e861e05405d8a144b9b982f0a>@@@?$__crt_seh_guarded_call@X@@QEAAX$$QEAV<lambda_410d79af7f07d98d83a3f525b3859a53>@@AEAV<lambda_3e16ef9562a7dcce91392c22ab16ea36>@@$$QEAV<lambda_38119f0e861e05405d8a144b9b982f0a>@@@Z 00000001800174d0     libucrt:wsetlocale.obj
 0002:000084f8       $xdatasym                  00000001800174f8     libucrt:guard_xfg_dispatch.obj
 0002:000084fc       $unwind$__acrt_update_thread_locale_data 00000001800174fc     libucrt:locale_refcounting.obj
 0002:00008520       $unwind$qsort              0000000180017520     libucrt:qsort.obj
 0002:00008538       $chain$4$qsort             0000000180017538     libucrt:qsort.obj
 0002:0000855c       $chain$5$qsort             000000018001755c     libucrt:qsort.obj
 0002:0000856c       $unwind$strpbrk            000000018001756c     libucrt:strpbrk.obj
 0002:0000857c       $unwind$fallbackMethod     000000018001757c     libucrt:strpbrk.obj
 0002:0000858c       $unwind$_mbsdec_l          000000018001758c     libucrt:mbsdec.obj
 0002:00008598       $unwind$__acrt_GetStringTypeA 0000000180017598     libucrt:getstringtypea.obj
 0002:000085c0       $unwind$__acrt_LCMapStringA 00000001800175c0     libucrt:lcmapstringa.obj
 0002:000085d0       $unwind$?__acrt_LCMapStringA_stat@@YAHPEAU__crt_locale_pointers@@PEB_WKPEBDHPEADHHH@Z 00000001800175d0     libucrt:lcmapstringa.obj
 0002:000085f8       $unwind$??R<lambda_f03950bc5685219e0bcd2087efbe011e>@@QEBAHXZ 00000001800175f8     libucrt:onexit.obj
 0002:000085f8       $unwind$__acrt_DownlevelLocaleNameToLCID 00000001800175f8     libucrt:lcidtoname_downlevel.obj
 0002:00008610       $unwind$__acrt_lowio_destroy_handle_array 0000000180017610     libucrt:osfinfo.obj
 0002:00008620       $unwind$__acrt_lowio_ensure_fh_exists 0000000180017620     libucrt:osfinfo.obj
 0002:0000864c       $unwind$_commit            000000018001764c     libucrt:commit.obj
 0002:00008654       $unwind$??$?RV<lambda_a37b2b86f63e897a80ea819b0eb08c01>@@AEAV<lambda_38ce7e780aa69e748d6df282ebc68efe>@@V<lambda_99fb1378e971ab6e7edea83e3a7a83a2>@@@?$__crt_seh_guarded_call@H@@QEAAH$$QEAV<lambda_a37b2b86f63e897a80ea819b0eb08c01>@@AEAV<lambda_38ce7e780aa69e748d6df282ebc68efe>@@$$QEAV<lambda_99fb1378e971ab6e7edea83e3a7a83a2>@@@Z 0000000180017654     libucrt:commit.obj
 0002:00008678       $unwind$_write_nolock      0000000180017678     libucrt:write.obj
 0002:00008690       $unwind$_write_internal    0000000180017690     libucrt:write.obj
 0002:000086c0       $unwind$?write_double_translated_ansi_nolock@@YA?AUwrite_result@?A0x17268360@@HQEBDIAEAV__crt_cached_ptd_host@@@Z 00000001800176c0     libucrt:write.obj
 0002:000086e8       $ip2state$?write_double_translated_ansi_nolock@@YA?AUwrite_result@?A0x17268360@@HQEBDIAEAV__crt_cached_ptd_host@@@Z 00000001800176e8     libucrt:write.obj
 0002:000086f0       $unwind$?write_text_ansi_nolock@@YA?AUwrite_result@?A0x17268360@@HQEBDI@Z 00000001800176f0     libucrt:write.obj
 0002:000086f0       $unwind$?write_text_utf16le_nolock@@YA?AUwrite_result@?A0x17268360@@HQEBDI@Z 00000001800176f0     libucrt:write.obj
 0002:00008710       $unwind$?write_text_utf8_nolock@@YA?AUwrite_result@?A0x17268360@@HQEBDI@Z 0000000180017710     libucrt:write.obj
 0002:00008734       $unwind$_fcloseall         0000000180017734     libucrt:closeall.obj
 0002:00008758       $unwind$?__mbsrtowcs_utf8@__crt_mbstring@@YA_KPEA_WPEAPEBD_KPEAU_Mbstatet@@AEAV__crt_cached_ptd_host@@@Z 0000000180017758     libucrt:mbrtowc.obj
 0002:00008770       $unwind$__acrt_locale_free_monetary 0000000180017770     libucrt:initmon.obj
 0002:00008778       $unwind$__acrt_locale_free_numeric 0000000180017778     libucrt:initnum.obj
 0002:00008778       $unwind$?destroy_fls@@YAXPEAX@Z 0000000180017778     libucrt:per_thread_data.obj
 0002:00008778       $unwind$_free_base         0000000180017778     libucrt:free_base.obj
 0002:00008778       $unwind$__acrt_locale_free_lc_time_if_unreferenced 0000000180017778     libucrt:locale_refcounting.obj
 0002:00008780       $unwind$__acrt_locale_free_time 0000000180017780     libucrt:inittime.obj
 0002:00008790       $unwind$_invalid_parameter_internal 0000000180017790     libucrt:invalid_parameter.obj
 0002:00008790       $unwind$??$common_lseek_nolock@_J@@YA_JH_JHAEAV__crt_cached_ptd_host@@@Z 0000000180017790     libucrt:lseek.obj
 0002:000087a4       $unwind$_putwch_nolock     00000001800177a4     libucrt:putwch.obj
 0002:000087ac       $unwind$?_fclose_nolock_internal@@YAHQEAU_iobuf@@AEAV__crt_cached_ptd_host@@@Z 00000001800177ac     libucrt:fclose.obj
 0002:000087bc       $unwind$?_fclose_internal@@YAHQEAU_iobuf@@AEAV__crt_cached_ptd_host@@@Z 00000001800177bc     libucrt:fclose.obj
 0002:000087e0       $unwind$_write_internal$fin$0 00000001800177e0     libucrt:write.obj
 0002:000087e0       $unwind$?filt$0@?0??dllmain_dispatch@@YAHQEAUHINSTANCE__@@KQEAX@Z@4HA 00000001800177e0     LIBCMT:dll_dllmain.obj
 0002:000087e0       $unwind$?fin$0@?0??_fclose_internal@@YAHQEAU_iobuf@@AEAV__crt_cached_ptd_host@@@Z@4HA 00000001800177e0     libucrt:fclose.obj
 0002:000087e8       $xdatasym                  00000001800177e8     libucrt:log10.obj
 0002:000087f4       $unwind$?__mbrtoc32_utf8@__crt_mbstring@@YA_KPEA_UPEBD_KPEAU_Mbstatet@@AEAV__crt_cached_ptd_host@@@Z 00000001800177f4     libucrt:mbrtoc32.obj
 0002:00008810       $unwind$?getSystemCP@@YAHH@Z 0000000180017810     libucrt:mbctype.obj
 0002:00008810       $unwind$?__mbrtowc_utf8@__crt_mbstring@@YA_KPEA_WPEBD_KPEAU_Mbstatet@@AEAV__crt_cached_ptd_host@@@Z 0000000180017810     libucrt:mbrtowc.obj
 0002:00008810       $unwind$__dcrt_lowio_ensure_console_output_initialized 0000000180017810     libucrt:initcon.obj
 0002:00008818       $unwind$?__SehTransFilter@@YAHPEAU_EXCEPTION_POINTERS@@PEAUEHExceptionRecord@@PEA_KPEAU_CONTEXT@@PEAU_xDISPATCHER_CONTEXT@@PEBU_s_FuncInfo@@PEAH@Z 0000000180017818     libvcruntime:trnsctrl.obj
 0002:00008818       $unwind$__dcrt_write_console 0000000180017818     libucrt:initcon.obj
 0002:00008818       $unwind$??$__acrt_convert_wcs_mbs_cp@_WDV<lambda_f788ae46380686e8b737efdd8c720d07>@@U__crt_win32_buffer_no_resizing@@@@YAHQEB_WAEAV?$__crt_win32_buffer@DU__crt_win32_buffer_no_resizing@@@@AEBV<lambda_f788ae46380686e8b737efdd8c720d07>@@I@Z 0000000180017818     libucrt:getmodulefilenamea.obj
 0002:0000882c       $unwind$_close_internal    000000018001782c     libucrt:close.obj
 0002:00008834       $unwind$??$?RV<lambda_ad8af0d99a0adf03d037d7dffe354bb5>@@AEAV<lambda_c9ba49e555ba839a7b07aa3fbecb7617>@@V<lambda_2f1ebd5d68526518146ae959c9e734c8>@@@?$__crt_seh_guarded_call@H@@QEAAH$$QEAV<lambda_ad8af0d99a0adf03d037d7dffe354bb5>@@AEAV<lambda_c9ba49e555ba839a7b07aa3fbecb7617>@@$$QEAV<lambda_2f1ebd5d68526518146ae959c9e734c8>@@@Z 0000000180017834     libucrt:close.obj
 0002:00008858       $unwind$_call_matherr      0000000180017858     libucrt:libm_error.obj
 0002:00008860       $unwind$_handle_error      0000000180017860     libucrt:libm_error.obj
 0002:00008880       $unwind$__acrt_initialize_fma3 0000000180017880     libucrt:fma3_available.obj
 0002:00008888       $unwind$_log_special_common 0000000180017888     libucrt:log_special.obj
 0002:00008894       $unwind$_log10_special     0000000180017894     libucrt:log_special.obj
 0002:00008894       $unwind$_invalid_parameter_noinfo 0000000180017894     libucrt:invalid_parameter.obj
 0002:000088a0       $xdatasym                  00000001800178a0     libucrt:fpsr.obj
 0002:000088a8       $unwind$_raise_exc         00000001800178a8     libucrt:fpexcept.obj
 0002:000088b0       $unwind$_raise_exc_ex      00000001800178b0     libucrt:fpexcept.obj
 0002:000088c4       $unwind$_ctrlfp            00000001800178c4     libucrt:fpctrl.obj
 0002:000088ec       $unwind$_IsNonwritableInCurrentImage 00000001800178ec     LIBCMT:pesect.obj
 0002:00008910       $unwind$__GSHandlerCheckCommon 0000000180017910     LIBCMT:_gshandler_.obj
 0002:00008918       $xdatasym                  0000000180017918     LIBCMT:_chkstk_.obj
 0002:00008920       $unwind$__CxxCallCatchBlock 0000000180017920     libvcruntime:frame.obj
 0002:0000895c       $unwind$__CxxCallCatchBlock$fin$1 000000018001795c     libvcruntime:frame.obj
 0002:00008968       $unwind$__FrameUnwindToState 0000000180017968     libvcruntime:frame.obj
 0002:000089a4       $unwind$?FindHandler@@YAXPEAUEHExceptionRecord@@PEA_KPEAU_CONTEXT@@PEAU_xDISPATCHER_CONTEXT@@PEBU_s_FuncInfo@@EH1@Z 00000001800179a4     libvcruntime:frame.obj
 0002:000089c4       $unwind$?CatchIt@@YAXPEAUEHExceptionRecord@@PEA_KPEAU_CONTEXT@@PEAU_xDISPATCHER_CONTEXT@@PEBU_s_FuncInfo@@PEBU_s_HandlerType@@PEBU_s_CatchableType@@PEBU_s_TryBlockMapEntry@@H1EE@Z 00000001800179c4     libvcruntime:frame.obj
 0002:000089dc       $unwind$__BuildCatchObject 00000001800179dc     libvcruntime:frame.obj
 0002:00008a08       $unwind$?FindHandlerForForeignException@@YAXPEAUEHExceptionRecord@@PEA_KPEAU_CONTEXT@@PEAU_xDISPATCHER_CONTEXT@@PEBU_s_FuncInfo@@HH1@Z 0000000180017a08     libvcruntime:frame.obj
 0002:00008a20       $unwind$__DestructExceptionObject 0000000180017a20     libvcruntime:frame.obj
 0002:00008a44       $unwind$?IsInExceptionSpec@@YAEPEAUEHExceptionRecord@@PEBU_s_ESTypeList@@@Z 0000000180017a44     libvcruntime:frame.obj
 0002:00008a44       $unwind$?try_get_function@@YAPEAXW4function_id@?A0x391cf84c@@QEBDQEBW4module_id@2@2@Z 0000000180017a44     libucrt:winapi_thunks.obj
 0002:00008a44       $unwind$?try_get_function@@YAPEAXW4function_id@?A0x679b24ab@@QEBDQEBW4module_id@2@2@Z 0000000180017a44     libvcruntime:winapi_downlevel.obj
 0002:00008a60       $unwind$__BuildCatchObjectHelper 0000000180017a60     libvcruntime:frame.obj
 0002:00008aa0       $unwind$?_GetEstablisherFrame@@YAPEA_KPEA_KPEAU_xDISPATCHER_CONTEXT@@PEBU_s_FuncInfo@@0@Z 0000000180017aa0     libvcruntime:trnsctrl.obj
 0002:00008ab8       $unwind$?__FrameUnwindToEmptyState@@YAXPEA_KPEAU_xDISPATCHER_CONTEXT@@PEBU_s_FuncInfo@@@Z 0000000180017ab8     libvcruntime:trnsctrl.obj
 0002:00008acc       $unwind$_CallSETranslator  0000000180017acc     libvcruntime:trnsctrl.obj
 0002:00008af0       $unwind$_CallSETranslator$filt$0 0000000180017af0     libvcruntime:trnsctrl.obj
 0002:00008af8       $unwind$_UnwindNestedFrames 0000000180017af8     libvcruntime:trnsctrl.obj
 0002:00008b0c       $unwind$__CxxFrameHandler3 0000000180017b0c     libvcruntime:trnsctrl.obj
 0002:00008b20       $xdatasym                  0000000180017b20     libvcruntime:memcpy.obj
 0002:00008b28       $xdatasym                  0000000180017b28     libvcruntime:memcmp.obj
 0002:00008b30       $xdatasym                  0000000180017b30     libvcruntime:handlers.obj
 0002:00008b38       $unwind$_free_osfhnd       0000000180017b38     libucrt:osfinfo.obj
 0002:00008b38       $unwind$__std_exception_copy 0000000180017b38     libvcruntime:std_exception.obj
 0002:00008b4c       $unwind$_CxxThrowException 0000000180017b4c     libvcruntime:throw.obj
 0002:00008bf0       .edata                     0000000180017bf0     arj.exp
 0002:00008c18       rgpv                       0000000180017c18     arj.exp
 0002:00008c34       rgszName                   0000000180017c34     arj.exp
 0002:00008c50       rgwOrd                     0000000180017c50     arj.exp
 0002:00008c5e       szName                     0000000180017c5e     arj.exp
 0002:00008c66       $N00001                    0000000180017c66     arj.exp
 0002:00008c73       $N00002                    0000000180017c73     arj.exp
 0002:00008c7e       $N00003                    0000000180017c7e     arj.exp
 0002:00008c91       $N00004                    0000000180017c91     arj.exp
 0002:00008c9f       $N00005                    0000000180017c9f     arj.exp
 0002:00008ca9       $N00006                    0000000180017ca9     arj.exp
 0002:00008cb3       $N00007                    0000000180017cb3     arj.exp
 0002:00009002       .idata$6                   0000000180018002     kernel32:KERNEL32.dll
 0003:00000030       ?__vcrt_flsindex@@3KA      0000000180019030     libvcruntime:per_thread_data.obj
 0003:00000038       ?__acrt_flsindex@@3KA      0000000180019038     libucrt:per_thread_data.obj
 0003:0000003c       ?errno_no_memory@@3HA      000000018001903c     libucrt:errno.obj
 0003:00000040       ?doserrno_no_memory@@3KA   0000000180019040     libucrt:errno.obj
 0003:00000280       _mbctypes                  0000000180019280     libucrt:mbctype.obj
 0003:00000390       _mbcasemaps                0000000180019390     libucrt:mbctype.obj
 0003:00000490       ?__rgctypeflag@@3PADA      0000000180019490     libucrt:mbctype.obj
 0003:000004a0       ?__rgcode_page_info@@3PAUcode_page_info@@A 00000001800194a0     libucrt:mbctype.obj
 0003:000009c0       ?__dcrt_lowio_console_output_handle@@3PEAXEA 00000001800199c0     libucrt:initcon.obj
 0003:000009d0       ?dazSupported@?1??_ctrlfp@@9@9 00000001800199d0     libucrt:fpctrl.obj
 0003:00000a60       GS_ExceptionRecord         0000000180019a60     LIBCMT:gs_report.obj
 0003:00000b00       GS_ContextRecord           0000000180019b00     LIBCMT:gs_report.obj
 0003:00000fd0       ?__proc_attached@@3HA      0000000180019fd0     LIBCMT:dll_dllmain.obj
 0003:00000fe8       ?module_local_atexit_table@@3U_onexit_table_t@@A 0000000180019fe8     LIBCMT:utility.obj
 0003:00001000       ?module_local_at_quick_exit_table@@3U_onexit_table_t@@A 000000018001a000     LIBCMT:utility.obj
 0003:00001018       ?is_initialized_as_dll@@3_NA 000000018001a018     LIBCMT:utility.obj
 0003:00001050       ?__vcrt_startup_thread_ptd@@3U__vcrt_ptd@@A 000000018001a050     libvcruntime:per_thread_data.obj
 0003:000010c8       __vcrt_lock_table          000000018001a0c8     libvcruntime:locks.obj
 0003:000010f0       __vcrt_locks_initialized   000000018001a0f0     libvcruntime:locks.obj
 0003:00001100       ?module_handles@@3PAPEAUHINSTANCE__@@A 000000018001a100     libvcruntime:winapi_downlevel.obj
 0003:00001120       ?encoded_function_pointers@@3PAPEAXA 000000018001a120     libvcruntime:winapi_downlevel.obj
 0003:000011b8       ?heap@@3V_HeapManager@@A   000000018001a1b8     libvcruntime:undname.obj
 0003:000011e0       ?c_termination_complete@@3JA 000000018001a1e0     libucrt:exit.obj
 0003:000011e8       ?thread_local_exit_callback_func@@3P6AXPEAXK0@ZEA 000000018001a1e8     libucrt:exit.obj
 0003:00001200       ?program_name@?1???$common_configure_argv@D@@YAHW4_crt_argv_mode@@@Z@4PADA 000000018001a200     libucrt:argv_parsing.obj
 0003:00001360       ?__acrt_lock_table@@3PAU_RTL_CRITICAL_SECTION@@A 000000018001a360     libucrt:locks.obj
 0003:00001590       ?__acrt_locks_initialized@@3IA 000000018001a590     libucrt:locks.obj
 0003:00001598       ?__acrt_invalid_parameter_handler@@3V?$dual_state_global@P6AXPEB_W00I_K@Z@__crt_state_management@@A 000000018001a598     libucrt:invalid_parameter.obj
 0003:000015b8       ?fSystemSet@@3HA           000000018001a5b8     libucrt:mbctype.obj
 0003:000015bc       ?initialized@?1??__acrt_initialize_multibyte@@9@4_NA 000000018001a5bc     libucrt:mbctype.obj
 0003:000015f0       ?module_handles@@3PAPEAUHINSTANCE__@@A 000000018001a5f0     libucrt:winapi_thunks.obj
 0003:00001690       ?encoded_function_pointers@@3PAPEAXA 000000018001a690     libucrt:winapi_thunks.obj
 0003:00001b98       ?__acrt_new_handler@@3V?$dual_state_global@P6AH_K@Z@__crt_state_management@@A 000000018001ab98     libucrt:new_handler.obj
 0003:00001ba0       ?ctrlc_action@@3V?$dual_state_global@P6AXH@Z@__crt_state_management@@A 000000018001aba0     libucrt:signal.obj
 0003:00001ba8       ?ctrlbreak_action@@3V?$dual_state_global@P6AXH@Z@__crt_state_management@@A 000000018001aba8     libucrt:signal.obj
 0003:00001bb0       ?abort_action@@3V?$dual_state_global@P6AXH@Z@__crt_state_management@@A 000000018001abb0     libucrt:signal.obj
 0003:00001bb8       ?term_action@@3V?$dual_state_global@P6AXH@Z@__crt_state_management@@A 000000018001abb8     libucrt:signal.obj
 0003:00001bc0       ?user_matherr@@3V?$dual_state_global@P6AHPEAU_exception@@@Z@__crt_state_management@@A 000000018001abc0     libucrt:matherr.obj
 0003:00001bf0       ?__acrt_global_new_mode@@3V?$dual_state_global@J@__crt_state_management@@A 000000018001abf0     libucrt:new_mode.obj
 0003:00001bf8       ?internal_state@?1??_mbtowc_internal@@9@4U_Mbstatet@@A 000000018001abf8     libucrt:mbtowc.obj
 0003:00001c0c       ?__acrt_app_type@@3W4_crt_app_type@@A 000000018001ac0c     libucrt:report_runtime_error.obj
 0003:00001c10       ?internal_pst@?1??__mbrtoc32_utf8@__crt_mbstring@@YA_KPEA_UPEBD_KPEAU_Mbstatet@@AEAV__crt_cached_ptd_host@@@Z@4U3@A 000000018001ac10     libucrt:mbrtoc32.obj
 0003:00001c34       ?NextPosition@@3KA         000000018001ac34     arj.obj
 0003:00001c38       ?SFXSize@@3KA              000000018001ac38     arj.obj
 0003:00001c3c       ?ArcComment@@3HA           000000018001ac3c     arj.obj
 0003:00001c40       ?ArcHandle@@3PEAXEA        000000018001ac40     arj.obj
 0003:00001c48       ?FileSize@@3KA             000000018001ac48     arj.obj
 0003:00001c4c       ?ArcRecovery@@3HA          000000018001ac4c     arj.obj
 0003:00001c50       ?ArcVolume@@3HA            000000018001ac50     arj.obj
 0003:00001c54       ?ArcLastChapter@@3HA       000000018001ac54     arj.obj
 0003:00001c60       ?crctable@@3PAKA           000000018001ac60     arj.obj
 0003:00002060       ?CRCInit@@3HA              000000018001b060     arj.obj
 0004:00000000       $pdata$IsArchive           000000018001c000     arj.obj
 0004:0000000c       $pdata$OpenArchive         000000018001c00c     arj.obj
 0004:00000018       $pdata$GetArcItem          000000018001c018     arj.obj
 0004:00000024       $pdata$0$GetArcItem        000000018001c024     arj.obj
 0004:00000030       $pdata$1$GetArcItem        000000018001c030     arj.obj
 0004:0000003c       $pdata$GetFormatName       000000018001c03c     arj.obj
 0004:00000048       $pdata$GetDefaultCommands  000000018001c048     arj.obj
 0004:00000060       $pdata$__raise_securityfailure 000000018001c060     LIBCMT:gs_report.obj
 0004:0000006c       $pdata$__report_gsfailure  000000018001c06c     LIBCMT:gs_report.obj
 0004:00000078       $pdata$__report_rangecheckfailure 000000018001c078     LIBCMT:gs_report.obj
 0004:00000084       $pdata$__report_securityfailure 000000018001c084     LIBCMT:gs_report.obj
 0004:00000090       $pdata$capture_current_context 000000018001c090     LIBCMT:gs_report.obj
 0004:0000009c       $pdata$capture_previous_context 000000018001c09c     LIBCMT:gs_report.obj
 0004:000000a8       $pdata$?dllmain_crt_dispatch@@YAHQEAUHINSTANCE__@@KQEAX@Z 000000018001c0a8     LIBCMT:dll_dllmain.obj
 0004:000000b4       $pdata$?dllmain_crt_process_attach@@YAHQEAUHINSTANCE__@@QEAX@Z 000000018001c0b4     LIBCMT:dll_dllmain.obj
 0004:000000c0       $pdata$?dllmain_crt_process_detach@@YAH_N@Z 000000018001c0c0     LIBCMT:dll_dllmain.obj
 0004:000000cc       $pdata$?dllmain_dispatch@@YAHQEAUHINSTANCE__@@KQEAX@Z 000000018001c0cc     LIBCMT:dll_dllmain.obj
 0004:000000d8       $pdata$?dllmain_raw@@YAHQEAUHINSTANCE__@@KQEAX@Z 000000018001c0d8     LIBCMT:dll_dllmain.obj
 0004:000000e4       $pdata$_DllMainCRTStartup  000000018001c0e4     LIBCMT:dll_dllmain.obj
 0004:000000f0       $pdata$__scrt_acquire_startup_lock 000000018001c0f0     LIBCMT:utility.obj
 0004:000000fc       $pdata$__scrt_dllmain_after_initialize_c 000000018001c0fc     LIBCMT:utility.obj
 0004:00000108       $pdata$__scrt_dllmain_before_initialize_c 000000018001c108     LIBCMT:utility.obj
 0004:00000114       $pdata$__scrt_dllmain_crt_thread_attach 000000018001c114     LIBCMT:utility.obj
 0004:00000120       $pdata$__scrt_dllmain_crt_thread_detach 000000018001c120     LIBCMT:utility.obj
 0004:0000012c       $pdata$__scrt_dllmain_exception_filter 000000018001c12c     LIBCMT:utility.obj
 0004:00000138       $pdata$__scrt_dllmain_uninitialize_c 000000018001c138     LIBCMT:utility.obj
 0004:00000144       $pdata$__scrt_dllmain_uninitialize_critical 000000018001c144     LIBCMT:utility.obj
 0004:00000150       $pdata$__scrt_initialize_crt 000000018001c150     LIBCMT:utility.obj
 0004:0000015c       $pdata$__scrt_initialize_onexit_tables 000000018001c15c     LIBCMT:utility.obj
 0004:00000168       $pdata$__scrt_is_nonwritable_in_current_image 000000018001c168     LIBCMT:utility.obj
 0004:00000174       $pdata$__scrt_release_startup_lock 000000018001c174     LIBCMT:utility.obj
 0004:00000180       $pdata$__scrt_uninitialize_crt 000000018001c180     LIBCMT:utility.obj
 0004:0000018c       $pdata$_onexit             000000018001c18c     LIBCMT:utility.obj
 0004:00000198       $pdata$atexit              000000018001c198     LIBCMT:utility.obj
 0004:000001a4       $pdata$__security_init_cookie 000000018001c1a4     LIBCMT:gs_support.obj
 0004:000001b0       $pdata$__scrt_initialize_default_local_stdio_options 000000018001c1b0     LIBCMT:default_local_stdio_options.obj
 0004:000001bc       $pdata$__scrt_fastfail     000000018001c1bc     LIBCMT:utility_desktop.obj
 0004:000001c8       $pdata$_RTC_Initialize     000000018001c1c8     LIBCMT:_initsect_.obj
 0004:000001d4       $pdata$_RTC_Terminate      000000018001c1d4     LIBCMT:_initsect_.obj
 0004:000001e0       $pdata$__isa_available_init 000000018001c1e0     LIBCMT:_cpu_disp_.obj
 0004:000001ec       $pdata$__C_specific_handler 000000018001c1ec     libvcruntime:_chandler_.obj
 0004:000001f8       $pdata$__vcrt_initialize   000000018001c1f8     libvcruntime:initialization.obj
 0004:00000204       $pdata$__vcrt_thread_attach 000000018001c204     libvcruntime:initialization.obj
 0004:00000210       $pdata$__vcrt_thread_detach 000000018001c210     libvcruntime:initialization.obj
 0004:0000021c       $pdata$__vcrt_uninitialize 000000018001c21c     libvcruntime:initialization.obj
 0004:00000228       $pdata$__vcrt_uninitialize_critical 000000018001c228     libvcruntime:initialization.obj
 0004:00000234       $pdata$__std_type_info_destroy_list 000000018001c234     libvcruntime:std_type_info.obj
 0004:0000027c       $pdata$__vcrt_freefls      000000018001c27c     libvcruntime:per_thread_data.obj
 0004:00000288       $pdata$__vcrt_freeptd      000000018001c288     libvcruntime:per_thread_data.obj
 0004:00000294       $pdata$__vcrt_getptd       000000018001c294     libvcruntime:per_thread_data.obj
 0004:000002a0       $pdata$__vcrt_getptd_noexit 000000018001c2a0     libvcruntime:per_thread_data.obj
 0004:000002ac       $pdata$__vcrt_initialize_ptd 000000018001c2ac     libvcruntime:per_thread_data.obj
 0004:000002b8       $pdata$__vcrt_uninitialize_ptd 000000018001c2b8     libvcruntime:per_thread_data.obj
 0004:000002c4       $pdata$__vcrt_initialize_locks 000000018001c2c4     libvcruntime:locks.obj
 0004:000002d0       $pdata$__vcrt_uninitialize_locks 000000018001c2d0     libvcruntime:locks.obj
 0004:000002dc       $pdata$?try_get_function@@YAPEAXW4function_id@?A0x679b24ab@@QEBDQEBW4module_id@2@2@Z 000000018001c2dc     libvcruntime:winapi_downlevel.obj
 0004:000002e8       $pdata$__vcrt_FlsAlloc     000000018001c2e8     libvcruntime:winapi_downlevel.obj
 0004:000002f4       $pdata$__vcrt_FlsFree      000000018001c2f4     libvcruntime:winapi_downlevel.obj
 0004:00000300       $pdata$__vcrt_FlsGetValue  000000018001c300     libvcruntime:winapi_downlevel.obj
 0004:0000030c       $pdata$__vcrt_FlsSetValue  000000018001c30c     libvcruntime:winapi_downlevel.obj
 0004:00000318       $pdata$__vcrt_InitializeCriticalSectionEx 000000018001c318     libvcruntime:winapi_downlevel.obj
 0004:00000324       $pdata$__vcrt_uninitialize_winapi_thunks 000000018001c324     libvcruntime:winapi_downlevel.obj
 0004:00000330       $pdata$_initterm           000000018001c330     libucrt:initterm.obj
 0004:0000033c       $pdata$_initterm_e         000000018001c33c     libucrt:initterm.obj
 0004:00000348       $pdata$_seh_filter_exe     000000018001c348     libucrt:exception_filter.obj
 0004:00000354       $pdata$??$?RV<lambda_d80eeec6fff315bfe5c115232f3240e3>@@AEAV<lambda_6e4b09c48022b2350581041d5f6b0c4c>@@V<lambda_2358e3775559c9db80273638284d5e45>@@@?$__crt_seh_guarded_call@X@@QEAAX$$QEAV<lambda_d80eeec6fff315bfe5c115232f3240e3>@@AEAV<lambda_6e4b09c48022b2350581041d5f6b0c4c>@@$$QEAV<lambda_2358e3775559c9db80273638284d5e45>@@@Z 000000018001c354     libucrt:exit.obj
 0004:00000360       $pdata$??R<lambda_6e4b09c48022b2350581041d5f6b0c4c>@@QEBA@XZ 000000018001c360     libucrt:exit.obj
 0004:0000036c       $pdata$?common_exit@@YAXHW4_crt_exit_cleanup_mode@@W4_crt_exit_return_mode@@@Z 000000018001c36c     libucrt:exit.obj
 0004:00000378       $pdata$?exit_or_terminate_process@@YAXI@Z 000000018001c378     libucrt:exit.obj
 0004:00000384       $pdata$?should_call_terminate_process@@YA_NXZ 000000018001c384     libucrt:exit.obj
 0004:00000390       $pdata$?try_cor_exit_process@@YAXI@Z 000000018001c390     libucrt:exit.obj
 0004:0000039c       $pdata$??$parse_command_line@D@@YAXPEADPEAPEAD0PEA_K2@Z 000000018001c39c     libucrt:argv_parsing.obj
 0004:000003a8       $pdata$__acrt_allocate_buffer_for_argv 000000018001c3a8     libucrt:argv_parsing.obj
 0004:000003b4       $pdata$_configure_narrow_argv 000000018001c3b4     libucrt:argv_parsing.obj
 0004:000003c0       $pdata$??$common_initialize_environment_nolock@D@@YAHXZ 000000018001c3c0     libucrt:environment_initialization.obj
 0004:000003cc       $pdata$??$create_environment@D@@YAQEAPEADQEAD@Z 000000018001c3cc     libucrt:environment_initialization.obj
 0004:000003d8       $pdata$??$free_environment@D@@YAXQEAPEAD@Z 000000018001c3d8     libucrt:environment_initialization.obj
 0004:000003e4       $pdata$??$free_environment@_W@@YAXQEAPEA_W@Z 000000018001c3e4     libucrt:environment_initialization.obj
 0004:000003f0       $pdata$??$uninitialize_environment_internal@D@@YAXAEAPEAPEAD@Z 000000018001c3f0     libucrt:environment_initialization.obj
 0004:000003fc       $pdata$??$uninitialize_environment_internal@_W@@YAXAEAPEAPEA_W@Z 000000018001c3fc     libucrt:environment_initialization.obj
 0004:00000408       $pdata$__dcrt_uninitialize_environments_nolock 000000018001c408     libucrt:environment_initialization.obj
 0004:00000414       $pdata$??$?RV<lambda_638799b9deba96c50f710eeac98168cd>@@AEAV<lambda_22ebabd17bc4fa466a2aca6d8deb888d>@@V<lambda_a6f7d7db0129f75315ebf26d50c089f1>@@@?$__crt_seh_guarded_call@H@@QEAAH$$QEAV<lambda_638799b9deba96c50f710eeac98168cd>@@AEAV<lambda_22ebabd17bc4fa466a2aca6d8deb888d>@@$$QEAV<lambda_a6f7d7db0129f75315ebf26d50c089f1>@@@Z 000000018001c414     libucrt:onexit.obj
 0004:00000420       $pdata$??$?RV<lambda_7777bce6b2f8c936911f934f8298dc43>@@AEAV<lambda_f03950bc5685219e0bcd2087efbe011e>@@V<lambda_3883c3dff614d5e0c5f61bb1ac94921c>@@@?$__crt_seh_guarded_call@H@@QEAAH$$QEAV<lambda_7777bce6b2f8c936911f934f8298dc43>@@AEAV<lambda_f03950bc5685219e0bcd2087efbe011e>@@$$QEAV<lambda_3883c3dff614d5e0c5f61bb1ac94921c>@@@Z 000000018001c420     libucrt:onexit.obj
 0004:0000042c       $pdata$??R<lambda_22ebabd17bc4fa466a2aca6d8deb888d>@@QEBAHXZ 000000018001c42c     libucrt:onexit.obj
 0004:00000438       $pdata$??R<lambda_f03950bc5685219e0bcd2087efbe011e>@@QEBAHXZ 000000018001c438     libucrt:onexit.obj
 0004:00000444       $pdata$_execute_onexit_table 000000018001c444     libucrt:onexit.obj
 0004:00000450       $pdata$_register_onexit_function 000000018001c450     libucrt:onexit.obj
 0004:0000045c       $pdata$uninitialize_allocated_io_buffers 000000018001c45c     libucrt:initialization.obj
 0004:00000468       $pdata$initialize_c        000000018001c468     libucrt:initialization.obj
 0004:00000474       $pdata$uninitialize_environment 000000018001c474     libucrt:initialization.obj
 0004:00000480       $pdata$initialize_pointers 000000018001c480     libucrt:initialization.obj
 0004:0000048c       $pdata$uninitialize_allocated_memory 000000018001c48c     libucrt:initialization.obj
 0004:00000498       $pdata$__acrt_thread_attach 000000018001c498     libucrt:initialization.obj
 0004:000004a4       $pdata$__acrt_thread_detach 000000018001c4a4     libucrt:initialization.obj
 0004:000004b0       $pdata$__acrt_uninitialize 000000018001c4b0     libucrt:initialization.obj
 0004:000004bc       $pdata$__acrt_uninitialize_critical 000000018001c4bc     libucrt:initialization.obj
 0004:000004c8       $pdata$terminate           000000018001c4c8     libucrt:terminate.obj
 0004:000004d4       $pdata$_free_base          000000018001c4d4     libucrt:free_base.obj
 0004:000004e0       $pdata$_malloc_base        000000018001c4e0     libucrt:malloc_base.obj
 0004:000004ec       $pdata$strcpy_s            000000018001c4ec     libucrt:strcpy_s.obj
 0004:000004f8       $pdata$abort               000000018001c4f8     libucrt:abort.obj
 0004:00000504       $pdata$_calloc_base        000000018001c504     libucrt:calloc_base.obj
 0004:00000510       $pdata$?get_raw_ptd@__crt_cached_ptd_host@@QEAAPEAU__acrt_ptd@@XZ 000000018001c510     libucrt:output.obj
 0004:0000051c       $pdata$0$?get_raw_ptd@__crt_cached_ptd_host@@QEAAPEAU__acrt_ptd@@XZ 000000018001c51c     libucrt:output.obj
 0004:00000528       $pdata$1$?get_raw_ptd@__crt_cached_ptd_host@@QEAAPEAU__acrt_ptd@@XZ 000000018001c528     libucrt:output.obj
 0004:00000534       $pdata$?update_locale_slow@__crt_cached_ptd_host@@AEAAXXZ 000000018001c534     libucrt:output.obj
 0004:00000540       $pdata$??$?RV<lambda_0ae27a3a962d80f24befdcbee591983d>@@AEAV<lambda_8d0ee55de4b1038c4002e0adecdf1839>@@V<lambda_dc504788e8f1664fe9b84e20bfb512f2>@@@?$__crt_seh_guarded_call@X@@QEAAX$$QEAV<lambda_0ae27a3a962d80f24befdcbee591983d>@@AEAV<lambda_8d0ee55de4b1038c4002e0adecdf1839>@@$$QEAV<lambda_dc504788e8f1664fe9b84e20bfb512f2>@@@Z 000000018001c540     libucrt:per_thread_data.obj
 0004:0000054c       $pdata$??$?RV<lambda_2d41944a1d46af3157314b8a01080d33>@@AEAV<lambda_8f455de75cd7d7f24b4096f044d8b9e6>@@V<lambda_aa500f224e6afead328df44964fe2772>@@@?$__crt_seh_guarded_call@X@@QEAAX$$QEAV<lambda_2d41944a1d46af3157314b8a01080d33>@@AEAV<lambda_8f455de75cd7d7f24b4096f044d8b9e6>@@$$QEAV<lambda_aa500f224e6afead328df44964fe2772>@@@Z 000000018001c54c     libucrt:per_thread_data.obj
 0004:00000558       $pdata$??$?RV<lambda_aa87e3671a710a21b5dc78c0bdf72e11>@@AEAV<lambda_92619d2358a28f41a33ba319515a20b9>@@V<lambda_6992ecaafeb10aed2b74cb1fae11a551>@@@?$__crt_seh_guarded_call@X@@QEAAX$$QEAV<lambda_aa87e3671a710a21b5dc78c0bdf72e11>@@AEAV<lambda_92619d2358a28f41a33ba319515a20b9>@@$$QEAV<lambda_6992ecaafeb10aed2b74cb1fae11a551>@@@Z 000000018001c558     libucrt:per_thread_data.obj
 0004:00000564       $pdata$??$?RV<lambda_f2e299630e499de9f9a165e60fcd3db5>@@AEAV<lambda_2ae9d31cdba2644fcbeaf08da7c24588>@@V<lambda_40d01ff24d0e7b3814fdbdcee8eab3c7>@@@?$__crt_seh_guarded_call@X@@QEAAX$$QEAV<lambda_f2e299630e499de9f9a165e60fcd3db5>@@AEAV<lambda_2ae9d31cdba2644fcbeaf08da7c24588>@@$$QEAV<lambda_40d01ff24d0e7b3814fdbdcee8eab3c7>@@@Z 000000018001c564     libucrt:per_thread_data.obj
 0004:00000570       $pdata$?construct_ptd_array@@YAXQEAU__acrt_ptd@@@Z 000000018001c570     libucrt:per_thread_data.obj
 0004:0000057c       $pdata$?destroy_fls@@YAXPEAX@Z 000000018001c57c     libucrt:per_thread_data.obj
 0004:00000588       $pdata$?destroy_ptd_array@@YAXQEAU__acrt_ptd@@@Z 000000018001c588     libucrt:per_thread_data.obj
 0004:00000594       $pdata$?replace_current_thread_locale_nolock@@YAXQEAU__acrt_ptd@@QEAU__crt_locale_data@@@Z 000000018001c594     libucrt:per_thread_data.obj
 0004:000005a0       $pdata$__acrt_freeptd      000000018001c5a0     libucrt:per_thread_data.obj
 0004:000005ac       $pdata$__acrt_getptd       000000018001c5ac     libucrt:per_thread_data.obj
 0004:000005b8       $pdata$__acrt_getptd_head  000000018001c5b8     libucrt:per_thread_data.obj
 0004:000005c4       $pdata$__acrt_getptd_noexit 000000018001c5c4     libucrt:per_thread_data.obj
 0004:000005d0       $pdata$__acrt_getptd_noexit_explicit 000000018001c5d0     libucrt:per_thread_data.obj
 0004:000005dc       $pdata$__acrt_initialize_ptd 000000018001c5dc     libucrt:per_thread_data.obj
 0004:000005e8       $pdata$__acrt_uninitialize_ptd 000000018001c5e8     libucrt:per_thread_data.obj
 0004:000005f4       $pdata$__acrt_initialize_locks 000000018001c5f4     libucrt:locks.obj
 0004:00000600       $pdata$__acrt_uninitialize_locks 000000018001c600     libucrt:locks.obj
 0004:0000060c       $pdata$__acrt_get_process_end_policy 000000018001c60c     libucrt:win_policies.obj
 0004:00000618       $pdata$?get_raw_ptd_noexit@__crt_cached_ptd_host@@QEAAPEAU__acrt_ptd@@XZ 000000018001c618     libucrt:invalid_parameter.obj
 0004:00000624       $pdata$?value@?$dual_state_global@P6AXPEB_W00I_K@Z@__crt_state_management@@QEAAAEAP6AXPEB_W00I_K@ZAEAV__crt_cached_ptd_host@@@Z 000000018001c624     libucrt:invalid_parameter.obj
 0004:00000630       $pdata$__acrt_call_reportfault 000000018001c630     libucrt:invalid_parameter.obj
 0004:0000063c       $pdata$_invalid_parameter  000000018001c63c     libucrt:invalid_parameter.obj
 0004:00000648       $pdata$_invalid_parameter_internal 000000018001c648     libucrt:invalid_parameter.obj
 0004:00000654       $pdata$_invalid_parameter_noinfo 000000018001c654     libucrt:invalid_parameter.obj
 0004:00000660       $pdata$_invoke_watson      000000018001c660     libucrt:invalid_parameter.obj
 0004:0000066c       $pdata$__acrt_errno_map_os_error 000000018001c66c     libucrt:errno.obj
 0004:00000678       $pdata$__acrt_errno_map_os_error_ptd 000000018001c678     libucrt:errno.obj
 0004:00000684       $pdata$__doserrno          000000018001c684     libucrt:errno.obj
 0004:00000690       $pdata$_errno              000000018001c690     libucrt:errno.obj
 0004:0000069c       $pdata$??$__acrt_convert_wcs_mbs_cp@D_WV<lambda_7c9dea7b4ca7285d2cdb541a38da6275>@@U__crt_win32_buffer_internal_dynamic_resizing@@@@YAHQEBDAEAV?$__crt_win32_buffer@_WU__crt_win32_buffer_internal_dynamic_resizing@@@@AEBV<lambda_7c9dea7b4ca7285d2cdb541a38da6275>@@I@Z 000000018001c69c     libucrt:argv_wildcards.obj
 0004:000006a8       $pdata$??$__acrt_convert_wcs_mbs_cp@_WDV<lambda_d8593a27d1aa8c02be35c86a17d324c4>@@U__crt_win32_buffer_internal_dynamic_resizing@@@@YAHQEB_WAEAV?$__crt_win32_buffer@DU__crt_win32_buffer_internal_dynamic_resizing@@@@AEBV<lambda_d8593a27d1aa8c02be35c86a17d324c4>@@I@Z 000000018001c6a8     libucrt:argv_wildcards.obj
 0004:000006b4       $pdata$??$common_expand_argv_wildcards@D@@YAHQEAPEADQEAPEAPEAD@Z 000000018001c6b4     libucrt:argv_wildcards.obj
 0004:000006c0       $pdata$??$copy_and_add_argument_to_buffer@D@@YAHQEBD0_KAEAV?$argument_list@D@?A0x5f5c8891@@@Z 000000018001c6c0     libucrt:argv_wildcards.obj
 0004:000006cc       $pdata$??$expand_argument_wildcards@D@@YAHQEAD0AEAV?$argument_list@D@?A0x5f5c8891@@@Z 000000018001c6cc     libucrt:argv_wildcards.obj
 0004:000006d8       $pdata$??0_LocaleUpdate@@QEAA@QEAU__crt_locale_pointers@@@Z 000000018001c6d8     libucrt:argv_wildcards.obj
 0004:000006e4       $pdata$??$__acrt_convert_wcs_mbs_cp@_WDV<lambda_f788ae46380686e8b737efdd8c720d07>@@U__crt_win32_buffer_no_resizing@@@@YAHQEB_WAEAV?$__crt_win32_buffer@DU__crt_win32_buffer_no_resizing@@@@AEBV<lambda_f788ae46380686e8b737efdd8c720d07>@@I@Z 000000018001c6e4     libucrt:getmodulefilenamea.obj
 0004:000006f0       $pdata$__acrt_GetModuleFileNameA 000000018001c6f0     libucrt:getmodulefilenamea.obj
 0004:000006fc       $pdata$??$?RV<lambda_efdfa57d1f175319df784efa44bb7b81>@@AEAV<lambda_5f0a4c1567f8adc6734073e5d1e1b35c>@@V<lambda_2e8a7d3640ea6ccb4c2413664c2db6fd>@@@?$__crt_seh_guarded_call@X@@QEAAX$$QEAV<lambda_efdfa57d1f175319df784efa44bb7b81>@@AEAV<lambda_5f0a4c1567f8adc6734073e5d1e1b35c>@@$$QEAV<lambda_2e8a7d3640ea6ccb4c2413664c2db6fd>@@@Z 000000018001c6fc     libucrt:mbctype.obj
 0004:00000708       $pdata$?getSystemCP@@YAHH@Z 000000018001c708     libucrt:mbctype.obj
 0004:00000714       $pdata$?setSBCS@@YAXPEAU__crt_multibyte_data@@@Z 000000018001c714     libucrt:mbctype.obj
 0004:00000720       $pdata$?setSBUpLow@@YAXPEAU__crt_multibyte_data@@@Z 000000018001c720     libucrt:mbctype.obj
 0004:0000072c       $pdata$?setmbcp_internal@@YAHH_NQEAU__acrt_ptd@@QEAPEAU__crt_multibyte_data@@@Z 000000018001c72c     libucrt:mbctype.obj
 0004:00000738       $pdata$?update_thread_multibyte_data_internal@@YAPEAU__crt_multibyte_data@@QEAU__acrt_ptd@@QEAPEAU1@@Z 000000018001c738     libucrt:mbctype.obj
 0004:00000744       $pdata$__acrt_initialize_multibyte 000000018001c744     libucrt:mbctype.obj
 0004:00000750       $pdata$__acrt_update_thread_multibyte_data 000000018001c750     libucrt:mbctype.obj
 0004:0000075c       $pdata$_setmbcp_nolock     000000018001c75c     libucrt:mbctype.obj
 0004:00000768       $pdata$?x_ismbbtype_l@@YAHPEAU__crt_locale_pointers@@IHH@Z 000000018001c768     libucrt:ismbbyte.obj
 0004:00000774       $pdata$__acrt_initialize_command_line 000000018001c774     libucrt:argv_data.obj
 0004:00000780       $pdata$__acrt_WideCharToMultiByte 000000018001c780     libucrt:widechartomultibyte.obj
 0004:0000078c       $pdata$__dcrt_get_narrow_environment_from_os 000000018001c78c     libucrt:get_environment_from_os.obj
 0004:00000798       $pdata$_recalloc_base      000000018001c798     libucrt:recalloc.obj
 0004:000007a4       $pdata$?try_get_function@@YAPEAXW4function_id@?A0x391cf84c@@QEBDQEBW4module_id@2@2@Z 000000018001c7a4     libucrt:winapi_thunks.obj
 0004:000007b0       $pdata$__acrt_AppPolicyGetProcessTerminationMethodInternal 000000018001c7b0     libucrt:winapi_thunks.obj
 0004:000007bc       $pdata$__acrt_AreFileApisANSI 000000018001c7bc     libucrt:winapi_thunks.obj
 0004:000007c8       $pdata$__acrt_InitializeCriticalSectionEx 000000018001c7c8     libucrt:winapi_thunks.obj
 0004:000007d4       $pdata$__acrt_LCMapStringEx 000000018001c7d4     libucrt:winapi_thunks.obj
 0004:000007e0       $pdata$__acrt_LocaleNameToLCID 000000018001c7e0     libucrt:winapi_thunks.obj
 0004:000007ec       $pdata$__acrt_initialize_winapi_thunks 000000018001c7ec     libucrt:winapi_thunks.obj
 0004:000007f8       $pdata$__acrt_uninitialize_winapi_thunks 000000018001c7f8     libucrt:winapi_thunks.obj
 0004:00000804       $pdata$__acrt_initialize_heap 000000018001c804     libucrt:heap_handle.obj
 0004:00000810       $pdata$?initialize_inherited_file_handles_nolock@@YAXXZ 000000018001c810     libucrt:ioinit.obj
 0004:0000081c       $pdata$?initialize_stdio_handles_nolock@@YAXXZ 000000018001c81c     libucrt:ioinit.obj
 0004:00000828       $pdata$__acrt_initialize_lowio 000000018001c828     libucrt:ioinit.obj
 0004:00000834       $pdata$__acrt_uninitialize_lowio 000000018001c834     libucrt:ioinit.obj
 0004:00000840       $pdata$__acrt_execute_initializers 000000018001c840     libucrt:shared_initialization.obj
 0004:0000084c       $pdata$__acrt_execute_uninitializers 000000018001c84c     libucrt:shared_initialization.obj
 0004:00000858       $pdata$_callnewh           000000018001c858     libucrt:new_handler.obj
 0004:00000864       $pdata$_query_new_handler  000000018001c864     libucrt:new_handler.obj
 0004:00000870       $pdata$??$?RV<lambda_450d765d439847d4c735a33c368b5fc0>@@AEAV<lambda_44731a7d0e6d81c3e6aa82d741081786>@@V<lambda_601a2a7da3b7a96e9554ac7215c4b07c>@@@?$__crt_seh_guarded_call@P6AXH@Z@@QEAAP6AXH@Z$$QEAV<lambda_450d765d439847d4c735a33c368b5fc0>@@AEAV<lambda_44731a7d0e6d81c3e6aa82d741081786>@@$$QEAV<lambda_601a2a7da3b7a96e9554ac7215c4b07c>@@@Z 000000018001c870     libucrt:signal.obj
 0004:0000087c       $pdata$__acrt_get_sigabrt_handler 000000018001c87c     libucrt:signal.obj
 0004:00000888       $pdata$raise               000000018001c888     libucrt:signal.obj
 0004:00000894       $pdata$??$?RV<lambda_842d9ff0dc9ef11c61343bbaebe7f885>@@AEAV<lambda_c5860995281e5c4ce005b3de8f5874ee>@@V<lambda_d90129c13df834fdcbf8d2b88dafcf2d>@@@?$__crt_seh_guarded_call@X@@QEAAX$$QEAV<lambda_842d9ff0dc9ef11c61343bbaebe7f885>@@AEAV<lambda_c5860995281e5c4ce005b3de8f5874ee>@@$$QEAV<lambda_d90129c13df834fdcbf8d2b88dafcf2d>@@@Z 000000018001c894     libucrt:fflush.obj
 0004:000008a0       $pdata$??$?RV<lambda_886d6c58226a84441f68b9f2b8217b83>@@AEAV<lambda_ab61a845afdef5b7c387490eaf3616ee>@@V<lambda_f7f22ab5edc0698d5f6905b0d3f44752>@@@?$__crt_seh_guarded_call@X@@QEAAX$$QEAV<lambda_886d6c58226a84441f68b9f2b8217b83>@@AEAV<lambda_ab61a845afdef5b7c387490eaf3616ee>@@$$QEAV<lambda_f7f22ab5edc0698d5f6905b0d3f44752>@@@Z 000000018001c8a0     libucrt:fflush.obj
 0004:000008ac       $pdata$?common_flush_all@@YAH_N@Z 000000018001c8ac     libucrt:fflush.obj
 0004:000008b8       $pdata$__acrt_stdio_flush_nolock 000000018001c8b8     libucrt:fflush.obj
 0004:000008c4       $pdata$_fflush_nolock      000000018001c8c4     libucrt:fflush.obj
 0004:000008d0       $pdata$__acrt_initialize_stdio 000000018001c8d0     libucrt:_file.obj
 0004:000008dc       $pdata$__acrt_uninitialize_stdio 000000018001c8dc     libucrt:_file.obj
 0004:000008e8       $pdata$__acrt_update_locale_info 000000018001c8e8     libucrt:locale_update.obj
 0004:000008f4       $pdata$__acrt_update_locale_info_explicit 000000018001c8f4     libucrt:locale_update.obj
 0004:00000900       $pdata$__acrt_update_multibyte_info 000000018001c900     libucrt:locale_update.obj
 0004:0000090c       $pdata$__acrt_update_multibyte_info_explicit 000000018001c90c     libucrt:locale_update.obj
 0004:00000918       $pdata$_mbtowc_internal    000000018001c918     libucrt:mbtowc.obj
 0004:00000924       $pdata$_fileno             000000018001c924     libucrt:fileno.obj
 0004:00000930       $pdata$??$?RV<lambda_410d79af7f07d98d83a3f525b3859a53>@@AEAV<lambda_3e16ef9562a7dcce91392c22ab16ea36>@@V<lambda_38119f0e861e05405d8a144b9b982f0a>@@@?$__crt_seh_guarded_call@X@@QEAAX$$QEAV<lambda_410d79af7f07d98d83a3f525b3859a53>@@AEAV<lambda_3e16ef9562a7dcce91392c22ab16ea36>@@$$QEAV<lambda_38119f0e861e05405d8a144b9b982f0a>@@@Z 000000018001c930     libucrt:wsetlocale.obj
 0004:0000093c       $pdata$__acrt_uninitialize_locale 000000018001c93c     libucrt:wsetlocale.obj
 0004:00000948       $pdata$__acrt_free_locale  000000018001c948     libucrt:locale_refcounting.obj
 0004:00000954       $pdata$__acrt_locale_free_lc_time_if_unreferenced 000000018001c954     libucrt:locale_refcounting.obj
 0004:00000960       $pdata$__acrt_release_locale_ref 000000018001c960     libucrt:locale_refcounting.obj
 0004:0000096c       $pdata$__acrt_update_thread_locale_data 000000018001c96c     libucrt:locale_refcounting.obj
 0004:00000978       $pdata$_updatetlocinfoEx_nolock 000000018001c978     libucrt:locale_refcounting.obj
 0004:00000984       $pdata$qsort               000000018001c984     libucrt:qsort.obj
 0004:00000990       $pdata$4$qsort             000000018001c990     libucrt:qsort.obj
 0004:0000099c       $pdata$5$qsort             000000018001c99c     libucrt:qsort.obj
 0004:000009a8       $pdata$strncpy_s           000000018001c9a8     libucrt:strncpy_s.obj
 0004:000009b4       $pdata$fallbackMethod      000000018001c9b4     libucrt:strpbrk.obj
 0004:000009c0       $pdata$strpbrk             000000018001c9c0     libucrt:strpbrk.obj
 0004:000009cc       $pdata$_mbsdec_l           000000018001c9cc     libucrt:mbsdec.obj
 0004:000009d8       $pdata$?initialize_multibyte@@YAHXZ 000000018001c9d8     libucrt:multibyte_initializer.obj
 0004:000009e4       $pdata$__acrt_GetStringTypeA 000000018001c9e4     libucrt:getstringtypea.obj
 0004:000009f0       $pdata$?__acrt_LCMapStringA_stat@@YAHPEAU__crt_locale_pointers@@PEB_WKPEBDHPEADHHH@Z 000000018001c9f0     libucrt:lcmapstringa.obj
 0004:000009fc       $pdata$__acrt_LCMapStringA 000000018001c9fc     libucrt:lcmapstringa.obj
 0004:00000a08       $pdata$_msize_base         000000018001ca08     libucrt:msize.obj
 0004:00000a14       $pdata$_realloc_base       000000018001ca14     libucrt:realloc_base.obj
 0004:00000a20       $pdata$__acrt_DownlevelLocaleNameToLCID 000000018001ca20     libucrt:lcidtoname_downlevel.obj
 0004:00000a2c       $pdata$__acrt_lowio_create_handle_array 000000018001ca2c     libucrt:osfinfo.obj
 0004:00000a38       $pdata$__acrt_lowio_destroy_handle_array 000000018001ca38     libucrt:osfinfo.obj
 0004:00000a44       $pdata$__acrt_lowio_ensure_fh_exists 000000018001ca44     libucrt:osfinfo.obj
 0004:00000a50       $pdata$_free_osfhnd        000000018001ca50     libucrt:osfinfo.obj
 0004:00000a5c       $pdata$_get_osfhandle      000000018001ca5c     libucrt:osfinfo.obj
 0004:00000a68       $pdata$??$?RV<lambda_a37b2b86f63e897a80ea819b0eb08c01>@@AEAV<lambda_38ce7e780aa69e748d6df282ebc68efe>@@V<lambda_99fb1378e971ab6e7edea83e3a7a83a2>@@@?$__crt_seh_guarded_call@H@@QEAAH$$QEAV<lambda_a37b2b86f63e897a80ea819b0eb08c01>@@AEAV<lambda_38ce7e780aa69e748d6df282ebc68efe>@@$$QEAV<lambda_99fb1378e971ab6e7edea83e3a7a83a2>@@@Z 000000018001ca68     libucrt:commit.obj
 0004:00000a74       $pdata$_commit             000000018001ca74     libucrt:commit.obj
 0004:00000a80       $pdata$?write_double_translated_ansi_nolock@@YA?AUwrite_result@?A0x17268360@@HQEBDIAEAV__crt_cached_ptd_host@@@Z 000000018001ca80     libucrt:write.obj
 0004:00000a8c       $pdata$?write_text_ansi_nolock@@YA?AUwrite_result@?A0x17268360@@HQEBDI@Z 000000018001ca8c     libucrt:write.obj
 0004:00000a98       $pdata$?write_text_utf16le_nolock@@YA?AUwrite_result@?A0x17268360@@HQEBDI@Z 000000018001ca98     libucrt:write.obj
 0004:00000aa4       $pdata$?write_text_utf8_nolock@@YA?AUwrite_result@?A0x17268360@@HQEBDI@Z 000000018001caa4     libucrt:write.obj
 0004:00000ab0       $pdata$_write_internal     000000018001cab0     libucrt:write.obj
 0004:00000abc       $pdata$_write_nolock       000000018001cabc     libucrt:write.obj
 0004:00000ac8       $pdata$_fcloseall          000000018001cac8     libucrt:closeall.obj
 0004:00000ad4       $pdata$__acrt_stdio_free_buffer_nolock 000000018001cad4     libucrt:_freebuf.obj
 0004:00000ae0       $pdata$_isatty             000000018001cae0     libucrt:isatty.obj
 0004:00000aec       $pdata$?__mbrtowc_utf8@__crt_mbstring@@YA_KPEA_WPEBD_KPEAU_Mbstatet@@AEAV__crt_cached_ptd_host@@@Z 000000018001caec     libucrt:mbrtowc.obj
 0004:00000af8       $pdata$?__mbsrtowcs_utf8@__crt_mbstring@@YA_KPEA_WPEAPEBD_KPEAU_Mbstatet@@AEAV__crt_cached_ptd_host@@@Z 000000018001caf8     libucrt:mbrtowc.obj
 0004:00000b04       $pdata$__acrt_locale_free_monetary 000000018001cb04     libucrt:initmon.obj
 0004:00000b10       $pdata$__acrt_locale_free_numeric 000000018001cb10     libucrt:initnum.obj
 0004:00000b1c       $pdata$?free_crt_array_internal@@YAXQEAPEBX_K@Z 000000018001cb1c     libucrt:inittime.obj
 0004:00000b28       $pdata$__acrt_locale_free_time 000000018001cb28     libucrt:inittime.obj
 0004:00000b34       $pdata$??$common_lseek_nolock@_J@@YA_JH_JHAEAV__crt_cached_ptd_host@@@Z 000000018001cb34     libucrt:lseek.obj
 0004:00000b40       $pdata$_putwch_nolock      000000018001cb40     libucrt:putwch.obj
 0004:00000b4c       $pdata$?_fclose_internal@@YAHQEAU_iobuf@@AEAV__crt_cached_ptd_host@@@Z 000000018001cb4c     libucrt:fclose.obj
 0004:00000b58       $pdata$?_fclose_nolock_internal@@YAHQEAU_iobuf@@AEAV__crt_cached_ptd_host@@@Z 000000018001cb58     libucrt:fclose.obj
 0004:00000b64       $pdata$fclose              000000018001cb64     libucrt:fclose.obj
 0004:00000b7c       $pdata$?__mbrtoc32_utf8@__crt_mbstring@@YA_KPEA_UPEBD_KPEAU_Mbstatet@@AEAV__crt_cached_ptd_host@@@Z 000000018001cb7c     libucrt:mbrtoc32.obj
 0004:00000b88       $pdata$__dcrt_lowio_ensure_console_output_initialized 000000018001cb88     libucrt:initcon.obj
 0004:00000b94       $pdata$__dcrt_terminate_console_output 000000018001cb94     libucrt:initcon.obj
 0004:00000ba0       $pdata$__dcrt_write_console 000000018001cba0     libucrt:initcon.obj
 0004:00000bac       $pdata$??$?RV<lambda_ad8af0d99a0adf03d037d7dffe354bb5>@@AEAV<lambda_c9ba49e555ba839a7b07aa3fbecb7617>@@V<lambda_2f1ebd5d68526518146ae959c9e734c8>@@@?$__crt_seh_guarded_call@H@@QEAAH$$QEAV<lambda_ad8af0d99a0adf03d037d7dffe354bb5>@@AEAV<lambda_c9ba49e555ba839a7b07aa3fbecb7617>@@$$QEAV<lambda_2f1ebd5d68526518146ae959c9e734c8>@@@Z 000000018001cbac     libucrt:close.obj
 0004:00000bb8       $pdata$_close_internal     000000018001cbb8     libucrt:close.obj
 0004:00000bc4       $pdata$_close_nolock_internal 000000018001cbc4     libucrt:close.obj
 0004:00000bd0       $pdata$_call_matherr       000000018001cbd0     libucrt:libm_error.obj
 0004:00000bdc       $pdata$_exception_enabled  000000018001cbdc     libucrt:libm_error.obj
 0004:00000be8       $pdata$_handle_error       000000018001cbe8     libucrt:libm_error.obj
 0004:00000bf4       $pdata$__acrt_initialize_fma3 000000018001cbf4     libucrt:fma3_available.obj
 0004:00000c00       $pdata$_log10_special      000000018001cc00     libucrt:log_special.obj
 0004:00000c0c       $pdata$_log_special_common 000000018001cc0c     libucrt:log_special.obj
 0004:00000c24       $pdata$_raise_exc          000000018001cc24     libucrt:fpexcept.obj
 0004:00000c30       $pdata$_raise_exc_ex       000000018001cc30     libucrt:fpexcept.obj
 0004:00000c3c       $pdata$_set_errno_from_matherr 000000018001cc3c     libucrt:fpexcept.obj
 0004:00000c48       $pdata$_clrfp              000000018001cc48     libucrt:fpctrl.obj
 0004:00000c54       $pdata$_ctrlfp             000000018001cc54     libucrt:fpctrl.obj
 0004:00000c60       $pdata$_set_statfp         000000018001cc60     libucrt:fpctrl.obj
 0004:00000c6c       $pdata$_statfp             000000018001cc6c     libucrt:fpctrl.obj
 0004:00000c78       $pdata$_IsNonwritableInCurrentImage 000000018001cc78     LIBCMT:pesect.obj
 0004:00000c84       $pdata$__GSHandlerCheck    000000018001cc84     LIBCMT:_gshandler_.obj
 0004:00000c90       $pdata$__GSHandlerCheckCommon 000000018001cc90     LIBCMT:_gshandler_.obj
 0004:00000c9c       $pdata$??_Gtype_info@@UEAAPEAXI@Z 000000018001cc9c     LIBCMT:std_type_info_static.obj
 0004:00000cb4       $pdata$__GSHandlerCheck_EH 000000018001ccb4     LIBCMT:gshandlereh.obj
 0004:00000cc0       $pdata$__DestructExceptionObject 000000018001ccc0     libvcruntime:frame.obj
 0004:00000ccc       $pdata$??0bad_exception@std@@QEAA@AEBV01@@Z 000000018001cccc     libvcruntime:frame.obj
 0004:00000cd8       $pdata$??0exception@std@@QEAA@AEBV01@@Z 000000018001ccd8     libvcruntime:frame.obj
 0004:00000ce4       $pdata$??_Gexception@std@@UEAAPEAXI@Z 000000018001cce4     libvcruntime:frame.obj
 0004:00000ce4       $pdata$??_Gbad_exception@std@@UEAAPEAXI@Z 000000018001cce4     libvcruntime:frame.obj
 0004:00000cf0       $pdata$?CatchIt@@YAXPEAUEHExceptionRecord@@PEA_KPEAU_CONTEXT@@PEAU_xDISPATCHER_CONTEXT@@PEBU_s_FuncInfo@@PEBU_s_HandlerType@@PEBU_s_CatchableType@@PEBU_s_TryBlockMapEntry@@H1EE@Z 000000018001ccf0     libvcruntime:frame.obj
 0004:00000cfc       $pdata$?ExFilterRethrow@@YAHPEAU_EXCEPTION_POINTERS@@PEAUEHExceptionRecord@@PEAH@Z 000000018001ccfc     libvcruntime:frame.obj
 0004:00000d08       $pdata$?FindHandler@@YAXPEAUEHExceptionRecord@@PEA_KPEAU_CONTEXT@@PEAU_xDISPATCHER_CONTEXT@@PEBU_s_FuncInfo@@EH1@Z 000000018001cd08     libvcruntime:frame.obj
 0004:00000d14       $pdata$?FindHandlerForForeignException@@YAXPEAUEHExceptionRecord@@PEA_KPEAU_CONTEXT@@PEAU_xDISPATCHER_CONTEXT@@PEBU_s_FuncInfo@@HH1@Z 000000018001cd14     libvcruntime:frame.obj
 0004:00000d20       $pdata$?IsInExceptionSpec@@YAEPEAUEHExceptionRecord@@PEBU_s_ESTypeList@@@Z 000000018001cd20     libvcruntime:frame.obj
 0004:00000d2c       $pdata$__BuildCatchObject  000000018001cd2c     libvcruntime:frame.obj
 0004:00000d38       $pdata$__BuildCatchObjectHelper 000000018001cd38     libvcruntime:frame.obj
 0004:00000d44       $pdata$__CxxCallCatchBlock 000000018001cd44     libvcruntime:frame.obj
 0004:00000d50       $pdata$__FrameUnwindFilter 000000018001cd50     libvcruntime:frame.obj
 0004:00000d5c       $pdata$__FrameUnwindToState 000000018001cd5c     libvcruntime:frame.obj
 0004:00000d68       $pdata$__InternalCxxFrameHandler 000000018001cd68     libvcruntime:frame.obj
 0004:00000d74       $pdata$__TypeMatch         000000018001cd74     libvcruntime:frame.obj
 0004:00000d80       $pdata$__std_terminate     000000018001cd80     libvcruntime:frame.obj
 0004:00000d8c       $pdata$?_ExecutionInCatch@@YAHPEAU_xDISPATCHER_CONTEXT@@PEBU_s_FuncInfo@@@Z 000000018001cd8c     libvcruntime:trnsctrl.obj
 0004:00000d98       $pdata$?_GetEstablisherFrame@@YAPEA_KPEA_KPEAU_xDISPATCHER_CONTEXT@@PEBU_s_FuncInfo@@0@Z 000000018001cd98     libvcruntime:trnsctrl.obj
 0004:00000da4       $pdata$?_GetRangeOfTrysToCheck@@YAPEBU_s_TryBlockMapEntry@@PEA_KPEBU_s_FuncInfo@@HHPEAI2PEAU_xDISPATCHER_CONTEXT@@@Z 000000018001cda4     libvcruntime:trnsctrl.obj
 0004:00000db0       $pdata$?__FrameUnwindToEmptyState@@YAXPEA_KPEAU_xDISPATCHER_CONTEXT@@PEBU_s_FuncInfo@@@Z 000000018001cdb0     libvcruntime:trnsctrl.obj
 0004:00000dbc       $pdata$?__SehTransFilter@@YAHPEAU_EXCEPTION_POINTERS@@PEAUEHExceptionRecord@@PEA_KPEAU_CONTEXT@@PEAU_xDISPATCHER_CONTEXT@@PEBU_s_FuncInfo@@PEAH@Z 000000018001cdbc     libvcruntime:trnsctrl.obj
 0004:00000dc8       $pdata$_CallSETranslator   000000018001cdc8     libvcruntime:trnsctrl.obj
 0004:00000dd4       $pdata$_CreateFrameInfo    000000018001cdd4     libvcruntime:trnsctrl.obj
 0004:00000de0       $pdata$_FindAndUnlinkFrame 000000018001cde0     libvcruntime:trnsctrl.obj
 0004:00000dec       $pdata$_GetImageBase       000000018001cdec     libvcruntime:trnsctrl.obj
 0004:00000df8       $pdata$_GetThrowImageBase  000000018001cdf8     libvcruntime:trnsctrl.obj
 0004:00000e04       $pdata$_IsExceptionObjectToBeDestroyed 000000018001ce04     libvcruntime:trnsctrl.obj
 0004:00000e10       $pdata$_SetImageBase       000000018001ce10     libvcruntime:trnsctrl.obj
 0004:00000e1c       $pdata$_SetThrowImageBase  000000018001ce1c     libvcruntime:trnsctrl.obj
 0004:00000e28       $pdata$_UnwindNestedFrames 000000018001ce28     libvcruntime:trnsctrl.obj
 0004:00000e34       $pdata$__CxxFrameHandler3  000000018001ce34     libvcruntime:trnsctrl.obj
 0004:00000e40       $pdata$__C_specific_handler_noexcept 000000018001ce40     libvcruntime:chandler_noexcept.obj
 0004:00000e64       $pdata$?__GetCurrentState@@YAHPEA_KPEAU_xDISPATCHER_CONTEXT@@PEBU_s_FuncInfo@@@Z 000000018001ce64     libvcruntime:ehstate.obj
 0004:00000e70       $pdata$?__GetUnwindTryBlock@@YAHPEA_KPEAU_xDISPATCHER_CONTEXT@@PEBU_s_FuncInfo@@@Z 000000018001ce70     libvcruntime:ehstate.obj
 0004:00000e7c       $pdata$?__SetUnwindTryBlock@@YAXPEA_KPEAU_xDISPATCHER_CONTEXT@@PEBU_s_FuncInfo@@H@Z 000000018001ce7c     libvcruntime:ehstate.obj
 0004:00000e88       $pdata$?__StateFromIp@@YAHPEBU_s_FuncInfo@@PEAU_xDISPATCHER_CONTEXT@@_J@Z 000000018001ce88     libvcruntime:ehstate.obj
 0004:00000ea0       $pdata$__std_exception_copy 000000018001cea0     libvcruntime:std_exception.obj
 0004:00000eac       $pdata$__std_exception_destroy 000000018001ceac     libvcruntime:std_exception.obj
 0004:00000eb8       $pdata$_CxxThrowException  000000018001ceb8     libvcruntime:throw.obj
 0004:00000edc       $pdata$?fin$0@?0??dllmain_crt_process_attach@@YAHQEAUHINSTANCE__@@QEAX@Z@4HA 000000018001cedc     LIBCMT:dll_dllmain.obj
 0004:00000ee8       $pdata$?fin$0@?0??dllmain_crt_process_detach@@YAH_N@Z@4HA 000000018001cee8     LIBCMT:dll_dllmain.obj
 0004:00000ef4       $pdata$?filt$0@?0??dllmain_dispatch@@YAHQEAUHINSTANCE__@@KQEAX@Z@4HA 000000018001cef4     LIBCMT:dll_dllmain.obj
 0004:00000f00       $pdata$__scrt_is_nonwritable_in_current_image$filt$0 000000018001cf00     LIBCMT:utility.obj
 0004:00000f0c       $pdata$?filt$0@?0???R<lambda_6e4b09c48022b2350581041d5f6b0c4c>@@QEBA@XZ@4HA 000000018001cf0c     libucrt:exit.obj
 0004:00000f18       $pdata$?fin$0@?0???$?RV<lambda_aa87e3671a710a21b5dc78c0bdf72e11>@@AEAV<lambda_92619d2358a28f41a33ba319515a20b9>@@V<lambda_6992ecaafeb10aed2b74cb1fae11a551>@@@?$__crt_seh_guarded_call@X@@QEAAX$$QEAV<lambda_aa87e3671a710a21b5dc78c0bdf72e11>@@AEAV<lambda_92619d2358a28f41a33ba319515a20b9>@@$$QEAV<lambda_6992ecaafeb10aed2b74cb1fae11a551>@@@Z@4HA 000000018001cf18     libucrt:per_thread_data.obj
 0004:00000f18       $pdata$?fin$0@?0???$?RV<lambda_450d765d439847d4c735a33c368b5fc0>@@AEAV<lambda_44731a7d0e6d81c3e6aa82d741081786>@@V<lambda_601a2a7da3b7a96e9554ac7215c4b07c>@@@?$__crt_seh_guarded_call@P6AXH@Z@@QEAAP6AXH@Z$$QEAV<lambda_450d765d439847d4c735a33c368b5fc0>@@AEAV<lambda_44731a7d0e6d81c3e6aa82d741081786>@@$$QEAV<lambda_601a2a7da3b7a96e9554ac7215c4b07c>@@@Z@4HA 000000018001cf18     libucrt:signal.obj
 0004:00000f18       $pdata$?fin$0@?0???$?RV<lambda_f2e299630e499de9f9a165e60fcd3db5>@@AEAV<lambda_2ae9d31cdba2644fcbeaf08da7c24588>@@V<lambda_40d01ff24d0e7b3814fdbdcee8eab3c7>@@@?$__crt_seh_guarded_call@X@@QEAAX$$QEAV<lambda_f2e299630e499de9f9a165e60fcd3db5>@@AEAV<lambda_2ae9d31cdba2644fcbeaf08da7c24588>@@$$QEAV<lambda_40d01ff24d0e7b3814fdbdcee8eab3c7>@@@Z@4HA 000000018001cf18     libucrt:per_thread_data.obj
 0004:00000f18       $pdata$?fin$0@?0???$?RV<lambda_7777bce6b2f8c936911f934f8298dc43>@@AEAV<lambda_f03950bc5685219e0bcd2087efbe011e>@@V<lambda_3883c3dff614d5e0c5f61bb1ac94921c>@@@?$__crt_seh_guarded_call@H@@QEAAH$$QEAV<lambda_7777bce6b2f8c936911f934f8298dc43>@@AEAV<lambda_f03950bc5685219e0bcd2087efbe011e>@@$$QEAV<lambda_3883c3dff614d5e0c5f61bb1ac94921c>@@@Z@4HA 000000018001cf18     libucrt:onexit.obj
 0004:00000f18       $pdata$?fin$0@?0???$?RV<lambda_0ae27a3a962d80f24befdcbee591983d>@@AEAV<lambda_8d0ee55de4b1038c4002e0adecdf1839>@@V<lambda_dc504788e8f1664fe9b84e20bfb512f2>@@@?$__crt_seh_guarded_call@X@@QEAAX$$QEAV<lambda_0ae27a3a962d80f24befdcbee591983d>@@AEAV<lambda_8d0ee55de4b1038c4002e0adecdf1839>@@$$QEAV<lambda_dc504788e8f1664fe9b84e20bfb512f2>@@@Z@4HA 000000018001cf18     libucrt:per_thread_data.obj
 0004:00000f18       $pdata$?fin$0@?0???$?RV<lambda_2d41944a1d46af3157314b8a01080d33>@@AEAV<lambda_8f455de75cd7d7f24b4096f044d8b9e6>@@V<lambda_aa500f224e6afead328df44964fe2772>@@@?$__crt_seh_guarded_call@X@@QEAAX$$QEAV<lambda_2d41944a1d46af3157314b8a01080d33>@@AEAV<lambda_8f455de75cd7d7f24b4096f044d8b9e6>@@$$QEAV<lambda_aa500f224e6afead328df44964fe2772>@@@Z@4HA 000000018001cf18     libucrt:per_thread_data.obj
 0004:00000f18       $pdata$?fin$0@?0???$?RV<lambda_d80eeec6fff315bfe5c115232f3240e3>@@AEAV<lambda_6e4b09c48022b2350581041d5f6b0c4c>@@V<lambda_2358e3775559c9db80273638284d5e45>@@@?$__crt_seh_guarded_call@X@@QEAAX$$QEAV<lambda_d80eeec6fff315bfe5c115232f3240e3>@@AEAV<lambda_6e4b09c48022b2350581041d5f6b0c4c>@@$$QEAV<lambda_2358e3775559c9db80273638284d5e45>@@@Z@4HA 000000018001cf18     libucrt:exit.obj
 0004:00000f18       $pdata$?fin$0@?0???$?RV<lambda_638799b9deba96c50f710eeac98168cd>@@AEAV<lambda_22ebabd17bc4fa466a2aca6d8deb888d>@@V<lambda_a6f7d7db0129f75315ebf26d50c089f1>@@@?$__crt_seh_guarded_call@H@@QEAAH$$QEAV<lambda_638799b9deba96c50f710eeac98168cd>@@AEAV<lambda_22ebabd17bc4fa466a2aca6d8deb888d>@@$$QEAV<lambda_a6f7d7db0129f75315ebf26d50c089f1>@@@Z@4HA 000000018001cf18     libucrt:onexit.obj
 0004:00000f24       $pdata$?fin$0@?0???$?RV<lambda_efdfa57d1f175319df784efa44bb7b81>@@AEAV<lambda_5f0a4c1567f8adc6734073e5d1e1b35c>@@V<lambda_2e8a7d3640ea6ccb4c2413664c2db6fd>@@@?$__crt_seh_guarded_call@X@@QEAAX$$QEAV<lambda_efdfa57d1f175319df784efa44bb7b81>@@AEAV<lambda_5f0a4c1567f8adc6734073e5d1e1b35c>@@$$QEAV<lambda_2e8a7d3640ea6ccb4c2413664c2db6fd>@@@Z@4HA 000000018001cf24     libucrt:mbctype.obj
 0004:00000f30       $pdata$?fin$0@?0??update_thread_multibyte_data_internal@@YAPEAU__crt_multibyte_data@@QEAU__acrt_ptd@@QEAPEAU1@@Z@4HA 000000018001cf30     libucrt:mbctype.obj
 0004:00000f3c       $pdata$__acrt_lowio_ensure_fh_exists$fin$0 000000018001cf3c     libucrt:osfinfo.obj
 0004:00000f3c       $pdata$__acrt_initialize_lowio$fin$0 000000018001cf3c     libucrt:ioinit.obj
 0004:00000f48       $pdata$_query_new_handler$fin$0 000000018001cf48     libucrt:new_handler.obj
 0004:00000f54       $pdata$raise$fin$0         000000018001cf54     libucrt:signal.obj
 0004:00000f60       $pdata$?fin$0@?0???$?RV<lambda_842d9ff0dc9ef11c61343bbaebe7f885>@@AEAV<lambda_c5860995281e5c4ce005b3de8f5874ee>@@V<lambda_d90129c13df834fdcbf8d2b88dafcf2d>@@@?$__crt_seh_guarded_call@X@@QEAAX$$QEAV<lambda_842d9ff0dc9ef11c61343bbaebe7f885>@@AEAV<lambda_c5860995281e5c4ce005b3de8f5874ee>@@$$QEAV<lambda_d90129c13df834fdcbf8d2b88dafcf2d>@@@Z@4HA 000000018001cf60     libucrt:fflush.obj
 0004:00000f6c       $pdata$?fin$0@?0???$?RV<lambda_886d6c58226a84441f68b9f2b8217b83>@@AEAV<lambda_ab61a845afdef5b7c387490eaf3616ee>@@V<lambda_f7f22ab5edc0698d5f6905b0d3f44752>@@@?$__crt_seh_guarded_call@X@@QEAAX$$QEAV<lambda_886d6c58226a84441f68b9f2b8217b83>@@AEAV<lambda_ab61a845afdef5b7c387490eaf3616ee>@@$$QEAV<lambda_f7f22ab5edc0698d5f6905b0d3f44752>@@@Z@4HA 000000018001cf6c     libucrt:fflush.obj
 0004:00000f78       $pdata$?fin$0@?0???$?RV<lambda_410d79af7f07d98d83a3f525b3859a53>@@AEAV<lambda_3e16ef9562a7dcce91392c22ab16ea36>@@V<lambda_38119f0e861e05405d8a144b9b982f0a>@@@?$__crt_seh_guarded_call@X@@QEAAX$$QEAV<lambda_410d79af7f07d98d83a3f525b3859a53>@@AEAV<lambda_3e16ef9562a7dcce91392c22ab16ea36>@@$$QEAV<lambda_38119f0e861e05405d8a144b9b982f0a>@@@Z@4HA 000000018001cf78     libucrt:wsetlocale.obj
 0004:00000f84       $pdata$__acrt_update_thread_locale_data$fin$0 000000018001cf84     libucrt:locale_refcounting.obj
 0004:00000f90       $pdata$?fin$0@?0???$?RV<lambda_a37b2b86f63e897a80ea819b0eb08c01>@@AEAV<lambda_38ce7e780aa69e748d6df282ebc68efe>@@V<lambda_99fb1378e971ab6e7edea83e3a7a83a2>@@@?$__crt_seh_guarded_call@H@@QEAAH$$QEAV<lambda_a37b2b86f63e897a80ea819b0eb08c01>@@AEAV<lambda_38ce7e780aa69e748d6df282ebc68efe>@@$$QEAV<lambda_99fb1378e971ab6e7edea83e3a7a83a2>@@@Z@4HA 000000018001cf90     libucrt:commit.obj
 0004:00000f90       $pdata$?fin$0@?0???$?RV<lambda_ad8af0d99a0adf03d037d7dffe354bb5>@@AEAV<lambda_c9ba49e555ba839a7b07aa3fbecb7617>@@V<lambda_2f1ebd5d68526518146ae959c9e734c8>@@@?$__crt_seh_guarded_call@H@@QEAAH$$QEAV<lambda_ad8af0d99a0adf03d037d7dffe354bb5>@@AEAV<lambda_c9ba49e555ba839a7b07aa3fbecb7617>@@$$QEAV<lambda_2f1ebd5d68526518146ae959c9e734c8>@@@Z@4HA 000000018001cf90     libucrt:close.obj
 0004:00000f9c       $pdata$_write_internal$fin$0 000000018001cf9c     libucrt:write.obj
 0004:00000fa8       $pdata$_fcloseall$fin$0    000000018001cfa8     libucrt:closeall.obj
 0004:00000fb4       $pdata$?fin$0@?0??_fclose_internal@@YAHQEAU_iobuf@@AEAV__crt_cached_ptd_host@@@Z@4HA 000000018001cfb4     libucrt:fclose.obj
 0004:00000fc0       $pdata$_ctrlfp$filt$0      000000018001cfc0     libucrt:fpctrl.obj
 0004:00000fcc       $pdata$_IsNonwritableInCurrentImage$filt$0 000000018001cfcc     LIBCMT:pesect.obj
 0004:00000fd8       $pdata$__CxxCallCatchBlock$filt$0 000000018001cfd8     libvcruntime:frame.obj
 0004:00000fe4       $pdata$__CxxCallCatchBlock$fin$1 000000018001cfe4     libvcruntime:frame.obj
 0004:00000ff0       $pdata$__DestructExceptionObject$filt$0 000000018001cff0     libvcruntime:frame.obj
 0004:00000ffc       $pdata$__FrameUnwindToState$filt$0 000000018001cffc     libvcruntime:frame.obj
 0004:00001008       $pdata$__FrameUnwindToState$fin$1 000000018001d008     libvcruntime:frame.obj
 0004:00001014       $pdata$_CallSETranslator$filt$0 000000018001d014     libvcruntime:trnsctrl.obj
 0005:00000000       __guard_fids_?dllmain_crt_process_attach@@YAHQEAUHINSTANCE__@@QEAX@Z 000000018001e000     LIBCMT:dll_dllmain.obj
 0005:00000008       __guard_fids_?dllmain_dispatch@@YAHQEAUHINSTANCE__@@KQEAX@Z 000000018001e008     LIBCMT:dll_dllmain.obj
 0005:0000000c       __guard_fids__             000000018001e00c     LIBCMT:guard_support.obj
 0005:00000010       __guard_fids___vcrt_initialize_ptd 000000018001e010     libvcruntime:per_thread_data.obj
 0005:00000014       __guard_fids__             000000018001e014     libucrt:initialization.obj
 0005:00000078       __guard_fids___acrt_initialize_ptd 000000018001e078     libucrt:per_thread_data.obj
 0005:0000007c       __guard_fids_??$expand_argument_wildcards@D@@YAHQEAD0AEAV?$argument_list@D@?A0x5f5c8891@@@Z 000000018001e07c     libucrt:argv_wildcards.obj
 0005:00000080       __guard_fids__             000000018001e080     libucrt:multibyte_initializer.obj
 0005:00000084       __guard_fids__             000000018001e084     libucrt:stdio_initializer.obj
 0005:00000088       __guard_fids__             000000018001e088     libucrt:stdio_initializer.obj
 0005:0000008c       __guard_fids__             000000018001e08c     libucrt:locale_initializer.obj
 0005:00000090       __guard_fids__             000000018001e090     libucrt:console_output_initializer.obj
 0005:00000094       __guard_fids__             000000018001e094     libucrt:fma3_initializer.obj
 0005:00000098       __guard_fids__             000000018001e098     LIBCMT:std_type_info_static.obj
 0005:0000009c       __guard_fids__             000000018001e09c     libvcruntime:frame.obj
 0005:000000a0       __guard_fids__             000000018001e0a0     libvcruntime:frame.obj
 0005:000000a8       __guard_fids__             000000018001e0a8     libvcruntime:frame.obj
 0005:000000b0       __guard_fids__UnwindNestedFrames 000000018001e0b0     libvcruntime:trnsctrl.obj
 0006:00000000       __guard_xfg_initterm       000000018001f000     libucrt:initterm.obj
 0006:00000010       __guard_xfg_initterm_e     000000018001f010     libucrt:initterm.obj
 0006:00000020       __guard_xfg_seh_filter_dll 000000018001f020     libucrt:exception_filter.obj
 0006:00000030       __guard_xfg_seh_filter_exe 000000018001f030     libucrt:exception_filter.obj
 0006:00000040       __guard_xfg_is_c_termination_complete 000000018001f040     libucrt:exit.obj
 0006:00000050       __guard_xfg_exit           000000018001f050     libucrt:exit.obj
 0006:00000060       __guard_xfg_cexit          000000018001f060     libucrt:exit.obj
 0006:00000070       __guard_xfg__acrt_initialize_thread_local_exit_callback 000000018001f070     libucrt:exit.obj
 0006:00000080       __guard_xfg?try_cor_exit_process@@YAXI@Z 000000018001f080     libucrt:exit.obj
 0006:00000090       __guard_xfg?should_call_terminate_process@@YA_NXZ 000000018001f090     libucrt:exit.obj
 0006:000000a0       __guard_xfg?exit_or_terminate_process@@YAXI@Z 000000018001f0a0     libucrt:exit.obj
 0006:000000b0       __guard_xfg?common_exit@@YAXHW4_crt_exit_cleanup_mode@@W4_crt_exit_return_mode@@@Z 000000018001f0b0     libucrt:exit.obj
 0006:000000c0       __guard_xfg??R<lambda_6e4b09c48022b2350581041d5f6b0c4c>@@QEBA@XZ 000000018001f0c0     libucrt:exit.obj
 0006:000000d0       __guard_xfg??$?RV<lambda_d80eeec6fff315bfe5c115232f3240e3>@@AEAV<lambda_6e4b09c48022b2350581041d5f6b0c4c>@@V<lambda_2358e3775559c9db80273638284d5e45>@@@?$__crt_seh_guarded_call@X@@QEAAX$$QEAV<lambda_d80eeec6fff315bfe5c115232f3240e3>@@AEAV<lambda_6e4b09c48022b2350581041d5f6b0c4c>@@$$QEAV<lambda_2358e3775559c9db80273638284d5e45>@@@Z 000000018001f0d0     libucrt:exit.obj
 0006:000000e0       __guard_xfg_configure_narrow_argv 000000018001f0e0     libucrt:argv_parsing.obj
 0006:000000f0       __guard_xfg__acrt_allocate_buffer_for_argv 000000018001f0f0     libucrt:argv_parsing.obj
 0006:00000100       __guard_xfg??$parse_command_line@D@@YAXPEADPEAPEAD0PEA_K2@Z 000000018001f100     libucrt:argv_parsing.obj
 0006:00000110       __guard_xfg_initialize_narrow_environment 000000018001f110     libucrt:environment_initialization.obj
 0006:00000120       __guard_xfg__dcrt_uninitialize_environments_nolock 000000018001f120     libucrt:environment_initialization.obj
 0006:00000130       __guard_xfg??$common_initialize_environment_nolock@D@@YAHXZ 000000018001f130     libucrt:environment_initialization.obj
 0006:00000140       __guard_xfg??$uninitialize_environment_internal@D@@YAXAEAPEAPEAD@Z 000000018001f140     libucrt:environment_initialization.obj
 0006:00000150       __guard_xfg??$uninitialize_environment_internal@_W@@YAXAEAPEAPEA_W@Z 000000018001f150     libucrt:environment_initialization.obj
 0006:00000160       __guard_xfg??$free_environment@D@@YAXQEAPEAD@Z 000000018001f160     libucrt:environment_initialization.obj
 0006:00000170       __guard_xfg??$free_environment@_W@@YAXQEAPEA_W@Z 000000018001f170     libucrt:environment_initialization.obj
 0006:00000180       __guard_xfg??$create_environment@D@@YAQEAPEADQEAD@Z 000000018001f180     libucrt:environment_initialization.obj
 0006:00000190       __guard_xfg_initialize_onexit_table 000000018001f190     libucrt:onexit.obj
 0006:000001a0       __guard_xfg_register_onexit_function 000000018001f1a0     libucrt:onexit.obj
 0006:000001b0       __guard_xfg_execute_onexit_table 000000018001f1b0     libucrt:onexit.obj
 0006:000001c0       __guard_xfg_crt_atexit     000000018001f1c0     libucrt:onexit.obj
 0006:000001d0       __guard_xfg??R<lambda_22ebabd17bc4fa466a2aca6d8deb888d>@@QEBAHXZ 000000018001f1d0     libucrt:onexit.obj
 0006:000001e0       __guard_xfg??R<lambda_f03950bc5685219e0bcd2087efbe011e>@@QEBAHXZ 000000018001f1e0     libucrt:onexit.obj
 0006:000001f0       __guard_xfg??$?RV<lambda_638799b9deba96c50f710eeac98168cd>@@AEAV<lambda_22ebabd17bc4fa466a2aca6d8deb888d>@@V<lambda_a6f7d7db0129f75315ebf26d50c089f1>@@@?$__crt_seh_guarded_call@H@@QEAAH$$QEAV<lambda_638799b9deba96c50f710eeac98168cd>@@AEAV<lambda_22ebabd17bc4fa466a2aca6d8deb888d>@@$$QEAV<lambda_a6f7d7db0129f75315ebf26d50c089f1>@@@Z 000000018001f1f0     libucrt:onexit.obj
 0006:00000200       __guard_xfg??$?RV<lambda_7777bce6b2f8c936911f934f8298dc43>@@AEAV<lambda_f03950bc5685219e0bcd2087efbe011e>@@V<lambda_3883c3dff614d5e0c5f61bb1ac94921c>@@@?$__crt_seh_guarded_call@H@@QEAAH$$QEAV<lambda_7777bce6b2f8c936911f934f8298dc43>@@AEAV<lambda_f03950bc5685219e0bcd2087efbe011e>@@$$QEAV<lambda_3883c3dff614d5e0c5f61bb1ac94921c>@@@Z 000000018001f200     libucrt:onexit.obj
 0006:00000210       __guard_xfg__acrt_initialize 000000018001f210     libucrt:initialization.obj
 0006:00000220       __guard_xfg__acrt_uninitialize 000000018001f220     libucrt:initialization.obj
 0006:00000230       __guard_xfg__acrt_uninitialize_critical 000000018001f230     libucrt:initialization.obj
 0006:00000240       __guard_xfg__acrt_thread_attach 000000018001f240     libucrt:initialization.obj
 0006:00000250       __guard_xfg__acrt_thread_detach 000000018001f250     libucrt:initialization.obj
 0006:00000260       __guard_xfginitialize_global_variables 000000018001f260     libucrt:initialization.obj
 0006:00000270       __guard_xfginitialize_c    000000018001f270     libucrt:initialization.obj
 0006:00000280       __guard_xfguninitialize_c  000000018001f280     libucrt:initialization.obj
 0006:00000290       __guard_xfginitialize_environment 000000018001f290     libucrt:initialization.obj
 0006:000002a0       __guard_xfguninitialize_environment 000000018001f2a0     libucrt:initialization.obj
 0006:000002b0       __guard_xfginitialize_global_state_isolation 000000018001f2b0     libucrt:initialization.obj
 0006:000002c0       __guard_xfguninitialize_global_state_isolation 000000018001f2c0     libucrt:initialization.obj
 0006:000002d0       __guard_xfginitialize_pointers 000000018001f2d0     libucrt:initialization.obj
 0006:000002e0       __guard_xfguninitialize_vcruntime 000000018001f2e0     libucrt:initialization.obj
 0006:000002f0       __guard_xfguninitialize_allocated_memory 000000018001f2f0     libucrt:initialization.obj
 0006:00000300       __guard_xfguninitialize_allocated_io_buffers 000000018001f300     libucrt:initialization.obj
 0006:00000310       __guard_xfgreport_memory_leaks 000000018001f310     libucrt:initialization.obj
 0006:00000320       __guard_xfgterminate       000000018001f320     libucrt:terminate.obj
 0006:00000330       __guard_xfg_free_base      000000018001f330     libucrt:free_base.obj
 0006:00000340       __guard_xfg_malloc_base    000000018001f340     libucrt:malloc_base.obj
 0006:00000350       __guard_xfgstrcpy_s        000000018001f350     libucrt:strcpy_s.obj
 0006:00000360       __guard_xfgabort           000000018001f360     libucrt:abort.obj
 0006:00000370       __guard_xfg_calloc_base    000000018001f370     libucrt:calloc_base.obj
 0006:00000380       __guard_xfg?get_raw_ptd@__crt_cached_ptd_host@@QEAAPEAU__acrt_ptd@@XZ 000000018001f380     libucrt:output.obj
 0006:00000390       __guard_xfg?update_locale_slow@__crt_cached_ptd_host@@AEAAXXZ 000000018001f390     libucrt:output.obj
 0006:000003a0       __guard_xfg__acrt_initialize_ptd 000000018001f3a0     libucrt:per_thread_data.obj
 0006:000003b0       __guard_xfg__acrt_uninitialize_ptd 000000018001f3b0     libucrt:per_thread_data.obj
 0006:000003c0       __guard_xfg__acrt_getptd   000000018001f3c0     libucrt:per_thread_data.obj
 0006:000003d0       __guard_xfg__acrt_getptd_head 000000018001f3d0     libucrt:per_thread_data.obj
 0006:000003e0       __guard_xfg__acrt_getptd_noexit 000000018001f3e0     libucrt:per_thread_data.obj
 0006:000003f0       __guard_xfg__acrt_freeptd  000000018001f3f0     libucrt:per_thread_data.obj
 0006:00000400       __guard_xfg__acrt_getptd_noexit_explicit 000000018001f400     libucrt:per_thread_data.obj
 0006:00000410       __guard_xfg?destroy_fls@@YAXPEAX@Z 000000018001f410     libucrt:per_thread_data.obj
 0006:00000420       __guard_xfg?replace_current_thread_locale_nolock@@YAXQEAU__acrt_ptd@@QEAU__crt_locale_data@@@Z 000000018001f420     libucrt:per_thread_data.obj
 0006:00000430       __guard_xfg?construct_ptd_array@@YAXQEAU__acrt_ptd@@@Z 000000018001f430     libucrt:per_thread_data.obj
 0006:00000440       __guard_xfg?destroy_ptd_array@@YAXQEAU__acrt_ptd@@@Z 000000018001f440     libucrt:per_thread_data.obj
 0006:00000450       __guard_xfg??$?RV<lambda_0ae27a3a962d80f24befdcbee591983d>@@AEAV<lambda_8d0ee55de4b1038c4002e0adecdf1839>@@V<lambda_dc504788e8f1664fe9b84e20bfb512f2>@@@?$__crt_seh_guarded_call@X@@QEAAX$$QEAV<lambda_0ae27a3a962d80f24befdcbee591983d>@@AEAV<lambda_8d0ee55de4b1038c4002e0adecdf1839>@@$$QEAV<lambda_dc504788e8f1664fe9b84e20bfb512f2>@@@Z 000000018001f450     libucrt:per_thread_data.obj
 0006:00000460       __guard_xfg??$?RV<lambda_aa87e3671a710a21b5dc78c0bdf72e11>@@AEAV<lambda_92619d2358a28f41a33ba319515a20b9>@@V<lambda_6992ecaafeb10aed2b74cb1fae11a551>@@@?$__crt_seh_guarded_call@X@@QEAAX$$QEAV<lambda_aa87e3671a710a21b5dc78c0bdf72e11>@@AEAV<lambda_92619d2358a28f41a33ba319515a20b9>@@$$QEAV<lambda_6992ecaafeb10aed2b74cb1fae11a551>@@@Z 000000018001f460     libucrt:per_thread_data.obj
 0006:00000470       __guard_xfg??$?RV<lambda_f2e299630e499de9f9a165e60fcd3db5>@@AEAV<lambda_2ae9d31cdba2644fcbeaf08da7c24588>@@V<lambda_40d01ff24d0e7b3814fdbdcee8eab3c7>@@@?$__crt_seh_guarded_call@X@@QEAAX$$QEAV<lambda_f2e299630e499de9f9a165e60fcd3db5>@@AEAV<lambda_2ae9d31cdba2644fcbeaf08da7c24588>@@$$QEAV<lambda_40d01ff24d0e7b3814fdbdcee8eab3c7>@@@Z 000000018001f470     libucrt:per_thread_data.obj
 0006:00000480       __guard_xfg??$?RV<lambda_2d41944a1d46af3157314b8a01080d33>@@AEAV<lambda_8f455de75cd7d7f24b4096f044d8b9e6>@@V<lambda_aa500f224e6afead328df44964fe2772>@@@?$__crt_seh_guarded_call@X@@QEAAX$$QEAV<lambda_2d41944a1d46af3157314b8a01080d33>@@AEAV<lambda_8f455de75cd7d7f24b4096f044d8b9e6>@@$$QEAV<lambda_aa500f224e6afead328df44964fe2772>@@@Z 000000018001f480     libucrt:per_thread_data.obj
 0006:00000490       __guard_xfg__acrt_initialize_locks 000000018001f490     libucrt:locks.obj
 0006:000004a0       __guard_xfg__acrt_uninitialize_locks 000000018001f4a0     libucrt:locks.obj
 0006:000004b0       __guard_xfg__acrt_lock     000000018001f4b0     libucrt:locks.obj
 0006:000004c0       __guard_xfg__acrt_unlock   000000018001f4c0     libucrt:locks.obj
 0006:000004d0       __guard_xfg__acrt_get_process_end_policy 000000018001f4d0     libucrt:win_policies.obj
 0006:000004e0       __guard_xfg_invalid_parameter_noinfo 000000018001f4e0     libucrt:invalid_parameter.obj
 0006:000004f0       __guard_xfg_invoke_watson  000000018001f4f0     libucrt:invalid_parameter.obj
 0006:00000500       __guard_xfg__acrt_call_reportfault 000000018001f500     libucrt:invalid_parameter.obj
 0006:00000510       __guard_xfg__acrt_initialize_invalid_parameter_handler 000000018001f510     libucrt:invalid_parameter.obj
 0006:00000520       __guard_xfg_invalid_parameter_internal 000000018001f520     libucrt:invalid_parameter.obj
 0006:00000530       __guard_xfg?get_raw_ptd_noexit@__crt_cached_ptd_host@@QEAAPEAU__acrt_ptd@@XZ 000000018001f530     libucrt:invalid_parameter.obj
 0006:00000540       __guard_xfg?value@?$dual_state_global@P6AXPEB_W00I_K@Z@__crt_state_management@@QEAAAEAP6AXPEB_W00I_K@ZAEAV__crt_cached_ptd_host@@@Z 000000018001f540     libucrt:invalid_parameter.obj
 0006:00000550       __guard_xfg_invalid_parameter 000000018001f550     libucrt:invalid_parameter.obj
 0006:00000560       __guard_xfg_errno          000000018001f560     libucrt:errno.obj
 0006:00000570       __guard_xfg__doserrno      000000018001f570     libucrt:errno.obj
 0006:00000580       __guard_xfg__acrt_errno_map_os_error 000000018001f580     libucrt:errno.obj
 0006:00000590       __guard_xfg__acrt_errno_from_os_error 000000018001f590     libucrt:errno.obj
 0006:000005a0       __guard_xfg__acrt_errno_map_os_error_ptd 000000018001f5a0     libucrt:errno.obj
 0006:000005b0       __guard_xfg__acrt_expand_narrow_argv_wildcards 000000018001f5b0     libucrt:argv_wildcards.obj
 0006:000005c0       __guard_xfg??0_LocaleUpdate@@QEAA@QEAU__crt_locale_pointers@@@Z 000000018001f5c0     libucrt:argv_wildcards.obj
 0006:000005d0       __guard_xfg??$common_expand_argv_wildcards@D@@YAHQEAPEADQEAPEAPEAD@Z 000000018001f5d0     libucrt:argv_wildcards.obj
 0006:000005e0       __guard_xfg??$__acrt_convert_wcs_mbs_cp@D_WV<lambda_7c9dea7b4ca7285d2cdb541a38da6275>@@U__crt_win32_buffer_internal_dynamic_resizing@@@@YAHQEBDAEAV?$__crt_win32_buffer@_WU__crt_win32_buffer_internal_dynamic_resizing@@@@AEBV<lambda_7c9dea7b4ca7285d2cdb541a38da6275>@@I@Z 000000018001f5e0     libucrt:argv_wildcards.obj
 0006:000005f0       __guard_xfg??$__acrt_convert_wcs_mbs_cp@_WDV<lambda_d8593a27d1aa8c02be35c86a17d324c4>@@U__crt_win32_buffer_internal_dynamic_resizing@@@@YAHQEB_WAEAV?$__crt_win32_buffer@DU__crt_win32_buffer_internal_dynamic_resizing@@@@AEBV<lambda_d8593a27d1aa8c02be35c86a17d324c4>@@I@Z 000000018001f5f0     libucrt:argv_wildcards.obj
 0006:00000600       __guard_xfg??$copy_and_add_argument_to_buffer@D@@YAHQEBD0_KAEAV?$argument_list@D@?A0x5f5c8891@@@Z 000000018001f600     libucrt:argv_wildcards.obj
 0006:00000610       __guard_xfg??$expand_argument_wildcards@D@@YAHQEAD0AEAV?$argument_list@D@?A0x5f5c8891@@@Z 000000018001f610     libucrt:argv_wildcards.obj
 0006:00000620       __guard_xfg?<lambda_invoker_cdecl>@<lambda_a1ce4c8ae42411fd470c77163914f50e>@@CAHPEBX0@Z 000000018001f620     libucrt:argv_wildcards.obj
 0006:00000630       __guard_xfg__acrt_GetModuleFileNameA 000000018001f630     libucrt:getmodulefilenamea.obj
 0006:00000640       __guard_xfg??$__acrt_convert_wcs_mbs_cp@_WDV<lambda_f788ae46380686e8b737efdd8c720d07>@@U__crt_win32_buffer_no_resizing@@@@YAHQEB_WAEAV?$__crt_win32_buffer@DU__crt_win32_buffer_no_resizing@@@@AEBV<lambda_f788ae46380686e8b737efdd8c720d07>@@I@Z 000000018001f640     libucrt:getmodulefilenamea.obj
 0006:00000650       __guard_xfg__acrt_update_thread_multibyte_data 000000018001f650     libucrt:mbctype.obj
 0006:00000660       __guard_xfg__acrt_initialize_multibyte 000000018001f660     libucrt:mbctype.obj
 0006:00000670       __guard_xfg_setmbcp_nolock 000000018001f670     libucrt:mbctype.obj
 0006:00000680       __guard_xfg?getSystemCP@@YAHH@Z 000000018001f680     libucrt:mbctype.obj
 0006:00000690       __guard_xfg?setSBCS@@YAXPEAU__crt_multibyte_data@@@Z 000000018001f690     libucrt:mbctype.obj
 0006:000006a0       __guard_xfg?update_thread_multibyte_data_internal@@YAPEAU__crt_multibyte_data@@QEAU__acrt_ptd@@QEAPEAU1@@Z 000000018001f6a0     libucrt:mbctype.obj
 0006:000006b0       __guard_xfg?setmbcp_internal@@YAHH_NQEAU__acrt_ptd@@QEAPEAU__crt_multibyte_data@@@Z 000000018001f6b0     libucrt:mbctype.obj
 0006:000006c0       __guard_xfg?setSBUpLow@@YAXPEAU__crt_multibyte_data@@@Z 000000018001f6c0     libucrt:mbctype.obj
 0006:000006d0       __guard_xfg??$?RV<lambda_efdfa57d1f175319df784efa44bb7b81>@@AEAV<lambda_5f0a4c1567f8adc6734073e5d1e1b35c>@@V<lambda_2e8a7d3640ea6ccb4c2413664c2db6fd>@@@?$__crt_seh_guarded_call@X@@QEAAX$$QEAV<lambda_efdfa57d1f175319df784efa44bb7b81>@@AEAV<lambda_5f0a4c1567f8adc6734073e5d1e1b35c>@@$$QEAV<lambda_2e8a7d3640ea6ccb4c2413664c2db6fd>@@@Z 000000018001f6d0     libucrt:mbctype.obj
 0006:000006e0       __guard_xfg_ismbblead      000000018001f6e0     libucrt:ismbbyte.obj
 0006:000006f0       __guard_xfg?x_ismbbtype_l@@YAHPEAU__crt_locale_pointers@@IHH@Z 000000018001f6f0     libucrt:ismbbyte.obj
 0006:00000700       __guard_xfg__acrt_initialize_command_line 000000018001f700     libucrt:argv_data.obj
 0006:00000710       __guard_xfg__acrt_uninitialize_command_line 000000018001f710     libucrt:argv_data.obj
 0006:00000720       __guard_xfg__acrt_MultiByteToWideChar 000000018001f720     libucrt:multibytetowidechar.obj
 0006:00000730       __guard_xfg__acrt_WideCharToMultiByte 000000018001f730     libucrt:widechartomultibyte.obj
 0006:00000740       __guard_xfg__dcrt_get_narrow_environment_from_os 000000018001f740     libucrt:get_environment_from_os.obj
 0006:00000750       __guard_xfg_recalloc_base  000000018001f750     libucrt:recalloc.obj
 0006:00000760       __guard_xfg__acrt_initialize_winapi_thunks 000000018001f760     libucrt:winapi_thunks.obj
 0006:00000770       __guard_xfg__acrt_uninitialize_winapi_thunks 000000018001f770     libucrt:winapi_thunks.obj
 0006:00000780       __guard_xfg__acrt_AreFileApisANSI 000000018001f780     libucrt:winapi_thunks.obj
 0006:00000790       __guard_xfg__acrt_FlsAlloc 000000018001f790     libucrt:winapi_thunks.obj
 0006:000007a0       __guard_xfg__acrt_FlsFree  000000018001f7a0     libucrt:winapi_thunks.obj
 0006:000007b0       __guard_xfg__acrt_FlsGetValue 000000018001f7b0     libucrt:winapi_thunks.obj
 0006:000007c0       __guard_xfg__acrt_FlsSetValue 000000018001f7c0     libucrt:winapi_thunks.obj
 0006:000007d0       __guard_xfg__acrt_InitializeCriticalSectionEx 000000018001f7d0     libucrt:winapi_thunks.obj
 0006:000007e0       __guard_xfg__acrt_LCMapStringEx 000000018001f7e0     libucrt:winapi_thunks.obj
 0006:000007f0       __guard_xfg__acrt_LocaleNameToLCID 000000018001f7f0     libucrt:winapi_thunks.obj
 0006:00000800       __guard_xfg__acrt_AppPolicyGetProcessTerminationMethodInternal 000000018001f800     libucrt:winapi_thunks.obj
 0006:00000810       __guard_xfg?try_get_function@@YAPEAXW4function_id@?A0x391cf84c@@QEBDQEBW4module_id@2@2@Z 000000018001f810     libucrt:winapi_thunks.obj
 0006:00000820       __guard_xfg__acrt_initialize_heap 000000018001f820     libucrt:heap_handle.obj
 0006:00000830       __guard_xfg__acrt_uninitialize_heap 000000018001f830     libucrt:heap_handle.obj
 0006:00000840       __guard_xfg__acrt_initialize_lowio 000000018001f840     libucrt:ioinit.obj
 0006:00000850       __guard_xfg__acrt_uninitialize_lowio 000000018001f850     libucrt:ioinit.obj
 0006:00000860       __guard_xfg?initialize_inherited_file_handles_nolock@@YAXXZ 000000018001f860     libucrt:ioinit.obj
 0006:00000870       __guard_xfg?initialize_stdio_handles_nolock@@YAXXZ 000000018001f870     libucrt:ioinit.obj
 0006:00000880       __guard_xfg__acrt_execute_initializers 000000018001f880     libucrt:shared_initialization.obj
 0006:00000890       __guard_xfg__acrt_execute_uninitializers 000000018001f890     libucrt:shared_initialization.obj
 0006:000008a0       __guard_xfg_callnewh       000000018001f8a0     libucrt:new_handler.obj
 0006:000008b0       __guard_xfg__acrt_initialize_new_handler 000000018001f8b0     libucrt:new_handler.obj
 0006:000008c0       __guard_xfg_query_new_handler 000000018001f8c0     libucrt:new_handler.obj
 0006:000008d0       __guard_xfg__acrt_initialize_signal_handlers 000000018001f8d0     libucrt:signal.obj
 0006:000008e0       __guard_xfg__acrt_get_sigabrt_handler 000000018001f8e0     libucrt:signal.obj
 0006:000008f0       __guard_xfgraise           000000018001f8f0     libucrt:signal.obj
 0006:00000900       __guard_xfg??$?RV<lambda_450d765d439847d4c735a33c368b5fc0>@@AEAV<lambda_44731a7d0e6d81c3e6aa82d741081786>@@V<lambda_601a2a7da3b7a96e9554ac7215c4b07c>@@@?$__crt_seh_guarded_call@P6AXH@Z@@QEAAP6AXH@Z$$QEAV<lambda_450d765d439847d4c735a33c368b5fc0>@@AEAV<lambda_44731a7d0e6d81c3e6aa82d741081786>@@$$QEAV<lambda_601a2a7da3b7a96e9554ac7215c4b07c>@@@Z 000000018001f900     libucrt:signal.obj
 0006:00000910       __guard_xfg__acrt_initialize_user_matherr 000000018001f910     libucrt:matherr.obj
 0006:00000920       __guard_xfg__acrt_has_user_matherr 000000018001f920     libucrt:matherr.obj
 0006:00000930       __guard_xfg__acrt_invoke_user_matherr 000000018001f930     libucrt:matherr.obj
 0006:00000940       __guard_xfg_flushall       000000018001f940     libucrt:fflush.obj
 0006:00000950       __guard_xfg_fflush_nolock  000000018001f950     libucrt:fflush.obj
 0006:00000960       __guard_xfg__acrt_stdio_flush_nolock 000000018001f960     libucrt:fflush.obj
 0006:00000970       __guard_xfg?common_flush_all@@YAH_N@Z 000000018001f970     libucrt:fflush.obj
 0006:00000980       __guard_xfg??$?RV<lambda_842d9ff0dc9ef11c61343bbaebe7f885>@@AEAV<lambda_c5860995281e5c4ce005b3de8f5874ee>@@V<lambda_d90129c13df834fdcbf8d2b88dafcf2d>@@@?$__crt_seh_guarded_call@X@@QEAAX$$QEAV<lambda_842d9ff0dc9ef11c61343bbaebe7f885>@@AEAV<lambda_c5860995281e5c4ce005b3de8f5874ee>@@$$QEAV<lambda_d90129c13df834fdcbf8d2b88dafcf2d>@@@Z 000000018001f980     libucrt:fflush.obj
 0006:00000990       __guard_xfg??$?RV<lambda_886d6c58226a84441f68b9f2b8217b83>@@AEAV<lambda_ab61a845afdef5b7c387490eaf3616ee>@@V<lambda_f7f22ab5edc0698d5f6905b0d3f44752>@@@?$__crt_seh_guarded_call@X@@QEAAX$$QEAV<lambda_886d6c58226a84441f68b9f2b8217b83>@@AEAV<lambda_ab61a845afdef5b7c387490eaf3616ee>@@$$QEAV<lambda_f7f22ab5edc0698d5f6905b0d3f44752>@@@Z 000000018001f990     libucrt:fflush.obj
 0006:000009a0       __guard_xfg_lock_file      000000018001f9a0     libucrt:_file.obj
 0006:000009b0       __guard_xfg_unlock_file    000000018001f9b0     libucrt:_file.obj
 0006:000009c0       __guard_xfg__acrt_initialize_stdio 000000018001f9c0     libucrt:_file.obj
 0006:000009d0       __guard_xfg__acrt_uninitialize_stdio 000000018001f9d0     libucrt:_file.obj
 0006:000009e0       __guard_xfg_query_new_mode 000000018001f9e0     libucrt:new_mode.obj
 0006:000009f0       __guard_xfg__acrt_update_locale_info 000000018001f9f0     libucrt:locale_update.obj
 0006:00000a00       __guard_xfg__acrt_update_multibyte_info 000000018001fa00     libucrt:locale_update.obj
 0006:00000a10       __guard_xfg__acrt_update_locale_info_explicit 000000018001fa10     libucrt:locale_update.obj
 0006:00000a20       __guard_xfg__acrt_update_multibyte_info_explicit 000000018001fa20     libucrt:locale_update.obj
 0006:00000a30       __guard_xfg_mbtowc_internal 000000018001fa30     libucrt:mbtowc.obj
 0006:00000a40       __guard_xfg_fileno         000000018001fa40     libucrt:fileno.obj
 0006:00000a50       __guard_xfg__acrt_set_locale_changed 000000018001fa50     libucrt:wsetlocale.obj
 0006:00000a60       __guard_xfg__acrt_uninitialize_locale 000000018001fa60     libucrt:wsetlocale.obj
 0006:00000a70       __guard_xfg??$?RV<lambda_410d79af7f07d98d83a3f525b3859a53>@@AEAV<lambda_3e16ef9562a7dcce91392c22ab16ea36>@@V<lambda_38119f0e861e05405d8a144b9b982f0a>@@@?$__crt_seh_guarded_call@X@@QEAAX$$QEAV<lambda_410d79af7f07d98d83a3f525b3859a53>@@AEAV<lambda_3e16ef9562a7dcce91392c22ab16ea36>@@$$QEAV<lambda_38119f0e861e05405d8a144b9b982f0a>@@@Z 000000018001fa70     libucrt:wsetlocale.obj
 0006:00000a80       __guard_xfg__acrt_add_locale_ref 000000018001fa80     libucrt:locale_refcounting.obj
 0006:00000a90       __guard_xfg__acrt_release_locale_ref 000000018001fa90     libucrt:locale_refcounting.obj
 0006:00000aa0       __guard_xfg__acrt_free_locale 000000018001faa0     libucrt:locale_refcounting.obj
 0006:00000ab0       __guard_xfg__acrt_locale_add_lc_time_reference 000000018001fab0     libucrt:locale_refcounting.obj
 0006:00000ac0       __guard_xfg__acrt_locale_release_lc_time_reference 000000018001fac0     libucrt:locale_refcounting.obj
 0006:00000ad0       __guard_xfg__acrt_locale_free_lc_time_if_unreferenced 000000018001fad0     libucrt:locale_refcounting.obj
 0006:00000ae0       __guard_xfg__acrt_update_thread_locale_data 000000018001fae0     libucrt:locale_refcounting.obj
 0006:00000af0       __guard_xfg_updatetlocinfoEx_nolock 000000018001faf0     libucrt:locale_refcounting.obj
 0006:00000b00       __guard_xfgqsort           000000018001fb00     libucrt:qsort.obj
 0006:00000b10       __guard_xfgstrncpy_s       000000018001fb10     libucrt:strncpy_s.obj
 0006:00000b20       __guard_xfgstrpbrk         000000018001fb20     libucrt:strpbrk.obj
 0006:00000b30       __guard_xfgfallbackMethod  000000018001fb30     libucrt:strpbrk.obj
 0006:00000b40       __guard_xfg_mbsdec         000000018001fb40     libucrt:mbsdec.obj
 0006:00000b50       __guard_xfg_mbsdec_l       000000018001fb50     libucrt:mbsdec.obj
 0006:00000b60       __guard_xfg?initialize_multibyte@@YAHXZ 000000018001fb60     libucrt:multibyte_initializer.obj
 0006:00000b70       __guard_xfg__acrt_GetStringTypeA 000000018001fb70     libucrt:getstringtypea.obj
 0006:00000b80       __guard_xfg__acrt_LCMapStringA 000000018001fb80     libucrt:lcmapstringa.obj
 0006:00000b90       __guard_xfg?__acrt_LCMapStringA_stat@@YAHPEAU__crt_locale_pointers@@PEB_WKPEBDHPEADHHH@Z 000000018001fb90     libucrt:lcmapstringa.obj
 0006:00000ba0       __guard_xfg_msize_base     000000018001fba0     libucrt:msize.obj
 0006:00000bb0       __guard_xfg_realloc_base   000000018001fbb0     libucrt:realloc_base.obj
 0006:00000bc0       __guard_xfgwcsncmp         000000018001fbc0     libucrt:wcsncmp.obj
 0006:00000bd0       __guard_xfg__acrt_DownlevelLocaleNameToLCID 000000018001fbd0     libucrt:lcidtoname_downlevel.obj
 0006:00000be0       __guard_xfg_get_osfhandle  000000018001fbe0     libucrt:osfinfo.obj
 0006:00000bf0       __guard_xfg_free_osfhnd    000000018001fbf0     libucrt:osfinfo.obj
 0006:00000c00       __guard_xfg__acrt_lowio_create_handle_array 000000018001fc00     libucrt:osfinfo.obj
 0006:00000c10       __guard_xfg__acrt_lowio_destroy_handle_array 000000018001fc10     libucrt:osfinfo.obj
 0006:00000c20       __guard_xfg__acrt_lowio_ensure_fh_exists 000000018001fc20     libucrt:osfinfo.obj
 0006:00000c30       __guard_xfg__acrt_lowio_lock_fh 000000018001fc30     libucrt:osfinfo.obj
 0006:00000c40       __guard_xfg__acrt_lowio_unlock_fh 000000018001fc40     libucrt:osfinfo.obj
 0006:00000c50       __guard_xfg_commit         000000018001fc50     libucrt:commit.obj
 0006:00000c60       __guard_xfg??$?RV<lambda_a37b2b86f63e897a80ea819b0eb08c01>@@AEAV<lambda_38ce7e780aa69e748d6df282ebc68efe>@@V<lambda_99fb1378e971ab6e7edea83e3a7a83a2>@@@?$__crt_seh_guarded_call@H@@QEAAH$$QEAV<lambda_a37b2b86f63e897a80ea819b0eb08c01>@@AEAV<lambda_38ce7e780aa69e748d6df282ebc68efe>@@$$QEAV<lambda_99fb1378e971ab6e7edea83e3a7a83a2>@@@Z 000000018001fc60     libucrt:commit.obj
 0006:00000c70       __guard_xfg_write_nolock   000000018001fc70     libucrt:write.obj
 0006:00000c80       __guard_xfg_write_internal 000000018001fc80     libucrt:write.obj
 0006:00000c90       __guard_xfg?write_double_translated_ansi_nolock@@YA?AUwrite_result@?A0x17268360@@HQEBDIAEAV__crt_cached_ptd_host@@@Z 000000018001fc90     libucrt:write.obj
 0006:00000ca0       __guard_xfg?write_text_ansi_nolock@@YA?AUwrite_result@?A0x17268360@@HQEBDI@Z 000000018001fca0     libucrt:write.obj
 0006:00000cb0       __guard_xfg?write_text_utf16le_nolock@@YA?AUwrite_result@?A0x17268360@@HQEBDI@Z 000000018001fcb0     libucrt:write.obj
 0006:00000cc0       __guard_xfg?write_text_utf8_nolock@@YA?AUwrite_result@?A0x17268360@@HQEBDI@Z 000000018001fcc0     libucrt:write.obj
 0006:00000cd0       __guard_xfg_fcloseall      000000018001fcd0     libucrt:closeall.obj
 0006:00000ce0       __guard_xfg__acrt_stdio_free_buffer_nolock 000000018001fce0     libucrt:_freebuf.obj
 0006:00000cf0       __guard_xfg_isatty         000000018001fcf0     libucrt:isatty.obj
 0006:00000d00       __guard_xfg?__mbrtowc_utf8@__crt_mbstring@@YA_KPEA_WPEBD_KPEAU_Mbstatet@@AEAV__crt_cached_ptd_host@@@Z 000000018001fd00     libucrt:mbrtowc.obj
 0006:00000d10       __guard_xfg?__mbsrtowcs_utf8@__crt_mbstring@@YA_KPEA_WPEAPEBD_KPEAU_Mbstatet@@AEAV__crt_cached_ptd_host@@@Z 000000018001fd10     libucrt:mbrtowc.obj
 0006:00000d20       __guard_xfg__acrt_locale_free_monetary 000000018001fd20     libucrt:initmon.obj
 0006:00000d30       __guard_xfg__acrt_locale_free_numeric 000000018001fd30     libucrt:initnum.obj
 0006:00000d40       __guard_xfg__acrt_locale_free_time 000000018001fd40     libucrt:inittime.obj
 0006:00000d50       __guard_xfg?free_crt_array_internal@@YAXQEAPEBX_K@Z 000000018001fd50     libucrt:inittime.obj
 0006:00000d60       __guard_xfg__strncnt       000000018001fd60     libucrt:strncnt.obj
 0006:00000d70       __guard_xfg__ascii_wcsnicmp 000000018001fd70     libucrt:wcsnicmp.obj
 0006:00000d80       __guard_xfg_query_app_type 000000018001fd80     libucrt:report_runtime_error.obj
 0006:00000d90       __guard_xfg_lseeki64_nolock_internal 000000018001fd90     libucrt:lseek.obj
 0006:00000da0       __guard_xfg??$common_lseek_nolock@_J@@YA_JH_JHAEAV__crt_cached_ptd_host@@@Z 000000018001fda0     libucrt:lseek.obj
 0006:00000db0       __guard_xfg_putwch_nolock  000000018001fdb0     libucrt:putwch.obj
 0006:00000dc0       __guard_xfgfclose          000000018001fdc0     libucrt:fclose.obj
 0006:00000dd0       __guard_xfg?_fclose_nolock_internal@@YAHQEAU_iobuf@@AEAV__crt_cached_ptd_host@@@Z 000000018001fdd0     libucrt:fclose.obj
 0006:00000de0       __guard_xfg?_fclose_internal@@YAHQEAU_iobuf@@AEAV__crt_cached_ptd_host@@@Z 000000018001fde0     libucrt:fclose.obj
 0006:00000df0       __guard_xfg?return_illegal_sequence@__crt_mbstring@@YA_KPEAU_Mbstatet@@AEAV__crt_cached_ptd_host@@@Z 000000018001fdf0     libucrt:common_utf8.obj
 0006:00000e00       __guard_xfg?reset_and_return@__crt_mbstring@@YA_K_KPEAU_Mbstatet@@@Z 000000018001fe00     libucrt:common_utf8.obj
 0006:00000e10       __guard_xfg?__mbrtoc32_utf8@__crt_mbstring@@YA_KPEA_UPEBD_KPEAU_Mbstatet@@AEAV__crt_cached_ptd_host@@@Z 000000018001fe10     libucrt:mbrtoc32.obj
 0006:00000e20       __guard_xfg__dcrt_lowio_ensure_console_output_initialized 000000018001fe20     libucrt:initcon.obj
 0006:00000e30       __guard_xfg__dcrt_write_console 000000018001fe30     libucrt:initcon.obj
 0006:00000e40       __guard_xfg__dcrt_terminate_console_output 000000018001fe40     libucrt:initcon.obj
 0006:00000e50       __guard_xfg_close_nolock_internal 000000018001fe50     libucrt:close.obj
 0006:00000e60       __guard_xfg_close_internal 000000018001fe60     libucrt:close.obj
 0006:00000e70       __guard_xfg??$?RV<lambda_ad8af0d99a0adf03d037d7dffe354bb5>@@AEAV<lambda_c9ba49e555ba839a7b07aa3fbecb7617>@@V<lambda_2f1ebd5d68526518146ae959c9e734c8>@@@?$__crt_seh_guarded_call@H@@QEAAH$$QEAV<lambda_ad8af0d99a0adf03d037d7dffe354bb5>@@AEAV<lambda_c9ba49e555ba839a7b07aa3fbecb7617>@@$$QEAV<lambda_2f1ebd5d68526518146ae959c9e734c8>@@@Z 000000018001fe70     libucrt:close.obj
 0006:00000e80       __guard_xfg?__acrt_stdio_free_stream@@YAXV__crt_stdio_stream@@@Z 000000018001fe80     libucrt:stream.obj
 0006:00000e90       __guard_xfg_call_matherr   000000018001fe90     libucrt:libm_error.obj
 0006:00000ea0       __guard_xfg_exception_enabled 000000018001fea0     libucrt:libm_error.obj
 0006:00000eb0       __guard_xfg_handle_error   000000018001feb0     libucrt:libm_error.obj
 0006:00000ec0       __guard_xfg__acrt_initialize_fma3 000000018001fec0     libucrt:fma3_available.obj
 0006:00000ed0       __guard_xfg_log_special_common 000000018001fed0     libucrt:log_special.obj
 0006:00000ee0       __guard_xfg_log10_special  000000018001fee0     libucrt:log_special.obj
 0006:00000ef0       __guard_xfg_set_errno_from_matherr 000000018001fef0     libucrt:fpexcept.obj
 0006:00000f00       __guard_xfg_raise_exc      000000018001ff00     libucrt:fpexcept.obj
 0006:00000f10       __guard_xfg_raise_exc_ex   000000018001ff10     libucrt:fpexcept.obj
 0006:00000f20       __guard_xfg_clrfp          000000018001ff20     libucrt:fpctrl.obj
 0006:00000f30       __guard_xfg_ctrlfp         000000018001ff30     libucrt:fpctrl.obj
 0006:00000f40       __guard_xfg_statfp         000000018001ff40     libucrt:fpctrl.obj
 0006:00000f50       __guard_xfg_set_statfp     000000018001ff50     libucrt:fpctrl.obj
 0006:00000f60       __guard_xfgfree            000000018001ff60     libucrt:free.obj
 0006:00000f70       __guard_xfgmalloc          000000018001ff70     libucrt:malloc.obj
 0007:00000000       __guard_ehcont_??R<lambda_6e4b09c48022b2350581041d5f6b0c4c>@@QEBA@XZ 0000000180020000     libucrt:exit.obj
 0007:00000004       __guard_ehcont_terminate   0000000180020004     libucrt:terminate.obj
 0007:00000008       __guard_ehcont__ctrlfp     0000000180020008     libucrt:fpctrl.obj
 0008:00000060       $R000000                   0000000180021060     arj.res
