 calc

 Timestamp is 60b3d953 (Sun May 30 23:28:35 2021)

 Preferred load address is 0000000180000000

 Start         Length     Name                   Class
 0001:00000000 00000140H .text$di                CODE
 0001:00000140 00055120H .text$mn                CODE
 0001:00055260 00000200H .text$mn$00             CODE
 0001:00055460 00001090H .text$x                 CODE
 0001:000564f0 00000888H .text$yd                CODE
 0002:00000000 00000260H .idata$5                DATA
 0002:00000260 00000028H .00cfg                  DATA
 0002:00000288 00000008H .CRT$XCA                DATA
 0002:00000290 00000078H .CRT$XCU                DATA
 0002:00000308 00000008H .CRT$XCZ                DATA
 0002:00000310 00000008H .CRT$XIA                DATA
 0002:00000318 00000020H .CRT$XIC                DATA
 0002:00000338 00000008H .CRT$XIZ                DATA
 0002:00000340 00000008H .CRT$XPA                DATA
 0002:00000348 00000010H .CRT$XPX                DATA
 0002:00000358 00000008H .CRT$XPXA               DATA
 0002:00000360 00000008H .CRT$XPZ                DATA
 0002:00000368 00000008H .CRT$XTA                DATA
 0002:00000370 00000010H .CRT$XTZ                DATA
 0002:00000378 00000000H .gehcont$y              DATA
 0002:00000378 00000000H .gfids$y                DATA
 0002:00000380 00010600H .rdata                  DATA
 0002:00010980 00000000H .rdata$CastGuardVftablesA DATA
 0002:00010980 00000000H .rdata$CastGuardVftablesC DATA
 0002:00010980 00001714H .rdata$r                DATA
 0002:00012094 00000374H .rdata$zzzdbg           DATA
 0002:00012408 00000008H .rtc$IAA                DATA
 0002:00012410 00000008H .rtc$IZZ                DATA
 0002:00012418 00000008H .rtc$TAA                DATA
 0002:00012420 00000008H .rtc$TZZ                DATA
 0002:00012428 00004df0H .xdata                  DATA
 0002:00017218 00000398H .xdata$x                DATA
 0002:000175b0 000000a4H .edata                  DATA
 0002:00017654 00000014H .idata$2                DATA
 0002:00017668 00000018H .idata$3                DATA
 0002:00017680 00000260H .idata$4                DATA
 0002:000178e0 0000058cH .idata$6                DATA
 0003:00000000 00001c20H .data                   DATA
 0003:00001c20 00000250H .data$r                 DATA
 0003:00001e70 00000c60H .data$rs                DATA
 0003:00002ad0 0000420cH .bss                    DATA
 0004:00000000 00004284H .pdata                  DATA
 0005:00000000 000000fcH _RDATA                  DATA
 0006:00000000 00000060H .rsrc$01                DATA
 0006:00000060 000002f8H .rsrc$02                DATA

  Address         Publics by Value              Rva+Base               Lib:Object

 0000:00000000       ___safe_se_handler_table   0000000000000000     <absolute>
 0000:00000000       __x64_code_ranges_to_entry_points_count 0000000000000000     <absolute>
 0000:00000000       __x64_code_ranges_to_entry_points 0000000000000000     <absolute>
 0000:00000000       __guard_fids_count         0000000000000000     <absolute>
 0000:00000000       __arm64x_redirection_metadata 0000000000000000     <absolute>
 0000:00000000       __guard_iat_table          0000000000000000     <absolute>
 0000:00000000       __arm64x_extra_rfe_table   0000000000000000     <absolute>
 0000:00000000       __guard_iat_count          0000000000000000     <absolute>
 0000:00000000       __hybrid_code_map          0000000000000000     <absolute>
 0000:00000000       __guard_longjmp_count      0000000000000000     <absolute>
 0000:00000000       __volatile_metadata        0000000000000000     <absolute>
 0000:00000000       __arm64x_extra_rfe_table_size 0000000000000000     <absolute>
 0000:00000000       __dynamic_value_reloc_table 0000000000000000     <absolute>
 0000:00000000       __guard_longjmp_table      0000000000000000     <absolute>
 0000:00000000       ___safe_se_handler_count   0000000000000000     <absolute>
 0000:00000000       __hybrid_auxiliary_iat     0000000000000000     <absolute>
 0000:00000000       __hybrid_auxiliary_iat_copy 0000000000000000     <absolute>
 0000:00000000       __AbsoluteZero             0000000000000000     <absolute>
 0000:00000000       __guard_eh_cont_count      0000000000000000     <absolute>
 0000:00000000       __guard_check_icall_a64n_fptr 0000000000000000     <absolute>
 0000:00000000       __guard_fids_table         0000000000000000     <absolute>
 0000:00000000       __arm64x_redirection_metadata_count 0000000000000000     <absolute>
 0000:00000000       __enclave_config           0000000000000000     <absolute>
 0000:00000000       __guard_eh_cont_table      0000000000000000     <absolute>
 0000:00000000       __arm64x_native_entrypoint 0000000000000000     <absolute>
 0000:00000000       __hybrid_code_map_count    0000000000000000     <absolute>
 0000:00000100       __guard_flags              0000000000000100     <absolute>
 0000:00000000       __ImageBase                0000000180000000     <linker-defined>
 0001:00000140       ??0exception@std@@QEAA@AEBV01@@Z 0000000180001140 f i api.cpp.obj
 0001:00000180       ?what@exception@std@@UEBAPEBDXZ 0000000180001180 f i api.cpp.obj
 0001:000001a0       ??_Eout_of_range@std@@UEAAPEAXI@Z 00000001800011a0 f i libcpmt:xthrow.obj
 0001:000001a0       ??_Gbad_array_new_length@std@@UEAAPEAXI@Z 00000001800011a0 f i api.cpp.obj
 0001:000001a0       ??_Gbad_alloc@std@@UEAAPEAXI@Z 00000001800011a0 f i api.cpp.obj
 0001:000001a0       ??_Gexception@std@@UEAAPEAXI@Z 00000001800011a0 f i api.cpp.obj
 0001:000001a0       ??_Gbad_typeid@std@@UEAAPEAXI@Z 00000001800011a0 f i libvcruntime:rtti.obj
 0001:000001a0       ??_Glength_error@std@@UEAAPEAXI@Z 00000001800011a0 f i libcpmt:xthrow.obj
 0001:000001a0       ??_Ebad_typeid@std@@UEAAPEAXI@Z 00000001800011a0 f i libvcruntime:rtti.obj
 0001:000001a0       ??_Eexception@std@@UEAAPEAXI@Z 00000001800011a0 f i * CIL library *:* CIL module *
 0001:000001a0       ??_Ebad_exception@std@@UEAAPEAXI@Z 00000001800011a0 f i libvcruntime:frame.obj
 0001:000001a0       ??_Ebad_array_new_length@std@@UEAAPEAXI@Z 00000001800011a0 f i * CIL library *:* CIL module *
 0001:000001a0       ??_Gbad_cast@std@@UEAAPEAXI@Z 00000001800011a0 f i libvcruntime:rtti.obj
 0001:000001a0       ??_Glogic_error@std@@UEAAPEAXI@Z 00000001800011a0 f i libcpmt:xthrow.obj
 0001:000001a0       ??_Elength_error@std@@UEAAPEAXI@Z 00000001800011a0 f i libcpmt:xthrow.obj
 0001:000001a0       ??_E__non_rtti_object@std@@UEAAPEAXI@Z 00000001800011a0 f i libvcruntime:rtti.obj
 0001:000001a0       ??_Gbad_exception@std@@UEAAPEAXI@Z 00000001800011a0 f i libvcruntime:frame.obj
 0001:000001a0       ??_Ebad_alloc@std@@UEAAPEAXI@Z 00000001800011a0 f i * CIL library *:* CIL module *
 0001:000001a0       ??_G__non_rtti_object@std@@UEAAPEAXI@Z 00000001800011a0 f i libvcruntime:rtti.obj
 0001:000001a0       ??_Ebad_cast@std@@UEAAPEAXI@Z 00000001800011a0 f i libvcruntime:rtti.obj
 0001:000001a0       ??_Elogic_error@std@@UEAAPEAXI@Z 00000001800011a0 f i libcpmt:xthrow.obj
 0001:000001a0       ??_Gout_of_range@std@@UEAAPEAXI@Z 00000001800011a0 f i libcpmt:xthrow.obj
 0001:000001f0       ??1bad_alloc@std@@UEAA@XZ  00000001800011f0 f i api.cpp.obj
 0001:000001f0       ??1bad_cast@std@@UEAA@XZ   00000001800011f0 f i libvcruntime:rtti.obj
 0001:000001f0       ??1out_of_range@std@@UEAA@XZ 00000001800011f0 f i libcpmt:xthrow.obj
 0001:000001f0       ??1bad_exception@std@@UEAA@XZ 00000001800011f0 f i libvcruntime:frame.obj
 0001:000001f0       ??1__non_rtti_object@std@@UEAA@XZ 00000001800011f0 f i libvcruntime:rtti.obj
 0001:000001f0       ??1bad_array_new_length@std@@UEAA@XZ 00000001800011f0 f i api.cpp.obj
 0001:000001f0       ??1length_error@std@@UEAA@XZ 00000001800011f0 f i libcpmt:xthrow.obj
 0001:00000210       ??0bad_array_new_length@std@@QEAA@XZ 0000000180001210 f i api.cpp.obj
 0001:00000240       ?__scrt_throw_std_bad_array_new_length@@YAXXZ 0000000180001240 f i LIBCMT:throw_bad_alloc.obj
 0001:00000240       ?_Throw_bad_array_new_length@std@@YAXXZ 0000000180001240 f i api.cpp.obj
 0001:00000260       ??0bad_array_new_length@std@@QEAA@AEBV01@@Z 0000000180001260 f i api.cpp.obj
 0001:000002a0       ??0bad_alloc@std@@QEAA@AEBV01@@Z 00000001800012a0 f i api.cpp.obj
 0001:000002e0       ?OnClose@CalcDialog@@UEAA_JHPEAX@Z 00000001800012e0 f i api.cpp.obj
 0001:000002e0       ?OnCtrlColorDlgItem@CalcDialog@@UEAA_JHPEAX@Z 00000001800012e0 f i api.cpp.obj
 0001:000002e0       ?OnEditChange@CalcDialog@@UEAA_JHPEAX@Z 00000001800012e0 f i api.cpp.obj
 0001:000002e0       ?OnInput@CalcDialog@@UEAA_JHPEAX@Z 00000001800012e0 f i api.cpp.obj
 0001:000002e0       ?OnButtonClick@CalcDialog@@UEAA_JHPEAX@Z 00000001800012e0 f i api.cpp.obj
 0001:000002e0       ?OnGotFocus@CalcDialog@@UEAA_JHPEAX@Z 00000001800012e0 f i api.cpp.obj
 0001:000002e0       ?OnDrawDialog@CalcDialog@@UEAA_JHPEAX@Z 00000001800012e0 f i api.cpp.obj
 0001:000002e0       ?OnInitDialog@CalcDialog@@UEAA_JHPEAX@Z 00000001800012e0 f i api.cpp.obj
 0001:000002e0       ?OnResizeConsole@CalcDialog@@UEAA_JHPEAX@Z 00000001800012e0 f i api.cpp.obj
 0001:000002f0       SetStartupInfoW            00000001800012f0 f   api.cpp.obj
 0001:00000330       GetPluginInfoW             0000000180001330 f   api.cpp.obj
 0001:00000370       OpenW                      0000000180001370 f   api.cpp.obj
 0001:000003a0       ConfigureW                 00000001800013a0 f   api.cpp.obj
 0001:000003c0       GetGlobalInfoW             00000001800013c0 f   api.cpp.obj
 0001:00000510       ??0CalcDialog@@QEAA@XZ     0000000180001510 f   api.cpp.obj
 0001:00000550       ??_ECalcDialog@@UEAAPEAXI@Z 0000000180001550 f i * CIL library *:* CIL module *
 0001:00000550       ??_GDlgCalc@@UEAAPEAXI@Z   0000000180001550 f i calc.cpp.obj
 0001:00000550       ??_EDlgConfig@@UEAAPEAXI@Z 0000000180001550 f i * CIL library *:* CIL module *
 0001:00000550       ??_GDlgConfig@@UEAAPEAXI@Z 0000000180001550 f i config.cpp.obj
 0001:00000550       ??_EDlgCalc@@UEAAPEAXI@Z   0000000180001550 f i * CIL library *:* CIL module *
 0001:00000550       ??_GCalcDialog@@UEAAPEAXI@Z 0000000180001550 f i api.cpp.obj
 0001:00000590       ??1CalcDialog@@UEAA@XZ     0000000180001590 f   api.cpp.obj
 0001:00000680       ?Init@CalcDialog@@QEAA_NHHHHHPEB_WPEAUCalcDialogItem@@I@Z 0000000180001680 f   api.cpp.obj
 0001:00000880       ?Run@CalcDialog@@QEAA_JXZ  0000000180001880 f   api.cpp.obj
 0001:000008a0       ?EnableRedraw@CalcDialog@@QEAAX_N@Z 00000001800018a0 f   api.cpp.obj
 0001:000008c0       ?ResizeDialog@CalcDialog@@QEAAXAEBUCalcCoord@@@Z 00000001800018c0 f   api.cpp.obj
 0001:000008e0       ?GetDlgRect@CalcDialog@@QEAAXPEAUCalcRect@@@Z 00000001800018e0 f   api.cpp.obj
 0001:00000900       ?Close@CalcDialog@@QEAAXH@Z 0000000180001900 f   api.cpp.obj
 0001:00000920       ?GetDlgItemShort@CalcDialog@@QEAAXHPEAUCalcDialogItem@@@Z 0000000180001920 f   api.cpp.obj
 0001:00000940       ?SetDlgItemShort@CalcDialog@@QEAAXHAEBUCalcDialogItem@@@Z 0000000180001940 f   api.cpp.obj
 0001:00000960       ?SetItemPosition@CalcDialog@@QEAAXHAEBUCalcRect@@@Z 0000000180001960 f   api.cpp.obj
 0001:00000980       ?GetFocus@CalcDialog@@QEAAHXZ 0000000180001980 f   api.cpp.obj
 0001:000009a0       ?SetFocus@CalcDialog@@QEAAXH@Z 00000001800019a0 f   api.cpp.obj
 0001:000009c0       ?EditChange@CalcDialog@@QEAAXHAEBUCalcDialogItem@@@Z 00000001800019c0 f   api.cpp.obj
 0001:000009e0       ?SetSelection@CalcDialog@@QEAAXHAEBUCalcEditorSelect@@@Z 00000001800019e0 f   api.cpp.obj
 0001:00000a00       ?SetCursorPos@CalcDialog@@QEAAXHAEBUCalcCoord@@@Z 0000000180001a00 f   api.cpp.obj
 0001:00000a20       ?GetText@CalcDialog@@QEAAXHAEAV?$basic_string@_WU?$char_traits@_W@std@@V?$allocator@_W@2@@std@@@Z 0000000180001a20 f   api.cpp.obj
 0001:00000a40       ?SetText@CalcDialog@@QEAAXHAEBV?$basic_string@_WU?$char_traits@_W@std@@V?$allocator@_W@2@@std@@@Z 0000000180001a40 f   api.cpp.obj
 0001:00000a60       ?AddHistory@CalcDialog@@QEAAXHAEBV?$basic_string@_WU?$char_traits@_W@std@@V?$allocator@_W@2@@std@@@Z 0000000180001a60 f   api.cpp.obj
 0001:00000a80       ?IsChecked@CalcDialog@@QEAA_NH@Z 0000000180001a80 f   api.cpp.obj
 0001:00000aa0       ??1?$vector@PEAVNode@?$MathExpressionBase@USArg@@@@V?$allocator@PEAVNode@?$MathExpressionBase@USArg@@@@@std@@@std@@QEAA@XZ 0000000180001aa0 f i newparse.cpp.obj
 0001:00000aa0       ??1?$vector@PEAUListEntry@?$hash_map@V?$basic_string@_WU?$char_traits@_W@std@@V?$allocator@_W@2@@std@@PEAVCalcParser@@UStrHashFunc@@U?$equal_to@V?$basic_string@_WU?$char_traits@_W@std@@V?$allocator@_W@2@@std@@@2@V?$allocator@U?$pair@V?$basic_string@_WU?$char_traits@_W@std@@V?$allocator@_W@2@@std@@PEAVCalcParser@@@std@@@2@@ag@@V?$allocator@PEAUListEntry@?$hash_map@V?$basic_string@_WU?$char_traits@_W@std@@V?$allocator@_W@2@@std@@PEAVCalcParser@@UStrHashFunc@@U?$equal_to@V?$basic_string@_WU?$char_traits@_W@std@@V?$allocator@_W@2@@std@@@2@V?$allocator@U?$pair@V?$basic_string@_WU?$char_traits@_W@std@@V?$allocator@_W@2@@std@@PEAVCalcParser@@@std@@@2@@ag@@@std@@@std@@QEAA@XZ 0000000180001aa0 f i newparse.cpp.obj
 0001:00000aa0       ??1NodeList@?$MathExpressionBase@USArg@@@@QEAA@XZ 0000000180001aa0 f i newparse.cpp.obj
 0001:00000aa0       ??1?$vector@PEAUListEntry@?$hash_map@PEAXPEAVCalcDialog@@UDlgHashFunc@@U?$equal_to@PEAX@std@@V?$allocator@U?$pair@PEAXPEAVCalcDialog@@@std@@@4@@ag@@V?$allocator@PEAUListEntry@?$hash_map@PEAXPEAVCalcDialog@@UDlgHashFunc@@U?$equal_to@PEAX@std@@V?$allocator@U?$pair@PEAXPEAVCalcDialog@@@std@@@4@@ag@@@std@@@std@@QEAA@XZ 0000000180001aa0 f i api.cpp.obj
 0001:00000ae0       ?initBucketsSize_@?$hash_map@PEAXPEAVCalcDialog@@UDlgHashFunc@@U?$equal_to@PEAX@std@@V?$allocator@U?$pair@PEAXPEAVCalcDialog@@@std@@@4@@ag@@AEAAX_K@Z 0000000180001ae0 f i api.cpp.obj
 0001:00000ba0       ?reHash@?$hash_map@PEAXPEAVCalcDialog@@UDlgHashFunc@@U?$equal_to@PEAX@std@@V?$allocator@U?$pair@PEAXPEAVCalcDialog@@@std@@@4@@ag@@QEAAXXZ 0000000180001ba0 f i api.cpp.obj
 0001:00000d80       ?_Xlength@?$vector@PEAVPriorityLevel@BinaryOperationTable@?$MathExpressionBase@USArg@@@@V?$allocator@PEAVPriorityLevel@BinaryOperationTable@?$MathExpressionBase@USArg@@@@@std@@@std@@CAXXZ 0000000180001d80 f i newparse.cpp.obj
 0001:00000d80       ?_Xlength@?$vector@PEAUListEntry@?$hash_map@PEAXPEAVCalcDialog@@UDlgHashFunc@@U?$equal_to@PEAX@std@@V?$allocator@U?$pair@PEAXPEAVCalcDialog@@@std@@@4@@ag@@V?$allocator@PEAUListEntry@?$hash_map@PEAXPEAVCalcDialog@@UDlgHashFunc@@U?$equal_to@PEAX@std@@V?$allocator@U?$pair@PEAXPEAVCalcDialog@@@std@@@4@@ag@@@std@@@std@@CAXXZ 0000000180001d80 f i api.cpp.obj
 0001:00000d80       ?_Xlength@?$vector@VCalcMenuItem@@V?$allocator@VCalcMenuItem@@@std@@@std@@CAXXZ 0000000180001d80 f i calc.cpp.obj
 0001:00000d80       ?_Xlength@?$vector@UFarMenuItem@@V?$allocator@UFarMenuItem@@@std@@@std@@CAXXZ 0000000180001d80 f i api-far3.cpp.obj
 0001:00000d80       ?_Xlength@?$vector@VCalcAddonPart@@V?$allocator@VCalcAddonPart@@@std@@@std@@CAXXZ 0000000180001d80 f i newparse.cpp.obj
 0001:00000d80       ?_Xlength@?$vector@PEAVUnaryOperationNodeFactory@?$MathExpressionBase@USArg@@@@V?$allocator@PEAVUnaryOperationNodeFactory@?$MathExpressionBase@USArg@@@@@std@@@std@@CAXXZ 0000000180001d80 f i newparse.cpp.obj
 0001:00000d80       ?_Xlength@?$vector@PEAVConstValueNodeFactory@?$MathExpressionBase@USArg@@@@V?$allocator@PEAVConstValueNodeFactory@?$MathExpressionBase@USArg@@@@@std@@@std@@CAXXZ 0000000180001d80 f i newparse.cpp.obj
 0001:00000d80       ?_Xlength@?$vector@PEAVBinaryOperationNodeFactory@?$MathExpressionBase@USArg@@@@V?$allocator@PEAVBinaryOperationNodeFactory@?$MathExpressionBase@USArg@@@@@std@@@std@@CAXXZ 0000000180001d80 f i newparse.cpp.obj
 0001:00000d80       ?_Xlength@?$vector@V?$Big@$00$0BK@@ttmath@@V?$allocator@V?$Big@$00$0BK@@ttmath@@@std@@@std@@CAXXZ 0000000180001d80 f i newparse.cpp.obj
 0001:00000d80       ?_Xlength@?$vector@PEAVFunctionalNodeFactory@?$MathExpressionBase@USArg@@@@V?$allocator@PEAVFunctionalNodeFactory@?$MathExpressionBase@USArg@@@@@std@@@std@@CAXXZ 0000000180001d80 f i newparse.cpp.obj
 0001:00000d80       ?_Xlength@?$vector@PEAVNode@?$MathExpressionBase@USArg@@@@V?$allocator@PEAVNode@?$MathExpressionBase@USArg@@@@@std@@@std@@CAXXZ 0000000180001d80 f i newparse.cpp.obj
 0001:00000d80       ?_Xlength@?$vector@PEAUListEntry@?$hash_map@V?$basic_string@_WU?$char_traits@_W@std@@V?$allocator@_W@2@@std@@PEAVCalcParser@@UStrHashFunc@@U?$equal_to@V?$basic_string@_WU?$char_traits@_W@std@@V?$allocator@_W@2@@std@@@2@V?$allocator@U?$pair@V?$basic_string@_WU?$char_traits@_W@std@@V?$allocator@_W@2@@std@@PEAVCalcParser@@@std@@@2@@ag@@V?$allocator@PEAUListEntry@?$hash_map@V?$basic_string@_WU?$char_traits@_W@std@@V?$allocator@_W@2@@std@@PEAVCalcParser@@UStrHashFunc@@U?$equal_to@V?$basic_string@_WU?$char_traits@_W@std@@V?$allocator@_W@2@@std@@@2@V?$allocator@U?$pair@V?$basic_string@_WU?$char_traits@_W@std@@V?$allocator@_W@2@@std@@PEAVCalcParser@@@std@@@2@@ag@@@std@@@std@@CAXXZ 0000000180001d80 f i newparse.cpp.obj
 0001:00000d80       ?_Xlength@?$vector@VCalcAddon@@V?$allocator@VCalcAddon@@@std@@@std@@CAXXZ 0000000180001d80 f i newparse.cpp.obj
 0001:00000d80       ?_Xlength@?$vector@V?$Int@$0BI@@ttmath@@V?$allocator@V?$Int@$0BI@@ttmath@@@std@@@std@@CAXXZ 0000000180001d80 f i newparse.cpp.obj
 0001:00000d80       ?_Xlength@?$vector@USArg@@V?$allocator@USArg@@@std@@@std@@CAXXZ 0000000180001d80 f i newparse.cpp.obj
 0001:00000d80       ?_Xlength@?$vector@PEAVCalcParser@@V?$allocator@PEAVCalcParser@@@std@@@std@@CAXXZ 0000000180001d80 f i newparse.cpp.obj
 0001:00000d80       ?_Xlength@?$vector@PEAVArgNodeFactory@?$MathExpressionBase@USArg@@@@V?$allocator@PEAVArgNodeFactory@?$MathExpressionBase@USArg@@@@@std@@@std@@CAXXZ 0000000180001d80 f i newparse.cpp.obj
 0001:00000da0       ?_Reallocate_exactly@?$vector@PEAUListEntry@?$hash_map@PEAXPEAVCalcDialog@@UDlgHashFunc@@U?$equal_to@PEAX@std@@V?$allocator@U?$pair@PEAXPEAVCalcDialog@@@std@@@4@@ag@@V?$allocator@PEAUListEntry@?$hash_map@PEAXPEAVCalcDialog@@UDlgHashFunc@@U?$equal_to@PEAX@std@@V?$allocator@U?$pair@PEAXPEAVCalcDialog@@@std@@@4@@ag@@@std@@@std@@AEAAX_K@Z 0000000180001da0 f i api.cpp.obj
 0001:00000da0       ?_Reallocate_exactly@?$vector@PEAUListEntry@?$hash_map@V?$basic_string@_WU?$char_traits@_W@std@@V?$allocator@_W@2@@std@@PEAVCalcParser@@UStrHashFunc@@U?$equal_to@V?$basic_string@_WU?$char_traits@_W@std@@V?$allocator@_W@2@@std@@@2@V?$allocator@U?$pair@V?$basic_string@_WU?$char_traits@_W@std@@V?$allocator@_W@2@@std@@PEAVCalcParser@@@std@@@2@@ag@@V?$allocator@PEAUListEntry@?$hash_map@V?$basic_string@_WU?$char_traits@_W@std@@V?$allocator@_W@2@@std@@PEAVCalcParser@@UStrHashFunc@@U?$equal_to@V?$basic_string@_WU?$char_traits@_W@std@@V?$allocator@_W@2@@std@@@2@V?$allocator@U?$pair@V?$basic_string@_WU?$char_traits@_W@std@@V?$allocator@_W@2@@std@@PEAVCalcParser@@@std@@@2@@ag@@@std@@@std@@AEAAX_K@Z 0000000180001da0 f i newparse.cpp.obj
 0001:00000e40       ??$_Deallocate@$0BA@$0A@@std@@YAXPEAX_K@Z 0000000180001e40 f i api.cpp.obj
 0001:00000e80       ??$_Allocate@$0BA@U_Default_allocate_traits@std@@$0A@@std@@YAPEAX_K@Z 0000000180001e80 f i api.cpp.obj
 0001:00000ea0       ??$_Emplace_reallocate@AEBQEAVBinaryOperationNodeFactory@?$MathExpressionBase@USArg@@@@@?$vector@PEAVBinaryOperationNodeFactory@?$MathExpressionBase@USArg@@@@V?$allocator@PEAVBinaryOperationNodeFactory@?$MathExpressionBase@USArg@@@@@std@@@std@@QEAAPEAPEAVBinaryOperationNodeFactory@?$MathExpressionBase@USArg@@@@QEAPEAV23@AEBQEAV23@@Z 0000000180001ea0 f i newparse.cpp.obj
 0001:00000ea0       ??$_Emplace_reallocate@AEBQEAUListEntry@?$hash_map@V?$basic_string@_WU?$char_traits@_W@std@@V?$allocator@_W@2@@std@@PEAVCalcParser@@UStrHashFunc@@U?$equal_to@V?$basic_string@_WU?$char_traits@_W@std@@V?$allocator@_W@2@@std@@@2@V?$allocator@U?$pair@V?$basic_string@_WU?$char_traits@_W@std@@V?$allocator@_W@2@@std@@PEAVCalcParser@@@std@@@2@@ag@@@?$vector@PEAUListEntry@?$hash_map@V?$basic_string@_WU?$char_traits@_W@std@@V?$allocator@_W@2@@std@@PEAVCalcParser@@UStrHashFunc@@U?$equal_to@V?$basic_string@_WU?$char_traits@_W@std@@V?$allocator@_W@2@@std@@@2@V?$allocator@U?$pair@V?$basic_string@_WU?$char_traits@_W@std@@V?$allocator@_W@2@@std@@PEAVCalcParser@@@std@@@2@@ag@@V?$allocator@PEAUListEntry@?$hash_map@V?$basic_string@_WU?$char_traits@_W@std@@V?$allocator@_W@2@@std@@PEAVCalcParser@@UStrHashFunc@@U?$equal_to@V?$basic_string@_WU?$char_traits@_W@std@@V?$allocator@_W@2@@std@@@2@V?$allocator@U?$pair@V?$basic_string@_WU?$char_traits@_W@std@@V?$allocator@_W@2@@std@@PEAVCalcParser@@@std@@@2@@ag@@@std@@@std@@QEAAPEAPEAUListEntry@?$hash_map@V?$basic_string@_WU?$char_traits@_W@std@@V?$allocator@_W@2@@std@@PEAVCalcParser@@UStrHashFunc@@U?$equal_to@V?$basic_string@_WU?$char_traits@_W@std@@V?$allocator@_W@2@@std@@@2@V?$allocator@U?$pair@V?$basic_string@_WU?$char_traits@_W@std@@V?$allocator@_W@2@@std@@PEAVCalcParser@@@std@@@2@@ag@@QEAPEAU234@AEBQEAU234@@Z 0000000180001ea0 f i newparse.cpp.obj
 0001:00000ea0       ??$_Emplace_reallocate@AEBQEAVArgNodeFactory@?$MathExpressionBase@USArg@@@@@?$vector@PEAVArgNodeFactory@?$MathExpressionBase@USArg@@@@V?$allocator@PEAVArgNodeFactory@?$MathExpressionBase@USArg@@@@@std@@@std@@QEAAPEAPEAVArgNodeFactory@?$MathExpressionBase@USArg@@@@QEAPEAV23@AEBQEAV23@@Z 0000000180001ea0 f i newparse.cpp.obj
 0001:00000ea0       ??$_Emplace_reallocate@AEBQEAVNode@?$MathExpressionBase@USArg@@@@@?$vector@PEAVNode@?$MathExpressionBase@USArg@@@@V?$allocator@PEAVNode@?$MathExpressionBase@USArg@@@@@std@@@std@@QEAAPEAPEAVNode@?$MathExpressionBase@USArg@@@@QEAPEAV23@AEBQEAV23@@Z 0000000180001ea0 f i newparse.cpp.obj
 0001:00000ea0       ??$_Emplace_reallocate@AEBQEAUListEntry@?$hash_map@PEAXPEAVCalcDialog@@UDlgHashFunc@@U?$equal_to@PEAX@std@@V?$allocator@U?$pair@PEAXPEAVCalcDialog@@@std@@@4@@ag@@@?$vector@PEAUListEntry@?$hash_map@PEAXPEAVCalcDialog@@UDlgHashFunc@@U?$equal_to@PEAX@std@@V?$allocator@U?$pair@PEAXPEAVCalcDialog@@@std@@@4@@ag@@V?$allocator@PEAUListEntry@?$hash_map@PEAXPEAVCalcDialog@@UDlgHashFunc@@U?$equal_to@PEAX@std@@V?$allocator@U?$pair@PEAXPEAVCalcDialog@@@std@@@4@@ag@@@std@@@std@@QEAAPEAPEAUListEntry@?$hash_map@PEAXPEAVCalcDialog@@UDlgHashFunc@@U?$equal_to@PEAX@std@@V?$allocator@U?$pair@PEAXPEAVCalcDialog@@@std@@@4@@ag@@QEAPEAU234@AEBQEAU234@@Z 0000000180001ea0 f i api.cpp.obj
 0001:00000ea0       ??$_Emplace_reallocate@AEBQEAVCalcParser@@@?$vector@PEAVCalcParser@@V?$allocator@PEAVCalcParser@@@std@@@std@@QEAAPEAPEAVCalcParser@@QEAPEAV2@AEBQEAV2@@Z 0000000180001ea0 f i newparse.cpp.obj
 0001:00000fd0       ??$_Uninitialized_move@PEAPEAVPriorityLevel@BinaryOperationTable@?$MathExpressionBase@USArg@@@@V?$allocator@PEAVPriorityLevel@BinaryOperationTable@?$MathExpressionBase@USArg@@@@@std@@@std@@YAPEAPEAVPriorityLevel@BinaryOperationTable@?$MathExpressionBase@USArg@@@@QEAPEAV123@0PEAPEAV123@AEAV?$allocator@PEAVPriorityLevel@BinaryOperationTable@?$MathExpressionBase@USArg@@@@@0@@Z 0000000180001fd0 f i newparse.cpp.obj
 0001:00000fd0       ??$_Uninitialized_move@PEAPEAUListEntry@?$hash_map@V?$basic_string@_WU?$char_traits@_W@std@@V?$allocator@_W@2@@std@@PEAVCalcParser@@UStrHashFunc@@U?$equal_to@V?$basic_string@_WU?$char_traits@_W@std@@V?$allocator@_W@2@@std@@@2@V?$allocator@U?$pair@V?$basic_string@_WU?$char_traits@_W@std@@V?$allocator@_W@2@@std@@PEAVCalcParser@@@std@@@2@@ag@@V?$allocator@PEAUListEntry@?$hash_map@V?$basic_string@_WU?$char_traits@_W@std@@V?$allocator@_W@2@@std@@PEAVCalcParser@@UStrHashFunc@@U?$equal_to@V?$basic_string@_WU?$char_traits@_W@std@@V?$allocator@_W@2@@std@@@2@V?$allocator@U?$pair@V?$basic_string@_WU?$char_traits@_W@std@@V?$allocator@_W@2@@std@@PEAVCalcParser@@@std@@@2@@ag@@@std@@@std@@YAPEAPEAUListEntry@?$hash_map@V?$basic_string@_WU?$char_traits@_W@std@@V?$allocator@_W@2@@std@@PEAVCalcParser@@UStrHashFunc@@U?$equal_to@V?$basic_string@_WU?$char_traits@_W@std@@V?$allocator@_W@2@@std@@@2@V?$allocator@U?$pair@V?$basic_string@_WU?$char_traits@_W@std@@V?$allocator@_W@2@@std@@PEAVCalcParser@@@std@@@2@@ag@@QEAPEAU123@0PEAPEAU123@AEAV?$allocator@PEAUListEntry@?$hash_map@V?$basic_string@_WU?$char_traits@_W@std@@V?$allocator@_W@2@@std@@PEAVCalcParser@@UStrHashFunc@@U?$equal_to@V?$basic_string@_WU?$char_traits@_W@std@@V?$allocator@_W@2@@std@@@2@V?$allocator@U?$pair@V?$basic_string@_WU?$char_traits@_W@std@@V?$allocator@_W@2@@std@@PEAVCalcParser@@@std@@@2@@ag@@@0@@Z 0000000180001fd0 f i newparse.cpp.obj
 0001:00000fd0       ??$_Uninitialized_move@PEAPEAVUnaryOperationNodeFactory@?$MathExpressionBase@USArg@@@@V?$allocator@PEAVUnaryOperationNodeFactory@?$MathExpressionBase@USArg@@@@@std@@@std@@YAPEAPEAVUnaryOperationNodeFactory@?$MathExpressionBase@USArg@@@@QEAPEAV12@0PEAPEAV12@AEAV?$allocator@PEAVUnaryOperationNodeFactory@?$MathExpressionBase@USArg@@@@@0@@Z 0000000180001fd0 f i newparse.cpp.obj
 0001:00000fd0       ??$_Uninitialized_copy@PEAPEAVNode@?$MathExpressionBase@USArg@@@@V?$allocator@PEAVNode@?$MathExpressionBase@USArg@@@@@std@@@std@@YAPEAPEAVNode@?$MathExpressionBase@USArg@@@@QEAPEAV12@0PEAPEAV12@AEAV?$allocator@PEAVNode@?$MathExpressionBase@USArg@@@@@0@@Z 0000000180001fd0 f i newparse.cpp.obj
 0001:00000fd0       ??$_Uninitialized_move@PEAPEAVFunctionalNodeFactory@?$MathExpressionBase@USArg@@@@V?$allocator@PEAVFunctionalNodeFactory@?$MathExpressionBase@USArg@@@@@std@@@std@@YAPEAPEAVFunctionalNodeFactory@?$MathExpressionBase@USArg@@@@QEAPEAV12@0PEAPEAV12@AEAV?$allocator@PEAVFunctionalNodeFactory@?$MathExpressionBase@USArg@@@@@0@@Z 0000000180001fd0 f i newparse.cpp.obj
 0001:00000fd0       ??$_Uninitialized_move@PEAPEAVConstValueNodeFactory@?$MathExpressionBase@USArg@@@@V?$allocator@PEAVConstValueNodeFactory@?$MathExpressionBase@USArg@@@@@std@@@std@@YAPEAPEAVConstValueNodeFactory@?$MathExpressionBase@USArg@@@@QEAPEAV12@0PEAPEAV12@AEAV?$allocator@PEAVConstValueNodeFactory@?$MathExpressionBase@USArg@@@@@0@@Z 0000000180001fd0 f i newparse.cpp.obj
 0001:00000fd0       ??$_Uninitialized_move@PEAPEAVNode@?$MathExpressionBase@USArg@@@@V?$allocator@PEAVNode@?$MathExpressionBase@USArg@@@@@std@@@std@@YAPEAPEAVNode@?$MathExpressionBase@USArg@@@@QEAPEAV12@0PEAPEAV12@AEAV?$allocator@PEAVNode@?$MathExpressionBase@USArg@@@@@0@@Z 0000000180001fd0 f i newparse.cpp.obj
 0001:00000fd0       ??$_Uninitialized_move@PEAPEAVArgNodeFactory@?$MathExpressionBase@USArg@@@@V?$allocator@PEAVArgNodeFactory@?$MathExpressionBase@USArg@@@@@std@@@std@@YAPEAPEAVArgNodeFactory@?$MathExpressionBase@USArg@@@@QEAPEAV12@0PEAPEAV12@AEAV?$allocator@PEAVArgNodeFactory@?$MathExpressionBase@USArg@@@@@0@@Z 0000000180001fd0 f i newparse.cpp.obj
 0001:00000fd0       ??$_Uninitialized_move@PEAPEAUListEntry@?$hash_map@PEAXPEAVCalcDialog@@UDlgHashFunc@@U?$equal_to@PEAX@std@@V?$allocator@U?$pair@PEAXPEAVCalcDialog@@@std@@@4@@ag@@V?$allocator@PEAUListEntry@?$hash_map@PEAXPEAVCalcDialog@@UDlgHashFunc@@U?$equal_to@PEAX@std@@V?$allocator@U?$pair@PEAXPEAVCalcDialog@@@std@@@4@@ag@@@std@@@std@@YAPEAPEAUListEntry@?$hash_map@PEAXPEAVCalcDialog@@UDlgHashFunc@@U?$equal_to@PEAX@std@@V?$allocator@U?$pair@PEAXPEAVCalcDialog@@@std@@@4@@ag@@QEAPEAU123@0PEAPEAU123@AEAV?$allocator@PEAUListEntry@?$hash_map@PEAXPEAVCalcDialog@@UDlgHashFunc@@U?$equal_to@PEAX@std@@V?$allocator@U?$pair@PEAXPEAVCalcDialog@@@std@@@4@@ag@@@0@@Z 0000000180001fd0 f i api.cpp.obj
 0001:00000fd0       ??$_Uninitialized_move@PEAPEAVBinaryOperationNodeFactory@?$MathExpressionBase@USArg@@@@V?$allocator@PEAVBinaryOperationNodeFactory@?$MathExpressionBase@USArg@@@@@std@@@std@@YAPEAPEAVBinaryOperationNodeFactory@?$MathExpressionBase@USArg@@@@QEAPEAV12@0PEAPEAV12@AEAV?$allocator@PEAVBinaryOperationNodeFactory@?$MathExpressionBase@USArg@@@@@0@@Z 0000000180001fd0 f i newparse.cpp.obj
 0001:00000fd0       ??$_Uninitialized_move@PEAPEAVCalcParser@@V?$allocator@PEAVCalcParser@@@std@@@std@@YAPEAPEAVCalcParser@@QEAPEAV1@0PEAPEAV1@AEAV?$allocator@PEAVCalcParser@@@0@@Z 0000000180001fd0 f i newparse.cpp.obj
 0001:00001010       ??$_Resize_reallocate@PEAUListEntry@?$hash_map@V?$basic_string@_WU?$char_traits@_W@std@@V?$allocator@_W@2@@std@@PEAVCalcParser@@UStrHashFunc@@U?$equal_to@V?$basic_string@_WU?$char_traits@_W@std@@V?$allocator@_W@2@@std@@@2@V?$allocator@U?$pair@V?$basic_string@_WU?$char_traits@_W@std@@V?$allocator@_W@2@@std@@PEAVCalcParser@@@std@@@2@@ag@@@?$vector@PEAUListEntry@?$hash_map@V?$basic_string@_WU?$char_traits@_W@std@@V?$allocator@_W@2@@std@@PEAVCalcParser@@UStrHashFunc@@U?$equal_to@V?$basic_string@_WU?$char_traits@_W@std@@V?$allocator@_W@2@@std@@@2@V?$allocator@U?$pair@V?$basic_string@_WU?$char_traits@_W@std@@V?$allocator@_W@2@@std@@PEAVCalcParser@@@std@@@2@@ag@@V?$allocator@PEAUListEntry@?$hash_map@V?$basic_string@_WU?$char_traits@_W@std@@V?$allocator@_W@2@@std@@PEAVCalcParser@@UStrHashFunc@@U?$equal_to@V?$basic_string@_WU?$char_traits@_W@std@@V?$allocator@_W@2@@std@@@2@V?$allocator@U?$pair@V?$basic_string@_WU?$char_traits@_W@std@@V?$allocator@_W@2@@std@@PEAVCalcParser@@@std@@@2@@ag@@@std@@@std@@AEAAX_KAEBQEAUListEntry@?$hash_map@V?$basic_string@_WU?$char_traits@_W@std@@V?$allocator@_W@2@@std@@PEAVCalcParser@@UStrHashFunc@@U?$equal_to@V?$basic_string@_WU?$char_traits@_W@std@@V?$allocator@_W@2@@std@@@2@V?$allocator@U?$pair@V?$basic_string@_WU?$char_traits@_W@std@@V?$allocator@_W@2@@std@@PEAVCalcParser@@@std@@@2@@ag@@@Z 0000000180002010 f i newparse.cpp.obj
 0001:00001010       ??$_Resize_reallocate@PEAUListEntry@?$hash_map@PEAXPEAVCalcDialog@@UDlgHashFunc@@U?$equal_to@PEAX@std@@V?$allocator@U?$pair@PEAXPEAVCalcDialog@@@std@@@4@@ag@@@?$vector@PEAUListEntry@?$hash_map@PEAXPEAVCalcDialog@@UDlgHashFunc@@U?$equal_to@PEAX@std@@V?$allocator@U?$pair@PEAXPEAVCalcDialog@@@std@@@4@@ag@@V?$allocator@PEAUListEntry@?$hash_map@PEAXPEAVCalcDialog@@UDlgHashFunc@@U?$equal_to@PEAX@std@@V?$allocator@U?$pair@PEAXPEAVCalcDialog@@@std@@@4@@ag@@@std@@@std@@AEAAX_KAEBQEAUListEntry@?$hash_map@PEAXPEAVCalcDialog@@UDlgHashFunc@@U?$equal_to@PEAX@std@@V?$allocator@U?$pair@PEAXPEAVCalcDialog@@@std@@@4@@ag@@@Z 0000000180002010 f i api.cpp.obj
 0001:00001110       ??$_Allocate_manually_vector_aligned@U_Default_allocate_traits@std@@@std@@YAPEAX_K@Z 0000000180002110 f i api.cpp.obj
 0001:00001150       ??$_Copy_memmove@PEAPEAVFunctionalNodeFactory@?$MathExpressionBase@USArg@@@@PEAPEAV12@@std@@YAPEAPEAVFunctionalNodeFactory@?$MathExpressionBase@USArg@@@@PEAPEAV12@00@Z 0000000180002150 f i newparse.cpp.obj
 0001:00001150       ??$_Copy_memmove@PEAPEAUListEntry@?$hash_map@PEAXPEAVCalcDialog@@UDlgHashFunc@@U?$equal_to@PEAX@std@@V?$allocator@U?$pair@PEAXPEAVCalcDialog@@@std@@@4@@ag@@PEAPEAU123@@std@@YAPEAPEAUListEntry@?$hash_map@PEAXPEAVCalcDialog@@UDlgHashFunc@@U?$equal_to@PEAX@std@@V?$allocator@U?$pair@PEAXPEAVCalcDialog@@@std@@@4@@ag@@PEAPEAU123@00@Z 0000000180002150 f i api.cpp.obj
 0001:00001150       ??$_Copy_memmove@PEAPEAVArgNodeFactory@?$MathExpressionBase@USArg@@@@PEAPEAV12@@std@@YAPEAPEAVArgNodeFactory@?$MathExpressionBase@USArg@@@@PEAPEAV12@00@Z 0000000180002150 f i newparse.cpp.obj
 0001:00001150       ??$_Copy_memmove@PEAPEAVConstValueNodeFactory@?$MathExpressionBase@USArg@@@@PEAPEAV12@@std@@YAPEAPEAVConstValueNodeFactory@?$MathExpressionBase@USArg@@@@PEAPEAV12@00@Z 0000000180002150 f i newparse.cpp.obj
 0001:00001150       ??$_Copy_memmove@PEAPEAVCalcParser@@PEAPEAV1@@std@@YAPEAPEAVCalcParser@@PEAPEAV1@00@Z 0000000180002150 f i newparse.cpp.obj
 0001:00001150       ??$_Copy_memmove@PEAPEAUListEntry@?$hash_map@V?$basic_string@_WU?$char_traits@_W@std@@V?$allocator@_W@2@@std@@PEAVCalcParser@@UStrHashFunc@@U?$equal_to@V?$basic_string@_WU?$char_traits@_W@std@@V?$allocator@_W@2@@std@@@2@V?$allocator@U?$pair@V?$basic_string@_WU?$char_traits@_W@std@@V?$allocator@_W@2@@std@@PEAVCalcParser@@@std@@@2@@ag@@PEAPEAU123@@std@@YAPEAPEAUListEntry@?$hash_map@V?$basic_string@_WU?$char_traits@_W@std@@V?$allocator@_W@2@@std@@PEAVCalcParser@@UStrHashFunc@@U?$equal_to@V?$basic_string@_WU?$char_traits@_W@std@@V?$allocator@_W@2@@std@@@2@V?$allocator@U?$pair@V?$basic_string@_WU?$char_traits@_W@std@@V?$allocator@_W@2@@std@@PEAVCalcParser@@@std@@@2@@ag@@PEAPEAU123@00@Z 0000000180002150 f i newparse.cpp.obj
 0001:00001150       ??$_Copy_memmove@PEAPEAVNode@?$MathExpressionBase@USArg@@@@PEAPEAV12@@std@@YAPEAPEAVNode@?$MathExpressionBase@USArg@@@@PEAPEAV12@00@Z 0000000180002150 f i newparse.cpp.obj
 0001:00001150       ??$_Copy_memmove@PEAPEAVPriorityLevel@BinaryOperationTable@?$MathExpressionBase@USArg@@@@PEAPEAV123@@std@@YAPEAPEAVPriorityLevel@BinaryOperationTable@?$MathExpressionBase@USArg@@@@PEAPEAV123@00@Z 0000000180002150 f i newparse.cpp.obj
 0001:00001150       ??$_Copy_memmove@PEAPEAVUnaryOperationNodeFactory@?$MathExpressionBase@USArg@@@@PEAPEAV12@@std@@YAPEAPEAVUnaryOperationNodeFactory@?$MathExpressionBase@USArg@@@@PEAPEAV12@00@Z 0000000180002150 f i newparse.cpp.obj
 0001:00001150       ??$_Copy_memmove@PEAPEAVBinaryOperationNodeFactory@?$MathExpressionBase@USArg@@@@PEAPEAV12@@std@@YAPEAPEAVBinaryOperationNodeFactory@?$MathExpressionBase@USArg@@@@PEAPEAV12@00@Z 0000000180002150 f i newparse.cpp.obj
 0001:00001180       ??$_Uninitialized_fill_n@V?$allocator@PEAVPriorityLevel@BinaryOperationTable@?$MathExpressionBase@USArg@@@@@std@@@std@@YAPEAPEAVPriorityLevel@BinaryOperationTable@?$MathExpressionBase@USArg@@@@PEAPEAV123@_KAEBQEAV123@AEAV?$allocator@PEAVPriorityLevel@BinaryOperationTable@?$MathExpressionBase@USArg@@@@@0@@Z 0000000180002180 f i newparse.cpp.obj
 0001:00001180       ??$_Uninitialized_fill_n@V?$allocator@PEAUListEntry@?$hash_map@V?$basic_string@_WU?$char_traits@_W@std@@V?$allocator@_W@2@@std@@PEAVCalcParser@@UStrHashFunc@@U?$equal_to@V?$basic_string@_WU?$char_traits@_W@std@@V?$allocator@_W@2@@std@@@2@V?$allocator@U?$pair@V?$basic_string@_WU?$char_traits@_W@std@@V?$allocator@_W@2@@std@@PEAVCalcParser@@@std@@@2@@ag@@@std@@@std@@YAPEAPEAUListEntry@?$hash_map@V?$basic_string@_WU?$char_traits@_W@std@@V?$allocator@_W@2@@std@@PEAVCalcParser@@UStrHashFunc@@U?$equal_to@V?$basic_string@_WU?$char_traits@_W@std@@V?$allocator@_W@2@@std@@@2@V?$allocator@U?$pair@V?$basic_string@_WU?$char_traits@_W@std@@V?$allocator@_W@2@@std@@PEAVCalcParser@@@std@@@2@@ag@@PEAPEAU123@_KAEBQEAU123@AEAV?$allocator@PEAUListEntry@?$hash_map@V?$basic_string@_WU?$char_traits@_W@std@@V?$allocator@_W@2@@std@@PEAVCalcParser@@UStrHashFunc@@U?$equal_to@V?$basic_string@_WU?$char_traits@_W@std@@V?$allocator@_W@2@@std@@@2@V?$allocator@U?$pair@V?$basic_string@_WU?$char_traits@_W@std@@V?$allocator@_W@2@@std@@PEAVCalcParser@@@std@@@2@@ag@@@0@@Z 0000000180002180 f i newparse.cpp.obj
 0001:00001180       ??$_Uninitialized_fill_n@V?$allocator@PEAUListEntry@?$hash_map@PEAXPEAVCalcDialog@@UDlgHashFunc@@U?$equal_to@PEAX@std@@V?$allocator@U?$pair@PEAXPEAVCalcDialog@@@std@@@4@@ag@@@std@@@std@@YAPEAPEAUListEntry@?$hash_map@PEAXPEAVCalcDialog@@UDlgHashFunc@@U?$equal_to@PEAX@std@@V?$allocator@U?$pair@PEAXPEAVCalcDialog@@@std@@@4@@ag@@PEAPEAU123@_KAEBQEAU123@AEAV?$allocator@PEAUListEntry@?$hash_map@PEAXPEAVCalcDialog@@UDlgHashFunc@@U?$equal_to@PEAX@std@@V?$allocator@U?$pair@PEAXPEAVCalcDialog@@@std@@@4@@ag@@@0@@Z 0000000180002180 f i api.cpp.obj
 0001:000011e0       ??$_Is_all_bits_zero@PEAUListEntry@?$hash_map@PEAXPEAVCalcDialog@@UDlgHashFunc@@U?$equal_to@PEAX@std@@V?$allocator@U?$pair@PEAXPEAVCalcDialog@@@std@@@4@@ag@@@std@@YA_NAEBQEAUListEntry@?$hash_map@PEAXPEAVCalcDialog@@UDlgHashFunc@@U?$equal_to@PEAX@std@@V?$allocator@U?$pair@PEAXPEAVCalcDialog@@@std@@@4@@ag@@@Z 00000001800021e0 f i api.cpp.obj
 0001:000011e0       ??$_Is_all_bits_zero@PEAVPriorityLevel@BinaryOperationTable@?$MathExpressionBase@USArg@@@@@std@@YA_NAEBQEAVPriorityLevel@BinaryOperationTable@?$MathExpressionBase@USArg@@@@@Z 00000001800021e0 f i newparse.cpp.obj
 0001:000011e0       ??$_Is_all_bits_zero@PEAUListEntry@?$hash_map@V?$basic_string@_WU?$char_traits@_W@std@@V?$allocator@_W@2@@std@@PEAVCalcParser@@UStrHashFunc@@U?$equal_to@V?$basic_string@_WU?$char_traits@_W@std@@V?$allocator@_W@2@@std@@@2@V?$allocator@U?$pair@V?$basic_string@_WU?$char_traits@_W@std@@V?$allocator@_W@2@@std@@PEAVCalcParser@@@std@@@2@@ag@@@std@@YA_NAEBQEAUListEntry@?$hash_map@V?$basic_string@_WU?$char_traits@_W@std@@V?$allocator@_W@2@@std@@PEAVCalcParser@@UStrHashFunc@@U?$equal_to@V?$basic_string@_WU?$char_traits@_W@std@@V?$allocator@_W@2@@std@@@2@V?$allocator@U?$pair@V?$basic_string@_WU?$char_traits@_W@std@@V?$allocator@_W@2@@std@@PEAVCalcParser@@@std@@@2@@ag@@@Z 00000001800021e0 f i newparse.cpp.obj
 0001:000011f0       ??$_Fill_zero_memset@PEAVPriorityLevel@BinaryOperationTable@?$MathExpressionBase@USArg@@@@@std@@YAXQEAPEAVPriorityLevel@BinaryOperationTable@?$MathExpressionBase@USArg@@@@_K@Z 00000001800021f0 f i newparse.cpp.obj
 0001:000011f0       ??$_Fill_zero_memset@PEAUListEntry@?$hash_map@V?$basic_string@_WU?$char_traits@_W@std@@V?$allocator@_W@2@@std@@PEAVCalcParser@@UStrHashFunc@@U?$equal_to@V?$basic_string@_WU?$char_traits@_W@std@@V?$allocator@_W@2@@std@@@2@V?$allocator@U?$pair@V?$basic_string@_WU?$char_traits@_W@std@@V?$allocator@_W@2@@std@@PEAVCalcParser@@@std@@@2@@ag@@@std@@YAXQEAPEAUListEntry@?$hash_map@V?$basic_string@_WU?$char_traits@_W@std@@V?$allocator@_W@2@@std@@PEAVCalcParser@@UStrHashFunc@@U?$equal_to@V?$basic_string@_WU?$char_traits@_W@std@@V?$allocator@_W@2@@std@@@2@V?$allocator@U?$pair@V?$basic_string@_WU?$char_traits@_W@std@@V?$allocator@_W@2@@std@@PEAVCalcParser@@@std@@@2@@ag@@_K@Z 00000001800021f0 f i newparse.cpp.obj
 0001:000011f0       ??$_Fill_zero_memset@PEAUListEntry@?$hash_map@PEAXPEAVCalcDialog@@UDlgHashFunc@@U?$equal_to@PEAX@std@@V?$allocator@U?$pair@PEAXPEAVCalcDialog@@@std@@@4@@ag@@@std@@YAXQEAPEAUListEntry@?$hash_map@PEAXPEAVCalcDialog@@UDlgHashFunc@@U?$equal_to@PEAX@std@@V?$allocator@U?$pair@PEAXPEAVCalcDialog@@@std@@@4@@ag@@_K@Z 00000001800021f0 f i api.cpp.obj
 0001:00001200       ?_Xlen_string@std@@YAXXZ   0000000180002200 f i api-far3.cpp.obj
 0001:00001220       ?EnableRedraw@CalcDialogFuncsFar3@@UEAAXPEAX_N@Z 0000000180002220 f i api-far3.cpp.obj
 0001:00001240       ?ResizeDialog@CalcDialogFuncsFar3@@UEAAXPEAXAEBUCalcCoord@@@Z 0000000180002240 f i api-far3.cpp.obj
 0001:00001260       ?RedrawDialog@CalcDialogFuncsFar3@@UEAAXPEAX@Z 0000000180002260 f i api-far3.cpp.obj
 0001:00001280       ?Close@CalcDialogFuncsFar3@@UEAAXPEAXH@Z 0000000180002280 f i api-far3.cpp.obj
 0001:000012a0       ?GetDlgRect@CalcDialogFuncsFar3@@UEAAXPEAXPEAUCalcRect@@@Z 00000001800022a0 f i api-far3.cpp.obj
 0001:000012c0       ?GetDlgItemShort@CalcDialogFuncsFar3@@UEAAXPEAXHPEAUCalcDialogItem@@@Z 00000001800022c0 f i api-far3.cpp.obj
 0001:00001340       ?SetDlgItemShort@CalcDialogFuncsFar3@@UEAAXPEAXHAEBUCalcDialogItem@@@Z 0000000180002340 f i api-far3.cpp.obj
 0001:000013c0       ?SetItemPosition@CalcDialogFuncsFar3@@UEAAXPEAXHAEBUCalcRect@@@Z 00000001800023c0 f i api-far3.cpp.obj
 0001:000013e0       ?GetFocus@CalcDialogFuncsFar3@@UEAAHPEAX@Z 00000001800023e0 f i api-far3.cpp.obj
 0001:00001400       ?SetFocus@CalcDialogFuncsFar3@@UEAAXPEAXH@Z 0000000180002400 f i api-far3.cpp.obj
 0001:00001420       ?EditChange@CalcDialogFuncsFar3@@UEAAXPEAXHAEBUCalcDialogItem@@@Z 0000000180002420 f i api-far3.cpp.obj
 0001:000014a0       ?SetSelection@CalcDialogFuncsFar3@@UEAAXPEAXHAEBUCalcEditorSelect@@@Z 00000001800024a0 f i api-far3.cpp.obj
 0001:000014c0       ?SetCursorPos@CalcDialogFuncsFar3@@UEAAXPEAXHAEBUCalcCoord@@@Z 00000001800024c0 f i api-far3.cpp.obj
 0001:000014e0       ?GetText@CalcDialogFuncsFar3@@UEAAXPEAXHAEAV?$basic_string@_WU?$char_traits@_W@std@@V?$allocator@_W@2@@std@@@Z 00000001800024e0 f i api-far3.cpp.obj
 0001:000015c0       ?SetText@CalcDialogFuncsFar3@@UEAAXPEAXHAEBV?$basic_string@_WU?$char_traits@_W@std@@V?$allocator@_W@2@@std@@@Z 00000001800025c0 f i api-far3.cpp.obj
 0001:000015f0       ?AddHistory@CalcDialogFuncsFar3@@UEAAXPEAXHAEBV?$basic_string@_WU?$char_traits@_W@std@@V?$allocator@_W@2@@std@@@Z 00000001800025f0 f i api-far3.cpp.obj
 0001:00001620       ?IsChecked@CalcDialogFuncsFar3@@UEAA_NPEAXH@Z 0000000180002620 f i api-far3.cpp.obj
 0001:00001650       ?DialogInit@CalcDialogFuncsFar3@@UEAAPEAXHHHHHPEB_WPEAUCalcDialogItem@@IP6A_JPEAXHH2@Z@Z 0000000180002650 f i api-far3.cpp.obj
 0001:000017a0       ?DialogRun@CalcDialogFuncsFar3@@UEAA_JPEAX@Z 00000001800027a0 f i api-far3.cpp.obj
 0001:000017b0       ?DialogFree@CalcDialogFuncsFar3@@UEAAXPEAX@Z 00000001800027b0 f i api-far3.cpp.obj
 0001:000017c0       ?DefDlgProc@CalcDialogFuncsFar3@@UEAA_JPEAXHH0@Z 00000001800027c0 f i api-far3.cpp.obj
 0001:000017e0       ?ConvertToDlgItem@CalcDialogFuncsFar3@@UEAAXPEAXPEAUCalcDialogItem@@@Z 00000001800027e0 f i api-far3.cpp.obj
 0001:00001820       ?ConvertFromDlgItem@CalcDialogFuncsFar3@@UEAAXPEBUCalcDialogItem@@PEAX@Z 0000000180002820 f i api-far3.cpp.obj
 0001:00001890       ?PreProcessMessage@CalcDialogFuncsFar3@@UEAA_JPEAXHAEAHAEAPEAX@Z 0000000180002890 f i api-far3.cpp.obj
 0001:00001900       ?PostProcessMessage@CalcDialogFuncsFar3@@UEAA_JPEAXHAEA_JAEAHAEAPEAX@Z 0000000180002900 f i api-far3.cpp.obj
 0001:00001930       ?GetMessageTable@CalcDialogFuncsFar3@@UEAAPEAP8CalcDialog@@EAA_JHPEAX@ZXZ 0000000180002930 f i api-far3.cpp.obj
 0001:00001a00       ?GetPluginInfo@CalcApiFar3@@UEAAXPEAXPEB_W@Z 0000000180002a00 f i api-far3.cpp.obj
 0001:00001a80       ?IsOpenedFromEditor@CalcApiFar3@@UEAA_NPEAXH@Z 0000000180002a80 f i api-far3.cpp.obj
 0001:00001a90       ?GetMsg@CalcApiFar3@@UEAAPEB_WH@Z 0000000180002a90 f i api-far3.cpp.obj
 0001:00001ab0       ?GetDlgFuncs@CalcApiFar3@@UEAAPEAVCalcDialogFuncs@@XZ 0000000180002ab0 f i api-far3.cpp.obj
 0001:00001b00       ?Message@CalcApiFar3@@UEAA_JKPEB_WPEBQEB_WHH@Z 0000000180002b00 f i api-far3.cpp.obj
 0001:00001b50       ?Menu@CalcApiFar3@@UEAA_JHHH_KPEB_W1AEBV?$vector@VCalcMenuItem@@V?$allocator@VCalcMenuItem@@@std@@@std@@@Z 0000000180002b50 f i api-far3.cpp.obj
 0001:00001d80       ?EditorGet@CalcApiFar3@@UEAAXPEAUCalcEditorGetString@@PEAUCalcEditorInfo@@@Z 0000000180002d80 f i api-far3.cpp.obj
 0001:00001dd0       ?EditorSelect@CalcApiFar3@@UEAAXAEBUCalcEditorSelect@@@Z 0000000180002dd0 f i api-far3.cpp.obj
 0001:00001df0       ?EditorInsert@CalcApiFar3@@UEAAXPEB_W@Z 0000000180002df0 f i api-far3.cpp.obj
 0001:00001e10       ?EditorRedraw@CalcApiFar3@@UEAAXXZ 0000000180002e10 f i api-far3.cpp.obj
 0001:00001e30       ?GetDlgColors@CalcApiFar3@@UEAAXPEAUCalcColor@@00@Z 0000000180002e30 f i api-far3.cpp.obj
 0001:00001eb0       ?GetCmdLine@CalcApiFar3@@UEAAHAEAV?$basic_string@_WU?$char_traits@_W@std@@V?$allocator@_W@2@@std@@@Z 0000000180002eb0 f i api-far3.cpp.obj
 0001:00001fc0       ?SetCmdLine@CalcApiFar3@@UEAAXAEBV?$basic_string@_WU?$char_traits@_W@std@@V?$allocator@_W@2@@std@@@Z 0000000180002fc0 f i api-far3.cpp.obj
 0001:00001ff0       ?SettingsBegin@CalcApiFar3@@UEAA_NXZ 0000000180002ff0 f i api-far3.cpp.obj
 0001:00002060       ?SettingsEnd@CalcApiFar3@@UEAA_NXZ 0000000180003060 f i api-far3.cpp.obj
 0001:00002090       ?SettingsGet@CalcApiFar3@@UEAA_NPEB_WPEAV?$basic_string@_WU?$char_traits@_W@std@@V?$allocator@_W@2@@std@@PEAK@Z 0000000180003090 f i api-far3.cpp.obj
 0001:00002160       ?SettingsSet@CalcApiFar3@@UEAA_NPEB_WPEBV?$basic_string@_WU?$char_traits@_W@std@@V?$allocator@_W@2@@std@@PEBK@Z 0000000180003160 f i api-far3.cpp.obj
 0001:000021f0       ?GetModuleName@CalcApiFar3@@UEAAPEB_WXZ 00000001800031f0 f i api-far3.cpp.obj
 0001:00002200       ?CreateApiFar3@@YAPEAVCalcApi@@PEAX@Z 0000000180003200 f   api-far3.cpp.obj
 0001:00002320       ?GetGlobalInfoFar3@@YAXPEAXPEB_W@Z 0000000180003320 f   api-far3.cpp.obj
 0001:000023a0       ??1?$vector@UFarMenuItem@@V?$allocator@UFarMenuItem@@@std@@@std@@QEAA@XZ 00000001800033a0 f i api-far3.cpp.obj
 0001:000023f0       ?c_str@?$basic_string@_WU?$char_traits@_W@std@@V?$allocator@_W@2@@std@@QEBAPEB_WXZ 00000001800033f0 f i api-far3.cpp.obj
 0001:00002400       ??4?$basic_string@_WU?$char_traits@_W@std@@V?$allocator@_W@2@@std@@QEAAAEAV01@QEB_W@Z 0000000180003400 f i api-far3.cpp.obj
 0001:00002420       ??1?$basic_string@_WU?$char_traits@_W@std@@V?$allocator@_W@2@@std@@QEAA@XZ 0000000180003420 f i api-far3.cpp.obj
 0001:00002420       ??1?$pair@V?$basic_string@_WU?$char_traits@_W@std@@V?$allocator@_W@2@@std@@PEAVCalcParser@@@std@@QEAA@XZ 0000000180003420 f i newparse.cpp.obj
 0001:00002460       ?assign@?$basic_string@_WU?$char_traits@_W@std@@V?$allocator@_W@2@@std@@QEAAAEAV12@QEB_W_K@Z 0000000180003460 f i api-far3.cpp.obj
 0001:000025a0       ?append@?$basic_string@_WU?$char_traits@_W@std@@V?$allocator@_W@2@@std@@QEAAAEAV12@_K_W@Z 00000001800035a0 f i api-far3.cpp.obj
 0001:00002730       ??$_Construct_in_place@PEA_WAEBQEA_W@std@@YAXAEAPEA_WAEBQEA_W@Z 0000000180003730 f i api-far3.cpp.obj
 0001:00002730       ??$_Construct_in_place@PEAU?$_List_node@UItem@?$History@V?$Big@$00$0BK@@ttmath@@@ttmath@@PEAX@std@@AEAPEAU12@@std@@YAXAEAPEAU?$_List_node@UItem@?$History@V?$Big@$00$0BK@@ttmath@@@ttmath@@PEAX@0@0@Z 0000000180003730 f i sarg.cpp.obj
 0001:00002750       ??$_Uninitialized_value_construct_n@V?$allocator@UFarMenuItem@@@std@@@std@@YAPEAUFarMenuItem@@PEAU1@_KAEAV?$allocator@UFarMenuItem@@@0@@Z 0000000180003750 f i api-far3.cpp.obj
 0001:00002790       ??$_Refancy@PEAPEAVFunctionalNodeFactory@?$MathExpressionBase@USArg@@@@$0A@@std@@YAPEAPEAVFunctionalNodeFactory@?$MathExpressionBase@USArg@@@@PEAPEAV12@@Z 0000000180003790 f i newparse.cpp.obj
 0001:00002790       ??$_Voidify_iter@PEAPEAU?$_List_node@UItem@?$History@V?$Big@$00$0BK@@ttmath@@@ttmath@@PEAX@std@@@std@@YAPEAXPEAPEAU?$_List_node@UItem@?$History@V?$Big@$00$0BK@@ttmath@@@ttmath@@PEAX@0@@Z 0000000180003790 f i sarg.cpp.obj
 0001:00002790       ??$_Refancy@PEA_W$0A@@std@@YAPEA_WPEA_W@Z 0000000180003790 f i newparse.cpp.obj
 0001:00002790       ??$_Refancy@PEAPEAVConstValueNodeFactory@?$MathExpressionBase@USArg@@@@$0A@@std@@YAPEAPEAVConstValueNodeFactory@?$MathExpressionBase@USArg@@@@PEAPEAV12@@Z 0000000180003790 f i newparse.cpp.obj
 0001:00002790       ??$_Refancy@PEAPEAVPriorityLevel@BinaryOperationTable@?$MathExpressionBase@USArg@@@@$0A@@std@@YAPEAPEAVPriorityLevel@BinaryOperationTable@?$MathExpressionBase@USArg@@@@PEAPEAV123@@Z 0000000180003790 f i newparse.cpp.obj
 0001:00002790       ??$_Voidify_iter@PEAPEA_W@std@@YAPEAXPEAPEA_W@Z 0000000180003790 f i api-far3.cpp.obj
 0001:00002790       ??$_Refancy@PEAPEAVUnaryOperationNodeFactory@?$MathExpressionBase@USArg@@@@$0A@@std@@YAPEAPEAVUnaryOperationNodeFactory@?$MathExpressionBase@USArg@@@@PEAPEAV12@@Z 0000000180003790 f i newparse.cpp.obj
 0001:00002794       ??_9CalcDialog@@$BEI@AA    0000000180003794 f i api-far3.cpp.obj
 0001:0000279c       ??_9CalcDialog@@$BBA@AA    000000018000379c f i api-far3.cpp.obj
 0001:000027a4       ??_9CalcDialog@@$BCA@AA    00000001800037a4 f i api-far3.cpp.obj
 0001:000027ac       ??_9CalcDialog@@$BDA@AA    00000001800037ac f i api-far3.cpp.obj
 0001:000027b4       ??_9CalcDialog@@$BEA@AA    00000001800037b4 f i api-far3.cpp.obj
 0001:000027bc       ??_9CalcDialog@@$B7AA      00000001800037bc f i api-far3.cpp.obj
 0001:000027c4       ??_9CalcDialog@@$BBI@AA    00000001800037c4 f i api-far3.cpp.obj
 0001:000027cc       ??_9CalcDialog@@$BCI@AA    00000001800037cc f i api-far3.cpp.obj
 0001:000027d4       ??_9CalcDialog@@$BDI@AA    00000001800037d4 f i api-far3.cpp.obj
 0001:000027e0       ?CalcStartup@@YAXXZ        00000001800037e0 f   calc.cpp.obj
 0001:00002800       ?CalcOpen@@YA_N_N@Z        0000000180003800 f   calc.cpp.obj
 0001:000028a0       ?CalcConfig@@YA_NXZ        00000001800038a0 f   calc.cpp.obj
 0001:000028e0       ?InitDynamicData@@YAXXZ    00000001800038e0 f   calc.cpp.obj
 0001:00002a10       ?DeInitDynamicData@@YAXXZ  0000000180003a10 f   calc.cpp.obj
 0001:00002a40       ?EditorDialog@@YAXXZ       0000000180003a40 f   calc.cpp.obj
 0001:00002ed0       ?ShellDialog@@YAXXZ        0000000180003ed0 f   calc.cpp.obj
 0001:00002fc0       ?CalcMenu@@YAHH@Z          0000000180003fc0 f   calc.cpp.obj
 0001:000031a0       ?getConsoleWindowSize@@YAXPEAH0@Z 00000001800041a0 f   calc.cpp.obj
 0001:00003200       ?SetUnitsDialogDims@@YAXXZ 0000000180004200 f   calc.cpp.obj
 0001:00003480       ??1DlgUnits@@UEAA@XZ       0000000180004480 f i calc.cpp.obj
 0001:00003490       ?OnInitDialog@DlgUnits@@UEAA_JHPEAX@Z 0000000180004490 f i calc.cpp.obj
 0001:000034c0       ?OnResizeConsole@DlgUnits@@UEAA_JHPEAX@Z 00000001800044c0 f i calc.cpp.obj
 0001:000035d0       ?OnGotFocus@DlgUnits@@UEAA_JHPEAX@Z 00000001800045d0 f i calc.cpp.obj
 0001:000036d0       ?OnEditChange@DlgUnits@@UEAA_JHPEAX@Z 00000001800046d0 f i calc.cpp.obj
 0001:000036f0       ?OnEditChangeInternal@DlgUnits@@UEAA_JHPEAX@Z 00000001800046f0 f i calc.cpp.obj
 0001:00004570       ?OnInput@DlgUnits@@UEAA_JHPEAX@Z 0000000180005570 f i calc.cpp.obj
 0001:00004730       ?OnCtrlColorDlgItem@DlgUnits@@UEAA_JHPEAX@Z 0000000180005730 f i calc.cpp.obj
 0001:000047c0       ??_GDlgUnits@@UEAAPEAXI@Z  00000001800057c0 f i calc.cpp.obj
 0001:000047c0       ??_EDlgUnits@@UEAAPEAXI@Z  00000001800057c0 f i * CIL library *:* CIL module *
 0001:00004800       ?ShowUnitsDialog@@YAXH@Z   0000000180005800 f   calc.cpp.obj
 0001:000049f0       ?SetCalcDialogDims@@YAXPEAUCalcDialogItem@@@Z 00000001800059f0 f   calc.cpp.obj
 0001:00004ae0       ?OnInitDialog@DlgCalc@@UEAA_JHPEAX@Z 0000000180005ae0 f i calc.cpp.obj
 0001:00004b10       ?OnResizeConsole@DlgCalc@@UEAA_JHPEAX@Z 0000000180005b10 f i calc.cpp.obj
 0001:00004bd0       ?OnDrawDialog@DlgCalc@@UEAA_JHPEAX@Z 0000000180005bd0 f i calc.cpp.obj
 0001:00004c50       ?OnButtonClick@DlgCalc@@UEAA_JHPEAX@Z 0000000180005c50 f i calc.cpp.obj
 0001:00004c60       ?OnClose@DlgCalc@@UEAA_JHPEAX@Z 0000000180005c60 f i calc.cpp.obj
 0001:00004cd0       ?OnInput@DlgCalc@@UEAA_JHPEAX@Z 0000000180005cd0 f i calc.cpp.obj
 0001:00005130       ?OnEditChange@DlgCalc@@UEAA_JHPEAX@Z 0000000180006130 f i calc.cpp.obj
 0001:00005140       ?OnEditChangeInternal@DlgCalc@@QEAA_JHPEAX_N@Z 0000000180006140 f i calc.cpp.obj
 0001:000058e0       ?OnCtrlColorDlgItem@DlgCalc@@UEAA_JHPEAX@Z 00000001800068e0 f i calc.cpp.obj
 0001:00005950       ?get_visible_len@@YAHPEB_W@Z 0000000180006950 f   calc.cpp.obj
 0001:00005990       ?CalcShowDialog@@YAXXZ     0000000180006990 f   calc.cpp.obj
 0001:00005de0       ??1DlgCalc@@UEAA@XZ        0000000180006de0 f i calc.cpp.obj
 0001:00005de0       ??1DlgConfig@@UEAA@XZ      0000000180006de0 f i config.cpp.obj
 0001:00005df0       ??0SDialogElem@@QEAA@XZ    0000000180006df0 f   calc.cpp.obj
 0001:00005e20       ??1SDialogElem@@QEAA@XZ    0000000180006e20 f   calc.cpp.obj
 0001:00005ea0       ??0SDialogData@@QEAA@XZ    0000000180006ea0 f   calc.cpp.obj
 0001:00005ec0       ??1SDialogData@@QEAA@XZ    0000000180006ec0 f   calc.cpp.obj
 0001:00005f20       ??1?$vector@VCalcMenuItem@@V?$allocator@VCalcMenuItem@@@std@@@std@@QEAA@XZ 0000000180006f20 f i calc.cpp.obj
 0001:00005f70       ??4?$Big@$00$0BK@@ttmath@@QEAAAEAV01@AEBV01@@Z 0000000180006f70 f i calc.cpp.obj
 0001:000060a0       ??1SArg@@QEAA@XZ           00000001800070a0 f i sarg.cpp.obj
 0001:000060a0       ??1?$Big@$00$0BK@@ttmath@@QEAA@XZ 00000001800070a0 f i calc.cpp.obj
 0001:000060a0       _guard_check_icall_nop     00000001800070a0 f i LIBCMT:guard_support.obj
 0001:000060a0       ??1?$Big@$01$0BK@@ttmath@@QEAA@XZ 00000001800070a0 f i newparse.cpp.obj
 0001:000060b0       ??Y?$basic_string@_WU?$char_traits@_W@std@@V?$allocator@_W@2@@std@@QEAAAEAV01@_W@Z 00000001800070b0 f i calc.cpp.obj
 0001:00006210       ??0?$basic_string@_WU?$char_traits@_W@std@@V?$allocator@_W@2@@std@@QEAA@QEB_W@Z 0000000180007210 f i calc.cpp.obj
 0001:00006250       ??8?$Big@$00$0BK@@ttmath@@QEBA_NAEBV01@@Z 0000000180007250 f i calc.cpp.obj
 0001:000062c0       ?DivRef@?$Big@$00$0BK@@ttmath@@AEAA_KAEBV12@_N@Z 00000001800072c0 f i calc.cpp.obj
 0001:000068a0       ?MulRef@?$Big@$00$0BK@@ttmath@@AEAA_KAEBV12@_N@Z 00000001800078a0 f i calc.cpp.obj
 0001:00006b90       ?append@?$basic_string@_WU?$char_traits@_W@std@@V?$allocator@_W@2@@std@@QEAAAEAV12@QEB_W_K@Z 0000000180007b90 f i calc.cpp.obj
 0001:00006d20       ?CompensationToLeft@?$UInt@$0DE@@ttmath@@QEAA_KXZ 0000000180007d20 f i calc.cpp.obj
 0001:00006ee0       ?FromUInt@?$Big@$00$0BK@@ttmath@@QEAA_K_K@Z 0000000180007ee0 f i calc.cpp.obj
 0001:00007090       ?RoundHalfToEven@?$Big@$00$0BK@@ttmath@@AEAA_K_N0@Z 0000000180008090 f i calc.cpp.obj
 0001:00007110       ?SetZero@?$Big@$00$0BK@@ttmath@@QEAAXXZ 0000000180008110 f i calc.cpp.obj
 0001:000071b0       ?Standardizing@?$Big@$00$0BK@@ttmath@@QEAA_KXZ 00000001800081b0 f i calc.cpp.obj
 0001:00007280       ?MulBig@?$UInt@$0BK@@ttmath@@QEAAXAEBV12@AEAV?$UInt@$0DE@@2@_K@Z 0000000180008280 f i calc.cpp.obj
 0001:000073d0       ?Rcl@?$UInt@$0DE@@ttmath@@QEAA_K_K0@Z 00000001800083d0 f i calc.cpp.obj
 0001:00007520       ?Mul3Big@?$UInt@$0BK@@ttmath@@QEAAXAEBV12@AEAV?$UInt@$0DE@@2@@Z 0000000180008520 f i calc.cpp.obj
 0001:000076f0       ?CompensationToLeft@?$UInt@$0BK@@ttmath@@QEAA_KXZ 00000001800086f0 f i calc.cpp.obj
 0001:00007890       ?Rcr@?$UInt@$0BK@@ttmath@@QEAA_K_K0@Z 0000000180008890 f i calc.cpp.obj
 0001:000079f0       ?Div3Ref@?$UInt@$0DE@@ttmath@@AEAA_KAEBV12@PEAV12@@Z 00000001800089f0 f i calc.cpp.obj
 0001:00007ae0       ?Div_StandardTest@?$UInt@$0DE@@ttmath@@AEAA_KAEBV12@AEA_K1PEAV12@@Z 0000000180008ae0 f i calc.cpp.obj
 0001:00007c80       ?Rcl@?$UInt@$0BK@@ttmath@@QEAA_K_K0@Z 0000000180008c80 f i calc.cpp.obj
 0001:00007d90       ?Div3_Division@?$UInt@$0DE@@ttmath@@AEAAXV12@PEAV12@_K2@Z 0000000180008d90 f i calc.cpp.obj
 0001:00008260       ?DivInt@?$UInt@$0DE@@ttmath@@QEAA_K_KPEA_K@Z 0000000180009260 f i calc.cpp.obj
 0001:000083f0       ?Add@?$UInt@$00@ttmath@@QEAA_KAEBV12@_K@Z 00000001800093f0 f i calc.cpp.obj
 0001:00008410       ?AddInt@?$UInt@$00@ttmath@@QEAA_K_K0@Z 0000000180009410 f i calc.cpp.obj
 0001:00008430       ?Sub@?$UInt@$00@ttmath@@QEAA_KAEBV12@_K@Z 0000000180009430 f i calc.cpp.obj
 0001:00008450       ?SubInt@?$UInt@$01@ttmath@@QEAA_K_K0@Z 0000000180009450 f i calc.cpp.obj
 0001:00008490       ?MulTwoWords@?$UInt@$0BK@@ttmath@@SAX_K0PEA_K1@Z 0000000180009490 f i calc.cpp.obj
 0001:00008490       ?MulTwoWords@?$UInt@$0BI@@ttmath@@SAX_K0PEA_K1@Z 0000000180009490 f i newparse.cpp.obj
 0001:00008490       ?MulTwoWords@?$UInt@$01@ttmath@@SAX_K0PEA_K1@Z 0000000180009490 f i calc.cpp.obj
 0001:00008550       ?DivTwoWords@?$UInt@$0BK@@ttmath@@SAX_K00PEA_K1@Z 0000000180009550 f i newparse.cpp.obj
 0001:00008550       ?DivTwoWords@?$UInt@$01@ttmath@@SAX_K00PEA_K1@Z 0000000180009550 f i calc.cpp.obj
 0001:00008550       ?DivTwoWords@?$UInt@$0BI@@ttmath@@SAX_K00PEA_K1@Z 0000000180009550 f i newparse.cpp.obj
 0001:000085e0       ?Rcl2_one@?$UInt@$0BK@@ttmath@@AEAA_K_K@Z 00000001800095e0 f i calc.cpp.obj
 0001:00008630       ?Rcr2_one@?$UInt@$0BK@@ttmath@@AEAA_K_K@Z 0000000180009630 f i calc.cpp.obj
 0001:000089a0       ?Rcl2@?$UInt@$0BK@@ttmath@@AEAA_K_K0@Z 00000001800099a0 f i calc.cpp.obj
 0001:00008a10       ?Rcr2@?$UInt@$0BK@@ttmath@@AEAA_K_K0@Z 0000000180009a10 f i calc.cpp.obj
 0001:00008d20       ?AddInt@?$UInt@$0BK@@ttmath@@QEAA_K_K0@Z 0000000180009d20 f i calc.cpp.obj
 0001:00008d70       ?SubInt@?$UInt@$0BK@@ttmath@@QEAA_K_K0@Z 0000000180009d70 f i calc.cpp.obj
 0001:00008dc0       ?FindLeadingBitInWord@?$UInt@$0DE@@ttmath@@SA_J_K@Z 0000000180009dc0 f i calc.cpp.obj
 0001:00008dc0       ?FindLeadingBitInWord@?$UInt@$00@ttmath@@SA_J_K@Z 0000000180009dc0 f i newparse.cpp.obj
 0001:00008dc0       ?FindLeadingBitInWord@?$UInt@$0BK@@ttmath@@SA_J_K@Z 0000000180009dc0 f i calc.cpp.obj
 0001:00008dc0       ?FindLeadingBitInWord@?$UInt@$0BL@@ttmath@@SA_J_K@Z 0000000180009dc0 f i sarg.cpp.obj
 0001:00008dc0       ?FindLeadingBitInWord@?$UInt@$01@ttmath@@SA_J_K@Z 0000000180009dc0 f i newparse.cpp.obj
 0001:00008dc0       ?FindLeadingBitInWord@?$UInt@$0BI@@ttmath@@SA_J_K@Z 0000000180009dc0 f i newparse.cpp.obj
 0001:00008de0       ?Rcl2_one@?$UInt@$0DE@@ttmath@@AEAA_K_K@Z 0000000180009de0 f i calc.cpp.obj
 0001:00008e40       ?Rcl2@?$UInt@$0DE@@ttmath@@AEAA_K_K0@Z 0000000180009e40 f i calc.cpp.obj
 0001:00008ec0       ?DivTwoWords@?$UInt@$0DE@@ttmath@@SAX_K00PEA_K1@Z 0000000180009ec0 f i calc.cpp.obj
 0001:00008f50       ?Add@?$UInt@$0DF@@ttmath@@QEAA_KAEBV12@_K@Z 0000000180009f50 f i calc.cpp.obj
 0001:00008f90       ?AddInt@?$UInt@$0DF@@ttmath@@QEAA_K_K0@Z 0000000180009f90 f i calc.cpp.obj
 0001:00008ff0       ?AddTwoInts@?$UInt@$0DF@@ttmath@@QEAA_K_K00@Z 0000000180009ff0 f i calc.cpp.obj
 0001:00009080       ?Sub@?$UInt@$0DF@@ttmath@@QEAA_KAEBV12@_K@Z 000000018000a080 f i calc.cpp.obj
 0001:000090c0       ?MulTwoWords@?$UInt@$0DE@@ttmath@@SAX_K0PEA_K1@Z 000000018000a0c0 f i calc.cpp.obj
 0001:000090c0       ?MulTwoWords@?$UInt@$0DF@@ttmath@@SAX_K0PEA_K1@Z 000000018000a0c0 f i calc.cpp.obj
 0001:000090c0       ?MulTwoWords@?$UInt@$0BJ@@ttmath@@SAX_K0PEA_K1@Z 000000018000a0c0 f i newparse.cpp.obj
 0001:00009180       ??$Mul2Big3@$0BK@@?$UInt@$0BK@@ttmath@@AEAAXPEB_K0AEAV?$UInt@$0DE@@1@_K222@Z 000000018000a180 f i calc.cpp.obj
 0001:000092a0       ?AddTwoWords@?$UInt@$0DE@@ttmath@@SA_K_K00PEA_K@Z 000000018000a2a0 f i calc.cpp.obj
 0001:000092a0       ?AddTwoWords@?$UInt@$05@ttmath@@SA_K_K00PEA_K@Z 000000018000a2a0 f i calc.cpp.obj
 0001:000092a0       ?AddTwoWords@?$UInt@$0BK@@ttmath@@SA_K_K00PEA_K@Z 000000018000a2a0 f i calc.cpp.obj
 0001:000092a0       ?AddTwoWords@?$UInt@$0DA@@ttmath@@SA_K_K00PEA_K@Z 000000018000a2a0 f i newparse.cpp.obj
 0001:000092a0       ?AddTwoWords@?$UInt@$0BI@@ttmath@@SA_K_K00PEA_K@Z 000000018000a2a0 f i newparse.cpp.obj
 0001:000092a0       ?AddTwoWords@?$UInt@$01@ttmath@@SA_K_K00PEA_K@Z 000000018000a2a0 f i calc.cpp.obj
 0001:000092a0       ?AddTwoWords@?$UInt@$0BL@@ttmath@@SA_K_K00PEA_K@Z 000000018000a2a0 f i sarg.cpp.obj
 0001:000092a0       ?AddTwoWords@?$UInt@$00@ttmath@@SA_K_K00PEA_K@Z 000000018000a2a0 f i calc.cpp.obj
 0001:000092a0       ?AddTwoWords@?$UInt@$0BJ@@ttmath@@SA_K_K00PEA_K@Z 000000018000a2a0 f i newparse.cpp.obj
 0001:000092a0       ?AddTwoWords@?$UInt@$0DF@@ttmath@@SA_K_K00PEA_K@Z 000000018000a2a0 f i calc.cpp.obj
 0001:000092a0       ?AddTwoWords@?$UInt@$07@ttmath@@SA_K_K00PEA_K@Z 000000018000a2a0 f i calc.cpp.obj
 0001:000092d0       ?SubTwoWords@?$UInt@$0BJ@@ttmath@@SA_K_K00PEA_K@Z 000000018000a2d0 f i newparse.cpp.obj
 0001:000092d0       ?SubTwoWords@?$UInt@$0BI@@ttmath@@SA_K_K00PEA_K@Z 000000018000a2d0 f i newparse.cpp.obj
 0001:000092d0       ?SubTwoWords@?$UInt@$0DF@@ttmath@@SA_K_K00PEA_K@Z 000000018000a2d0 f i calc.cpp.obj
 0001:000092d0       ?SubTwoWords@?$UInt@$0BK@@ttmath@@SA_K_K00PEA_K@Z 000000018000a2d0 f i calc.cpp.obj
 0001:000092d0       ?SubTwoWords@?$UInt@$00@ttmath@@SA_K_K00PEA_K@Z 000000018000a2d0 f i calc.cpp.obj
 0001:000092d0       ?SubTwoWords@?$UInt@$01@ttmath@@SA_K_K00PEA_K@Z 000000018000a2d0 f i calc.cpp.obj
 0001:000092d0       ?SubTwoWords@?$UInt@$0DE@@ttmath@@SA_K_K00PEA_K@Z 000000018000a2d0 f i calc.cpp.obj
 0001:00009300       ?DivTwoWords2@?$UInt@$0BK@@ttmath@@SAX_K00PEA_K1@Z 000000018000a300 f i newparse.cpp.obj
 0001:00009300       ?DivTwoWords2@?$UInt@$01@ttmath@@SAX_K00PEA_K1@Z 000000018000a300 f i calc.cpp.obj
 0001:00009300       ?DivTwoWords2@?$UInt@$0BI@@ttmath@@SAX_K00PEA_K1@Z 000000018000a300 f i newparse.cpp.obj
 0001:000093d0       ?DivTwoWords2@?$UInt@$0DE@@ttmath@@SAX_K00PEA_K1@Z 000000018000a3d0 f i calc.cpp.obj
 0001:000094a0       ?AddTwoInts@?$UInt@$0DE@@ttmath@@QEAA_K_K00@Z 000000018000a4a0 f i calc.cpp.obj
 0001:00009530       ??$_Uninitialized_value_construct_n@V?$allocator@VCalcMenuItem@@@std@@@std@@YAPEAVCalcMenuItem@@PEAV1@_KAEAV?$allocator@VCalcMenuItem@@@0@@Z 000000018000a530 f i calc.cpp.obj
 0001:00009560       ?DivTwoWordsNormalize@?$UInt@$0BI@@ttmath@@SA_KAEATuint_@12@00@Z 000000018000a560 f i newparse.cpp.obj
 0001:00009560       ?DivTwoWordsNormalize@?$UInt@$0DE@@ttmath@@SA_KAEATuint_@12@00@Z 000000018000a560 f i calc.cpp.obj
 0001:00009560       ?DivTwoWordsNormalize@?$UInt@$0BK@@ttmath@@SA_KAEATuint_@12@00@Z 000000018000a560 f i newparse.cpp.obj
 0001:00009560       ?DivTwoWordsNormalize@?$UInt@$01@ttmath@@SA_KAEATuint_@12@00@Z 000000018000a560 f i calc.cpp.obj
 0001:000095c0       ?DivTwoWordsUnnormalize@?$UInt@$01@ttmath@@SA_K_K0@Z 000000018000a5c0 f i calc.cpp.obj
 0001:000095c0       ?DivTwoWordsUnnormalize@?$UInt@$0BK@@ttmath@@SA_K_K0@Z 000000018000a5c0 f i newparse.cpp.obj
 0001:000095c0       ?DivTwoWordsUnnormalize@?$UInt@$0BI@@ttmath@@SA_K_K0@Z 000000018000a5c0 f i newparse.cpp.obj
 0001:000095c0       ?DivTwoWordsUnnormalize@?$UInt@$0DE@@ttmath@@SA_K_K0@Z 000000018000a5c0 f i calc.cpp.obj
 0001:000095d0       ?DivTwoWordsCalculate@?$UInt@$0BI@@ttmath@@SAITuint_@12@I0@Z 000000018000a5d0 f i newparse.cpp.obj
 0001:000095d0       ?DivTwoWordsCalculate@?$UInt@$0BK@@ttmath@@SAITuint_@12@I0@Z 000000018000a5d0 f i newparse.cpp.obj
 0001:000095d0       ?DivTwoWordsCalculate@?$UInt@$01@ttmath@@SAITuint_@12@I0@Z 000000018000a5d0 f i calc.cpp.obj
 0001:000095d0       ?DivTwoWordsCalculate@?$UInt@$0DE@@ttmath@@SAITuint_@12@I0@Z 000000018000a5d0 f i calc.cpp.obj
 0001:00009620       ?MultiplySubtract@?$UInt@$0BI@@ttmath@@SAXAEATuint_@12@AEAI1T312@@Z 000000018000a620 f i newparse.cpp.obj
 0001:00009620       ?MultiplySubtract@?$UInt@$0BK@@ttmath@@SAXAEATuint_@12@AEAI1T312@@Z 000000018000a620 f i newparse.cpp.obj
 0001:00009620       ?MultiplySubtract@?$UInt@$01@ttmath@@SAXAEATuint_@12@AEAI1T312@@Z 000000018000a620 f i calc.cpp.obj
 0001:000096f0       ?AddVector@?$UInt@$0BI@@ttmath@@SA_KPEB_K0_K1PEA_K@Z 000000018000a6f0 f i newparse.cpp.obj
 0001:000096f0       ?AddVector@?$UInt@$0BK@@ttmath@@SA_KPEB_K0_K1PEA_K@Z 000000018000a6f0 f i calc.cpp.obj
 0001:000097c0       ?SubVector@?$UInt@$0BI@@ttmath@@SA_KPEB_K0_K1PEA_K@Z 000000018000a7c0 f i newparse.cpp.obj
 0001:000097c0       ?SubVector@?$UInt@$0BK@@ttmath@@SA_KPEB_K0_K1PEA_K@Z 000000018000a7c0 f i calc.cpp.obj
 0001:00009890       ?MultiplySubtract@?$UInt@$0DE@@ttmath@@SAXAEATuint_@12@AEAI1T312@@Z 000000018000a890 f i calc.cpp.obj
 0001:00009960       ??$Mul3Big2@$0N@@?$UInt@$0BK@@ttmath@@AEAAXPEB_K0PEA_K@Z 000000018000a960 f i calc.cpp.obj
 0001:00009b10       ??$Mul3Big2@$06@?$UInt@$0BK@@ttmath@@AEAAXPEB_K0PEA_K@Z 000000018000ab10 f i calc.cpp.obj
 0001:00009cc0       ??$Mul3Big2@$05@?$UInt@$0BK@@ttmath@@AEAAXPEB_K0PEA_K@Z 000000018000acc0 f i calc.cpp.obj
 0001:00009cc0       ??$Mul3Big2@$05@?$UInt@$0BI@@ttmath@@AEAAXPEB_K0PEA_K@Z 000000018000acc0 f i newparse.cpp.obj
 0001:00009e70       ??$Mul3Big2@$03@?$UInt@$0BK@@ttmath@@AEAAXPEB_K0PEA_K@Z 000000018000ae70 f i calc.cpp.obj
 0001:0000a010       ??$Mul3Big2@$02@?$UInt@$0BK@@ttmath@@AEAAXPEB_K0PEA_K@Z 000000018000b010 f i calc.cpp.obj
 0001:0000a010       ??$Mul3Big2@$02@?$UInt@$0BI@@ttmath@@AEAAXPEB_K0PEA_K@Z 000000018000b010 f i newparse.cpp.obj
 0001:0000a180       ?AddTwoInts@?$UInt@$07@ttmath@@QEAA_K_K00@Z 000000018000b180 f i calc.cpp.obj
 0001:0000a210       ?AddTwoInts@?$UInt@$05@ttmath@@QEAA_K_K00@Z 000000018000b210 f i calc.cpp.obj
 0001:0000a2a0       ?LoadConfig@@YAHXZ         000000018000b2a0 f   config.cpp.obj
 0001:0000a400       ?SaveConfig@@YAHXZ         000000018000b400 f   config.cpp.obj
 0001:0000a540       ?CheckConfig@@YAHXZ        000000018000b540 f   config.cpp.obj
 0001:0000a7d0       ?ConfigDialog@@YA_NXZ      000000018000b7d0 f   config.cpp.obj
 0001:0000aa70       __local_stdio_printf_options 000000018000ba70 f i newparse.cpp.obj
 0001:0000aa80       swprintf                   000000018000ba80 f i newparse.cpp.obj
 0001:0000aae0       ?swprintf@@YAHQEA_WQEB_WZZ 000000018000bae0 f i newparse.cpp.obj
 0001:0000ab40       ?AssignString@Misc@ttmath@@SAXAEAV?$basic_string@_WU?$char_traits@_W@std@@V?$allocator@_W@2@@std@@PEBD@Z 000000018000bb40 f i newparse.cpp.obj
 0001:0000ad00       ?AddString@Misc@ttmath@@SAXAEAV?$basic_string@_WU?$char_traits@_W@std@@V?$allocator@_W@2@@std@@PEBD@Z 000000018000bd00 f i newparse.cpp.obj
 0001:0000aea0       ?MathOpNameCallback@@YAXV?$basic_string@_WU?$char_traits@_W@std@@V?$allocator@_W@2@@std@@@Z 000000018000bea0 f   newparse.cpp.obj
 0001:0000af10       ??0CalcAddonPart@@QEAA@AEBV0@@Z 000000018000bf10 f   newparse.cpp.obj
 0001:0000afa0       ??1CalcAddonPart@@QEAA@XZ  000000018000bfa0 f   newparse.cpp.obj
 0001:0000aff0       ??0CalcParser@@QEAA@XZ     000000018000bff0 f   newparse.cpp.obj
 0001:0000b0b0       ??_ECalcParser@@UEAAPEAXI@Z 000000018000c0b0 f i * CIL library *:* CIL module *
 0001:0000b0b0       ??_GCalcParser@@UEAAPEAXI@Z 000000018000c0b0 f i newparse.cpp.obj
 0001:0000b0f0       ??4UnaryOperationTable@?$MathExpressionBase@USArg@@@@QEAAAEAV01@AEBV01@@Z 000000018000c0f0 f i newparse.cpp.obj
 0001:0000b0f0       ??4BinaryOperationTable@?$MathExpressionBase@USArg@@@@QEAAAEAV01@AEBV01@@Z 000000018000c0f0 f i newparse.cpp.obj
 0001:0000b0f0       ??4FunctionList@?$MathExpressionBase@USArg@@@@QEAAAEAV01@AEBV01@@Z 000000018000c0f0 f i newparse.cpp.obj
 0001:0000b0f0       ??4NamedConstantList@?$MathExpressionBase@USArg@@@@QEAAAEAV01@AEBV01@@Z 000000018000c0f0 f i newparse.cpp.obj
 0001:0000b200       ??0CalcParser@@QEAA@AEBV0@@Z 000000018000c200 f   newparse.cpp.obj
 0001:0000b2c0       ??1CalcParser@@UEAA@XZ     000000018000c2c0 f   newparse.cpp.obj
 0001:0000b350       ?AddAll@CalcParser@@SA_N_N@Z 000000018000c350 f   newparse.cpp.obj
 0001:0000d170       ??_GUserFunctionList@CalcParser@@QEAAPEAXI@Z 000000018000e170 f i newparse.cpp.obj
 0001:0000d1a0       ?ReplaceDelims@CalcParser@@KA?AV?$basic_string@_WU?$char_traits@_W@std@@V?$allocator@_W@2@@std@@PEB_W@Z 000000018000e1a0 f   newparse.cpp.obj
 0001:0000d440       ?Parse@CalcParser@@QEAA?AUSArg@@PEB_W_N@Z 000000018000e440 f   newparse.cpp.obj
 0001:0000d580       ?parse_number@CalcParser@@MEAA_NPEAUSArg@@PEB_WPEAPEA_W@Z 000000018000e580 f   newparse.cpp.obj
 0001:0000ecd0       ?GetError@CalcParser@@QEAA?AW4CALC_ERROR@@XZ 000000018000fcd0 f   newparse.cpp.obj
 0001:0000ed40       ?Parse@CalcAddonPart@@QEAAX_N@Z 000000018000fd40 f   newparse.cpp.obj
 0001:0000f070       ?ProcessAddons@CalcParser@@SA_NXZ 0000000180010070 f   newparse.cpp.obj
 0001:0000f550       ?ProcessDialogData@CalcParser@@SA_NXZ 0000000180010550 f   newparse.cpp.obj
 0001:0000f7c0       ?GetNumDialogs@CalcParser@@SAHXZ 00000001800107c0 f   newparse.cpp.obj
 0001:0000f7d0       ?InitTables@CalcParser@@SA_NHHH@Z 00000001800107d0 f   newparse.cpp.obj
 0001:00010550       ?ProcessData@CalcParser@@SA_NPEAVCSgmlEl@@_N@Z 0000000180011550 f   newparse.cpp.obj
 0001:00010820       ?FillDialogData@CalcParser@@SAXPEAVCSgmlEl@@_NPEB_W@Z 0000000180011820 f   newparse.cpp.obj
 0001:00010d90       ?FillSet@CalcParser@@KA_NPEAVCSgmlEl@@_N@Z 0000000180011d90 f   newparse.cpp.obj
 0001:00010f20       ?AddLexem@CalcParser@@KA_NAEAPEAUSSyntax@@PEAVCSgmlEl@@1_N@Z 0000000180011f20 f   newparse.cpp.obj
 0001:000112e0       ?SetDelims@CalcParser@@SA_N_W00@Z 00000001800122e0 f   newparse.cpp.obj
 0001:00011580       ?limit_number@@YAHHAEBUSArg@@H@Z 0000000180012580 f   newparse.cpp.obj
 0001:00012df0       ?print_repeating_decimal@@YAXAEAV?$basic_string@_WU?$char_traits@_W@std@@V?$allocator@_W@2@@std@@USArg@@H_N@Z 0000000180013df0 f   newparse.cpp.obj
 0001:00013e30       ?print_continued_decimal@@YAXAEAV?$basic_string@_WU?$char_traits@_W@std@@V?$allocator@_W@2@@std@@USArg@@H_N@Z 0000000180014e30 f   newparse.cpp.obj
 0001:00014cf0       ?RoundUp@CalcParser@@SAXAEAV?$Big@$00$0BK@@ttmath@@@Z 0000000180015cf0 f   newparse.cpp.obj
 0001:00014f00       ?GetFraction@CalcParser@@SAXV?$Big@$00$0BK@@ttmath@@PEAV?$Int@$0BI@@3@1@Z 0000000180015f00 f   newparse.cpp.obj
 0001:00015d00       ?print_string@@YAXAEAV?$basic_string@_WU?$char_traits@_W@std@@V?$allocator@_W@2@@std@@USArg@@HH_N22@Z 0000000180016d00 f   newparse.cpp.obj
 0001:000160b0       ?convertToString@@YAPEA_WAEBUSArg@@HH_N11PEAW4CALC_ERROR@@@Z 00000001800170b0 f   newparse.cpp.obj
 0001:00017770       ?builtin_unary_not@CalcParser@@KA?AUSArg@@AEBU2@@Z 0000000180018770 f   newparse.cpp.obj
 0001:00017790       ?builtin_binary_op@CalcParser@@KA?AUSArg@@AEBU2@0@Z 0000000180018790 f   newparse.cpp.obj
 0001:00017c00       ?binary_op@CalcParser@@KA?AUSArg@@AEBU2@0@Z 0000000180018c00 f   newparse.cpp.obj
 0001:00017d80       ?unary_op@CalcParser@@KA?AUSArg@@AEBU2@@Z 0000000180018d80 f   newparse.cpp.obj
 0001:00017ef0       ??1UserFunctionList@CalcParser@@QEAA@XZ 0000000180018ef0 f   newparse.cpp.obj
 0001:00017f60       ?Pow@?$Int@$0BI@@ttmath@@QEAA_KV12@@Z 0000000180018f60 f i newparse.cpp.obj
 0001:000181b0       ?resize@?$vector@V?$Big@$00$0BK@@ttmath@@V?$allocator@V?$Big@$00$0BK@@ttmath@@@std@@@std@@QEAAX_K@Z 00000001800191b0 f i newparse.cpp.obj
 0001:00018230       ??1?$vector@V?$Big@$00$0BK@@ttmath@@V?$allocator@V?$Big@$00$0BK@@ttmath@@@std@@@std@@QEAA@XZ 0000000180019230 f i newparse.cpp.obj
 0001:00018280       ?resize@?$vector@VCalcAddon@@V?$allocator@VCalcAddon@@@std@@@std@@QEAAX_K@Z 0000000180019280 f i newparse.cpp.obj
 0001:00018320       ?insert@?$hash_map@V?$basic_string@_WU?$char_traits@_W@std@@V?$allocator@_W@2@@std@@PEAVCalcParser@@UStrHashFunc@@U?$equal_to@V?$basic_string@_WU?$char_traits@_W@std@@V?$allocator@_W@2@@std@@@2@V?$allocator@U?$pair@V?$basic_string@_WU?$char_traits@_W@std@@V?$allocator@_W@2@@std@@PEAVCalcParser@@@std@@@2@@ag@@QEAA?AU?$pair@V?$IteratorBase@$0A@@?$hash_map@V?$basic_string@_WU?$char_traits@_W@std@@V?$allocator@_W@2@@std@@PEAVCalcParser@@UStrHashFunc@@U?$equal_to@V?$basic_string@_WU?$char_traits@_W@std@@V?$allocator@_W@2@@std@@@2@V?$allocator@U?$pair@V?$basic_string@_WU?$char_traits@_W@std@@V?$allocator@_W@2@@std@@PEAVCalcParser@@@std@@@2@@ag@@_N@std@@AEBU?$pair@V?$basic_string@_WU?$char_traits@_W@std@@V?$allocator@_W@2@@std@@PEAVCalcParser@@@4@@Z 0000000180019320 f i newparse.cpp.obj
 0001:00018540       ?growCapacity@?$hash_map@V?$basic_string@_WU?$char_traits@_W@std@@V?$allocator@_W@2@@std@@PEAVCalcParser@@UStrHashFunc@@U?$equal_to@V?$basic_string@_WU?$char_traits@_W@std@@V?$allocator@_W@2@@std@@@2@V?$allocator@U?$pair@V?$basic_string@_WU?$char_traits@_W@std@@V?$allocator@_W@2@@std@@PEAVCalcParser@@@std@@@2@@ag@@QEAAX_K@Z 0000000180019540 f i newparse.cpp.obj
 0001:000185e0       ??0?$hash_map@V?$basic_string@_WU?$char_traits@_W@std@@V?$allocator@_W@2@@std@@PEAVCalcParser@@UStrHashFunc@@U?$equal_to@V?$basic_string@_WU?$char_traits@_W@std@@V?$allocator@_W@2@@std@@@2@V?$allocator@U?$pair@V?$basic_string@_WU?$char_traits@_W@std@@V?$allocator@_W@2@@std@@PEAVCalcParser@@@std@@@2@@ag@@QEAA@XZ 00000001800195e0 f i newparse.cpp.obj
 0001:00018870       ?push_back@?$vector@PEAVCalcParser@@V?$allocator@PEAVCalcParser@@@std@@@std@@QEAAXAEBQEAVCalcParser@@@Z 0000000180019870 f i newparse.cpp.obj
 0001:000188a0       ?add_argument@?$MathExpressionBase@USArg@@@@QEAAXAEBV?$basic_string@_WU?$char_traits@_W@std@@V?$allocator@_W@2@@std@@H0@Z 00000001800198a0 f i newparse.cpp.obj
 0001:00018940       ?remove_all@BinaryOperationTable@?$MathExpressionBase@USArg@@@@QEAAXXZ 0000000180019940 f i newparse.cpp.obj
 0001:000189b0       ?remove_all@?$NodeFactoryList@VFunctionalNodeFactory@?$MathExpressionBase@USArg@@@@@?$MathExpressionBase@USArg@@@@QEAAXXZ 00000001800199b0 f i newparse.cpp.obj
 0001:000189b0       ?remove_all@?$NodeFactoryList@VUnaryOperationNodeFactory@?$MathExpressionBase@USArg@@@@@?$MathExpressionBase@USArg@@@@QEAAXXZ 00000001800199b0 f i newparse.cpp.obj
 0001:000189b0       ?remove_all@?$NodeFactoryList@VConstValueNodeFactory@?$MathExpressionBase@USArg@@@@@?$MathExpressionBase@USArg@@@@QEAAXXZ 00000001800199b0 f i newparse.cpp.obj
 0001:00018a20       ??M?$Big@$00$0BK@@ttmath@@QEBA_NAEBV01@@Z 0000000180019a20 f i newparse.cpp.obj
 0001:00018a50       ??0?$Big@$00$0BK@@ttmath@@QEAA@PEB_W@Z 0000000180019a50 f i newparse.cpp.obj
 0001:00018ad0       ?ToString@?$Big@$00$0BK@@ttmath@@QEBA_KAEAV?$basic_string@_WU?$char_traits@_W@std@@V?$allocator@_W@2@@std@@_K_N_J32_W@Z 0000000180019ad0 f i newparse.cpp.obj
 0001:00018b50       ?Add@?$Big@$00$0BK@@ttmath@@QEAA_KV12@_N1@Z 0000000180019b50 f i newparse.cpp.obj
 0001:00018f30       ?SetOne@?$Big@$00$0BK@@ttmath@@QEAAXXZ 0000000180019f30 f i newparse.cpp.obj
 0001:00018fe0       ?erase@?$basic_string@_WU?$char_traits@_W@std@@V?$allocator@_W@2@@std@@QEAAAEAV12@_K0@Z 0000000180019fe0 f i newparse.cpp.obj
 0001:00019040       ??0?$basic_string@_WU?$char_traits@_W@std@@V?$allocator@_W@2@@std@@QEAA@AEBV01@@Z 000000018001a040 f i newparse.cpp.obj
 0001:00019110       ??1UnaryOperationNodeFactory@?$MathExpressionBase@USArg@@@@QEAA@XZ 000000018001a110 f i newparse.cpp.obj
 0001:00019110       ??1BinaryOperationNodeFactory@?$MathExpressionBase@USArg@@@@QEAA@XZ 000000018001a110 f i newparse.cpp.obj
 0001:00019110       ??1ConstValueNodeFactory@?$MathExpressionBase@USArg@@@@QEAA@XZ 000000018001a110 f i newparse.cpp.obj
 0001:00019110       ??1FunctionalNodeFactory@?$MathExpressionBase@USArg@@@@QEAA@XZ 000000018001a110 f i newparse.cpp.obj
 0001:00019110       ??1ArgNodeFactory@?$MathExpressionBase@USArg@@@@QEAA@XZ 000000018001a110 f i newparse.cpp.obj
 0001:00019180       ??3@YAXPEAX@Z              000000018001a180 f i LIBCMT:delete_scalar.obj
 0001:00019180       ??3ListEntry@?$hash_map@V?$basic_string@_WU?$char_traits@_W@std@@V?$allocator@_W@2@@std@@PEAVCalcParser@@UStrHashFunc@@U?$equal_to@V?$basic_string@_WU?$char_traits@_W@std@@V?$allocator@_W@2@@std@@@2@V?$allocator@U?$pair@V?$basic_string@_WU?$char_traits@_W@std@@V?$allocator@_W@2@@std@@PEAVCalcParser@@@std@@@2@@ag@@SAXPEAX@Z 000000018001a180 f i newparse.cpp.obj
 0001:00019190       ?Pow2@?$Int@$0BI@@ttmath@@AEAA_KAEBV12@@Z 000000018001a190 f i newparse.cpp.obj
 0001:000194c0       ?ChangeSign@?$Int@$0BI@@ttmath@@QEAA_KXZ 000000018001a4c0 f i newparse.cpp.obj
 0001:000195a0       ?IsZero@?$UInt@$0BI@@ttmath@@QEBA_NXZ 000000018001a5a0 f i newparse.cpp.obj
 0001:000195c0       ??1?$NodeFactoryList@VBinaryOperationNodeFactory@?$MathExpressionBase@USArg@@@@@?$MathExpressionBase@USArg@@@@IEAA@XZ 000000018001a5c0 f i newparse.cpp.obj
 0001:000195c0       ??1?$NodeFactoryList@VArgNodeFactory@?$MathExpressionBase@USArg@@@@@?$MathExpressionBase@USArg@@@@IEAA@XZ 000000018001a5c0 f i newparse.cpp.obj
 0001:00019650       ?clearPrivate_@?$hash_map@V?$basic_string@_WU?$char_traits@_W@std@@V?$allocator@_W@2@@std@@PEAVCalcParser@@UStrHashFunc@@U?$equal_to@V?$basic_string@_WU?$char_traits@_W@std@@V?$allocator@_W@2@@std@@@2@V?$allocator@U?$pair@V?$basic_string@_WU?$char_traits@_W@std@@V?$allocator@_W@2@@std@@PEAVCalcParser@@@std@@@2@@ag@@AEAAXXZ 000000018001a650 f i newparse.cpp.obj
 0001:00019780       ?initBucketsSize_@?$hash_map@V?$basic_string@_WU?$char_traits@_W@std@@V?$allocator@_W@2@@std@@PEAVCalcParser@@UStrHashFunc@@U?$equal_to@V?$basic_string@_WU?$char_traits@_W@std@@V?$allocator@_W@2@@std@@@2@V?$allocator@U?$pair@V?$basic_string@_WU?$char_traits@_W@std@@V?$allocator@_W@2@@std@@PEAVCalcParser@@@std@@@2@@ag@@AEAAX_K@Z 000000018001a780 f i newparse.cpp.obj
 0001:00019830       ?_Destroy@?$vector@VCalcAddonPart@@V?$allocator@VCalcAddonPart@@@std@@@std@@AEAAXPEAVCalcAddonPart@@0@Z 000000018001a830 f i newparse.cpp.obj
 0001:00019840       ?GreaterWithoutSignThan@?$Big@$00$0BK@@ttmath@@QEBA_NAEBV12@@Z 000000018001a840 f i newparse.cpp.obj
 0001:000198c0       ?SmallerWithoutSignThan@?$Big@$00$0BK@@ttmath@@QEBA_NAEBV12@@Z 000000018001a8c0 f i newparse.cpp.obj
 0001:00019940       ?Swap@?$Big@$00$0BK@@ttmath@@QEAAXAEAV12@@Z 000000018001a940 f i newparse.cpp.obj
 0001:000199b0       ?ClearFirstBits@?$UInt@$0BK@@ttmath@@QEAAX_K@Z 000000018001a9b0 f i newparse.cpp.obj
 0001:00019a60       ?replace@?$basic_string@_WU?$char_traits@_W@std@@V?$allocator@_W@2@@std@@QEAAAEAV12@_K_KQEB_W0@Z 000000018001aa60 f i newparse.cpp.obj
 0001:00019c30       ?insert@?$basic_string@_WU?$char_traits@_W@std@@V?$allocator@_W@2@@std@@QEAAAEAV12@_KQEB_W0@Z 000000018001ac30 f i newparse.cpp.obj
 0001:00019d40       ?create_node@ArgNodeFactoryImpl@ArgList@?$MathExpressionBase@USArg@@@@UEBAPEAVNode@3@XZ 000000018001ad40 f i newparse.cpp.obj
 0001:00019d70       ?reHash@?$hash_map@V?$basic_string@_WU?$char_traits@_W@std@@V?$allocator@_W@2@@std@@PEAVCalcParser@@UStrHashFunc@@U?$equal_to@V?$basic_string@_WU?$char_traits@_W@std@@V?$allocator@_W@2@@std@@@2@V?$allocator@U?$pair@V?$basic_string@_WU?$char_traits@_W@std@@V?$allocator@_W@2@@std@@PEAVCalcParser@@@std@@@2@@ag@@QEAAXXZ 000000018001ad70 f i newparse.cpp.obj
 0001:00019f70       ?insert@?$vector@PEAVPriorityLevel@BinaryOperationTable@?$MathExpressionBase@USArg@@@@V?$allocator@PEAVPriorityLevel@BinaryOperationTable@?$MathExpressionBase@USArg@@@@@std@@@std@@QEAA?AV?$_Vector_iterator@V?$_Vector_val@U?$_Simple_types@PEAVPriorityLevel@BinaryOperationTable@?$MathExpressionBase@USArg@@@@@std@@@std@@@2@V?$_Vector_const_iterator@V?$_Vector_val@U?$_Simple_types@PEAVPriorityLevel@BinaryOperationTable@?$MathExpressionBase@USArg@@@@@std@@@std@@@2@_KAEBQEAVPriorityLevel@BinaryOperationTable@?$MathExpressionBase@USArg@@@@@Z 000000018001af70 f i newparse.cpp.obj
 0001:0001a1e0       ?deallocate@?$allocator@VCalcAddonPart@@@std@@QEAAXQEAVCalcAddonPart@@_K@Z 000000018001b1e0 f i newparse.cpp.obj
 0001:0001a1f0       ??M?$UInt@$0BK@@ttmath@@QEBA_NAEBV01@@Z 000000018001b1f0 f i newparse.cpp.obj
 0001:0001a220       ?AreFirstBitsZero@?$UInt@$0BK@@ttmath@@QEBA_N_K@Z 000000018001b220 f i newparse.cpp.obj
 0001:0001a270       ?_Xran@?$_String_val@U?$_Simple_types@_W@std@@@std@@SAXXZ 000000018001b270 f i newparse.cpp.obj
 0001:0001a290       ?eval@ArgNode@?$MathExpressionBase@USArg@@@@UEAA?AUSArg@@QEBU3@@Z 000000018001b290 f i newparse.cpp.obj
 0001:0001a2c0       ??1Node@?$MathExpressionBase@USArg@@@@UEAA@XZ 000000018001b2c0 f i newparse.cpp.obj
 0001:0001a2d0       ??_GArgNode@?$MathExpressionBase@USArg@@@@UEAAPEAXI@Z 000000018001b2d0 f i newparse.cpp.obj
 0001:0001a2d0       ??_EArgNode@?$MathExpressionBase@USArg@@@@UEAAPEAXI@Z 000000018001b2d0 f i * CIL library *:* CIL module *
 0001:0001a300       ??_GNode@?$MathExpressionBase@USArg@@@@UEAAPEAXI@Z 000000018001b300 f i newparse.cpp.obj
 0001:0001a300       ??_ENode@?$MathExpressionBase@USArg@@@@UEAAPEAXI@Z 000000018001b300 f i * CIL library *:* CIL module *
 0001:0001a330       ?Div3Ref@?$UInt@$0BI@@ttmath@@AEAA_KAEBV12@PEAV12@@Z 000000018001b330 f i newparse.cpp.obj
 0001:0001a420       ?Div_StandardTest@?$UInt@$0BI@@ttmath@@AEAA_KAEBV12@AEA_K1PEAV12@@Z 000000018001b420 f i newparse.cpp.obj
 0001:0001a590       ?MulFastestBig@?$UInt@$0BI@@ttmath@@QEAAXAEBV12@AEAV?$UInt@$0DA@@2@@Z 000000018001b590 f i newparse.cpp.obj
 0001:0001a730       ?Mul3Big@?$UInt@$0BI@@ttmath@@QEAAXAEBV12@AEAV?$UInt@$0DA@@2@@Z 000000018001b730 f i newparse.cpp.obj
 0001:0001a910       ?Div3_Division@?$UInt@$0BI@@ttmath@@AEAAXV12@PEAV12@_K2@Z 000000018001b910 f i newparse.cpp.obj
 0001:0001add0       ?DivInt@?$UInt@$0BI@@ttmath@@QEAA_K_KPEA_K@Z 000000018001bdd0 f i newparse.cpp.obj
 0001:0001af40       ?Rcl@?$UInt@$0BI@@ttmath@@QEAA_K_K0@Z 000000018001bf40 f i newparse.cpp.obj
 0001:0001b070       ?Rcr@?$UInt@$0BI@@ttmath@@QEAA_K_K0@Z 000000018001c070 f i newparse.cpp.obj
 0001:0001b1d0       ??$?8_WU?$char_traits@_W@std@@V?$allocator@_W@1@@std@@YA_NAEBV?$basic_string@_WU?$char_traits@_W@std@@V?$allocator@_W@2@@0@0@Z 000000018001c1d0 f i newparse.cpp.obj
 0001:0001b220       ?Rcl2_one@?$UInt@$0BI@@ttmath@@AEAA_K_K@Z 000000018001c220 f i newparse.cpp.obj
 0001:0001b250       ?Rcr2_one@?$UInt@$0BI@@ttmath@@AEAA_K_K@Z 000000018001c250 f i newparse.cpp.obj
 0001:0001b560       ?Rcl2@?$UInt@$0BI@@ttmath@@AEAA_K_K0@Z 000000018001c560 f i newparse.cpp.obj
 0001:0001b5d0       ?Rcr2@?$UInt@$0BI@@ttmath@@AEAA_K_K0@Z 000000018001c5d0 f i newparse.cpp.obj
 0001:0001b880       ?Add@?$UInt@$0BI@@ttmath@@QEAA_KAEBV12@_K@Z 000000018001c880 f i newparse.cpp.obj
 0001:0001b8c0       ?AddInt@?$UInt@$0BI@@ttmath@@QEAA_K_K0@Z 000000018001c8c0 f i newparse.cpp.obj
 0001:0001b910       ?Sub@?$UInt@$0BI@@ttmath@@QEAA_KAEBV12@_K@Z 000000018001c910 f i newparse.cpp.obj
 0001:0001b950       ?Add@?$UInt@$0BK@@ttmath@@QEAA_KAEBV12@_K@Z 000000018001c950 f i newparse.cpp.obj
 0001:0001b990       ?Sub@?$UInt@$0BK@@ttmath@@QEAA_KAEBV12@_K@Z 000000018001c990 f i newparse.cpp.obj
 0001:0001b9d0       ?SetBitInWord@?$UInt@$0BK@@ttmath@@SA_KAEA_K_K@Z 000000018001c9d0 f i newparse.cpp.obj
 0001:0001ba00       ?parse_expression@?$MathExpressionBase@USArg@@@@MEAA_N_KAEAPEB_WPEAPEAVNode@1@@Z 000000018001ca00 f i newparse.cpp.obj
 0001:0001bd10       ?parse_terminal_token@?$MathExpressionBase@USArg@@@@MEAA_NAEAPEB_WPEAPEAVNode@1@@Z 000000018001cd10 f i newparse.cpp.obj
 0001:0001c6c0       ?can_be_part_of_identifier@?$MathExpressionBase@USArg@@@@MEAA_N_W@Z 000000018001d6c0 f i newparse.cpp.obj
 0001:0001c6f0       ?skip_white_spaces@?$MathExpressionBase@USArg@@@@MEAAPEB_WAEAPEB_W@Z 000000018001d6f0 f i newparse.cpp.obj
 0001:0001c730       ?set_error_id@?$MathExpressionBase@USArg@@@@MEAAXW4PARSER_ERROR@@@Z 000000018001d730 f i newparse.cpp.obj
 0001:0001c740       ??0?$MathExpressionBase@USArg@@@@QEAA@XZ 000000018001d740 f i newparse.cpp.obj
 0001:0001c7d0       ??1?$MathExpressionBase@USArg@@@@UEAA@XZ 000000018001d7d0 f i newparse.cpp.obj
 0001:0001c8f0       ?parse@?$MathExpressionBase@USArg@@@@UEAA_NPEB_W@Z 000000018001d8f0 f i newparse.cpp.obj
 0001:0001c990       ?eval@?$MathExpressionBase@USArg@@@@UEBA?AUSArg@@QEBU2@@Z 000000018001d990 f i newparse.cpp.obj
 0001:0001c9b0       ?destroy_tree@?$MathExpressionBase@USArg@@@@UEAAXXZ 000000018001d9b0 f i newparse.cpp.obj
 0001:0001c9f0       ?get_error_id@?$MathExpressionBase@USArg@@@@QEBA?AW4PARSER_ERROR@@XZ 000000018001d9f0 f i newparse.cpp.obj
 0001:0001ca00       ?operator_unary_minus@?$MathExpressionBase@USArg@@@@SA?AUSArg@@U2@@Z 000000018001da00 f i newparse.cpp.obj
 0001:0001ca20       ?operator_unary_plus@?$MathExpressionBase@USArg@@@@SA?AUSArg@@U2@@Z 000000018001da20 f i newparse.cpp.obj
 0001:0001ca40       ?operator_logical_not@?$MathExpressionBase@USArg@@@@SA?AUSArg@@U2@@Z 000000018001da40 f i newparse.cpp.obj
 0001:0001ca70       ??$add@USArg@@@PriorityLevel@BinaryOperationTable@?$MathExpressionBase@USArg@@@@QEAAXAEBV?$basic_string@_WU?$char_traits@_W@std@@V?$allocator@_W@2@@std@@P6A?AUSArg@@AEBU5@1@Z0@Z 000000018001da70 f i newparse.cpp.obj
 0001:0001cb30       ??$add@USArg@@@UnaryOperationTable@?$MathExpressionBase@USArg@@@@QEAAXAEBV?$basic_string@_WU?$char_traits@_W@std@@V?$allocator@_W@2@@std@@P6A?AUSArg@@AEBU4@@Z0@Z 000000018001db30 f i newparse.cpp.obj
 0001:0001cbc0       ??$?0PEA_WPEAVCalcParser@@$0A@@?$pair@V?$basic_string@_WU?$char_traits@_W@std@@V?$allocator@_W@2@@std@@PEAVCalcParser@@@std@@QEAA@$$QEAU?$pair@PEA_WPEAVCalcParser@@@1@@Z 000000018001dbc0 f i newparse.cpp.obj
 0001:0001cc20       ??$add@USArg@@@NamedConstantList@?$MathExpressionBase@USArg@@@@QEAAXAEBV?$basic_string@_WU?$char_traits@_W@std@@V?$allocator@_W@2@@std@@AEBUSArg@@0@Z 000000018001dc20 f i newparse.cpp.obj
 0001:0001cd00       ??$add@USArg@@@FunctionList@?$MathExpressionBase@USArg@@@@QEAAXAEBV?$basic_string@_WU?$char_traits@_W@std@@V?$allocator@_W@2@@std@@PEBV1@0@Z 000000018001dd00 f i newparse.cpp.obj
 0001:0001cd90       ?Add@?$UInt@$0BJ@@ttmath@@QEAA_KAEBV12@_K@Z 000000018001dd90 f i newparse.cpp.obj
 0001:0001cdd0       ?AddInt@?$UInt@$0BJ@@ttmath@@QEAA_K_K0@Z 000000018001ddd0 f i newparse.cpp.obj
 0001:0001ce30       ?AddTwoInts@?$UInt@$0BJ@@ttmath@@QEAA_K_K00@Z 000000018001de30 f i newparse.cpp.obj
 0001:0001cec0       ?Sub@?$UInt@$0BJ@@ttmath@@QEAA_KAEBV12@_K@Z 000000018001dec0 f i newparse.cpp.obj
 0001:0001cf00       ??$Abs@V?$Big@$00$0BK@@ttmath@@@ttmath@@YA?AV?$Big@$00$0BK@@0@AEBV10@@Z 000000018001df00 f i newparse.cpp.obj
 0001:0001cf20       ??$?8_WU?$char_traits@_W@std@@V?$allocator@_W@1@@std@@YA_NAEBV?$basic_string@_WU?$char_traits@_W@std@@V?$allocator@_W@2@@0@QEB_W@Z 000000018001df20 f i newparse.cpp.obj
 0001:0001cf80       ??$FromStringBase@_W@?$Int@$0BI@@ttmath@@AEAA_KPEB_W_KPEAPEB_WPEA_N@Z 000000018001df80 f i newparse.cpp.obj
 0001:0001d370       ??$FromStringBase@_W@?$Big@$00$0BK@@ttmath@@AEAA_KPEB_WAEBUConv@1@PEAPEB_WPEA_N@Z 000000018001e370 f i newparse.cpp.obj
 0001:0001d4d0       ??$ToStringBase@V?$basic_string@_WU?$char_traits@_W@std@@V?$allocator@_W@2@@std@@_W@?$Big@$00$0BK@@ttmath@@AEBA_KAEAV?$basic_string@_WU?$char_traits@_W@std@@V?$allocator@_W@2@@std@@AEBUConv@1@@Z 000000018001e4d0 f i newparse.cpp.obj
 0001:0001d600       ??$_Destroy_range@V?$allocator@VCalcAddonPart@@@std@@@std@@YAXPEAVCalcAddonPart@@QEAV1@AEAV?$allocator@VCalcAddonPart@@@0@@Z 000000018001e600 f i newparse.cpp.obj
 0001:0001d640       ??$_Reallocate_grow_by@V<lambda_cc38baf86caa2c9da7d2f2d7bbabc1b7>@@_K_KPEB_W_K@?$basic_string@_WU?$char_traits@_W@std@@V?$allocator@_W@2@@std@@AEAAAEAV01@_KV<lambda_cc38baf86caa2c9da7d2f2d7bbabc1b7>@@_K2PEB_W2@Z 000000018001e640 f i newparse.cpp.obj
 0001:0001d7f0       ??$_Reallocate_grow_by@V<lambda_967c2ed818824c5314a20ec3af46b793>@@_KPEB_W_K@?$basic_string@_WU?$char_traits@_W@std@@V?$allocator@_W@2@@std@@AEAAAEAV01@_KV<lambda_967c2ed818824c5314a20ec3af46b793>@@_KPEB_W2@Z 000000018001e7f0 f i newparse.cpp.obj
 0001:0001d980       ??$_Destroy_range@V?$allocator@VCalcAddon@@@std@@@std@@YAXPEAVCalcAddon@@QEAV1@AEAV?$allocator@VCalcAddon@@@0@@Z 000000018001e980 f i newparse.cpp.obj
 0001:0001da70       ??$fill@PEAPEAVPriorityLevel@BinaryOperationTable@?$MathExpressionBase@USArg@@@@PEAV123@@std@@YAXQEAPEAVPriorityLevel@BinaryOperationTable@?$MathExpressionBase@USArg@@@@0AEBQEAV123@@Z 000000018001ea70 f i newparse.cpp.obj
 0001:0001db20       ??$Mul2Big3@$0BI@@?$UInt@$0BI@@ttmath@@AEAAXPEB_K0AEAV?$UInt@$0DA@@1@_K222@Z 000000018001eb20 f i newparse.cpp.obj
 0001:0001dc40       ??_E?$MathExpressionBase@USArg@@@@UEAAPEAXI@Z 000000018001ec40 f i * CIL library *:* CIL module *
 0001:0001dc40       ??_G?$MathExpressionBase@USArg@@@@UEAAPEAXI@Z 000000018001ec40 f i newparse.cpp.obj
 0001:0001dc80       ?getnumargs@?$MathExpressionNodeFactory@USArg@@@?$FunctionListBase@VFunctionalNodeFactory@?$MathExpressionBase@USArg@@@@@?$MathExpressionBase@USArg@@@@UEBAHXZ 000000018001ec80 f i newparse.cpp.obj
 0001:0001dca0       ?create_node@?$MathExpressionNodeFactory@USArg@@@?$FunctionListBase@VFunctionalNodeFactory@?$MathExpressionBase@USArg@@@@@?$MathExpressionBase@USArg@@@@UEBAPEAVNode@3@AEBVNodeList@3@AEBV?$basic_string@_WU?$char_traits@_W@std@@V?$allocator@_W@2@@std@@@Z 000000018001eca0 f i newparse.cpp.obj
 0001:0001dd20       ?create_node@ConstValueNodeFactoryImpl@NamedConstantList@?$MathExpressionBase@USArg@@@@UEBAPEAVNode@3@XZ 000000018001ed20 f i newparse.cpp.obj
 0001:0001dd60       ?create_node@?$FunctionPointerNodeFactory@P6A?AUSArg@@AEBU1@@Z@?$FunctionListBase@VUnaryOperationNodeFactory@?$MathExpressionBase@USArg@@@@@?$MathExpressionBase@USArg@@@@UEBAPEAVNode@3@AEBVNodeList@3@AEBV?$basic_string@_WU?$char_traits@_W@std@@V?$allocator@_W@2@@std@@@Z 000000018001ed60 f i newparse.cpp.obj
 0001:0001dd60       ?create_node@?$FunctionPointerNodeFactory@P6A?AUSArg@@AEBU1@@Z@?$FunctionListBase@VFunctionalNodeFactory@?$MathExpressionBase@USArg@@@@@?$MathExpressionBase@USArg@@@@UEBAPEAVNode@3@AEBVNodeList@3@AEBV?$basic_string@_WU?$char_traits@_W@std@@V?$allocator@_W@2@@std@@@Z 000000018001ed60 f i newparse.cpp.obj
 0001:0001dde0       ?create_node@?$FunctionPointerNodeFactory@P6A?AUSArg@@U1@@Z@?$FunctionListBase@VUnaryOperationNodeFactory@?$MathExpressionBase@USArg@@@@@?$MathExpressionBase@USArg@@@@UEBAPEAVNode@3@AEBVNodeList@3@AEBV?$basic_string@_WU?$char_traits@_W@std@@V?$allocator@_W@2@@std@@@Z 000000018001ede0 f i newparse.cpp.obj
 0001:0001de60       ?create_node@?$FunctionPointerNodeFactory@P6A?AUSArg@@AEBU1@0@Z@?$FunctionListBase@VBinaryOperationNodeFactory@?$MathExpressionBase@USArg@@@@@?$MathExpressionBase@USArg@@@@UEBAPEAVNode@3@AEBVNodeList@3@AEBV?$basic_string@_WU?$char_traits@_W@std@@V?$allocator@_W@2@@std@@@Z 000000018001ee60 f i newparse.cpp.obj
 0001:0001de60       ?create_node@?$FunctionPointerNodeFactory@P6A?AUSArg@@AEBU1@0@Z@?$FunctionListBase@VFunctionalNodeFactory@?$MathExpressionBase@USArg@@@@@?$MathExpressionBase@USArg@@@@UEBAPEAVNode@3@AEBVNodeList@3@AEBV?$basic_string@_WU?$char_traits@_W@std@@V?$allocator@_W@2@@std@@@Z 000000018001ee60 f i newparse.cpp.obj
 0001:0001dee0       ?getnumargs@?$FunctionPointerNodeFactory@P6A?AUSArg@@AEBU1@00@Z@?$FunctionListBase@VFunctionalNodeFactory@?$MathExpressionBase@USArg@@@@@?$MathExpressionBase@USArg@@@@UEBAHXZ 000000018001eee0 f i newparse.cpp.obj
 0001:0001def0       ?create_node@?$FunctionPointerNodeFactory@P6A?AUSArg@@AEBU1@00@Z@?$FunctionListBase@VFunctionalNodeFactory@?$MathExpressionBase@USArg@@@@@?$MathExpressionBase@USArg@@@@UEBAPEAVNode@3@AEBVNodeList@3@AEBV?$basic_string@_WU?$char_traits@_W@std@@V?$allocator@_W@2@@std@@@Z 000000018001eef0 f i newparse.cpp.obj
 0001:0001df70       ?getnumargs@?$FunctionPointerNodeFactory@P6A?AUSArg@@AEBU1@0@Z@?$FunctionListBase@VFunctionalNodeFactory@?$MathExpressionBase@USArg@@@@@?$MathExpressionBase@USArg@@@@UEBAHXZ 000000018001ef70 f i newparse.cpp.obj
 0001:0001df80       DllMain                    000000018001ef80 f i LIBCMT:dll_dllmain_stub.obj
 0001:0001df80       ?getnumargs@?$FunctionPointerNodeFactory@P6A?AUSArg@@AEBU1@@Z@?$FunctionListBase@VFunctionalNodeFactory@?$MathExpressionBase@USArg@@@@@?$MathExpressionBase@USArg@@@@UEBAHXZ 000000018001ef80 f i newparse.cpp.obj
 0001:0001df80       _get_startup_argv_mode     000000018001ef80 f i LIBCMT:argv_mode.obj
 0001:0001df90       ?getnumargs@?$FunctionPointerNodeFactory@P6A?AUSArg@@XZ@?$FunctionListBase@VFunctionalNodeFactory@?$MathExpressionBase@USArg@@@@@?$MathExpressionBase@USArg@@@@UEBAHXZ 000000018001ef90 f i newparse.cpp.obj
 0001:0001dfa0       ?create_node@?$FunctionPointerNodeFactory@P6A?AUSArg@@XZ@?$FunctionListBase@VFunctionalNodeFactory@?$MathExpressionBase@USArg@@@@@?$MathExpressionBase@USArg@@@@UEBAPEAVNode@3@AEBVNodeList@3@AEBV?$basic_string@_WU?$char_traits@_W@std@@V?$allocator@_W@2@@std@@@Z 000000018001efa0 f i newparse.cpp.obj
 0001:0001e020       ?eval@ConstValueNode@?$MathExpressionBase@USArg@@@@UEAA?AUSArg@@QEBU3@@Z 000000018001f020 f i newparse.cpp.obj
 0001:0001e040       ?push_back@?$FunctionListBase@VUnaryOperationNodeFactory@?$MathExpressionBase@USArg@@@@@?$MathExpressionBase@USArg@@@@QEAAXPEAVUnaryOperationNodeFactory@2@@Z 000000018001f040 f i newparse.cpp.obj
 0001:0001e0b0       ??1?$NodeFactoryList@VBoundParameterNodeFactory@?$MathExpressionBase@USArg@@@@@?$MathExpressionBase@USArg@@@@IEAA@XZ 000000018001f0b0 f i newparse.cpp.obj
 0001:0001e190       ?push_back@?$FunctionListBase@VFunctionalNodeFactory@?$MathExpressionBase@USArg@@@@@?$MathExpressionBase@USArg@@@@QEAAXPEAVFunctionalNodeFactory@2@@Z 000000018001f190 f i newparse.cpp.obj
 0001:0001e200       ?insert@?$basic_string@_WU?$char_traits@_W@std@@V?$allocator@_W@2@@std@@QEAA?AV?$_String_iterator@V?$_String_val@U?$_Simple_types@_W@std@@@std@@@2@V?$_String_const_iterator@V?$_String_val@U?$_Simple_types@_W@std@@@std@@@2@_W@Z 000000018001f200 f i newparse.cpp.obj
 0001:0001e2e0       ??_GConstValueNode@?$MathExpressionBase@USArg@@@@UEAAPEAXI@Z 000000018001f2e0 f i newparse.cpp.obj
 0001:0001e2e0       ??_EConstValueNode@?$MathExpressionBase@USArg@@@@UEAAPEAXI@Z 000000018001f2e0 f i * CIL library *:* CIL module *
 0001:0001e310       ?eval@?$FunctionPointerNode@P6A?AUSArg@@XZ@?$MathExpressionBase@USArg@@@@UEAA?AUSArg@@QEBU3@@Z 000000018001f310 f i newparse.cpp.obj
 0001:0001e360       ?eval@?$FunctionPointerNode@P6A?AUSArg@@AEBU1@00@Z@?$MathExpressionBase@USArg@@@@UEAA?AUSArg@@QEBU3@@Z 000000018001f360 f i newparse.cpp.obj
 0001:0001e420       ?eval@?$FunctionPointerNode@P6A?AUSArg@@AEBU1@0@Z@?$MathExpressionBase@USArg@@@@UEAA?AUSArg@@QEBU3@@Z 000000018001f420 f i newparse.cpp.obj
 0001:0001e4c0       ?eval@?$FunctionPointerNode@P6A?AUSArg@@U1@@Z@?$MathExpressionBase@USArg@@@@UEAA?AUSArg@@QEBU3@@Z 000000018001f4c0 f i newparse.cpp.obj
 0001:0001e540       ?eval@?$FunctionPointerNode@P6A?AUSArg@@AEBU1@@Z@?$MathExpressionBase@USArg@@@@UEAA?AUSArg@@QEBU3@@Z 000000018001f540 f i newparse.cpp.obj
 0001:0001e5b0       ?eval@?$MathExpressionNode@USArg@@@?$MathExpressionBase@USArg@@@@UEAA?AUSArg@@QEBU3@@Z 000000018001f5b0 f i newparse.cpp.obj
 0001:0001e6a0       ??1FunctionalNode@?$MathExpressionBase@USArg@@@@MEAA@XZ 000000018001f6a0 f i newparse.cpp.obj
 0001:0001e720       ??_G?$FunctionPointerNode@P6A?AUSArg@@AEBU1@00@Z@?$MathExpressionBase@USArg@@@@UEAAPEAXI@Z 000000018001f720 f i newparse.cpp.obj
 0001:0001e720       ??_E?$FunctionPointerNode@P6A?AUSArg@@U1@@Z@?$MathExpressionBase@USArg@@@@UEAAPEAXI@Z 000000018001f720 f i * CIL library *:* CIL module *
 0001:0001e720       ??_E?$FunctionPointerNode@P6A?AUSArg@@AEBU1@00@Z@?$MathExpressionBase@USArg@@@@UEAAPEAXI@Z 000000018001f720 f i * CIL library *:* CIL module *
 0001:0001e720       ??_G?$FunctionPointerNode@P6A?AUSArg@@U1@@Z@?$MathExpressionBase@USArg@@@@UEAAPEAXI@Z 000000018001f720 f i newparse.cpp.obj
 0001:0001e720       ??_G?$FunctionPointerNode@P6A?AUSArg@@AEBU1@@Z@?$MathExpressionBase@USArg@@@@UEAAPEAXI@Z 000000018001f720 f i newparse.cpp.obj
 0001:0001e720       ??_E?$FunctionPointerNode@P6A?AUSArg@@AEBU1@0@Z@?$MathExpressionBase@USArg@@@@UEAAPEAXI@Z 000000018001f720 f i * CIL library *:* CIL module *
 0001:0001e720       ??_G?$FunctionPointerNode@P6A?AUSArg@@AEBU1@0@Z@?$MathExpressionBase@USArg@@@@UEAAPEAXI@Z 000000018001f720 f i newparse.cpp.obj
 0001:0001e720       ??_E?$FunctionPointerNode@P6A?AUSArg@@AEBU1@@Z@?$MathExpressionBase@USArg@@@@UEAAPEAXI@Z 000000018001f720 f i * CIL library *:* CIL module *
 0001:0001e720       ??_G?$FunctionPointerNode@P6A?AUSArg@@XZ@?$MathExpressionBase@USArg@@@@UEAAPEAXI@Z 000000018001f720 f i newparse.cpp.obj
 0001:0001e720       ??_E?$FunctionPointerNode@P6A?AUSArg@@XZ@?$MathExpressionBase@USArg@@@@UEAAPEAXI@Z 000000018001f720 f i * CIL library *:* CIL module *
 0001:0001e790       ??_G?$MathExpressionNode@USArg@@@?$MathExpressionBase@USArg@@@@UEAAPEAXI@Z 000000018001f790 f i newparse.cpp.obj
 0001:0001e790       ??_E?$MathExpressionNode@USArg@@@?$MathExpressionBase@USArg@@@@UEAAPEAXI@Z 000000018001f790 f i * CIL library *:* CIL module *
 0001:0001e810       ??_EFunctionalNode@?$MathExpressionBase@USArg@@@@MEAAPEAXI@Z 000000018001f810 f i * CIL library *:* CIL module *
 0001:0001e810       ??_GFunctionalNode@?$MathExpressionBase@USArg@@@@MEAAPEAXI@Z 000000018001f810 f i newparse.cpp.obj
 0001:0001e850       ??1?$vector@USArg@@V?$allocator@USArg@@@std@@@std@@QEAA@XZ 000000018001f850 f i newparse.cpp.obj
 0001:0001e8a0       ??0FunctionalNode@?$MathExpressionBase@USArg@@@@IEAA@AEBVNodeList@1@@Z 000000018001f8a0 f i newparse.cpp.obj
 0001:0001e950       ?compare_by_name_length@?$NodeFactoryList@VFunctionalNodeFactory@?$MathExpressionBase@USArg@@@@@?$MathExpressionBase@USArg@@@@KA_NPEBVFunctionalNodeFactory@2@0@Z 000000018001f950 f i newparse.cpp.obj
 0001:0001e950       ?compare_by_name_length@?$NodeFactoryList@VBinaryOperationNodeFactory@?$MathExpressionBase@USArg@@@@@?$MathExpressionBase@USArg@@@@KA_NPEBVBinaryOperationNodeFactory@2@0@Z 000000018001f950 f i newparse.cpp.obj
 0001:0001e950       ?compare_by_name_length@?$NodeFactoryList@VUnaryOperationNodeFactory@?$MathExpressionBase@USArg@@@@@?$MathExpressionBase@USArg@@@@KA_NPEBVUnaryOperationNodeFactory@2@0@Z 000000018001f950 f i newparse.cpp.obj
 0001:0001e960       ?AddTwoInts@?$UInt@$0DA@@ttmath@@QEAA_K_K00@Z 000000018001f960 f i newparse.cpp.obj
 0001:0001e9f0       ??$FromInt@$0BI@@?$Big@$00$0BK@@ttmath@@QEAA_KV?$Int@$0BI@@1@@Z 000000018001f9f0 f i newparse.cpp.obj
 0001:0001ea70       ??$ToUIntOrInt@$0BI@@?$Big@$00$0BK@@ttmath@@AEBA_KAEAV?$UInt@$0BI@@1@@Z 000000018001fa70 f i newparse.cpp.obj
 0001:0001edd0       ??$_Resize_reallocate@U_Value_init_tag@std@@@?$vector@V?$Big@$00$0BK@@ttmath@@V?$allocator@V?$Big@$00$0BK@@ttmath@@@std@@@std@@AEAAX_KAEBU_Value_init_tag@1@@Z 000000018001fdd0 f i newparse.cpp.obj
 0001:0001ef00       ??$_Resize_reallocate@U_Value_init_tag@std@@@?$vector@V?$Int@$0BI@@ttmath@@V?$allocator@V?$Int@$0BI@@ttmath@@@std@@@std@@AEAAX_KAEBU_Value_init_tag@1@@Z 000000018001ff00 f i newparse.cpp.obj
 0001:0001f030       ??$_Emplace_reallocate@AEBV?$Int@$0BI@@ttmath@@@?$vector@V?$Int@$0BI@@ttmath@@V?$allocator@V?$Int@$0BI@@ttmath@@@std@@@std@@QEAAPEAV?$Int@$0BI@@ttmath@@QEAV23@AEBV23@@Z 0000000180020030 f i newparse.cpp.obj
 0001:0001f220       ??$_Resize_reallocate@U_Value_init_tag@std@@@?$vector@VCalcAddon@@V?$allocator@VCalcAddon@@@std@@@std@@AEAAX_KAEBU_Value_init_tag@1@@Z 0000000180020220 f i newparse.cpp.obj
 0001:0001f380       ??$_Resize_reallocate@U_Value_init_tag@std@@@?$vector@VCalcAddonPart@@V?$allocator@VCalcAddonPart@@@std@@@std@@AEAAX_KAEBU_Value_init_tag@1@@Z 0000000180020380 f i newparse.cpp.obj
 0001:0001f4d0       ??$FromString_ReadPartBeforeComma@_W@?$Big@$00$0BK@@ttmath@@AEAA_KAEAPEB_WAEBUConv@1@AEA_N@Z 00000001800204d0 f i newparse.cpp.obj
 0001:0001f660       ??$FromString_ReadPartAfterComma@_W@?$Big@$00$0BK@@ttmath@@AEAA_KAEAPEB_WAEBUConv@1@AEA_N@Z 0000000180020660 f i newparse.cpp.obj
 0001:0001fd10       ??$FromString_ReadScientificIfExists@_W@?$Big@$00$0BK@@ttmath@@AEAA_KAEAPEB_W@Z 0000000180020d10 f i newparse.cpp.obj
 0001:0001fea0       ??$ToString_CreateNewMantissaAndExponent@V?$basic_string@_WU?$char_traits@_W@std@@V?$allocator@_W@2@@std@@_W@?$Big@$00$0BK@@ttmath@@AEBA_KAEAV?$basic_string@_WU?$char_traits@_W@std@@V?$allocator@_W@2@@std@@AEBUConv@1@AEAV?$Int@$01@1@@Z 0000000180020ea0 f i newparse.cpp.obj
 0001:00020160       ??$ToString_SetCommaAndExponent@V?$basic_string@_WU?$char_traits@_W@std@@V?$allocator@_W@2@@std@@_W@?$Big@$00$0BK@@ttmath@@AEBA_KAEAV?$basic_string@_WU?$char_traits@_W@std@@V?$allocator@_W@2@@std@@AEBUConv@1@AEAV?$Int@$01@1@@Z 0000000180021160 f i newparse.cpp.obj
 0001:00020460       ??$_Resize_reallocate@U_Value_init_tag@std@@@?$vector@PEAVPriorityLevel@BinaryOperationTable@?$MathExpressionBase@USArg@@@@V?$allocator@PEAVPriorityLevel@BinaryOperationTable@?$MathExpressionBase@USArg@@@@@std@@@std@@AEAAX_KAEBU_Value_init_tag@1@@Z 0000000180021460 f i newparse.cpp.obj
 0001:00020580       ??$_Copy_backward_memmove@PEAPEAVFunctionalNodeFactory@?$MathExpressionBase@USArg@@@@PEAPEAV12@@std@@YAPEAPEAVFunctionalNodeFactory@?$MathExpressionBase@USArg@@@@PEAPEAV12@00@Z 0000000180021580 f i newparse.cpp.obj
 0001:00020580       ??$_Copy_backward_memmove@PEAPEAVUnaryOperationNodeFactory@?$MathExpressionBase@USArg@@@@PEAPEAV12@@std@@YAPEAPEAVUnaryOperationNodeFactory@?$MathExpressionBase@USArg@@@@PEAPEAV12@00@Z 0000000180021580 f i newparse.cpp.obj
 0001:00020580       ??$_Copy_backward_memmove@PEAPEAVBinaryOperationNodeFactory@?$MathExpressionBase@USArg@@@@PEAPEAV12@@std@@YAPEAPEAVBinaryOperationNodeFactory@?$MathExpressionBase@USArg@@@@PEAPEAV12@00@Z 0000000180021580 f i newparse.cpp.obj
 0001:00020580       ??$_Copy_backward_memmove@PEAPEAVPriorityLevel@BinaryOperationTable@?$MathExpressionBase@USArg@@@@PEAPEAV123@@std@@YAPEAPEAVPriorityLevel@BinaryOperationTable@?$MathExpressionBase@USArg@@@@PEAPEAV123@00@Z 0000000180021580 f i newparse.cpp.obj
 0001:000205a0       ??$_Uninitialized_value_construct_n@V?$allocator@V?$Big@$00$0BK@@ttmath@@@std@@@std@@YAPEAV?$Big@$00$0BK@@ttmath@@PEAV12@_KAEAV?$allocator@V?$Big@$00$0BK@@ttmath@@@0@@Z 00000001800215a0 f i newparse.cpp.obj
 0001:000205d0       ??$_Uninitialized_value_construct_n@V?$allocator@V?$Int@$0BI@@ttmath@@@std@@@std@@YAPEAV?$Int@$0BI@@ttmath@@PEAV12@_KAEAV?$allocator@V?$Int@$0BI@@ttmath@@@0@@Z 00000001800215d0 f i newparse.cpp.obj
 0001:000205f0       ??$_Uninitialized_value_construct_n@V?$allocator@VCalcAddon@@@std@@@std@@YAPEAVCalcAddon@@PEAV1@_KAEAV?$allocator@VCalcAddon@@@0@@Z 00000001800215f0 f i newparse.cpp.obj
 0001:00020660       ??$_Uninitialized_value_construct_n@V?$allocator@PEAVPriorityLevel@BinaryOperationTable@?$MathExpressionBase@USArg@@@@@std@@@std@@YAPEAPEAVPriorityLevel@BinaryOperationTable@?$MathExpressionBase@USArg@@@@PEAPEAV123@_KAEAV?$allocator@PEAVPriorityLevel@BinaryOperationTable@?$MathExpressionBase@USArg@@@@@0@@Z 0000000180021660 f i newparse.cpp.obj
 0001:00020680       ??$_Uninitialized_value_construct_n@V?$allocator@VCalcAddonPart@@@std@@@std@@YAPEAVCalcAddonPart@@PEAV1@_KAEAV?$allocator@VCalcAddonPart@@@0@@Z 0000000180021680 f i newparse.cpp.obj
 0001:000206d0       ??$_Emplace_reallocate@AEBQEAVConstValueNodeFactory@?$MathExpressionBase@USArg@@@@@?$vector@PEAVConstValueNodeFactory@?$MathExpressionBase@USArg@@@@V?$allocator@PEAVConstValueNodeFactory@?$MathExpressionBase@USArg@@@@@std@@@std@@QEAAPEAPEAVConstValueNodeFactory@?$MathExpressionBase@USArg@@@@QEAPEAV23@AEBQEAV23@@Z 00000001800216d0 f i newparse.cpp.obj
 0001:00020820       ??$_Reallocate_grow_by@V<lambda_51c4cb9729979bd953fe6d1bff5c73b0>@@_K_K_W@?$basic_string@_WU?$char_traits@_W@std@@V?$allocator@_W@2@@std@@AEAAAEAV01@_KV<lambda_51c4cb9729979bd953fe6d1bff5c73b0>@@_K2_W@Z 0000000180021820 f i newparse.cpp.obj
 0001:00020990       ??$_Emplace_reallocate@AEBQEAVUnaryOperationNodeFactory@?$MathExpressionBase@USArg@@@@@?$vector@PEAVUnaryOperationNodeFactory@?$MathExpressionBase@USArg@@@@V?$allocator@PEAVUnaryOperationNodeFactory@?$MathExpressionBase@USArg@@@@@std@@@std@@QEAAPEAPEAVUnaryOperationNodeFactory@?$MathExpressionBase@USArg@@@@QEAPEAV23@AEBQEAV23@@Z 0000000180021990 f i newparse.cpp.obj
 0001:00020ae0       ??$_Emplace_reallocate@AEBQEAVFunctionalNodeFactory@?$MathExpressionBase@USArg@@@@@?$vector@PEAVFunctionalNodeFactory@?$MathExpressionBase@USArg@@@@V?$allocator@PEAVFunctionalNodeFactory@?$MathExpressionBase@USArg@@@@@std@@@std@@QEAAPEAPEAVFunctionalNodeFactory@?$MathExpressionBase@USArg@@@@QEAPEAV23@AEBQEAV23@@Z 0000000180021ae0 f i newparse.cpp.obj
 0001:00020c30       ??1?$_Uninitialized_backout_al@V?$allocator@VCalcAddonPart@@@std@@@std@@QEAA@XZ 0000000180021c30 f i newparse.cpp.obj
 0001:00020c40       ?IsInteger@?$Big@$01$0BK@@ttmath@@QEBA_NXZ 0000000180021c40 f i newparse.cpp.obj
 0001:00020d00       ?ToString_Log@?$Big@$01$0BK@@ttmath@@AEAA_KAEBV12@_K@Z 0000000180021d00 f i newparse.cpp.obj
 0001:00020fe0       ??0?$Big@$01$0BK@@ttmath@@QEAA@XZ 0000000180021fe0 f i newparse.cpp.obj
 0001:00020ff0       ?AddOne@?$Big@$01$0BK@@ttmath@@AEAA_KXZ 0000000180021ff0 f i newparse.cpp.obj
 0001:000210c0       ?Standardizing@?$Big@$01$0BK@@ttmath@@QEAA_KXZ 00000001800220c0 f i newparse.cpp.obj
 0001:00021180       ?CompensationToLeft@?$UInt@$0BI@@ttmath@@QEAA_KXZ 0000000180022180 f i newparse.cpp.obj
 0001:00021360       ?Ln@?$Big@$01$0BK@@ttmath@@QEAA_KAEBV12@@Z 0000000180022360 f i newparse.cpp.obj
 0001:00021510       ?Add@?$Big@$01$0BK@@ttmath@@QEAA_KV12@_N1@Z 0000000180022510 f i newparse.cpp.obj
 0001:000218b0       ?SetOne@?$Big@$01$0BK@@ttmath@@QEAAXXZ 00000001800228b0 f i newparse.cpp.obj
 0001:00021960       ?SetZero@?$Big@$01$0BK@@ttmath@@QEAAXXZ 0000000180022960 f i newparse.cpp.obj
 0001:00021a00       ?SmallerWithoutSignThan@?$Big@$01$0BK@@ttmath@@QEBA_NAEBV12@@Z 0000000180022a00 f i newparse.cpp.obj
 0001:00021aa0       ??4?$Big@$01$0BK@@ttmath@@QEAAAEAV01@AEBV01@@Z 0000000180022aa0 f i newparse.cpp.obj
 0001:00021be0       ?LnSurrounding1@?$Big@$01$0BK@@ttmath@@AEAAXAEBV12@PEA_K@Z 0000000180022be0 f i newparse.cpp.obj
 0001:000222d0       ?DivRef@?$Big@$01$0BK@@ttmath@@AEAA_KAEBV12@_N@Z 00000001800232d0 f i newparse.cpp.obj
 0001:000228c0       ?RoundHalfToEven@?$Big@$01$0BK@@ttmath@@AEAA_K_N0@Z 00000001800238c0 f i newparse.cpp.obj
 0001:00022950       ?FromUInt@?$Big@$01$0BK@@ttmath@@QEAA_K_K@Z 0000000180023950 f i newparse.cpp.obj
 0001:00022a20       ?MulRef@?$Big@$01$0BK@@ttmath@@AEAA_KAEBV12@_N@Z 0000000180023a20 f i newparse.cpp.obj
 0001:00022d10       ?ChangeSign@?$Int@$01@ttmath@@QEAA_KXZ 0000000180023d10 f i newparse.cpp.obj
 0001:00022d60       ?Add@?$UInt@$01@ttmath@@QEAA_KAEBV12@_K@Z 0000000180023d60 f i newparse.cpp.obj
 0001:00022da0       ?AddInt@?$UInt@$01@ttmath@@QEAA_K_K0@Z 0000000180023da0 f i newparse.cpp.obj
 0001:00022de0       ?Sub@?$UInt@$01@ttmath@@QEAA_KAEBV12@_K@Z 0000000180023de0 f i newparse.cpp.obj
 0001:00022e20       ??$FromUIntOrInt@$0BI@@?$Big@$00$0BK@@ttmath@@AEAA_KAEBV?$UInt@$0BI@@1@_J@Z 0000000180023e20 f i newparse.cpp.obj
 0001:00022f70       ??$ToString_CreateNewMantissaAndExponent_Base2@V?$basic_string@_WU?$char_traits@_W@std@@V?$allocator@_W@2@@std@@@?$Big@$00$0BK@@ttmath@@AEBA_KAEAV?$basic_string@_WU?$char_traits@_W@std@@V?$allocator@_W@2@@std@@AEAV?$Int@$01@1@@Z 0000000180023f70 f i newparse.cpp.obj
 0001:00023270       ??$ToString_CreateNewMantissaAndExponent_BasePow2@V?$basic_string@_WU?$char_traits@_W@std@@V?$allocator@_W@2@@std@@@?$Big@$00$0BK@@ttmath@@AEBA_KAEAV?$basic_string@_WU?$char_traits@_W@std@@V?$allocator@_W@2@@std@@AEAV?$Int@$01@1@_K@Z 0000000180024270 f i newparse.cpp.obj
 0001:00023560       ??$ToString_CreateNewMantissaTryExponent@V?$basic_string@_WU?$char_traits@_W@std@@V?$allocator@_W@2@@std@@_W@?$Big@$00$0BK@@ttmath@@AEBA_KAEAV?$basic_string@_WU?$char_traits@_W@std@@V?$allocator@_W@2@@std@@AEBUConv@1@AEBV?$Big@$01$0BK@@1@AEAV?$Int@$01@1@@Z 0000000180024560 f i newparse.cpp.obj
 0001:000239a0       ??$Mul3Big2@$0M@@?$UInt@$0BI@@ttmath@@AEAAXPEB_K0PEA_K@Z 00000001800249a0 f i newparse.cpp.obj
 0001:00023b50       ??$_Zero_range@PEAPEAVPriorityLevel@BinaryOperationTable@?$MathExpressionBase@USArg@@@@@std@@YAPEAPEAVPriorityLevel@BinaryOperationTable@?$MathExpressionBase@USArg@@@@QEAPEAV123@0@Z 0000000180024b50 f i newparse.cpp.obj
 0001:00023b70       ??$_Resize_reallocate@U_Value_init_tag@std@@@?$vector@USArg@@V?$allocator@USArg@@@std@@@std@@AEAAX_KAEBU_Value_init_tag@1@@Z 0000000180024b70 f i newparse.cpp.obj
 0001:00023ca0       ??$_Uninitialized_value_construct_n@V?$allocator@USArg@@@std@@@std@@YAPEAUSArg@@PEAU1@_KAEAV?$allocator@USArg@@@0@@Z 0000000180024ca0 f i newparse.cpp.obj
 0001:00023ce0       ??$_Uninitialized_copy@PEAV?$Int@$0BI@@ttmath@@V?$allocator@V?$Int@$0BI@@ttmath@@@std@@@std@@YAPEAV?$Int@$0BI@@ttmath@@QEAV12@0PEAV12@AEAV?$allocator@V?$Int@$0BI@@ttmath@@@0@@Z 0000000180024ce0 f i newparse.cpp.obj
 0001:00023ce0       ??$_Uninitialized_move@PEAV?$Int@$0BI@@ttmath@@V?$allocator@V?$Int@$0BI@@ttmath@@@std@@@std@@YAPEAV?$Int@$0BI@@ttmath@@QEAV12@0PEAV12@AEAV?$allocator@V?$Int@$0BI@@ttmath@@@0@@Z 0000000180024ce0 f i newparse.cpp.obj
 0001:00023e30       ??$FromInt@$01@?$Big@$01$0BK@@ttmath@@QEAA_KV?$Int@$01@1@@Z 0000000180024e30 f i newparse.cpp.obj
 0001:00024030       ??$_Uninitialized_copy@PEAV?$Big@$00$0BK@@ttmath@@V?$allocator@V?$Big@$00$0BK@@ttmath@@@std@@@std@@YAPEAV?$Big@$00$0BK@@ttmath@@QEAV12@0PEAV12@AEAV?$allocator@V?$Big@$00$0BK@@ttmath@@@0@@Z 0000000180025030 f i newparse.cpp.obj
 0001:00024070       ??$_Uninitialized_move@PEAVCalcAddon@@V?$allocator@VCalcAddon@@@std@@@std@@YAPEAVCalcAddon@@QEAV1@0PEAV1@AEAV?$allocator@VCalcAddon@@@0@@Z 0000000180025070 f i newparse.cpp.obj
 0001:00024190       ??$_Uninitialized_copy@PEAVCalcAddonPart@@V?$allocator@VCalcAddonPart@@@std@@@std@@YAPEAVCalcAddonPart@@QEAV1@0PEAV1@AEAV?$allocator@VCalcAddonPart@@@0@@Z 0000000180025190 f i newparse.cpp.obj
 0001:00024200       ?Pow@?$Big@$01$0BK@@ttmath@@QEAA_KAEBV12@@Z 0000000180025200 f i newparse.cpp.obj
 0001:00024420       ?IsInteger@?$Big@$00$0BK@@ttmath@@QEBA_NXZ 0000000180025420 f i newparse.cpp.obj
 0001:000244a0       ?Pow@?$Big@$00$0BK@@ttmath@@QEAA_KAEBV12@@Z 00000001800254a0 f i newparse.cpp.obj
 0001:00024680       ?Rcl@?$UInt@$01@ttmath@@QEAA_K_K0@Z 0000000180025680 f i newparse.cpp.obj
 0001:00024760       ?Exp@?$Big@$01$0BK@@ttmath@@QEAA_KAEBV12@@Z 0000000180025760 f i newparse.cpp.obj
 0001:00024b40       ?PowUInt@?$Big@$01$0BK@@ttmath@@QEAA_KV12@@Z 0000000180025b40 f i newparse.cpp.obj
 0001:00024d60       ?Ln@?$Big@$00$0BK@@ttmath@@QEAA_KAEBV12@@Z 0000000180025d60 f i newparse.cpp.obj
 0001:00024f10       ?Exp@?$Big@$00$0BK@@ttmath@@QEAA_KAEBV12@@Z 0000000180025f10 f i newparse.cpp.obj
 0001:00025140       ?PowUInt@?$Big@$00$0BK@@ttmath@@QEAA_KV12@@Z 0000000180026140 f i newparse.cpp.obj
 0001:00025350       ??M?$Big@$01$0BK@@ttmath@@QEBA_NAEBV01@@Z 0000000180026350 f i newparse.cpp.obj
 0001:00025380       ?ExpSurrounding0@?$Big@$01$0BK@@ttmath@@AEAAXAEBV12@PEA_K@Z 0000000180026380 f i newparse.cpp.obj
 0001:00025910       ?Mod2@?$Big@$01$0BK@@ttmath@@QEBA_KXZ 0000000180026910 f i newparse.cpp.obj
 0001:000259d0       ?LnSurrounding1@?$Big@$00$0BK@@ttmath@@AEAAXAEBV12@PEA_K@Z 00000001800269d0 f i newparse.cpp.obj
 0001:00026070       ?ExpSurrounding0@?$Big@$00$0BK@@ttmath@@AEAAXAEBV12@PEA_K@Z 0000000180027070 f i newparse.cpp.obj
 0001:00026660       ?Mod2@?$Big@$00$0BK@@ttmath@@QEBA_KXZ 0000000180027660 f i newparse.cpp.obj
 0001:000266c0       ?Rcr2_one@?$UInt@$00@ttmath@@AEAA_K_K@Z 00000001800276c0 f i newparse.cpp.obj
 0001:000266f0       ?SubInt@?$UInt@$00@ttmath@@QEAA_K_K0@Z 00000001800276f0 f i newparse.cpp.obj
 0001:00026710       ?Rcl2_one@?$UInt@$01@ttmath@@AEAA_K_K@Z 0000000180027710 f i newparse.cpp.obj
 0001:00026740       ?Rcl2@?$UInt@$01@ttmath@@AEAA_K_K0@Z 0000000180027740 f i newparse.cpp.obj
 0001:00026780       ?Rcl2_one@?$UInt@$0BL@@ttmath@@AEAA_K_K@Z 0000000180027780 f i newparse.cpp.obj
 0001:000267b0       ?Rcl2@?$UInt@$0BL@@ttmath@@AEAA_K_K0@Z 00000001800277b0 f i newparse.cpp.obj
 0001:00026800       ??$FromString_ReadPartScientific_ReadExponent@_W@?$Big@$00$0BK@@ttmath@@AEAA_KAEAPEB_WAEAV01@AEA_N@Z 0000000180027800 f i newparse.cpp.obj
 0001:00026a10       ??$ToString_CreateNewMantissaAndExponent_Base8@V?$basic_string@_WU?$char_traits@_W@std@@V?$allocator@_W@2@@std@@@?$Big@$00$0BK@@ttmath@@AEBA_KAEAV?$basic_string@_WU?$char_traits@_W@std@@V?$allocator@_W@2@@std@@AEAV?$UInt@$0BL@@1@_K2@Z 0000000180027a10 f i newparse.cpp.obj
 0001:00026c50       ??$ToString_CreateNewMantissaAndExponent_Base4or16@V?$basic_string@_WU?$char_traits@_W@std@@V?$allocator@_W@2@@std@@@?$Big@$00$0BK@@ttmath@@AEBA_KAEAV?$basic_string@_WU?$char_traits@_W@std@@V?$allocator@_W@2@@std@@AEAV?$UInt@$0BL@@1@_K@Z 0000000180027c50 f i newparse.cpp.obj
 0001:00026ee0       ??$ToString_SetCommaAndExponent_Normal_AddingZero@V?$basic_string@_WU?$char_traits@_W@std@@V?$allocator@_W@2@@std@@_W@?$Big@$00$0BK@@ttmath@@AEBAXAEAV?$basic_string@_WU?$char_traits@_W@std@@V?$allocator@_W@2@@std@@AEAV?$Int@$01@1@@Z 0000000180027ee0 f i newparse.cpp.obj
 0001:000270a0       ??$ToString_SetCommaAndExponent_Normal_SetCommaInside@V?$basic_string@_WU?$char_traits@_W@std@@V?$allocator@_W@2@@std@@_W@?$Big@$00$0BK@@ttmath@@AEBAXAEAV?$basic_string@_WU?$char_traits@_W@std@@V?$allocator@_W@2@@std@@AEBUConv@1@AEAV?$Int@$01@1@@Z 00000001800280a0 f i newparse.cpp.obj
 0001:00027310       ??$ToString_Group_man@V?$basic_string@_WU?$char_traits@_W@std@@V?$allocator@_W@2@@std@@_W@?$Big@$00$0BK@@ttmath@@AEBAXAEAV?$basic_string@_WU?$char_traits@_W@std@@V?$allocator@_W@2@@std@@AEBUConv@1@@Z 0000000180028310 f i newparse.cpp.obj
 0001:00027500       ??$ToString_CorrectDigitsAfterComma@V?$basic_string@_WU?$char_traits@_W@std@@V?$allocator@_W@2@@std@@_W@?$Big@$00$0BK@@ttmath@@AEBAXAEAV?$basic_string@_WU?$char_traits@_W@std@@V?$allocator@_W@2@@std@@AEBUConv@1@@Z 0000000180028500 f i newparse.cpp.obj
 0001:00027750       ??$_Sort_unchecked@PEAPEAVUnaryOperationNodeFactory@?$MathExpressionBase@USArg@@@@P6A_NPEBV12@0@Z@std@@YAXPEAPEAVUnaryOperationNodeFactory@?$MathExpressionBase@USArg@@@@0_JP6A_NPEBV12@2@Z@Z 0000000180028750 f i newparse.cpp.obj
 0001:00027750       ??$_Sort_unchecked@PEAPEAVFunctionalNodeFactory@?$MathExpressionBase@USArg@@@@P6A_NPEBV12@0@Z@std@@YAXPEAPEAVFunctionalNodeFactory@?$MathExpressionBase@USArg@@@@0_JP6A_NPEBV12@2@Z@Z 0000000180028750 f i newparse.cpp.obj
 0001:00027750       ??$_Sort_unchecked@PEAPEAVBinaryOperationNodeFactory@?$MathExpressionBase@USArg@@@@P6A_NPEBV12@0@Z@std@@YAXPEAPEAVBinaryOperationNodeFactory@?$MathExpressionBase@USArg@@@@0_JP6A_NPEBV12@2@Z@Z 0000000180028750 f i newparse.cpp.obj
 0001:00027a80       ??$ToStringBase@V?$basic_string@_WU?$char_traits@_W@std@@V?$allocator@_W@2@@std@@@?$UInt@$0BK@@ttmath@@QEBAXAEAV?$basic_string@_WU?$char_traits@_W@std@@V?$allocator@_W@2@@std@@_K_N@Z 0000000180028a80 f i newparse.cpp.obj
 0001:00027e20       ??$_Uninitialized_copy@PEAUSArg@@V?$allocator@USArg@@@std@@@std@@YAPEAUSArg@@QEAU1@0PEAU1@AEAV?$allocator@USArg@@@0@@Z 0000000180028e20 f i newparse.cpp.obj
 0001:00027e60       ??$FromInt@$00@?$Big@$00$0BK@@ttmath@@QEAA_KV?$Int@$00@1@@Z 0000000180028e60 f i newparse.cpp.obj
 0001:00028070       ?Rcr@?$UInt@$0BL@@ttmath@@QEAA_K_K0@Z 0000000180029070 f i newparse.cpp.obj
 0001:000281d0       ?reserve@?$basic_string@_WU?$char_traits@_W@std@@V?$allocator@_W@2@@std@@QEAAX_K@Z 00000001800291d0 f i newparse.cpp.obj
 0001:00028350       ?Rcl2_one@?$UInt@$00@ttmath@@AEAA_K_K@Z 0000000180029350 f i newparse.cpp.obj
 0001:00028360       ?Rcl2@?$UInt@$00@ttmath@@AEAA_K_K0@Z 0000000180029360 f i newparse.cpp.obj
 0001:00028390       ?Rcr2_one@?$UInt@$0BL@@ttmath@@AEAA_K_K@Z 0000000180029390 f i newparse.cpp.obj
 0001:00028710       ?Rcr2@?$UInt@$0BL@@ttmath@@AEAA_K_K0@Z 0000000180029710 f i newparse.cpp.obj
 0001:00028a20       ??$ToUIntOrInt@$01@?$Big@$01$0BK@@ttmath@@AEBA_KAEAV?$UInt@$01@1@@Z 0000000180029a20 f i newparse.cpp.obj
 0001:00028dc0       ??$ToString_RoundMantissaWouldBeInteger@V?$basic_string@_WU?$char_traits@_W@std@@V?$allocator@_W@2@@std@@_W@?$Big@$00$0BK@@ttmath@@AEBA_NAEAV?$basic_string@_WU?$char_traits@_W@std@@V?$allocator@_W@2@@std@@AEBUConv@1@AEAV?$Int@$01@1@@Z 0000000180029dc0 f i newparse.cpp.obj
 0001:00028f90       ??$ToString_RoundMantissa_AddOneIntoMantissa@V?$basic_string@_WU?$char_traits@_W@std@@V?$allocator@_W@2@@std@@_W@?$Big@$00$0BK@@ttmath@@AEBAXAEAV?$basic_string@_WU?$char_traits@_W@std@@V?$allocator@_W@2@@std@@AEBUConv@1@@Z 0000000180029f90 f i newparse.cpp.obj
 0001:000290c0       ??$_Partition_by_median_guess_unchecked@PEAPEAVFunctionalNodeFactory@?$MathExpressionBase@USArg@@@@P6A_NPEBV12@0@Z@std@@YA?AU?$pair@PEAPEAVFunctionalNodeFactory@?$MathExpressionBase@USArg@@@@PEAPEAV12@@0@PEAPEAVFunctionalNodeFactory@?$MathExpressionBase@USArg@@@@0P6A_NPEBV23@1@Z@Z 000000018002a0c0 f i newparse.cpp.obj
 0001:000290c0       ??$_Partition_by_median_guess_unchecked@PEAPEAVUnaryOperationNodeFactory@?$MathExpressionBase@USArg@@@@P6A_NPEBV12@0@Z@std@@YA?AU?$pair@PEAPEAVUnaryOperationNodeFactory@?$MathExpressionBase@USArg@@@@PEAPEAV12@@0@PEAPEAVUnaryOperationNodeFactory@?$MathExpressionBase@USArg@@@@0P6A_NPEBV23@1@Z@Z 000000018002a0c0 f i newparse.cpp.obj
 0001:000290c0       ??$_Partition_by_median_guess_unchecked@PEAPEAVBinaryOperationNodeFactory@?$MathExpressionBase@USArg@@@@P6A_NPEBV12@0@Z@std@@YA?AU?$pair@PEAPEAVBinaryOperationNodeFactory@?$MathExpressionBase@USArg@@@@PEAPEAV12@@0@PEAPEAVBinaryOperationNodeFactory@?$MathExpressionBase@USArg@@@@0P6A_NPEBV23@1@Z@Z 000000018002a0c0 f i newparse.cpp.obj
 0001:00029320       ??$ToStringBase@V?$basic_string@_WU?$char_traits@_W@std@@V?$allocator@_W@2@@std@@@?$UInt@$01@ttmath@@QEBAXAEAV?$basic_string@_WU?$char_traits@_W@std@@V?$allocator@_W@2@@std@@_K_N@Z 000000018002a320 f i newparse.cpp.obj
 0001:00029680       ??$_Med3_unchecked@PEAPEAVFunctionalNodeFactory@?$MathExpressionBase@USArg@@@@P6A_NPEBV12@0@Z@std@@YAXPEAPEAVFunctionalNodeFactory@?$MathExpressionBase@USArg@@@@00P6A_NPEBV12@1@Z@Z 000000018002a680 f i newparse.cpp.obj
 0001:00029680       ??$_Med3_unchecked@PEAPEAVUnaryOperationNodeFactory@?$MathExpressionBase@USArg@@@@P6A_NPEBV12@0@Z@std@@YAXPEAPEAVUnaryOperationNodeFactory@?$MathExpressionBase@USArg@@@@00P6A_NPEBV12@1@Z@Z 000000018002a680 f i newparse.cpp.obj
 0001:00029680       ??$_Med3_unchecked@PEAPEAVBinaryOperationNodeFactory@?$MathExpressionBase@USArg@@@@P6A_NPEBV12@0@Z@std@@YAXPEAPEAVBinaryOperationNodeFactory@?$MathExpressionBase@USArg@@@@00P6A_NPEBV12@1@Z@Z 000000018002a680 f i newparse.cpp.obj
 0001:00029700       ??0SArg@@QEAA@XZ           000000018002a700 f   sarg.cpp.obj
 0001:00029740       ??0SArg@@QEAA@AEBU0@@Z     000000018002a740 f   sarg.cpp.obj
 0001:00029780       ??0SArg@@QEAA@_J@Z         000000018002a780 f   sarg.cpp.obj
 0001:000297a0       ??0SArg@@QEAA@_N@Z         000000018002a7a0 f   sarg.cpp.obj
 0001:000297c0       ??0SArg@@QEAA@H@Z          000000018002a7c0 f   sarg.cpp.obj
 0001:000297e0       ??0SArg@@QEAA@F@Z          000000018002a7e0 f   sarg.cpp.obj
 0001:00029800       ??0SArg@@QEAA@D@Z          000000018002a800 f   sarg.cpp.obj
 0001:00029820       ??0SArg@@QEAA@_K@Z         000000018002a820 f   sarg.cpp.obj
 0001:00029840       ??0SArg@@QEAA@I@Z          000000018002a840 f   sarg.cpp.obj
 0001:00029860       ??0SArg@@QEAA@G@Z          000000018002a860 f   sarg.cpp.obj
 0001:00029880       ??0SArg@@QEAA@E@Z          000000018002a880 f   sarg.cpp.obj
 0001:000298a0       ??0SArg@@QEAA@AEBV?$Big@$00$0BK@@ttmath@@@Z 000000018002a8a0 f   sarg.cpp.obj
 0001:000298d0       ??0SArg@@QEAA@M@Z          000000018002a8d0 f   sarg.cpp.obj
 0001:000298f0       ??0SArg@@QEAA@N@Z          000000018002a8f0 f   sarg.cpp.obj
 0001:00029910       ??4SArg@@QEAAAEAU0@AEBU0@@Z 000000018002a910 f   sarg.cpp.obj
 0001:00029940       ??H@YA?AUSArg@@AEBU0@0@Z   000000018002a940 f   sarg.cpp.obj
 0001:00029c40       ??GSArg@@QEAA?AU0@XZ       000000018002ac40 f   sarg.cpp.obj
 0001:00029c90       ??G@YA?AUSArg@@AEBU0@0@Z   000000018002ac90 f   sarg.cpp.obj
 0001:00029f90       ??LSArg@@QEBA?AU0@AEBU0@@Z 000000018002af90 f   sarg.cpp.obj
 0001:0002a0f0       ??K@YA?AUSArg@@AEBU0@0@Z   000000018002b0f0 f   sarg.cpp.obj
 0001:0002a2c0       ??D@YA?AUSArg@@AEBU0@0@Z   000000018002b2c0 f   sarg.cpp.obj
 0001:0002a5b0       ??SSArg@@QEBA?AU0@XZ       000000018002b5b0 f   sarg.cpp.obj
 0001:0002a8a0       ??U@YA?AUSArg@@AEBU0@0@Z   000000018002b8a0 f   sarg.cpp.obj
 0001:0002aa70       ??T@YA?AUSArg@@AEBU0@0@Z   000000018002ba70 f   sarg.cpp.obj
 0001:0002ac40       ??I@YA?AUSArg@@AEBU0@0@Z   000000018002bc40 f   sarg.cpp.obj
 0001:0002ae10       ??5@YA?AUSArg@@AEBU0@H@Z   000000018002be10 f   sarg.cpp.obj
 0001:0002b060       ??6@YA?AUSArg@@AEBU0@H@Z   000000018002c060 f   sarg.cpp.obj
 0001:0002b270       ?Ror@SArg@@QEBA?AU1@AEBU1@@Z 000000018002c270 f   sarg.cpp.obj
 0001:0002b490       ?Rol@SArg@@QEBA?AU1@AEBU1@@Z 000000018002c490 f   sarg.cpp.obj
 0001:0002b750       ?Pow@SArg@@QEBA?AU1@AEBU1@@Z 000000018002c750 f   sarg.cpp.obj
 0001:0002b870       ??8@YA_NAEBUSArg@@0@Z      000000018002c870 f   sarg.cpp.obj
 0001:0002b8c0       ??9@YA_NAEBUSArg@@0@Z      000000018002c8c0 f   sarg.cpp.obj
 0001:0002b920       ??O@YA_NAEBUSArg@@0@Z      000000018002c920 f   sarg.cpp.obj
 0001:0002ba20       ??M@YA_NAEBUSArg@@0@Z      000000018002ca20 f   sarg.cpp.obj
 0001:0002bb20       ??BSArg@@QEBA_JXZ          000000018002cb20 f   sarg.cpp.obj
 0001:0002bc50       ??BSArg@@QEBAFXZ           000000018002cc50 f   sarg.cpp.obj
 0001:0002bc50       ??BSArg@@QEBAHXZ           000000018002cc50 f   sarg.cpp.obj
 0001:0002bc50       ??BSArg@@QEBADXZ           000000018002cc50 f   sarg.cpp.obj
 0001:0002bc60       ??BSArg@@QEBA_KXZ          000000018002cc60 f   sarg.cpp.obj
 0001:0002bde0       ??BSArg@@QEBAEXZ           000000018002cde0 f   sarg.cpp.obj
 0001:0002bde0       ??BSArg@@QEBAGXZ           000000018002cde0 f   sarg.cpp.obj
 0001:0002bde0       ??BSArg@@QEBAIXZ           000000018002cde0 f   sarg.cpp.obj
 0001:0002bdf0       ?GetBig@SArg@@QEBA?AV?$Big@$00$0BK@@ttmath@@XZ 000000018002cdf0 f   sarg.cpp.obj
 0001:0002bfb0       ?GetInt@SArg@@QEBA?AV?$Big@$00$0BK@@ttmath@@XZ 000000018002cfb0 f   sarg.cpp.obj
 0001:0002bff0       ??BSArg@@QEBAMXZ           000000018002cff0 f   sarg.cpp.obj
 0001:0002c0d0       ??BSArg@@QEBANXZ           000000018002d0d0 f   sarg.cpp.obj
 0001:0002c160       ??BSArg@@QEBA_NXZ          000000018002d160 f   sarg.cpp.obj
 0001:0002c180       ?Print@SArg@@QEAA_NAEAV?$basic_string@_WU?$char_traits@_W@std@@V?$allocator@_W@2@@std@@HH_W@Z 000000018002d180 f   sarg.cpp.obj
 0001:0002c4f0       ?varsize@SArg@@QEBAHXZ     000000018002d4f0 f   sarg.cpp.obj
 0001:0002c550       ?IsFixedLength@SArg@@QEBA_NXZ 000000018002d550 f   sarg.cpp.obj
 0001:0002c5a0       ?gettype@SArg@@QEAA?AW4EArgType@@XZ 000000018002d5a0 f   sarg.cpp.obj
 0001:0002c5b0       ?_factor@SArg@@SA?AU1@AEBU1@@Z 000000018002d5b0 f   sarg.cpp.obj
 0001:0002c780       ?_frac@SArg@@SA?AU1@AEBU1@@Z 000000018002d780 f   sarg.cpp.obj
 0001:0002c990       ?_floor@SArg@@SA?AU1@AEBU1@@Z 000000018002d990 f   sarg.cpp.obj
 0001:0002ca30       ?_ceil@SArg@@SA?AU1@AEBU1@@Z 000000018002da30 f   sarg.cpp.obj
 0001:0002cad0       ?_sin@SArg@@SA?AU1@AEBU1@@Z 000000018002dad0 f   sarg.cpp.obj
 0001:0002cb70       ?_cos@SArg@@SA?AU1@AEBU1@@Z 000000018002db70 f   sarg.cpp.obj
 0001:0002cc10       ?_tan@SArg@@SA?AU1@AEBU1@@Z 000000018002dc10 f   sarg.cpp.obj
 0001:0002ccf0       ?_arctan@SArg@@SA?AU1@AEBU1@@Z 000000018002dcf0 f   sarg.cpp.obj
 0001:0002cd90       ?_ln@SArg@@SA?AU1@AEBU1@@Z 000000018002dd90 f   sarg.cpp.obj
 0001:0002ce70       ?_rnd@SArg@@SA?AU1@XZ      000000018002de70 f   sarg.cpp.obj
 0001:0002cf10       ?_if@SArg@@SA?AU1@AEBU1@00@Z 000000018002df10 f   sarg.cpp.obj
 0001:0002cf60       ?_f2b@SArg@@SA?AU1@AEBU1@@Z 000000018002df60 f   sarg.cpp.obj
 0001:0002cf90       ?_d2b@SArg@@SA?AU1@AEBU1@@Z 000000018002df90 f   sarg.cpp.obj
 0001:0002cfc0       ?_b2f@SArg@@SA?AU1@AEBU1@@Z 000000018002dfc0 f   sarg.cpp.obj
 0001:0002cff0       ?_b2d@SArg@@SA?AU1@AEBU1@@Z 000000018002dff0 f   sarg.cpp.obj
 0001:0002d020       ?_finf@SArg@@SA?AU1@XZ     000000018002e020 f   sarg.cpp.obj
 0001:0002d040       ?_fnan@SArg@@SA?AU1@XZ     000000018002e040 f   sarg.cpp.obj
 0001:0002d060       ?_numer@SArg@@SA?AU1@AEBU1@@Z 000000018002e060 f   sarg.cpp.obj
 0001:0002d1a0       ?_denom@SArg@@SA?AU1@AEBU1@@Z 000000018002e1a0 f   sarg.cpp.obj
 0001:0002d2d0       ?_gcd@SArg@@SA?AU1@AEBU1@0@Z 000000018002e2d0 f   sarg.cpp.obj
 0001:0002d510       ?to_int64@SArg@@SA?AU1@AEBU1@@Z 000000018002e510 f   sarg.cpp.obj
 0001:0002d540       ?to_uint64@SArg@@SA?AU1@AEBU1@@Z 000000018002e540 f   sarg.cpp.obj
 0001:0002d570       ?to_int@SArg@@SA?AU1@AEBU1@@Z 000000018002e570 f   sarg.cpp.obj
 0001:0002d5a0       ?to_uint@SArg@@SA?AU1@AEBU1@@Z 000000018002e5a0 f   sarg.cpp.obj
 0001:0002d5d0       ?to_short@SArg@@SA?AU1@AEBU1@@Z 000000018002e5d0 f   sarg.cpp.obj
 0001:0002d600       ?to_ushort@SArg@@SA?AU1@AEBU1@@Z 000000018002e600 f   sarg.cpp.obj
 0001:0002d630       ?to_char@SArg@@SA?AU1@AEBU1@@Z 000000018002e630 f   sarg.cpp.obj
 0001:0002d660       ?to_byte@SArg@@SA?AU1@AEBU1@@Z 000000018002e660 f   sarg.cpp.obj
 0001:0002d690       ?to_double@SArg@@SA?AU1@AEBU1@@Z 000000018002e690 f   sarg.cpp.obj
 0001:0002d6c0       ?to_float@SArg@@SA?AU1@AEBU1@@Z 000000018002e6c0 f   sarg.cpp.obj
 0001:0002d6f0       ?GreatestCommonDiv@SArg@@SA?AV?$Big@$00$0BK@@ttmath@@V23@0@Z 000000018002e6f0 f   sarg.cpp.obj
 0001:0002d870       ?ToDouble@?$Big@$00$0BK@@ttmath@@QEBA_KAEAN@Z 000000018002e870 f i sarg.cpp.obj
 0001:0002d990       ?FromDouble@?$Big@$00$0BK@@ttmath@@QEAA_KN@Z 000000018002e990 f i sarg.cpp.obj
 0001:0002da40       ?BitXor@?$Big@$00$0BK@@ttmath@@QEAA_KV12@@Z 000000018002ea40 f i sarg.cpp.obj
 0001:0002dd90       ?BitOr@?$Big@$00$0BK@@ttmath@@QEAA_KV12@@Z 000000018002ed90 f i sarg.cpp.obj
 0001:0002e0f0       ?BitAnd@?$Big@$00$0BK@@ttmath@@QEAA_KV12@@Z 000000018002f0f0 f i sarg.cpp.obj
 0001:0002e450       ?FromDouble_SetExpAndMan@?$Big@$00$0BK@@ttmath@@AEAAX_N_J_K2@Z 000000018002f450 f i sarg.cpp.obj
 0001:0002e500       ?ModRef@?$Big@$00$0BK@@ttmath@@AEAA_KAEBV12@@Z 000000018002f500 f i sarg.cpp.obj
 0001:0002e710       ??$Mod@V?$Big@$00$0BK@@ttmath@@@ttmath@@YA?AV?$Big@$00$0BK@@0@V10@AEBV10@PEAW4ErrorCode@0@@Z 000000018002f710 f i sarg.cpp.obj
 0001:0002e780       ??$SkipFraction@V?$Big@$00$0BK@@ttmath@@@ttmath@@YA?AV?$Big@$00$0BK@@0@AEBV10@@Z 000000018002f780 f i sarg.cpp.obj
 0001:0002e7d0       ??$Factorial@V?$Big@$00$0BK@@ttmath@@@ttmath@@YA?AV?$Big@$00$0BK@@0@AEBV10@PEAW4ErrorCode@0@@Z 000000018002f7d0 f i sarg.cpp.obj
 0001:0002e800       ??$Floor@V?$Big@$00$0BK@@ttmath@@@ttmath@@YA?AV?$Big@$00$0BK@@0@AEBV10@PEAW4ErrorCode@0@@Z 000000018002f800 f i sarg.cpp.obj
 0001:0002ea90       ??$Ceil@V?$Big@$00$0BK@@ttmath@@@ttmath@@YA?AV?$Big@$00$0BK@@0@AEBV10@PEAW4ErrorCode@0@@Z 000000018002fa90 f i sarg.cpp.obj
 0001:0002ed20       ??$Sin@V?$Big@$00$0BK@@ttmath@@@ttmath@@YA?AV?$Big@$00$0BK@@0@V10@PEAW4ErrorCode@0@@Z 000000018002fd20 f i sarg.cpp.obj
 0001:0002efb0       ??$Cos@V?$Big@$00$0BK@@ttmath@@@ttmath@@YA?AV?$Big@$00$0BK@@0@V10@PEAW4ErrorCode@0@@Z 000000018002ffb0 f i sarg.cpp.obj
 0001:0002f0e0       ??$Tan@V?$Big@$00$0BK@@ttmath@@@ttmath@@YA?AV?$Big@$00$0BK@@0@AEBV10@PEAW4ErrorCode@0@@Z 00000001800300e0 f i sarg.cpp.obj
 0001:0002f1d0       ??$ATan@V?$Big@$00$0BK@@ttmath@@@ttmath@@YA?AV?$Big@$00$0BK@@0@V10@@Z 00000001800301d0 f i sarg.cpp.obj
 0001:0002f380       ??$Ln@V?$Big@$00$0BK@@ttmath@@@ttmath@@YA?AV?$Big@$00$0BK@@0@AEBV10@PEAW4ErrorCode@0@@Z 0000000180030380 f i sarg.cpp.obj
 0001:0002f420       ?SetMantissaPi@?$Big@$00$0BK@@ttmath@@AEAAXXZ 0000000180030420 f i sarg.cpp.obj
 0001:0002f490       ??$Factorial2@V?$Big@$00$0BK@@ttmath@@@auxiliaryfunctions@ttmath@@YA?AV?$Big@$00$0BK@@1@V21@PEAU?$CGamma@V?$Big@$00$0BK@@ttmath@@@1@PEAW4ErrorCode@1@PEDVStopCalculating@1@@Z 0000000180030490 f i sarg.cpp.obj
 0001:0002f5c0       ??$PrepareSin@V?$Big@$00$0BK@@ttmath@@@auxiliaryfunctions@ttmath@@YA_KAEAV?$Big@$00$0BK@@1@AEA_N@Z 00000001800305c0 f i sarg.cpp.obj
 0001:0002fa30       ??$Sin0pi05@V?$Big@$00$0BK@@ttmath@@@auxiliaryfunctions@ttmath@@YA?AV?$Big@$00$0BK@@1@AEBV21@@Z 0000000180030a30 f i sarg.cpp.obj
 0001:000302c0       ??$ATanGreaterThanPlusOne@V?$Big@$00$0BK@@ttmath@@@auxiliaryfunctions@ttmath@@YA?AV?$Big@$00$0BK@@1@AEBV21@@Z 00000001800312c0 f i sarg.cpp.obj
 0001:00030490       ??$ATan01@V?$Big@$00$0BK@@ttmath@@@auxiliaryfunctions@ttmath@@YA?AV?$Big@$00$0BK@@1@AEBV21@@Z 0000000180031490 f i sarg.cpp.obj
 0001:00030760       ?Set05@?$Big@$00$0BK@@ttmath@@QEAAXXZ 0000000180031760 f i sarg.cpp.obj
 0001:00030810       ??$Gamma@V?$Big@$00$0BK@@ttmath@@@ttmath@@YA?AV?$Big@$00$0BK@@0@AEBV10@AEAU?$CGamma@V?$Big@$00$0BK@@ttmath@@@0@PEAW4ErrorCode@0@PEDVStopCalculating@0@@Z 0000000180031810 f i sarg.cpp.obj
 0001:00030960       ??$Gamma@V?$Big@$00$0BK@@ttmath@@@ttmath@@YA?AV?$Big@$00$0BK@@0@AEBV10@PEAW4ErrorCode@0@@Z 0000000180031960 f i sarg.cpp.obj
 0001:00030a30       ??$ATan0@V?$Big@$00$0BK@@ttmath@@@auxiliaryfunctions@ttmath@@YA?AV?$Big@$00$0BK@@1@AEBV21@@Z 0000000180031a30 f i sarg.cpp.obj
 0001:00030f80       ??$GammaMinus@V?$Big@$00$0BK@@ttmath@@@auxiliaryfunctions@ttmath@@YA?AV?$Big@$00$0BK@@1@AEBV21@AEAU?$CGamma@V?$Big@$00$0BK@@ttmath@@@1@AEAW4ErrorCode@1@PEDVStopCalculating@1@@Z 0000000180031f80 f i sarg.cpp.obj
 0001:000311e0       ??$GammaPlus@V?$Big@$00$0BK@@ttmath@@@auxiliaryfunctions@ttmath@@YA?AV?$Big@$00$0BK@@1@AEBV21@AEAU?$CGamma@V?$Big@$00$0BK@@ttmath@@@1@AEAW4ErrorCode@1@PEDVStopCalculating@1@@Z 00000001800321e0 f i sarg.cpp.obj
 0001:00031390       ??$GammaPlusHigh@V?$Big@$00$0BK@@ttmath@@@auxiliaryfunctions@ttmath@@YA?AV?$Big@$00$0BK@@1@V21@AEAU?$CGamma@V?$Big@$00$0BK@@ttmath@@@1@AEAW4ErrorCode@1@PEDVStopCalculating@1@@Z 0000000180032390 f i sarg.cpp.obj
 0001:000314a0       ??$GammaPlusLow@V?$Big@$00$0BK@@ttmath@@@auxiliaryfunctions@ttmath@@YA?AV?$Big@$00$0BK@@1@V21@AEAU?$CGamma@V?$Big@$00$0BK@@ttmath@@@1@AEAW4ErrorCode@1@PEDVStopCalculating@1@@Z 00000001800324a0 f i sarg.cpp.obj
 0001:000317d0       ??$GammaFactorialHigh@V?$Big@$00$0BK@@ttmath@@@auxiliaryfunctions@ttmath@@YA?AV?$Big@$00$0BK@@1@AEBV21@AEAU?$CGamma@V?$Big@$00$0BK@@ttmath@@@1@AEAW4ErrorCode@1@PEDVStopCalculating@1@@Z 00000001800327d0 f i sarg.cpp.obj
 0001:000319b0       ??$GammaPlusLowInteger@V?$Big@$00$0BK@@ttmath@@@auxiliaryfunctions@ttmath@@YA?AV?$Big@$00$0BK@@1@AEBV21@AEAU?$CGamma@V?$Big@$00$0BK@@ttmath@@@1@@Z 00000001800329b0 f i sarg.cpp.obj
 0001:00031a50       ??$Sqrt@V?$Big@$00$0BK@@ttmath@@@ttmath@@YA?AV?$Big@$00$0BK@@0@V10@PEAW4ErrorCode@0@@Z 0000000180032a50 f i sarg.cpp.obj
 0001:00031ab0       ??$GammaFactorialHighSum@V?$Big@$00$0BK@@ttmath@@@auxiliaryfunctions@ttmath@@YA?AV?$Big@$00$0BK@@1@AEBV21@AEAU?$CGamma@V?$Big@$00$0BK@@ttmath@@@1@AEAW4ErrorCode@1@PEDVStopCalculating@1@@Z 0000000180032ab0 f i sarg.cpp.obj
 0001:000326d0       ??$GammaPlusLowIntegerInt@V?$Big@$00$0BK@@ttmath@@@auxiliaryfunctions@ttmath@@YA?AV?$Big@$00$0BK@@1@_KAEAU?$CGamma@V?$Big@$00$0BK@@ttmath@@@1@@Z 00000001800336d0 f i sarg.cpp.obj
 0001:00032900       ?Sqrt@?$Big@$00$0BK@@ttmath@@QEAA_KXZ 0000000180033900 f i sarg.cpp.obj
 0001:00032d40       ?MulUInt@?$Big@$00$0BK@@ttmath@@QEAA_K_K@Z 0000000180033d40 f i sarg.cpp.obj
 0001:00033160       ?CompensationToLeft@?$UInt@$0BL@@ttmath@@QEAA_KXZ 0000000180034160 f i sarg.cpp.obj
 0001:00033320       ??$SetBernoulliNumbers@V?$Big@$00$0BK@@ttmath@@@auxiliaryfunctions@ttmath@@YA_NAEAU?$CGamma@V?$Big@$00$0BK@@ttmath@@@1@_KPEDVStopCalculating@1@@Z 0000000180034320 f i sarg.cpp.obj
 0001:00033420       ?AddTwoInts@?$UInt@$0BL@@ttmath@@QEAA_K_K00@Z 0000000180034420 f i sarg.cpp.obj
 0001:000334b0       ??$SetFactorialSequence@V?$Big@$00$0BK@@ttmath@@@auxiliaryfunctions@ttmath@@YAXAEAV?$vector@V?$Big@$00$0BK@@ttmath@@V?$allocator@V?$Big@$00$0BK@@ttmath@@@std@@@std@@_K@Z 00000001800344b0 f i sarg.cpp.obj
 0001:000337c0       ??$SetBernoulliNumbersMore@V?$Big@$00$0BK@@ttmath@@@auxiliaryfunctions@ttmath@@YA_NAEAU?$CGamma@V?$Big@$00$0BK@@ttmath@@@1@_KPEDVStopCalculating@1@@Z 00000001800347c0 f i sarg.cpp.obj
 0001:00034170       ??$SetBernoulliNumbersSum@V?$Big@$00$0BK@@ttmath@@@auxiliaryfunctions@ttmath@@YA?AV?$Big@$00$0BK@@1@AEAU?$CGamma@V?$Big@$00$0BK@@ttmath@@@1@AEBV21@_KPEDVStopCalculating@1@@Z 0000000180035170 f i sarg.cpp.obj
 0001:00034bc0       ??0SSyntax@@QEAA@XZ        0000000180035bc0 f   syntax.cpp.obj
 0001:00034be0       ??1SSyntax@@QEAA@XZ        0000000180035be0 f   syntax.cpp.obj
 0001:00034c50       ??0CSgmlEl@@QEAA@XZ        0000000180035c50 f   sgml.cpp.obj
 0001:00034c90       ??1CSgmlEl@@QEAA@XZ        0000000180035c90 f   sgml.cpp.obj
 0001:00034d40       ?createnew@CSgmlEl@@EEAAPEAV1@W4ElType@@PEAV1@1@Z 0000000180035d40 f   sgml.cpp.obj
 0001:00034de0       __acrt_uninitialize_command_line 0000000180035de0 f   libucrt:argv_data.obj
 0001:00034de0       ?init@CSgmlEl@@EEAA_NXZ    0000000180035de0 f   sgml.cpp.obj
 0001:00034df0       ?readfile@CSgmlEl@@QEAAPEA_WPEB_W00HPEAH@Z 0000000180035df0 f   sgml.cpp.obj
 0001:000350c0       ?parse@CSgmlEl@@QEAA_NPEB_W0@Z 00000001800360c0 f   sgml.cpp.obj
 0001:00035840       ?substquote@CSgmlEl@@AEAAXQEAPEA_WPEA_W_W@Z 0000000180036840 f   sgml.cpp.obj
 0001:00035940       ?setcontent@CSgmlEl@@AEAA_NPEB_WH@Z 0000000180036940 f   sgml.cpp.obj
 0001:000359c0       ?insert@CSgmlEl@@AEAAXPEAV1@@Z 00000001800369c0 f   sgml.cpp.obj
 0001:000359f0       ?destroylevel@CSgmlEl@@AEAAXXZ 00000001800369f0 f   sgml.cpp.obj
 0001:00035a30       ?parent@CSgmlEl@@UEAAPEAV1@XZ 0000000180036a30 f   sgml.cpp.obj
 0001:00035a40       ?next@CSgmlEl@@UEAAPEAV1@XZ 0000000180036a40 f   sgml.cpp.obj
 0001:00035a50       ?prev@CSgmlEl@@UEAAPEAV1@XZ 0000000180036a50 f   sgml.cpp.obj
 0001:00035a60       ?child@CSgmlEl@@UEAAPEAV1@XZ 0000000180036a60 f   sgml.cpp.obj
 0001:00035a70       ?getname@CSgmlEl@@QEAAPEA_WXZ 0000000180036a70 f   sgml.cpp.obj
 0001:00035a80       ?GetChrParam@CSgmlEl@@QEAAPEA_WPEB_W@Z 0000000180036a80 f   sgml.cpp.obj
 0001:00035b00       ?fprev@CSgmlEl@@UEAAPEAV1@XZ 0000000180036b00 f   sgml.cpp.obj
 0001:00035b20       ?fnext@CSgmlEl@@UEAAPEAV1@XZ 0000000180036b20 f   sgml.cpp.obj
 0001:00035b50       ?ffirst@CSgmlEl@@UEAAPEAV1@XZ 0000000180036b50 f   sgml.cpp.obj
 0001:00035b70       ?flast@CSgmlEl@@UEAAPEAV1@XZ 0000000180036b70 f   sgml.cpp.obj
 0001:000360e0       trex_compile               00000001800370e0 f   trex.c.obj
 0001:000366a0       trex_free                  00000001800376a0 f   trex.c.obj
 0001:000366f0       trex_getsubexp             00000001800376f0 f   trex.c.obj
 0001:00036720       trex_getsubexpcount        0000000180037720 f   trex.c.obj
 0001:00037260       trex_search                0000000180038260 f   trex.c.obj
 0001:00037360       ??0bad_alloc@std@@QEAA@XZ  0000000180038360 f i libcpmt:xthrow.obj
 0001:00037380       ??0length_error@std@@QEAA@AEBV01@@Z 0000000180038380 f i libcpmt:xthrow.obj
 0001:000373bc       ??0length_error@std@@QEAA@PEBD@Z 00000001800383bc f i libcpmt:xthrow.obj
 0001:00037404       ??0logic_error@std@@QEAA@AEBV01@@Z 0000000180038404 f i libcpmt:xthrow.obj
 0001:00037440       ??0out_of_range@std@@QEAA@AEBV01@@Z 0000000180038440 f i libcpmt:xthrow.obj
 0001:0003747c       ??0out_of_range@std@@QEAA@PEBD@Z 000000018003847c f i libcpmt:xthrow.obj
 0001:000374c4       ?_Xlength_error@std@@YAXPEBD@Z 00000001800384c4 f   libcpmt:xthrow.obj
 0001:000374e8       ?_Xout_of_range@std@@YAXPEBD@Z 00000001800384e8 f   libcpmt:xthrow.obj
 0001:0003750c       ??2@YAPEAX_K@Z             000000018003850c f   LIBCMT:new_scalar.obj
 0001:00037548       __scrt_acquire_startup_lock 0000000180038548 f   LIBCMT:utility.obj
 0001:00037584       __scrt_dllmain_after_initialize_c 0000000180038584 f   LIBCMT:utility.obj
 0001:000375b8       __scrt_dllmain_before_initialize_c 00000001800385b8 f   LIBCMT:utility.obj
 0001:000375d0       __scrt_dllmain_crt_thread_attach 00000001800385d0 f   LIBCMT:utility.obj
 0001:000375f8       __scrt_dllmain_crt_thread_detach 00000001800385f8 f   LIBCMT:utility.obj
 0001:00037610       __scrt_dllmain_exception_filter 0000000180038610 f   LIBCMT:utility.obj
 0001:00037670       __scrt_dllmain_uninitialize_c 0000000180038670 f   LIBCMT:utility.obj
 0001:000376a0       __scrt_dllmain_uninitialize_critical 00000001800386a0 f   LIBCMT:utility.obj
 0001:000376b4       __scrt_initialize_crt      00000001800386b4 f   LIBCMT:utility.obj
 0001:00037700       __scrt_initialize_onexit_tables 0000000180038700 f   LIBCMT:utility.obj
 0001:0003778c       __scrt_is_nonwritable_in_current_image 000000018003878c f   LIBCMT:utility.obj
 0001:00037824       __scrt_release_startup_lock 0000000180038824 f   LIBCMT:utility.obj
 0001:00037848       __scrt_uninitialize_crt    0000000180038848 f   LIBCMT:utility.obj
 0001:00037874       _onexit                    0000000180038874 f   LIBCMT:utility.obj
 0001:000378b0       atexit                     00000001800388b0 f   LIBCMT:utility.obj
 0001:000378c8       ??_V@YAXPEAX@Z             00000001800388c8 f   LIBCMT:delete_array.obj
 0001:000378c8       ??3@YAXPEAX_K@Z            00000001800388c8 f   LIBCMT:delete_scalar_size.obj
 0001:000378d0       ??_Etype_info@@UEAAPEAXI@Z 00000001800388d0 f i LIBCMT:std_type_info_static.obj
 0001:000378d0       ??_Gtype_info@@UEAAPEAXI@Z 00000001800388d0 f i LIBCMT:std_type_info_static.obj
 0001:000378fc       ??_M@YAXPEAX_K1P6AX0@Z@Z   00000001800388fc f   LIBCMT:ehvecdtr.obj
 0001:00037968       ?__ArrayUnwind@@YAXPEAX_K1P6AX0@Z@Z 0000000180038968 f   LIBCMT:ehvecdtr.obj
 0001:000379cc       ??_U@YAPEAX_K@Z            00000001800389cc f   LIBCMT:new_array.obj
 0001:000379d4       ??_L@YAXPEAX_K1P6AX0@Z2@Z  00000001800389d4 f   LIBCMT:ehvecctr.obj
 0001:00037a44       ??_V@YAXPEAX_K@Z           0000000180038a44 f   LIBCMT:delete_array_size.obj
 0001:00037d6c       _DllMainCRTStartup         0000000180038d6c f   LIBCMT:dll_dllmain.obj
 0001:00037dac       ?__scrt_throw_std_bad_alloc@@YAXXZ 0000000180038dac f   LIBCMT:throw_bad_alloc.obj
 0001:00037dcc       __isa_available_init       0000000180038dcc f   LIBCMT:cpu_disp.obj
 0001:00037f70       __scrt_is_ucrt_dll_in_use  0000000180038f70 f   LIBCMT:ucrt_detection.obj
 0001:00037f7c       __crt_debugger_hook        0000000180038f7c f   LIBCMT:utility_desktop.obj
 0001:00037f84       __scrt_fastfail            0000000180038f84 f   LIBCMT:utility_desktop.obj
 0001:000380d0       __security_init_cookie     00000001800390d0 f   LIBCMT:gs_support.obj
 0001:0003817c       ?__scrt_initialize_type_info@@YAXXZ 000000018003917c f   LIBCMT:tncleanup.obj
 0001:0003818c       ?__scrt_uninitialize_type_info@@YAXXZ 000000018003918c f   LIBCMT:tncleanup.obj
 0001:00038198       __local_stdio_scanf_options 0000000180039198 f i LIBCMT:default_local_stdio_options.obj
 0001:000381a0       __scrt_initialize_default_local_stdio_options 00000001800391a0 f   LIBCMT:default_local_stdio_options.obj
 0001:000381bc       __scrt_get_dyn_tls_init_callback 00000001800391bc f   LIBCMT:dyn_tls_init.obj
 0001:000381c4       _RTC_Initialize            00000001800391c4 f   LIBCMT:initsect.obj
 0001:00038200       _RTC_Terminate             0000000180039200 f   LIBCMT:initsect.obj
 0001:00038240       ??$_CallSETranslator@V__FrameHandler4@@@@YAHPEAUEHExceptionRecord@@PEA_KPEAU_CONTEXT@@PEAU_xDISPATCHER_CONTEXT@@PEAUFuncInfo4@FH4@@K1H@Z 0000000180039240 f i libvcruntime:risctrnsctrl.obj
 0001:00038294       ?DecompFuncInfo@FH4@@YA_JPEAEAEAUFuncInfo4@1@_KH_N@Z 0000000180039294 f i libvcruntime:risctrnsctrl.obj
 0001:000383b8       ?ExecutionInCatch@__FrameHandler4@@SA_NPEAU_xDISPATCHER_CONTEXT@@PEAUFuncInfo4@FH4@@@Z 00000001800393b8 f   libvcruntime:risctrnsctrl.obj
 0001:000383c0       ?FrameUnwindToEmptyState@__FrameHandler4@@SAXPEA_KPEAU_xDISPATCHER_CONTEXT@@PEAUFuncInfo4@FH4@@@Z 00000001800393c0 f   libvcruntime:risctrnsctrl.obj
 0001:000383f4       ?GetEstablisherFrame@__FrameHandler4@@SAPEA_KPEA_KPEAU_xDISPATCHER_CONTEXT@@PEAUFuncInfo4@FH4@@0@Z 00000001800393f4 f   libvcruntime:risctrnsctrl.obj
 0001:00038418       ?GetRangeOfTrysToCheck@__FrameHandler4@@SA?AU?$pair@Viterator@TryBlockMap4@FH4@@V123@@std@@AEAVTryBlockMap4@FH4@@HPEAU_xDISPATCHER_CONTEXT@@PEAUFuncInfo4@5@H@Z 0000000180039418 f   libvcruntime:risctrnsctrl.obj
 0001:00038580       ?UnwindNestedFrames@__FrameHandler4@@SAXPEA_KPEAUEHExceptionRecord@@PEAU_CONTEXT@@0PEAXPEAUFuncInfo4@FH4@@HHPEAUHandlerType4@5@PEAU_xDISPATCHER_CONTEXT@@E@Z 0000000180039580 f   libvcruntime:risctrnsctrl.obj
 0001:000386a0       ?setBuffer@TryBlockMap4@FH4@@QEAAXViterator@12@@Z 00000001800396a0 f i libvcruntime:risctrnsctrl.obj
 0001:00038860       _CreateFrameInfo           0000000180039860 f   libvcruntime:risctrnsctrl.obj
 0001:0003889c       _FindAndUnlinkFrame        000000018003989c f   libvcruntime:risctrnsctrl.obj
 0001:000388f0       _GetImageBase              00000001800398f0 f   libvcruntime:risctrnsctrl.obj
 0001:00038904       _GetThrowImageBase         0000000180039904 f   libvcruntime:risctrnsctrl.obj
 0001:00038918       _SetImageBase              0000000180039918 f   libvcruntime:risctrnsctrl.obj
 0001:00038930       _SetThrowImageBase         0000000180039930 f   libvcruntime:risctrnsctrl.obj
 0001:00038948       __CxxFrameHandler4         0000000180039948 f   libvcruntime:risctrnsctrl.obj
 0001:00038a08       __std_exception_copy       0000000180039a08 f   libvcruntime:std_exception.obj
 0001:00038a98       __std_exception_destroy    0000000180039a98 f   libvcruntime:std_exception.obj
 0001:00038ac0       __DestructExceptionObject  0000000180039ac0 f   libvcruntime:ehhelpers.obj
 0001:00038b30       ?_CallMemberFunction0@@YAXQEAX0@Z 0000000180039b30 f i libvcruntime:ehhelpers.obj
 0001:00038b34       _IsExceptionObjectToBeDestroyed 0000000180039b34 f   libvcruntime:ehhelpers.obj
 0001:00038b64       __AdjustPointer            0000000180039b64 f   libvcruntime:ehhelpers.obj
 0001:00038b88       __FrameUnwindFilter        0000000180039b88 f   libvcruntime:ehhelpers.obj
 0001:00038bf0       __current_exception        0000000180039bf0 f   libvcruntime:ehhelpers.obj
 0001:00038c04       __current_exception_context 0000000180039c04 f   libvcruntime:ehhelpers.obj
 0001:00038c18       __std_terminate            0000000180039c18 f   libvcruntime:ehhelpers.obj
 0001:00038c24       _get_purecall_handler      0000000180039c24 f   libvcruntime:purevirt.obj
 0001:00038c2c       _purecall                  0000000180039c2c f   libvcruntime:purevirt.obj
 0001:00038c48       wcschr                     0000000180039c48 f   libvcruntime:wcschr.obj
 0001:00038cc4       wcsstr                     0000000180039cc4 f   libvcruntime:wcsstr.obj
 0001:00038edc       longjmp                    0000000180039edc f   libvcruntime:longjmpc.obj
 0001:00038f20       memset_repmovs             0000000180039f20 f   libvcruntime:memset.obj
 0001:00038f40       memset                     0000000180039f40 f   libvcruntime:memset.obj
 0001:000390d0       _CxxThrowException         000000018003a0d0 f   libvcruntime:throw.obj
 0001:00039170       __vcrt_initialize          000000018003a170 f   libvcruntime:initialization.obj
 0001:00039198       __vcrt_thread_attach       000000018003a198 f   libvcruntime:initialization.obj
 0001:000391ac       __vcrt_thread_detach       000000018003a1ac f   libvcruntime:initialization.obj
 0001:000391c0       __vcrt_uninitialize        000000018003a1c0 f   libvcruntime:initialization.obj
 0001:000391dc       __vcrt_uninitialize_critical 000000018003a1dc f   libvcruntime:initialization.obj
 0001:000391ec       __C_specific_handler       000000018003a1ec f   libvcruntime:riscchandler.obj
 0001:00039400       __std_type_info_compare    000000018003a400 f   libvcruntime:std_type_info.obj
 0001:00039428       __std_type_info_destroy_list 000000018003a428 f   libvcruntime:std_type_info.obj
 0001:00039454       __vcrt_freefls             000000018003a454 f   libvcruntime:per_thread_data.obj
 0001:00039474       __vcrt_freeptd             000000018003a474 f   libvcruntime:per_thread_data.obj
 0001:000394c4       __vcrt_getptd              000000018003a4c4 f   libvcruntime:per_thread_data.obj
 0001:000394e0       __vcrt_getptd_noexit       000000018003a4e0 f   libvcruntime:per_thread_data.obj
 0001:000395a0       __vcrt_initialize_ptd      000000018003a5a0 f   libvcruntime:per_thread_data.obj
 0001:000395e8       __vcrt_uninitialize_ptd    000000018003a5e8 f   libvcruntime:per_thread_data.obj
 0001:0003960c       ?StateFromControlPc@__FrameHandler4@@SAHPEAUFuncInfo4@FH4@@PEAU_xDISPATCHER_CONTEXT@@@Z 000000018003a60c f   libvcruntime:ehstate.obj
 0001:00039614       ?StateFromIp@__FrameHandler4@@SAHPEAUFuncInfo4@FH4@@PEAU_xDISPATCHER_CONTEXT@@_K@Z 000000018003a614 f   libvcruntime:ehstate.obj
 0001:0003a284       ??$TypeMatchHelper@V__FrameHandler3@@@@YAHPEBU_s_HandlerType@@PEBU_s_CatchableType@@PEBU_s_ThrowInfo@@@Z 000000018003b284 f i libvcruntime:frame.obj
 0001:0003a3c4       ??$TypeMatchHelper@V__FrameHandler4@@@@YAHPEAUHandlerType4@FH4@@PEBU_s_CatchableType@@PEBU_s_ThrowInfo@@@Z 000000018003b3c4 f i libvcruntime:frame.obj
 0001:0003a508       ??$__InternalCxxFrameHandler@V__FrameHandler4@@@@YA?AW4_EXCEPTION_DISPOSITION@@PEAUEHExceptionRecord@@PEA_KPEAU_CONTEXT@@PEAU_xDISPATCHER_CONTEXT@@PEAUFuncInfo4@FH4@@H1E@Z 000000018003b508 f i libvcruntime:frame.obj
 0001:0003a79c       ??0HandlerMap4@FH4@@QEAA@PEBUTryBlockMapEntry4@1@_KH@Z 000000018003b79c f i libvcruntime:frame.obj
 0001:0003a818       ??0TryBlockMap4@FH4@@QEAA@PEBUFuncInfo4@1@_K@Z 000000018003b818 f i libvcruntime:frame.obj
 0001:0003a8f0       ??0bad_exception@std@@QEAA@AEBV01@@Z 000000018003b8f0 f i libvcruntime:frame.obj
 0001:0003a92c       ??0bad_exception@std@@QEAA@XZ 000000018003b92c f i libvcruntime:frame.obj
 0001:0003a94c       ?CxxCallCatchBlock@__FrameHandler4@@SAPEAXPEAU_EXCEPTION_RECORD@@@Z 000000018003b94c f   libvcruntime:frame.obj
 0001:0003ab9c       ?DecompHandler@HandlerMap4@FH4@@AEAAXXZ 000000018003bb9c f i libvcruntime:frame.obj
 0001:0003addc       ?FrameUnwindToState@__FrameHandler4@@SAXPEA_KPEAU_xDISPATCHER_CONTEXT@@PEAUFuncInfo4@FH4@@H@Z 000000018003bddc f   libvcruntime:frame.obj
 0001:0003b23c       ?ReadEntry@UWMap4@FH4@@AEAAXPEAPEAE@Z 000000018003c23c f i libvcruntime:frame.obj
 0001:0003b2dc       ?_CallMemberFunction1@@YAXQEAX00@Z 000000018003c2dc f i libvcruntime:frame.obj
 0001:0003b2e8       ?_CallMemberFunction2@@YAXQEAX00H@Z 000000018003c2e8 f i libvcruntime:frame.obj
 0001:0003b2f8       ?getStartStop@UWMap4@FH4@@QEAAXHHAEAViterator@12@0@Z 000000018003c2f8 f i libvcruntime:frame.obj
 0001:0003b3c8       ?getStateFromIterators@UWMap4@FH4@@SAHAEBViterator@12@H0H0@Z 000000018003c3c8 f i libvcruntime:frame.obj
 0001:0003b490       __except_validate_context_record 000000018003c490 f   libvcruntime:jbcxrval.obj
 0001:0003b4c8       __except_validate_jump_buffer 000000018003c4c8 f   libvcruntime:jbcxrval.obj
 0001:0003b508       __vcrt_initialize_locks    000000018003c508 f   libvcruntime:locks.obj
 0001:0003b53c       __vcrt_uninitialize_locks  000000018003c53c f   libvcruntime:locks.obj
 0001:0003b590       _NLG_Notify                000000018003c590 f   libvcruntime:notify.obj
 0001:0003b5b0       __NLG_Dispatch2            000000018003c5b0 f   libvcruntime:notify.obj
 0001:0003b5c0       __NLG_Return2              000000018003c5c0 f   libvcruntime:notify.obj
 0001:0003b710       __vcrt_FlsAlloc            000000018003c710 f   libvcruntime:winapi_downlevel.obj
 0001:0003b758       __vcrt_FlsFree             000000018003c758 f   libvcruntime:winapi_downlevel.obj
 0001:0003b7a0       __vcrt_FlsGetValue         000000018003c7a0 f   libvcruntime:winapi_downlevel.obj
 0001:0003b7e8       __vcrt_FlsSetValue         000000018003c7e8 f   libvcruntime:winapi_downlevel.obj
 0001:0003b83c       __vcrt_InitializeCriticalSectionEx 000000018003c83c f   libvcruntime:winapi_downlevel.obj
 0001:0003b8b0       _CallSettingFrame          000000018003c8b0 f   libvcruntime:handlers.obj
 0001:0003b900       _CallSettingFrame_LookupContinuationIndex 000000018003c900 f   libvcruntime:handlers.obj
 0001:0003b930       _CallSettingFrame_NotifyContinuationAddr 000000018003c930 f   libvcruntime:handlers.obj
 0001:0003b960       _CallSettingFrameEncoded   000000018003c960 f   libvcruntime:handlers.obj
 0001:0003b9c0       memcpy_repmovs             000000018003c9c0 f   libvcruntime:memcpy.obj
 0001:0003b9e0       memmove                    000000018003c9e0 f   libvcruntime:memcpy.obj
 0001:0003b9e0       memcpy                     000000018003c9e0 f   libvcruntime:memcpy.obj
 0001:0003c058       free                       000000018003d058 f   libucrt:free.obj
 0001:0003c06c       __acrt_call_reportfault    000000018003d06c f   libucrt:invalid_parameter.obj
 0001:0003c1c8       __acrt_initialize_invalid_parameter_handler 000000018003d1c8 f   libucrt:invalid_parameter.obj
 0001:0003c1d0       _invalid_parameter         000000018003d1d0 f   libucrt:invalid_parameter.obj
 0001:0003c280       _invalid_parameter_noinfo  000000018003d280 f   libucrt:invalid_parameter.obj
 0001:0003c2a0       _invalid_parameter_noinfo_noreturn 000000018003d2a0 f   libucrt:invalid_parameter.obj
 0001:0003c2d0       _invoke_watson             000000018003d2d0 f   libucrt:invalid_parameter.obj
 0001:0003c318       malloc                     000000018003d318 f   libucrt:malloc.obj
 0001:0003c320       rand                       000000018003d320 f   libucrt:rand.obj
 0001:0003c34c       srand                      000000018003d34c f   libucrt:rand.obj
 0001:0003c364       _wcsdup                    000000018003d364 f   libucrt:wcsdup.obj
 0001:0003c3e8       _wcsnset                   000000018003d3e8 f   libucrt:wcsnset.obj
 0001:0003c410       _time64                    000000018003d410 f   libucrt:time.obj
 0001:0003c480       ??$parse_integer@KV?$c_string_character_source@_W@__crt_strtox@@@__crt_strtox@@YAKQEAU__crt_locale_pointers@@V?$c_string_character_source@_W@0@H_N@Z 000000018003d480 f i libucrt:atox.obj
 0001:0003cb28       ??0_LocaleUpdate@@QEAA@QEAU__crt_locale_pointers@@@Z 000000018003db28 f i libucrt:atox.obj
 0001:0003cbc4       _wtoi                      000000018003dbc4 f   libucrt:atox.obj
 0001:0003cbf0       wcsncpy                    000000018003dbf0 f   libucrt:wcsncpy.obj
 0001:0003cd0c       _itow                      000000018003dd0c f   libucrt:xtoa.obj
 0001:0003cd3c       wcstol                     000000018003dd3c f   libucrt:strtox.obj
 0001:0003cd68       __ascii_wcsicmp            000000018003dd68 f   libucrt:wcsicmp.obj
 0001:0003cda8       _wcsicmp                   000000018003dda8 f   libucrt:wcsicmp.obj
 0001:0003cdf0       _wcsicmp_l                 000000018003ddf0 f   libucrt:wcsicmp.obj
 0001:0003cf18       _fpclass                   000000018003df18 f   libucrt:ieeemisc.obj
 0001:0003cfa0       _isleadbyte_l              000000018003dfa0 f i libucrt:_wctype.obj
 0001:0003cfec       iswalnum                   000000018003dfec f i libucrt:_wctype.obj
 0001:0003cff8       iswspace                   000000018003dff8 f i libucrt:_wctype.obj
 0001:0003d1fc       _wcslwr                    000000018003e1fc f   libucrt:wcslwr.obj
 0001:0003d264       _wcslwr_s_l                000000018003e264 f   libucrt:wcslwr.obj
 0001:0003d484       ??$ensure_buffer_is_big_enough@D@formatting_buffer@__crt_stdio_output@@QEAA_N_K@Z 000000018003e484 f i libucrt:output.obj
 0001:0003d52c       ??$ensure_buffer_is_big_enough@_W@formatting_buffer@__crt_stdio_output@@QEAA_N_K@Z 000000018003e52c f i libucrt:output.obj
 0001:0003d5d8       ??$is_wide_character_specifier@_W@__crt_stdio_output@@YA_N_K_WW4length_modifier@0@@Z 000000018003e5d8 f i libucrt:output.obj
 0001:0003d618       ??$type_case_integer_parse_into_buffer@I@?$output_processor@_WV?$string_output_adapter@_W@__crt_stdio_output@@V?$standard_base@_WV?$string_output_adapter@_W@__crt_stdio_output@@@2@@__crt_stdio_output@@AEAAXII_N@Z 000000018003e618 f i libucrt:output.obj
 0001:0003d6bc       ??$type_case_integer_parse_into_buffer@_K@?$output_processor@_WV?$string_output_adapter@_W@__crt_stdio_output@@V?$standard_base@_WV?$string_output_adapter@_W@__crt_stdio_output@@@2@@__crt_stdio_output@@AEAAX_KI_N@Z 000000018003e6bc f i libucrt:output.obj
 0001:0003d760       ??$write_multiple_characters@V?$string_output_adapter@_W@__crt_stdio_output@@D@__crt_stdio_output@@YAXAEBV?$string_output_adapter@_W@0@DHQEAH@Z 000000018003e760 f i libucrt:output.obj
 0001:0003d7e0       ?crop_zeroes@__crt_stdio_output@@YAXPEADQEAU__crt_locale_pointers@@@Z 000000018003e7e0 f i libucrt:output.obj
 0001:0003d880       ?force_decimal_point@__crt_stdio_output@@YAXPEADQEAU__crt_locale_pointers@@@Z 000000018003e880 f i libucrt:output.obj
 0001:0003d8f8       ?parse_int_from_format_string@?$output_processor@_WV?$string_output_adapter@_W@__crt_stdio_output@@V?$standard_base@_WV?$string_output_adapter@_W@__crt_stdio_output@@@2@@__crt_stdio_output@@AEAA_NQEAH@Z 000000018003e8f8 f i libucrt:output.obj
 0001:0003d99c       ?process@?$output_processor@_WV?$string_output_adapter@_W@__crt_stdio_output@@V?$standard_base@_WV?$string_output_adapter@_W@__crt_stdio_output@@@2@@__crt_stdio_output@@QEAAHXZ 000000018003e99c f i libucrt:output.obj
 0001:0003dc08       ?state_case_size@?$output_processor@_WV?$string_output_adapter@_W@__crt_stdio_output@@V?$standard_base@_WV?$string_output_adapter@_W@__crt_stdio_output@@@2@@__crt_stdio_output@@AEAA_NXZ 000000018003ec08 f i libucrt:output.obj
 0001:0003dd9c       ?state_case_type@?$output_processor@_WV?$string_output_adapter@_W@__crt_stdio_output@@V?$standard_base@_WV?$string_output_adapter@_W@__crt_stdio_output@@@2@@__crt_stdio_output@@AEAA_NXZ 000000018003ed9c f i libucrt:output.obj
 0001:0003e070       ?to_integer_size@__crt_stdio_output@@YA_KW4length_modifier@1@@Z 000000018003f070 f i libucrt:output.obj
 0001:0003e0d8       ?type_case_Z@?$output_processor@_WV?$string_output_adapter@_W@__crt_stdio_output@@V?$standard_base@_WV?$string_output_adapter@_W@__crt_stdio_output@@@2@@__crt_stdio_output@@AEAA_NXZ 000000018003f0d8 f i libucrt:output.obj
 0001:0003e154       ?type_case_a@?$output_processor@_WV?$string_output_adapter@_W@__crt_stdio_output@@V?$standard_base@_WV?$string_output_adapter@_W@__crt_stdio_output@@@2@@__crt_stdio_output@@AEAA_NXZ 000000018003f154 f i libucrt:output.obj
 0001:0003e334       ?type_case_c_tchar@?$output_processor@_WV?$string_output_adapter@_W@__crt_stdio_output@@V?$standard_base@_WV?$string_output_adapter@_W@__crt_stdio_output@@@2@@__crt_stdio_output@@AEAA_N_W@Z 000000018003f334 f i libucrt:output.obj
 0001:0003e3dc       ?type_case_integer@?$output_processor@_WV?$string_output_adapter@_W@__crt_stdio_output@@V?$standard_base@_WV?$string_output_adapter@_W@__crt_stdio_output@@@2@@__crt_stdio_output@@AEAA_NI_N@Z 000000018003f3dc f i libucrt:output.obj
 0001:0003e564       ?type_case_n@?$output_processor@_WV?$string_output_adapter@_W@__crt_stdio_output@@V?$standard_base@_WV?$string_output_adapter@_W@__crt_stdio_output@@@2@@__crt_stdio_output@@AEAA_NXZ 000000018003f564 f i libucrt:output.obj
 0001:0003e5ec       ?type_case_s@?$output_processor@_WV?$string_output_adapter@_W@__crt_stdio_output@@V?$standard_base@_WV?$string_output_adapter@_W@__crt_stdio_output@@@2@@__crt_stdio_output@@AEAA_NXZ 000000018003f5ec f i libucrt:output.obj
 0001:0003e6b4       ?write_stored_string_tchar@?$output_processor@_WV?$string_output_adapter@_W@__crt_stdio_output@@V?$standard_base@_WV?$string_output_adapter@_W@__crt_stdio_output@@@2@@__crt_stdio_output@@AEAA_N_W@Z 000000018003f6b4 f i libucrt:output.obj
 0001:0003e79c       ?write_string@?$string_output_adapter@_W@__crt_stdio_output@@QEBAXQEB_WHQEAHAEAV__crt_deferred_errno_cache@@@Z 000000018003f79c f i libucrt:output.obj
 0001:0003e844       __stdio_common_vswprintf   000000018003f844 f   libucrt:output.obj
 0001:0003e84c       wcsspn                     000000018003f84c f   libucrt:wcsspn.obj
 0001:0003e890       __ascii_wcsnicmp           000000018003f890 f   libucrt:wcsnicmp.obj
 0001:0003e8dc       _wcsnicmp                  000000018003f8dc f   libucrt:wcsnicmp.obj
 0001:0003e924       _wcsnicmp_l                000000018003f924 f   libucrt:wcsnicmp.obj
 0001:0003ef60       _ftelli64_nolock           000000018003ff60 f   libucrt:ftell.obj
 0001:0003ef68       ftell                      000000018003ff68 f   libucrt:ftell.obj
 0001:0003ef70       _mbtowc_l                  000000018003ff70 f   libucrt:mbtowc.obj
 0001:0003f0f0       mbtowc                     00000001800400f0 f   libucrt:mbtowc.obj
 0001:0003f0f8       _fclose_nolock             00000001800400f8 f   libucrt:fclose.obj
 0001:0003f17c       fclose                     000000018004017c f   libucrt:fclose.obj
 0001:0003f1e0       realloc                    00000001800401e0 f   libucrt:realloc.obj
 0001:0003f3f0       fseek                      00000001800403f0 f   libucrt:fseek.obj
 0001:0003f3f8       rewind                     00000001800403f8 f   libucrt:rewind.obj
 0001:0003f588       _wfopen                    0000000180040588 f   libucrt:fopen.obj
 0001:0003f594       _fread_nolock_s            0000000180040594 f   libucrt:fread.obj
 0001:0003f7f4       fread                      00000001800407f4 f   libucrt:fread.obj
 0001:0003f814       fread_s                    0000000180040814 f   libucrt:fread.obj
 0001:0003f8bc       wcsncmp                    00000001800408bc f   libucrt:wcsncmp.obj
 0001:0003f8e8       iswctype                   00000001800408e8 f   libucrt:iswctype.obj
 0001:0003f960       isalnum                    0000000180040960 f   libucrt:_ctype.obj
 0001:0003fa10       isalpha                    0000000180040a10 f   libucrt:_ctype.obj
 0001:0003fac0       iscntrl                    0000000180040ac0 f   libucrt:_ctype.obj
 0001:0003fb70       isdigit                    0000000180040b70 f   libucrt:_ctype.obj
 0001:0003fc20       islower                    0000000180040c20 f   libucrt:_ctype.obj
 0001:0003fcd0       ispunct                    0000000180040cd0 f   libucrt:_ctype.obj
 0001:0003fd80       isspace                    0000000180040d80 f   libucrt:_ctype.obj
 0001:0003fe30       isupper                    0000000180040e30 f   libucrt:_ctype.obj
 0001:0003fee0       isxdigit                   0000000180040ee0 f   libucrt:_ctype.obj
 0001:0003ff8c       __acrt_initialize_new_handler 0000000180040f8c f   libucrt:new_handler.obj
 0001:0003ff94       _callnewh                  0000000180040f94 f   libucrt:new_handler.obj
 0001:0003ffc4       _query_new_handler         0000000180040fc4 f   libucrt:new_handler.obj
 0001:0003fff8       _seh_filter_dll            0000000180040ff8 f   libucrt:exception_filter.obj
 0001:0004000c       _seh_filter_exe            000000018004100c f   libucrt:exception_filter.obj
 0001:000403fc       __acrt_initialize_thread_local_exit_callback 00000001800413fc f   libucrt:exit.obj
 0001:00040404       _cexit                     0000000180041404 f   libucrt:exit.obj
 0001:00040414       _exit                      0000000180041414 f   libucrt:exit.obj
 0001:00040420       _is_c_termination_complete 0000000180041420 f   libucrt:exit.obj
 0001:000405e8       __acrt_allocate_buffer_for_argv 00000001800415e8 f   libucrt:argv_parsing.obj
 0001:00040648       _configure_narrow_argv     0000000180041648 f   libucrt:argv_parsing.obj
 0001:000409c0       __dcrt_uninitialize_environments_nolock 00000001800419c0 f   libucrt:environment_initialization.obj
 0001:000409f8       _initialize_narrow_environment 00000001800419f8 f   libucrt:environment_initialization.obj
 0001:00040d40       _crt_atexit                0000000180041d40 f   libucrt:onexit.obj
 0001:00040d50       _execute_onexit_table      0000000180041d50 f   libucrt:onexit.obj
 0001:00040d8c       _initialize_onexit_table   0000000180041d8c f   libucrt:onexit.obj
 0001:00040db4       _register_onexit_function  0000000180041db4 f   libucrt:onexit.obj
 0001:00040f28       __acrt_initialize          0000000180041f28 f   libucrt:initialization.obj
 0001:00040f3c       __acrt_thread_attach       0000000180041f3c f   libucrt:initialization.obj
 0001:00040f50       __acrt_thread_detach       0000000180041f50 f   libucrt:initialization.obj
 0001:00040f60       __acrt_uninitialize        0000000180041f60 f   libucrt:initialization.obj
 0001:00040f98       __acrt_uninitialize_critical 0000000180041f98 f   libucrt:initialization.obj
 0001:00040fa8       terminate                  0000000180041fa8 f   libucrt:terminate.obj
 0001:00040fc8       _initterm                  0000000180041fc8 f   libucrt:initterm.obj
 0001:0004102c       _initterm_e                000000018004202c f   libucrt:initterm.obj
 0001:0004106c       abort                      000000018004206c f   libucrt:abort.obj
 0001:000410c4       strcpy_s                   00000001800420c4 f   libucrt:strcpy_s.obj
 0001:00041124       calloc                     0000000180042124 f   libucrt:calloc.obj
 0001:00041140       strncmp                    0000000180042140 f   libucrt:strncmp.obj
 0001:000411c0       _free_base                 00000001800421c0 f   libucrt:free_base.obj
 0001:00041578       __acrt_freeptd             0000000180042578 f   libucrt:per_thread_data.obj
 0001:000415bc       __acrt_getptd              00000001800425bc f   libucrt:per_thread_data.obj
 0001:00041690       __acrt_getptd_head         0000000180042690 f   libucrt:per_thread_data.obj
 0001:00041738       __acrt_getptd_noexit       0000000180042738 f   libucrt:per_thread_data.obj
 0001:00041804       __acrt_initialize_ptd      0000000180042804 f   libucrt:per_thread_data.obj
 0001:00041840       __acrt_uninitialize_ptd    0000000180042840 f   libucrt:per_thread_data.obj
 0001:00041864       _malloc_base               0000000180042864 f   libucrt:malloc_base.obj
 0001:000418c4       wcscpy_s                   00000001800428c4 f   libucrt:wcscpy_s.obj
 0001:0004192c       __acrt_errno_from_os_error 000000018004292c f   libucrt:errno.obj
 0001:00041974       __acrt_errno_map_os_error  0000000180042974 f   libucrt:errno.obj
 0001:000419c4       __doserrno                 00000001800429c4 f   libucrt:errno.obj
 0001:000419e4       _errno                     00000001800429e4 f   libucrt:errno.obj
 0001:00041bdc       __acrt_AppPolicyGetProcessTerminationMethodInternal 0000000180042bdc f   libucrt:winapi_thunks.obj
 0001:00041c2c       __acrt_AreFileApisANSI     0000000180042c2c f   libucrt:winapi_thunks.obj
 0001:00041c68       __acrt_FlsAlloc            0000000180042c68 f   libucrt:winapi_thunks.obj
 0001:00041cb0       __acrt_FlsFree             0000000180042cb0 f   libucrt:winapi_thunks.obj
 0001:00041cf8       __acrt_FlsGetValue         0000000180042cf8 f   libucrt:winapi_thunks.obj
 0001:00041d40       __acrt_FlsSetValue         0000000180042d40 f   libucrt:winapi_thunks.obj
 0001:00041d94       __acrt_InitializeCriticalSectionEx 0000000180042d94 f   libucrt:winapi_thunks.obj
 0001:00041df8       __acrt_LCMapStringEx       0000000180042df8 f   libucrt:winapi_thunks.obj
 0001:00041ed4       __acrt_LocaleNameToLCID    0000000180042ed4 f   libucrt:winapi_thunks.obj
 0001:00041f24       __acrt_initialize_winapi_thunks 0000000180042f24 f   libucrt:winapi_thunks.obj
 0001:00041f58       __acrt_uninitialize_winapi_thunks 0000000180042f58 f   libucrt:winapi_thunks.obj
 0001:00041f9c       __pctype_func              0000000180042f9c f   libucrt:ctype.obj
 0001:00041fcc       _isctype_l                 0000000180042fcc f   libucrt:isctype.obj
 0001:000420d4       __acrt_update_locale_info  00000001800430d4 f   libucrt:locale_update.obj
 0001:00042108       __acrt_update_multibyte_info 0000000180043108 f   libucrt:locale_update.obj
 0001:000421ac       __acrt_set_locale_changed  00000001800431ac f   libucrt:wsetlocale.obj
 0001:000421b8       __acrt_uninitialize_locale 00000001800431b8 f   libucrt:wsetlocale.obj
 0001:000421e8       _towlower_l                00000001800431e8 f   libucrt:towlower.obj
 0001:000423c8       _handle_error              00000001800433c8 f   libucrt:libm_error.obj
 0001:000424f0       _handle_errorf             00000001800434f0 f   libucrt:libm_error.obj
 0001:00042624       _handle_nan                0000000180043624 f   libucrt:libm_error.obj
 0001:00042640       _handle_nanf               0000000180043640 f   libucrt:libm_error.obj
 0001:00042650       wcsnlen                    0000000180043650 f   libucrt:strnlen.obj
 0001:00042828       __acrt_LCMapStringW        0000000180043828 f   libucrt:lcmapstringw.obj
 0001:000432bc       __acrt_fp_format           00000001800442bc f   libucrt:cvt.obj
 0001:000435f4       _fileno                    00000001800445f4 f   libucrt:fileno.obj
 0001:0004361c       __acrt_initialize_stdio    000000018004461c f   libucrt:_file.obj
 0001:0004373c       __acrt_uninitialize_stdio  000000018004473c f   libucrt:_file.obj
 0001:00043798       _lock_file                 0000000180044798 f   libucrt:_file.obj
 0001:000437a4       _unlock_file               00000001800447a4 f   libucrt:_file.obj
 0001:000437b0       _get_printf_count_output   00000001800447b0 f   libucrt:printf_count_output.obj
 0001:000439c4       __acrt_initialize_lowio    00000001800449c4 f   libucrt:ioinit.obj
 0001:00043a00       __acrt_uninitialize_lowio  0000000180044a00 f   libucrt:ioinit.obj
 0001:00043dac       _lseek                     0000000180044dac f   libucrt:lseek.obj
 0001:00043db4       _lseeki64                  0000000180044db4 f   libucrt:lseek.obj
 0001:00043dbc       _lseeki64_nolock           0000000180044dbc f   libucrt:lseek.obj
 0001:0004432c       _read                      000000018004532c f   libucrt:read.obj
 0001:00044448       _read_nolock               0000000180045448 f   libucrt:read.obj
 0001:000448a0       __acrt_MultiByteToWideChar 00000001800458a0 f   libucrt:multibytetowidechar.obj
 0001:000448fc       ?__mbrtowc_utf8@__crt_mbstring@@YA_KPEA_WPEBD_KPEAU_Mbstatet@@@Z 00000001800458fc f   libucrt:mbrtowc.obj
 0001:00044938       ?__mbsrtowcs_utf8@__crt_mbstring@@YA_KPEA_WPEAPEBD_KPEAU_Mbstatet@@@Z 0000000180045938 f   libucrt:mbrtowc.obj
 0001:00044b24       _close                     0000000180045b24 f   libucrt:close.obj
 0001:00044bc8       _close_nolock              0000000180045bc8 f   libucrt:close.obj
 0001:00044c88       ?__acrt_stdio_allocate_stream@@YA?AV__crt_stdio_stream@@XZ 0000000180045c88 f   libucrt:stream.obj
 0001:00044ce0       ?__acrt_stdio_free_stream@@YAXV__crt_stdio_stream@@@Z 0000000180045ce0 f   libucrt:stream.obj
 0001:00044de8       __acrt_stdio_free_buffer_nolock 0000000180045de8 f   libucrt:_freebuf.obj
 0001:00045004       __acrt_stdio_flush_nolock  0000000180046004 f   libucrt:fflush.obj
 0001:00045080       _fflush_nolock             0000000180046080 f   libucrt:fflush.obj
 0001:000450cc       _flushall                  00000001800460cc f   libucrt:fflush.obj
 0001:000450d4       _realloc_base              00000001800460d4 f   libucrt:realloc_base.obj
 0001:00045150       ??$__acrt_stdio_parse_mode@_W@@YA?AU__acrt_stdio_stream_mode@@QEB_W@Z 0000000180046150 f i libucrt:openfile.obj
 0001:00045454       _wopenfile                 0000000180046454 f   libucrt:openfile.obj
 0001:000454f0       __acrt_stdio_refill_and_read_narrow_nolock 00000001800464f0 f   libucrt:_filbuf.obj
 0001:0004565c       __acrt_GetStringTypeW      000000018004665c f   libucrt:getstringtypew.obj
 0001:00045664       __acrt_initialize_locks    0000000180046664 f   libucrt:locks.obj
 0001:000456ac       __acrt_lock                00000001800466ac f   libucrt:locks.obj
 0001:000456c8       __acrt_uninitialize_locks  00000001800466c8 f   libucrt:locks.obj
 0001:00045700       __acrt_unlock              0000000180046700 f   libucrt:locks.obj
 0001:0004571c       __acrt_get_process_end_policy 000000018004671c f   libucrt:win_policies.obj
 0001:00045758       _calloc_base               0000000180046758 f   libucrt:calloc_base.obj
 0001:000457e4       ??$__acrt_mbs_to_wcs_cp@U__crt_win32_buffer_internal_dynamic_resizing@@@@YAHQEBDAEAV?$__crt_win32_buffer@_WU__crt_win32_buffer_internal_dynamic_resizing@@@@I@Z 00000001800467e4 f i libucrt:argv_wildcards.obj
 0001:0004595c       ??$__acrt_wcs_to_mbs_cp@U__crt_win32_buffer_internal_dynamic_resizing@@@@YAHQEB_WAEAV?$__crt_win32_buffer@DU__crt_win32_buffer_internal_dynamic_resizing@@@@I@Z 000000018004695c f i libucrt:argv_wildcards.obj
 0001:0004618c       __acrt_expand_narrow_argv_wildcards 000000018004718c f   libucrt:argv_wildcards.obj
 0001:00046194       ??$__acrt_wcs_to_mbs_cp@U__crt_win32_buffer_no_resizing@@@@YAHQEB_WAEAV?$__crt_win32_buffer@DU__crt_win32_buffer_no_resizing@@@@I@Z 0000000180047194 f i libucrt:getmodulefilenamea.obj
 0001:000462a8       __acrt_GetModuleFileNameA  00000001800472a8 f   libucrt:getmodulefilenamea.obj
 0001:00046af0       __acrt_initialize_multibyte 0000000180047af0 f   libucrt:mbctype.obj
 0001:00046b50       __acrt_update_thread_multibyte_data 0000000180047b50 f   libucrt:mbctype.obj
 0001:00046b6c       _setmbcp_nolock            0000000180047b6c f   libucrt:mbctype.obj
 0001:00046ea0       _ismbblead                 0000000180047ea0 f   libucrt:ismbbyte.obj
 0001:00046eb4       __acrt_initialize_command_line 0000000180047eb4 f   libucrt:argv_data.obj
 0001:00046edc       __acrt_WideCharToMultiByte 0000000180047edc f   libucrt:widechartomultibyte.obj
 0001:00046f8c       __dcrt_get_narrow_environment_from_os 0000000180047f8c f   libucrt:get_environment_from_os.obj
 0001:00047090       _recalloc_base             0000000180048090 f   libucrt:recalloc.obj
 0001:00047128       __acrt_initialize_heap     0000000180048128 f   libucrt:heap_handle.obj
 0001:00047144       __acrt_uninitialize_heap   0000000180048144 f   libucrt:heap_handle.obj
 0001:00047150       __acrt_execute_initializers 0000000180048150 f   libucrt:shared_initialization.obj
 0001:000471d0       __acrt_execute_uninitializers 00000001800481d0 f   libucrt:shared_initialization.obj
 0001:00047254       __acrt_get_sigabrt_handler 0000000180048254 f   libucrt:signal.obj
 0001:00047284       __acrt_initialize_signal_handlers 0000000180048284 f   libucrt:signal.obj
 0001:000472a4       raise                      00000001800482a4 f   libucrt:signal.obj
 0001:00047510       __acrt_has_user_matherr    0000000180048510 f   libucrt:matherr.obj
 0001:00047530       __acrt_initialize_user_matherr 0000000180048530 f   libucrt:matherr.obj
 0001:00047538       __acrt_invoke_user_matherr 0000000180048538 f   libucrt:matherr.obj
 0001:00047568       __acrt_add_locale_ref      0000000180048568 f   libucrt:locale_refcounting.obj
 0001:000475f4       __acrt_free_locale         00000001800485f4 f   libucrt:locale_refcounting.obj
 0001:0004776c       __acrt_locale_add_lc_time_reference 000000018004876c f   libucrt:locale_refcounting.obj
 0001:00047794       __acrt_locale_free_lc_time_if_unreferenced 0000000180048794 f   libucrt:locale_refcounting.obj
 0001:000477cc       __acrt_locale_release_lc_time_reference 00000001800487cc f   libucrt:locale_refcounting.obj
 0001:000477f4       __acrt_release_locale_ref  00000001800487f4 f   libucrt:locale_refcounting.obj
 0001:0004789c       __acrt_update_thread_locale_data 000000018004889c f   libucrt:locale_refcounting.obj
 0001:0004790c       _updatetlocinfoEx_nolock   000000018004890c f   libucrt:locale_refcounting.obj
 0001:00047974       _query_new_mode            0000000180048974 f   libucrt:new_mode.obj
 0001:0004797c       __acrt_DownlevelLocaleNameToLCID 000000018004897c f   libucrt:lcidtoname_downlevel.obj
 0001:00047a2c       __acrt_GetStringTypeA      0000000180048a2c f   libucrt:getstringtypea.obj
 0001:00047bbc       __acrt_locale_free_monetary 0000000180048bbc f   libucrt:initmon.obj
 0001:00047cc8       __acrt_locale_free_numeric 0000000180048cc8 f   libucrt:initnum.obj
 0001:00047d8c       __acrt_locale_free_time    0000000180048d8c f   libucrt:inittime.obj
 0001:00047e94       _raise_exc                 0000000180048e94 f   libucrt:fpexcept.obj
 0001:00047ebc       _raise_exc_ex              0000000180048ebc f   libucrt:fpexcept.obj
 0001:000481cc       _raise_excf                00000001800491cc f   libucrt:fpexcept.obj
 0001:000481f8       _set_errno_from_matherr    00000001800491f8 f   libucrt:fpexcept.obj
 0001:00048228       _clrfp                     0000000180049228 f   libucrt:fpctrl.obj
 0001:00048248       _ctrlfp                    0000000180049248 f   libucrt:fpctrl.obj
 0001:000482c4       _set_statfp                00000001800492c4 f   libucrt:fpctrl.obj
 0001:000482e4       _statfp                    00000001800492e4 f   libucrt:fpctrl.obj
 0001:000482f8       __acrt_fp_strflt_to_string 00000001800492f8 f   libucrt:_fptostr.obj
 0001:00048460       ?divide@__crt_strtox@@YA_KAEAUbig_integer@1@AEBU21@@Z 0000000180049460 f i libucrt:cfout.obj
 0001:0004888c       __acrt_fltout              000000018004988c f   libucrt:cfout.obj
 0001:00049b58       fegetround                 000000018004ab58 f   libucrt:fegetround.obj
 0001:00049b6c       _fcloseall                 000000018004ab6c f   libucrt:closeall.obj
 0001:00049c20       _isatty                    000000018004ac20 f   libucrt:isatty.obj
 0001:00049c80       __acrt_lowio_create_handle_array 000000018004ac80 f   libucrt:osfinfo.obj
 0001:00049d28       __acrt_lowio_destroy_handle_array 000000018004ad28 f   libucrt:osfinfo.obj
 0001:00049d78       __acrt_lowio_ensure_fh_exists 000000018004ad78 f   libucrt:osfinfo.obj
 0001:00049e20       __acrt_lowio_lock_fh       000000018004ae20 f   libucrt:osfinfo.obj
 0001:00049e48       __acrt_lowio_set_os_handle 000000018004ae48 f   libucrt:osfinfo.obj
 0001:00049f08       __acrt_lowio_unlock_fh     000000018004af08 f   libucrt:osfinfo.obj
 0001:00049f30       _alloc_osfhnd              000000018004af30 f   libucrt:osfinfo.obj
 0001:0004a070       _free_osfhnd               000000018004b070 f   libucrt:osfinfo.obj
 0001:0004a12c       _get_osfhandle             000000018004b12c f   libucrt:osfinfo.obj
 0001:0004a1a4       ?__mbrtoc32_utf8@__crt_mbstring@@YA_KPEA_UPEBD_KPEAU_Mbstatet@@@Z 000000018004b1a4 f   libucrt:mbrtoc32.obj
 0001:0004a408       _commit                    000000018004b408 f   libucrt:commit.obj
 0001:0004ad18       _write                     000000018004bd18 f   libucrt:write.obj
 0001:0004ae04       _write_nolock              000000018004be04 f   libucrt:write.obj
 0001:0004b710       _wsopen_nolock             000000018004c710 f   libucrt:open.obj
 0001:0004baf8       _wsopen_s                  000000018004caf8 f   libucrt:open.obj
 0001:0004bb2c       __acrt_stdio_allocate_buffer_nolock 000000018004cb2c f   libucrt:_getbuf.obj
 0001:0004bba0       qsort                      000000018004cba0 f   libucrt:qsort.obj
 0001:0004bf40       strncpy_s                  000000018004cf40 f   libucrt:strncpy_s.obj
 0001:0004c0c0       strpbrk                    000000018004d0c0 f   libucrt:strpbrk.obj
 0001:0004c488       _mbsdec                    000000018004d488 f   libucrt:mbsdec.obj
 0001:0004c490       _mbsdec_l                  000000018004d490 f   libucrt:mbsdec.obj
 0001:0004c83c       __acrt_LCMapStringA        000000018004d83c f   libucrt:lcmapstringa.obj
 0001:0004c8ec       _msize_base                000000018004d8ec f   libucrt:msize.obj
 0001:0004c940       _get_fpsr                  000000018004d940 f   libucrt:fpsr.obj
 0001:0004c950       _set_fpsr                  000000018004d950 f   libucrt:fpsr.obj
 0001:0004c95a       _fclrf                     000000018004d95a f   libucrt:fpsr.obj
 0001:0004c96e       _frnd                      000000018004d96e f   libucrt:fpsr.obj
 0001:0004c990       _controlfp_s               000000018004d990 f   libucrt:contrlfp.obj
 0001:0004c9f4       fegetenv                   000000018004d9f4 f   libucrt:fegetenv.obj
 0001:0004ca14       fesetenv                   000000018004da14 f   libucrt:fesetenv.obj
 0001:0004ca60       feholdexcept               000000018004da60 f   libucrt:feholdexcept.obj
 0001:0004cab0       ceil                       000000018004dab0 f   libucrt:ceil.obj
 0001:0004cb80       log10                      000000018004db80 f   libucrt:log10.obj
 0001:0004d12c       __acrt_fenv_get_common_round_control 000000018004e12c f   libucrt:_fenvutils.obj
 0001:0004d138       __acrt_fenv_get_control    000000018004e138 f   libucrt:_fenvutils.obj
 0001:0004d22c       __acrt_fenv_get_status     000000018004e22c f   libucrt:_fenvutils.obj
 0001:0004d280       __acrt_fenv_set_control    000000018004e280 f   libucrt:_fenvutils.obj
 0001:0004d3c8       __acrt_fenv_set_status     000000018004e3c8 f   libucrt:_fenvutils.obj
 0001:0004d44c       _query_app_type            000000018004e44c f   libucrt:report_runtime_error.obj
 0001:0004d454       _putwch_nolock             000000018004e454 f   libucrt:putwch.obj
 0001:0004d490       _get_fmode                 000000018004e490 f   libucrt:setmode.obj
 0001:0004d4c0       _setmode_nolock            000000018004e4c0 f   libucrt:setmode.obj
 0001:0004d5a0       _chsize_nolock             000000018004e5a0 f   libucrt:chsize.obj
 0001:0004d70c       __strncnt                  000000018004e70c f   libucrt:strncnt.obj
 0001:0004d724       _clearfp                   000000018004e724 f   libucrt:ieee.obj
 0001:0004d794       _control87                 000000018004e794 f   libucrt:ieee.obj
 0001:0004da60       __acrt_initialize_fma3     000000018004ea60 f   libucrt:fma3_available.obj
 0001:0004dad0       _log10_special             000000018004ead0 f   libucrt:log_special.obj
 0001:0004daf0       _log_special               000000018004eaf0 f   libucrt:log_special.obj
 0001:0004dba8       _logf_special              000000018004eba8 f   libucrt:log_special.obj
 0001:0004dc64       __dcrt_lowio_ensure_console_output_initialized 000000018004ec64 f   libucrt:initcon.obj
 0001:0004dcb8       __dcrt_terminate_console_output 000000018004ecb8 f   libucrt:initcon.obj
 0001:0004dcd4       __dcrt_write_console       000000018004ecd4 f   libucrt:initcon.obj
 0001:0004dd94       __acrt_initialize_fmode    000000018004ed94 f   libucrt:txtmode.obj
 0001:0004ddad       RtlUnwind                  000000018004edad f   kernel32:KERNEL32.dll
 0001:0004ddb4       __GSHandlerCheck           000000018004edb4 f   LIBCMT:gshandler.obj
 0001:0004ddd4       __GSHandlerCheckCommon     000000018004edd4 f   LIBCMT:gshandler.obj
 0001:0004de40       __security_check_cookie    000000018004ee40 f   LIBCMT:amdsecgs.obj
 0001:0004de70       _FindPESection             000000018004ee70 f   LIBCMT:pesect.obj
 0001:0004dec0       _IsNonwritableInCurrentImage 000000018004eec0 f   LIBCMT:pesect.obj
 0001:0004df10       _ValidateImageBase         000000018004ef10 f   LIBCMT:pesect.obj
 0001:0004df40       __GSHandlerCheck_SEH       000000018004ef40 f   LIBCMT:gshandlerseh.obj
 0001:0004dfe0       _alloca_probe              000000018004efe0 f   LIBCMT:chkstk.obj
 0001:0004dfe0       __chkstk                   000000018004efe0 f   LIBCMT:chkstk.obj
 0001:0004e034       __raise_securityfailure    000000018004f034 f   LIBCMT:gs_report.obj
 0001:0004e068       __report_gsfailure         000000018004f068 f   LIBCMT:gs_report.obj
 0001:0004e13c       __report_rangecheckfailure 000000018004f13c f   LIBCMT:gs_report.obj
 0001:0004e150       __report_securityfailure   000000018004f150 f   LIBCMT:gs_report.obj
 0001:0004e2e0       memcmp                     000000018004f2e0 f   libvcruntime:memcmp.obj
 0001:0004e3a8       strrchr                    000000018004f3a8 f   libvcruntime:strrchr.obj
 0001:0004e4d4       ??0__non_rtti_object@std@@QEAA@AEBV01@@Z 000000018004f4d4 f i libvcruntime:rtti.obj
 0001:0004e510       ??0bad_cast@std@@QEAA@AEBV01@@Z 000000018004f510 f i libvcruntime:rtti.obj
 0001:0004e54c       ??0bad_typeid@std@@QEAA@AEBV01@@Z 000000018004f54c f i libvcruntime:rtti.obj
 0001:0004ea64       ?__construct_from_string_literal@__non_rtti_object@std@@SA?AV12@QEBD@Z 000000018004fa64 f i libvcruntime:rtti.obj
 0001:0004ea7c       ?__construct_from_string_literal@bad_cast@std@@SA?AV12@QEBD@Z 000000018004fa7c f i libvcruntime:rtti.obj
 0001:0004ea94       __RTDynamicCast            000000018004fa94 f   libvcruntime:rtti.obj
 0001:0004ebfc       atan                       000000018004fbfc f   libucrt:atan.obj
 0001:0004ee14       atanf                      000000018004fe14 f   libucrt:atanf.obj
 0001:0004f000       ceilf                      0000000180050000 f   libucrt:ceilf.obj
 0001:0004f090       cos                        0000000180050090 f   libucrt:cos.obj
 0001:0004f610       cosf                       0000000180050610 f   libucrt:cosf.obj
 0001:0004fb10       floor                      0000000180050b10 f   libucrt:floor.obj
 0001:0004fbc0       floorf                     0000000180050bc0 f   libucrt:floorf.obj
 0001:0004fc40       log                        0000000180050c40 f   libucrt:log.obj
 0001:00050170       logf                       0000000180051170 f   libucrt:logf.obj
 0001:00050570       pow                        0000000180051570 f   libucrt:pow.obj
 0001:00051c10       powf                       0000000180052c10 f   libucrt:powf.obj
 0001:00052ae0       sin                        0000000180053ae0 f   libucrt:sin.obj
 0001:00053050       sinf                       0000000180054050 f   libucrt:sinf.obj
 0001:00053750       tan                        0000000180054750 f   libucrt:tan.obj
 0001:00053ef0       tanf                       0000000180054ef0 f   libucrt:tanf.obj
 0001:00054570       __remainder_piby2_forAsm   0000000180055570 f   libucrt:remainder_piby2_forasm.obj
 0001:00054780       __remainder_piby2_cw_forAsm 0000000180055780 f   libucrt:remainder_piby2_forasm.obj
 0001:000548c0       __remainder_piby2_fma3     00000001800558c0 f   libucrt:remainder_piby2_forfma3.obj
 0001:00054ab0       __remainder_piby2_fma3_bdl 0000000180055ab0 f   libucrt:remainder_piby2_forfma3.obj
 0001:00054b28       _cos_special               0000000180055b28 f   libucrt:sincos_special.obj
 0001:00054b3c       _cosf_special              0000000180055b3c f   libucrt:sincos_special.obj
 0001:00054b50       _sin_special               0000000180055b50 f   libucrt:sincos_special.obj
 0001:00054c94       _sinf_special              0000000180055c94 f   libucrt:sincos_special.obj
 0001:00054ca8       _tan_special               0000000180055ca8 f   libucrt:sincos_special.obj
 0001:00054cbc       _tanf_special              0000000180055cbc f   libucrt:sincos_special.obj
 0001:00054cd0       __remainder_piby2d2f_forAsm 0000000180055cd0 f   libucrt:remainder_piby2f_forasm.obj
 0001:00054e20       _pow_special               0000000180055e20 f   libucrt:pow_special.obj
 0001:00054f44       _powf_special              0000000180055f44 f   libucrt:pow_special.obj
 0001:000550d0       __remainder_piby2d2f_forC  00000001800560d0 f   libucrt:remainder_piby2f_forc.obj
 0001:00055270       _guard_dispatch_icall_nop  0000000180056270 f   LIBCMT:guard_dispatch.obj
 0001:00055290       _guard_xfg_dispatch_icall_nop 0000000180056290 f   LIBCMT:guard_xfg_dispatch.obj
 0001:000552b0       __intrinsic_setjmp         00000001800562b0 f   libvcruntime:setjmp.obj
 0001:000552b0       _setjmp                    00000001800562b0 f   libvcruntime:setjmp.obj
 0001:00055350       setjmp                     0000000180056350 f   libvcruntime:setjmp.obj
 0001:00055370       __longjmp_internal         0000000180056370 f   libvcruntime:longjmp.obj
 0001:00056c80       ??__Flog_history@?1??ToString_LogBase@?$Big@$01$0BK@@ttmath@@AEAA_K_KAEAV12@@Z@YAXXZ 0000000180057c80 f i newparse.cpp.obj
 0002:00000000       __imp_GetConsoleScreenBufferInfo 0000000180058000     kernel32:KERNEL32.dll
 0002:00000008       __imp_GetStdHandle         0000000180058008     kernel32:KERNEL32.dll
 0002:00000010       __imp_GetSystemDefaultLCID 0000000180058010     kernel32:KERNEL32.dll
 0002:00000018       __imp_GetLocaleInfoW       0000000180058018     kernel32:KERNEL32.dll
 0002:00000020       __imp_SetLastError         0000000180058020     kernel32:KERNEL32.dll
 0002:00000028       __imp_GetModuleFileNameW   0000000180058028     kernel32:KERNEL32.dll
 0002:00000030       __imp_GetProcAddress       0000000180058030     kernel32:KERNEL32.dll
 0002:00000038       __imp_GetModuleHandleW     0000000180058038     kernel32:KERNEL32.dll
 0002:00000040       __imp_RtlCaptureContext    0000000180058040     kernel32:KERNEL32.dll
 0002:00000048       __imp_RtlLookupFunctionEntry 0000000180058048     kernel32:KERNEL32.dll
 0002:00000050       __imp_RtlVirtualUnwind     0000000180058050     kernel32:KERNEL32.dll
 0002:00000058       __imp_IsDebuggerPresent    0000000180058058     kernel32:KERNEL32.dll
 0002:00000060       __imp_UnhandledExceptionFilter 0000000180058060     kernel32:KERNEL32.dll
 0002:00000068       __imp_SetUnhandledExceptionFilter 0000000180058068     kernel32:KERNEL32.dll
 0002:00000070       __imp_GetStartupInfoW      0000000180058070     kernel32:KERNEL32.dll
 0002:00000078       __imp_IsProcessorFeaturePresent 0000000180058078     kernel32:KERNEL32.dll
 0002:00000080       __imp_QueryPerformanceCounter 0000000180058080     kernel32:KERNEL32.dll
 0002:00000088       __imp_GetCurrentProcessId  0000000180058088     kernel32:KERNEL32.dll
 0002:00000090       __imp_GetCurrentThreadId   0000000180058090     kernel32:KERNEL32.dll
 0002:00000098       __imp_GetSystemTimeAsFileTime 0000000180058098     kernel32:KERNEL32.dll
 0002:000000a0       __imp_InitializeSListHead  00000001800580a0     kernel32:KERNEL32.dll
 0002:000000a8       __imp_RtlUnwindEx          00000001800580a8     kernel32:KERNEL32.dll
 0002:000000b0       __imp_RtlPcToFileHeader    00000001800580b0     kernel32:KERNEL32.dll
 0002:000000b8       __imp_RaiseException       00000001800580b8     kernel32:KERNEL32.dll
 0002:000000c0       __imp_InterlockedFlushSList 00000001800580c0     kernel32:KERNEL32.dll
 0002:000000c8       __imp_GetLastError         00000001800580c8     kernel32:KERNEL32.dll
 0002:000000d0       __imp_EncodePointer        00000001800580d0     kernel32:KERNEL32.dll
 0002:000000d8       __imp_RtlUnwind            00000001800580d8     kernel32:KERNEL32.dll
 0002:000000e0       __imp_EnterCriticalSection 00000001800580e0     kernel32:KERNEL32.dll
 0002:000000e8       __imp_LeaveCriticalSection 00000001800580e8     kernel32:KERNEL32.dll
 0002:000000f0       __imp_DeleteCriticalSection 00000001800580f0     kernel32:KERNEL32.dll
 0002:000000f8       __imp_InitializeCriticalSectionAndSpinCount 00000001800580f8     kernel32:KERNEL32.dll
 0002:00000100       __imp_TlsAlloc             0000000180058100     kernel32:KERNEL32.dll
 0002:00000108       __imp_TlsGetValue          0000000180058108     kernel32:KERNEL32.dll
 0002:00000110       __imp_TlsSetValue          0000000180058110     kernel32:KERNEL32.dll
 0002:00000118       __imp_TlsFree              0000000180058118     kernel32:KERNEL32.dll
 0002:00000120       __imp_FreeLibrary          0000000180058120     kernel32:KERNEL32.dll
 0002:00000128       __imp_LoadLibraryExW       0000000180058128     kernel32:KERNEL32.dll
 0002:00000130       __imp_GetCurrentProcess    0000000180058130     kernel32:KERNEL32.dll
 0002:00000138       __imp_TerminateProcess     0000000180058138     kernel32:KERNEL32.dll
 0002:00000140       __imp_ReadFile             0000000180058140     kernel32:KERNEL32.dll
 0002:00000148       __imp_ExitProcess          0000000180058148     kernel32:KERNEL32.dll
 0002:00000150       __imp_GetModuleHandleExW   0000000180058150     kernel32:KERNEL32.dll
 0002:00000158       __imp_HeapFree             0000000180058158     kernel32:KERNEL32.dll
 0002:00000160       __imp_HeapAlloc            0000000180058160     kernel32:KERNEL32.dll
 0002:00000168       __imp_LCMapStringW         0000000180058168     kernel32:KERNEL32.dll
 0002:00000170       __imp_GetFileType          0000000180058170     kernel32:KERNEL32.dll
 0002:00000178       __imp_SetFilePointerEx     0000000180058178     kernel32:KERNEL32.dll
 0002:00000180       __imp_GetConsoleMode       0000000180058180     kernel32:KERNEL32.dll
 0002:00000188       __imp_ReadConsoleW         0000000180058188     kernel32:KERNEL32.dll
 0002:00000190       __imp_MultiByteToWideChar  0000000180058190     kernel32:KERNEL32.dll
 0002:00000198       __imp_CloseHandle          0000000180058198     kernel32:KERNEL32.dll
 0002:000001a0       __imp_HeapReAlloc          00000001800581a0     kernel32:KERNEL32.dll
 0002:000001a8       __imp_GetStringTypeW       00000001800581a8     kernel32:KERNEL32.dll
 0002:000001b0       __imp_FindClose            00000001800581b0     kernel32:KERNEL32.dll
 0002:000001b8       __imp_FindFirstFileExW     00000001800581b8     kernel32:KERNEL32.dll
 0002:000001c0       __imp_FindNextFileW        00000001800581c0     kernel32:KERNEL32.dll
 0002:000001c8       __imp_IsValidCodePage      00000001800581c8     kernel32:KERNEL32.dll
 0002:000001d0       __imp_GetACP               00000001800581d0     kernel32:KERNEL32.dll
 0002:000001d8       __imp_GetOEMCP             00000001800581d8     kernel32:KERNEL32.dll
 0002:000001e0       __imp_GetCPInfo            00000001800581e0     kernel32:KERNEL32.dll
 0002:000001e8       __imp_GetCommandLineA      00000001800581e8     kernel32:KERNEL32.dll
 0002:000001f0       __imp_GetCommandLineW      00000001800581f0     kernel32:KERNEL32.dll
 0002:000001f8       __imp_WideCharToMultiByte  00000001800581f8     kernel32:KERNEL32.dll
 0002:00000200       __imp_GetEnvironmentStringsW 0000000180058200     kernel32:KERNEL32.dll
 0002:00000208       __imp_FreeEnvironmentStringsW 0000000180058208     kernel32:KERNEL32.dll
 0002:00000210       __imp_GetProcessHeap       0000000180058210     kernel32:KERNEL32.dll
 0002:00000218       __imp_SetStdHandle         0000000180058218     kernel32:KERNEL32.dll
 0002:00000220       __imp_FlushFileBuffers     0000000180058220     kernel32:KERNEL32.dll
 0002:00000228       __imp_WriteFile            0000000180058228     kernel32:KERNEL32.dll
 0002:00000230       __imp_GetConsoleOutputCP   0000000180058230     kernel32:KERNEL32.dll
 0002:00000238       __imp_CreateFileW          0000000180058238     kernel32:KERNEL32.dll
 0002:00000240       __imp_HeapSize             0000000180058240     kernel32:KERNEL32.dll
 0002:00000248       __imp_SetEndOfFile         0000000180058248     kernel32:KERNEL32.dll
 0002:00000250       __imp_WriteConsoleW        0000000180058250     kernel32:KERNEL32.dll
 0002:00000258       \177KERNEL32_NULL_THUNK_DATA 0000000180058258     kernel32:KERNEL32.dll
 0002:00000260       __guard_check_icall_fptr   0000000180058260     LIBCMT:guard_support.obj
 0002:00000268       __guard_xfg_check_icall_fptr 0000000180058268     LIBCMT:guard_support.obj
 0002:00000270       __guard_dispatch_icall_fptr 0000000180058270     LIBCMT:guard_support.obj
 0002:00000278       __guard_xfg_dispatch_icall_fptr 0000000180058278     LIBCMT:guard_support.obj
 0002:00000280       __guard_xfg_table_dispatch_icall_fptr 0000000180058280     LIBCMT:guard_support.obj
 0002:00000288       __xc_a                     0000000180058288     LIBCMT:initializers.obj
 0002:00000308       __xc_z                     0000000180058308     LIBCMT:initializers.obj
 0002:00000310       __xi_a                     0000000180058310     LIBCMT:initializers.obj
 0002:00000318       __acrt_stdio_initializer   0000000180058318     libucrt:stdio_initializer.obj
 0002:00000320       __acrt_multibyte_initializer 0000000180058320     libucrt:multibyte_initializer.obj
 0002:00000328       __acrt_tran_fma3_initializer 0000000180058328     libucrt:fma3_initializer.obj
 0002:00000330       __acrt_fmode_initializer   0000000180058330     libucrt:fmode_initializer.obj
 0002:00000338       __xi_z                     0000000180058338     LIBCMT:initializers.obj
 0002:00000340       __xp_a                     0000000180058340     LIBCMT:initializers.obj
 0002:00000348       __acrt_locale_terminator   0000000180058348     libucrt:locale_initializer.obj
 0002:00000350       __dcrt_console_output_terminator 0000000180058350     libucrt:console_output_initializer.obj
 0002:00000358       __acrt_stdio_terminator    0000000180058358     libucrt:stdio_initializer.obj
 0002:00000360       __xp_z                     0000000180058360     LIBCMT:initializers.obj
 0002:00000368       __xt_a                     0000000180058368     LIBCMT:initializers.obj
 0002:00000370       __xt_z                     0000000180058370     LIBCMT:initializers.obj
 0002:00000380       ??_C@_1BO@PJDMFEGO@?$AAe?$AAx?$AAp?$AAe?$AAc?$AAt?$AAe?$AAd?$AA?5?$AAp?$AAa?$AAr?$AAe?$AAn@ 0000000180058380     trex.c.obj
 0002:000003a0       ??_C@_1CA@GGAJLGCO@?$AAl?$AAe?$AAt?$AAt?$AAe?$AAr?$AA?5?$AAe?$AAx?$AAp?$AAe?$AAc?$AAt?$AAe?$AAd@ 00000001800583a0     trex.c.obj
 0002:000003c0       ??_C@_1BI@GCBNPNPL@?$AAe?$AAm?$AAp?$AAt?$AAy?$AA?5?$AAc?$AAl?$AAa?$AAs?$AAs@ 00000001800583c0     trex.c.obj
 0002:000003d8       ??_C@_1BM@KCNKPMBG@?$AAi?$AAn?$AAv?$AAa?$AAl?$AAi?$AAd?$AA?5?$AAr?$AAa?$AAn?$AAg?$AAe@ 00000001800583d8     trex.c.obj
 0002:00000400       ??_C@_1EO@LCKNDJKB@?$AAc?$AAa?$AAn?$AAn?$AAo?$AAt?$AA?5?$AAu?$AAs?$AAe?$AA?5?$AAc?$AAh?$AAa?$AAr@ 0000000180058400     trex.c.obj
 0002:00000450       ??_C@_1DK@GKBFDGOO@?$AAo?$AAv?$AAe?$AAr?$AAf?$AAl?$AAo?$AAw?$AA?5?$AAi?$AAn?$AA?5?$AAn?$AAu?$AAm@ 0000000180058450     trex.c.obj
 0002:00000490       ??_C@_1CA@KMOJMFNF@?$AAn?$AAu?$AAm?$AAb?$AAe?$AAr?$AA?5?$AAe?$AAx?$AAp?$AAe?$AAc?$AAt?$AAe?$AAd@ 0000000180058490     trex.c.obj
 0002:000004b0       ??_C@_1CA@PPNLGOMI@?$AA?0?$AA?5?$AAo?$AAr?$AA?5?$AA?$HN?$AA?5?$AAe?$AAx?$AAp?$AAe?$AAc?$AAt?$AAe?$AAd@ 00000001800584b0     trex.c.obj
 0002:000004d0       ??_C@_1CK@JDFIPDHM@?$AAu?$AAn?$AAe?$AAx?$AAp?$AAe?$AAc?$AAt?$AAe?$AAd?$AA?5?$AAc?$AAh?$AAa?$AAr@ 00000001800584d0     trex.c.obj
 0002:00000500       __xmm@ffffffffffffffffffffffff00010000 0000000180058500     trex.c.obj
 0002:00000510       __xmm@ffffffffffffffffffffffff00010001 0000000180058510     trex.c.obj
 0002:00000520       __xmm@ffffffffffffffffffffffff00010002 0000000180058520     trex.c.obj
 0002:00000530       __xmm@ffffffffffffffffffffffff00010004 0000000180058530     trex.c.obj
 0002:00000540       __xmm@ffffffffffffffffffffffff00010005 0000000180058540     trex.c.obj
 0002:00000550       __xmm@ffffffffffffffffffffffff00010006 0000000180058550     trex.c.obj
 0002:00000560       __xmm@ffffffffffffffffffffffff00010007 0000000180058560     trex.c.obj
 0002:00000570       __xmm@ffffffffffffffffffffffff00010008 0000000180058570     trex.c.obj
 0002:00000580       __xmm@ffffffffffffffffffffffff00010009 0000000180058580     trex.c.obj
 0002:00000590       __xmm@ffffffffffffffffffffffff0001000b 0000000180058590     trex.c.obj
 0002:000005a0       __xmm@ffffffffffffffffffffffff0001000c 00000001800585a0     trex.c.obj
 0002:000005b8       ??_7exception@std@@6B@     00000001800585b8     libcpmt:xthrow.obj
 0002:000005d0       ??_7bad_alloc@std@@6B@     00000001800585d0     libcpmt:xthrow.obj
 0002:000005e0       ??_C@_0P@GHFPNOJB@bad?5allocation@ 00000001800585e0     libcpmt:xthrow.obj
 0002:000005f8       ??_7logic_error@std@@6B@   00000001800585f8     libcpmt:xthrow.obj
 0002:00000610       ??_7length_error@std@@6B@  0000000180058610     libcpmt:xthrow.obj
 0002:00000628       ??_7out_of_range@std@@6B@  0000000180058628     libcpmt:xthrow.obj
 0002:00000640       ??_7type_info@@6B@         0000000180058640     LIBCMT:std_type_info_static.obj
 0002:00000648       _pRawDllMain               0000000180058648     LIBCMT:dll_dllmain.obj
 0002:00000648       _pDefaultRawDllMain        0000000180058648     LIBCMT:dll_dllmain.obj
 0002:00000658       ??_7bad_array_new_length@std@@6B@ 0000000180058658     LIBCMT:throw_bad_alloc.obj
 0002:00000668       ?s_negLengthTab@FH4@@3QBCB 0000000180058668     libvcruntime:risctrnsctrl.obj
 0002:00000678       ?s_shiftTab@FH4@@3QBEB     0000000180058678     libvcruntime:risctrnsctrl.obj
 0002:00000728       _pDestructExceptionObject  0000000180058728     libvcruntime:ehhelpers.obj
 0002:00000738       ??_7bad_exception@std@@6B@ 0000000180058738     libvcruntime:frame.obj
 0002:00000748       ??_C@_0O@DPKOEFFH@bad?5exception@ 0000000180058748     libvcruntime:frame.obj
 0002:00000e60       ??_C@_08EHJDFFNH@__based?$CI@ 0000000180058e60     libvcruntime:undname.obj
 0002:00000e70       ??_C@_07KOLFKCDI@__cdecl@  0000000180058e70     libvcruntime:undname.obj
 0002:00000e78       ??_C@_08GHMPAG@__pascal@   0000000180058e78     libvcruntime:undname.obj
 0002:00000e88       ??_C@_09IFJBGAPI@__stdcall@ 0000000180058e88     libvcruntime:undname.obj
 0002:00000e98       ??_C@_0L@NPHFGOKO@__thiscall@ 0000000180058e98     libvcruntime:undname.obj
 0002:00000ea8       ??_C@_0L@JMKHOMEK@__fastcall@ 0000000180058ea8     libvcruntime:undname.obj
 0002:00000eb8       ??_C@_0N@BCKKPABJ@__vectorcall@ 0000000180058eb8     libvcruntime:undname.obj
 0002:00000ec8       ??_C@_09HIJEGCPM@__clrcall@ 0000000180058ec8     libvcruntime:undname.obj
 0002:00000ed4       ??_C@_06GHPCKEAG@__eabi@   0000000180058ed4     libvcruntime:undname.obj
 0002:00000ee0       ??_C@_09IOPIDJLG@__swift_1@ 0000000180058ee0     libvcruntime:undname.obj
 0002:00000ef0       ??_C@_09KFNFGKHF@__swift_2@ 0000000180058ef0     libvcruntime:undname.obj
 0002:00000f00       ??_C@_07JOMMBBKO@__ptr64@  0000000180058f00     libvcruntime:undname.obj
 0002:00000f08       ??_C@_0L@PILCLIHE@__restrict@ 0000000180058f08     libvcruntime:undname.obj
 0002:00000f18       ??_C@_0M@GFIIJFMG@__unaligned@ 0000000180058f18     libvcruntime:undname.obj
 0002:00000f28       ??_C@_09DHDLOLLB@restrict?$CI@ 0000000180058f28     libvcruntime:undname.obj
 0002:00000f32       ??_C@_00CNPNBAHC@@         0000000180058f32     libvcruntime:undname.obj
 0002:00000f34       ??_C@_04NIHEBCM@?5new@     0000000180058f34     libvcruntime:undname.obj
 0002:00000f40       ??_C@_07FPCDHGMM@?5delete@ 0000000180058f40     libvcruntime:undname.obj
 0002:00000f48       ??_C@_01NEMOKFLO@?$DN@     0000000180058f48     libvcruntime:undname.obj
 0002:00000f4c       ??_C@_02GPIOPFAK@?$DO?$DO@ 0000000180058f4c     libvcruntime:undname.obj
 0002:00000f50       ??_C@_02FODMEDOG@?$DM?$DM@ 0000000180058f50     libvcruntime:undname.obj
 0002:00000f54       ??_C@_01DCLJPIOD@?$CB@     0000000180058f54     libvcruntime:undname.obj
 0002:00000f58       ??_C@_02EGOFBIJA@?$DN?$DN@ 0000000180058f58     libvcruntime:undname.obj
 0002:00000f5c       ??_C@_02FDNJECIE@?$CB?$DN@ 0000000180058f5c     libvcruntime:undname.obj
 0002:00000f60       ??_C@_02GPECMEKF@?$FL?$FN@ 0000000180058f60     libvcruntime:undname.obj
 0002:00000f68       ??_C@_08LHJFAFGD@operator@ 0000000180058f68     libvcruntime:undname.obj
 0002:00000f74       ??_C@_02HBOOOICD@?9?$DO@   0000000180058f74     libvcruntime:undname.obj
 0002:00000f78       ??_C@_01NBENCBCI@?$CK@     0000000180058f78     libvcruntime:undname.obj
 0002:00000f7c       ??_C@_02ECNGHCIF@?$CL?$CL@ 0000000180058f7c     libvcruntime:undname.obj
 0002:00000f80       ??_C@_02BAABKJLB@?9?9@     0000000180058f80     libvcruntime:undname.obj
 0002:00000f84       ??_C@_01JOAMLHOP@?9@       0000000180058f84     libvcruntime:undname.obj
 0002:00000f88       ??_C@_01MIFGBAGJ@?$CL@     0000000180058f88     libvcruntime:undname.obj
 0002:00000f8c       ??_C@_01HNPIGOCE@?$CG@     0000000180058f8c     libvcruntime:undname.obj
 0002:00000f90       ??_C@_03MNHNFDLC@?9?$DO?$CK@ 0000000180058f90     libvcruntime:undname.obj
 0002:00000f94       ??_C@_01KMDKNFGN@?1@       0000000180058f94     libvcruntime:undname.obj
 0002:00000f98       ??_C@_01FGNFDNOH@?$CF@     0000000180058f98     libvcruntime:undname.obj
 0002:00000f9c       ??_C@_01MNNFJEPP@?$DM@     0000000180058f9c     libvcruntime:undname.obj
 0002:00000fa0       ??_C@_02EHCHHCKH@?$DM?$DN@ 0000000180058fa0     libvcruntime:undname.obj
 0002:00000fa4       ??_C@_01PPODPGHN@?$DO@     0000000180058fa4     libvcruntime:undname.obj
 0002:00000fa8       ??_C@_02EEKDKGMJ@?$DO?$DN@ 0000000180058fa8     libvcruntime:undname.obj
 0002:00000fac       ??_C@_01IHBHIGKO@?0@       0000000180058fac     libvcruntime:undname.obj
 0002:00000fb0       ??_C@_02HCKGKOFO@?$CI?$CJ@ 0000000180058fb0     libvcruntime:undname.obj
 0002:00000fb4       ??_C@_01PJKLJHI@?$HO@      0000000180058fb4     libvcruntime:undname.obj
 0002:00000fb8       ??_C@_01JKBOJNNK@?$FO@     0000000180058fb8     libvcruntime:undname.obj
 0002:00000fbc       ??_C@_01DNKMNLPK@?$HM@     0000000180058fbc     libvcruntime:undname.obj
 0002:00000fc0       ??_C@_02PPKAJPJL@?$CG?$CG@ 0000000180058fc0     libvcruntime:undname.obj
 0002:00000fc4       ??_C@_02NONPIBCD@?$HM?$HM@ 0000000180058fc4     libvcruntime:undname.obj
 0002:00000fc8       ??_C@_02FPIMKNGF@?$CK?$DN@ 0000000180058fc8     libvcruntime:undname.obj
 0002:00000fcc       ??_C@_02FOEOMHFC@?$CL?$DN@ 0000000180058fcc     libvcruntime:undname.obj
 0002:00000fd0       ??_C@_02FKMDLLOA@?9?$DN@   0000000180058fd0     libvcruntime:undname.obj
 0002:00000fd4       ??_C@_02FJEHGPIO@?1?$DN@   0000000180058fd4     libvcruntime:undname.obj
 0002:00000fd8       ??_C@_02FENAOKFI@?$CF?$DN@ 0000000180058fd8     libvcruntime:undname.obj
 0002:00000fdc       ??_C@_03IKFCCPFF@?$DO?$DO?$DN@ 0000000180058fdc     libvcruntime:undname.obj
 0002:00000fe0       ??_C@_03CDNPDDLA@?$DM?$DM?$DN@ 0000000180058fe0     libvcruntime:undname.obj
 0002:00000fe4       ??_C@_02FGJGFEAB@?$CG?$DN@ 0000000180058fe4     libvcruntime:undname.obj
 0002:00000fe8       ??_C@_02DHLNPPGH@?$HM?$DN@ 0000000180058fe8     libvcruntime:undname.obj
 0002:00000fec       ??_C@_02MHEGNOJ@?$FO?$DN@  0000000180058fec     libvcruntime:undname.obj
 0002:00000ff0       ??_C@_09IFPLHPGF@?$GAvftable?8@ 0000000180058ff0     libvcruntime:undname.obj
 0002:00001000       ??_C@_09BLBHBJP@?$GAvbtable?8@ 0000000180059000     libvcruntime:undname.obj
 0002:00001010       ??_C@_07FEEIOKP@?$GAvcall?8@ 0000000180059010     libvcruntime:undname.obj
 0002:00001018       ??_C@_08LLFFHHDJ@?$GAtypeof?8@ 0000000180059018     libvcruntime:undname.obj
 0002:00001028       ??_C@_0BF@KDPPACIK@?$GAlocal?5static?5guard?8@ 0000000180059028     libvcruntime:undname.obj
 0002:00001040       ??_C@_08OBABFOLI@?$GAstring?8@ 0000000180059040     libvcruntime:undname.obj
 0002:00001050       ??_C@_0BD@JDLKDPAB@?$GAvbase?5destructor?8@ 0000000180059050     libvcruntime:undname.obj
 0002:00001068       ??_C@_0BN@DEGPLNFK@?$GAvector?5deleting?5destructor?8@ 0000000180059068     libvcruntime:undname.obj
 0002:00001088       ??_C@_0BO@OBMKPJIG@?$GAdefault?5constructor?5closure?8@ 0000000180059088     libvcruntime:undname.obj
 0002:000010a8       ??_C@_0BN@IMDCHIKM@?$GAscalar?5deleting?5destructor?8@ 00000001800590a8     libvcruntime:undname.obj
 0002:000010c8       ??_C@_0BO@PFGOCPJJ@?$GAvector?5constructor?5iterator?8@ 00000001800590c8     libvcruntime:undname.obj
 0002:000010e8       ??_C@_0BN@LFPFMEDL@?$GAvector?5destructor?5iterator?8@ 00000001800590e8     libvcruntime:undname.obj
 0002:00001108       ??_C@_0CE@IKBNEHA@?$GAvector?5vbase?5constructor?5itera@ 0000000180059108     libvcruntime:undname.obj
 0002:00001130       ??_C@_0BL@NILFHHPC@?$GAvirtual?5displacement?5map?8@ 0000000180059130     libvcruntime:undname.obj
 0002:00001150       ??_C@_0CB@JONCMFFK@?$GAeh?5vector?5constructor?5iterator@ 0000000180059150     libvcruntime:undname.obj
 0002:00001178       ??_C@_0CA@GCEOPDGL@?$GAeh?5vector?5destructor?5iterator?8@ 0000000180059178     libvcruntime:undname.obj
 0002:00001198       ??_C@_0CH@OOJPLCPH@?$GAeh?5vector?5vbase?5constructor?5it@ 0000000180059198     libvcruntime:undname.obj
 0002:000011c0       ??_C@_0BL@LLKPOHJI@?$GAcopy?5constructor?5closure?8@ 00000001800591c0     libvcruntime:undname.obj
 0002:000011e0       ??_C@_0BA@KBCDOMBN@?$GAudt?5returning?8@ 00000001800591e0     libvcruntime:undname.obj
 0002:000011f0       ??_C@_03KLGMFNMG@?$GAEH@   00000001800591f0     libvcruntime:undname.obj
 0002:000011f4       ??_C@_05KHLCHHI@?$GARTTI@  00000001800591f4     libvcruntime:undname.obj
 0002:00001200       ??_C@_0BA@KKLDJDLB@?$GAlocal?5vftable?8@ 0000000180059200     libvcruntime:undname.obj
 0002:00001210       ??_C@_0CE@IIHCMGGL@?$GAlocal?5vftable?5constructor?5clos@ 0000000180059210     libvcruntime:undname.obj
 0002:00001234       ??_C@_06FHBGPFGH@?5new?$FL?$FN@ 0000000180059234     libvcruntime:undname.obj
 0002:00001240       ??_C@_09LBNFPBCA@?5delete?$FL?$FN@ 0000000180059240     libvcruntime:undname.obj
 0002:00001250       ??_C@_0P@HJKNJFNN@?$GAomni?5callsig?8@ 0000000180059250     libvcruntime:undname.obj
 0002:00001260       ??_C@_0BL@CNOONJFP@?$GAplacement?5delete?5closure?8@ 0000000180059260     libvcruntime:undname.obj
 0002:00001280       ??_C@_0BN@CKNJLHMB@?$GAplacement?5delete?$FL?$FN?5closure?8@ 0000000180059280     libvcruntime:undname.obj
 0002:000012a0       ??_C@_0CG@CFDHKGGD@?$GAmanaged?5vector?5constructor?5ite@ 00000001800592a0     libvcruntime:undname.obj
 0002:000012c8       ??_C@_0CF@IMGKMJNO@?$GAmanaged?5vector?5destructor?5iter@ 00000001800592c8     libvcruntime:undname.obj
 0002:000012f0       ??_C@_0CG@HLDDJMAG@?$GAeh?5vector?5copy?5constructor?5ite@ 00000001800592f0     libvcruntime:undname.obj
 0002:00001318       ??_C@_0CM@FCBBDIGB@?$GAeh?5vector?5vbase?5copy?5construct@ 0000000180059318     libvcruntime:undname.obj
 0002:00001348       ??_C@_0BL@CLIPGLGB@?$GAdynamic?5initializer?5for?5?8@ 0000000180059348     libvcruntime:undname.obj
 0002:00001368       ??_C@_0CB@PDBIFEP@?$GAdynamic?5atexit?5destructor?5for?5@ 0000000180059368     libvcruntime:undname.obj
 0002:00001390       ??_C@_0CD@CGAJBKEJ@?$GAvector?5copy?5constructor?5iterat@ 0000000180059390     libvcruntime:undname.obj
 0002:000013b8       ??_C@_0CJ@GJELGAMM@?$GAvector?5vbase?5copy?5constructor?5@ 00000001800593b8     libvcruntime:undname.obj
 0002:000013e8       ??_C@_0CL@FGIJHLCE@?$GAmanaged?5vector?5copy?5constructo@ 00000001800593e8     libvcruntime:undname.obj
 0002:00001418       ??_C@_0BM@PMGGMLDN@?$GAlocal?5static?5thread?5guard?8@ 0000000180059418     libvcruntime:undname.obj
 0002:00001438       ??_C@_0N@BDNMDMOL@operator?5?$CC?$CC?5@ 0000000180059438     libvcruntime:undname.obj
 0002:00001448       ??_C@_0BC@GGEBGALA@operator?5co_await@ 0000000180059448     libvcruntime:undname.obj
 0002:00001460       ??_C@_0M@GAAIMMOH@operator?$DM?$DN?$DO@ 0000000180059460     libvcruntime:undname.obj
 0002:00001470       ??_C@_0BC@DAFEJGAK@?5Type?5Descriptor?8@ 0000000180059470     libvcruntime:undname.obj
 0002:00001488       ??_C@_0BM@LDKODKLH@?5Base?5Class?5Descriptor?5at?5?$CI@ 0000000180059488     libvcruntime:undname.obj
 0002:000014a8       ??_C@_0BD@LGICGFMM@?5Base?5Class?5Array?8@ 00000001800594a8     libvcruntime:undname.obj
 0002:000014c0       ??_C@_0BN@MECKDCOJ@?5Class?5Hierarchy?5Descriptor?8@ 00000001800594c0     libvcruntime:undname.obj
 0002:000014e0       ??_C@_0BK@CFCOFLF@?5Complete?5Object?5Locator?8@ 00000001800594e0     libvcruntime:undname.obj
 0002:00001500       ??_C@_0BG@JNJLAMPM@?$GAanonymous?5namespace?8@ 0000000180059500     libvcruntime:undname.obj
 0002:00001530       ??_C@_1DM@KHCHBNEB@?$AAa?$AAp?$AAi?$AA?9?$AAm?$AAs?$AA?9?$AAw?$AAi?$AAn?$AA?9?$AAc?$AAo?$AAr?$AAe@ 0000000180059530     libvcruntime:winapi_downlevel.obj
 0002:00001570       ??_C@_1DK@LPPGFMPP@?$AAa?$AAp?$AAi?$AA?9?$AAm?$AAs?$AA?9?$AAw?$AAi?$AAn?$AA?9?$AAc?$AAo?$AAr?$AAe@ 0000000180059570     libvcruntime:winapi_downlevel.obj
 0002:000015b0       ??_C@_1BC@GDMECMAK@?$AAk?$AAe?$AAr?$AAn?$AAe?$AAl?$AA3?$AA2@ 00000001800595b0     libvcruntime:winapi_downlevel.obj
 0002:000015c8       ??_C@_1BA@PFFKHIOG@?$AAa?$AAp?$AAi?$AA?9?$AAm?$AAs?$AA?9@ 00000001800595c8     libvcruntime:winapi_downlevel.obj
 0002:000015e0       ??_C@_08KNHFBNJ@FlsAlloc@  00000001800595e0     libvcruntime:winapi_downlevel.obj
 0002:000015f8       ??_C@_07PEJMOBNF@FlsFree@  00000001800595f8     libvcruntime:winapi_downlevel.obj
 0002:00001608       ??_C@_0M@GDNOONDI@FlsGetValue@ 0000000180059608     libvcruntime:winapi_downlevel.obj
 0002:00001620       ??_C@_0M@JCPCPOEF@FlsSetValue@ 0000000180059620     libvcruntime:winapi_downlevel.obj
 0002:00001638       ??_C@_0BM@HCFOFFN@InitializeCriticalSectionEx@ 0000000180059638     libvcruntime:winapi_downlevel.obj
 0002:00001660       ?standard_lookup_table_spectre@__crt_stdio_output@@3V?$spectre_mitigated_lookup_table@Ustate_transition_pair@__crt_stdio_output@@$0IA@@1@B 0000000180059660     libucrt:output.obj
 0002:00001a60       ??_C@_1O@CEDCILHN@?$AA?$CI?$AAn?$AAu?$AAl?$AAl?$AA?$CJ@ 0000000180059a60     libucrt:output.obj
 0002:00001a70       ??_C@_06OJHGLDPL@?$CInull?$CJ@ 0000000180059a70     libucrt:output.obj
 0002:00001a80       __acrt_exception_action_table 0000000180059a80     libucrt:exception_filter.obj
 0002:00001b40       __acrt_signal_action_table_count 0000000180059b40     libucrt:exception_filter.obj
 0002:00001b48       __acrt_signal_action_first_fpe_index 0000000180059b48     libucrt:exception_filter.obj
 0002:00001b50       __acrt_signal_action_fpe_count 0000000180059b50     libucrt:exception_filter.obj
 0002:00001b58       ??_C@_1BI@BGOHAHKC@?$AAm?$AAs?$AAc?$AAo?$AAr?$AAe?$AAe?$AA?4?$AAd?$AAl?$AAl@ 0000000180059b58     libucrt:exit.obj
 0002:00001b70       ??_C@_0P@MIGLKIOC@CorExitProcess@ 0000000180059b70     libucrt:exit.obj
 0002:00001e90       ??_C@_1EA@JGEFHKEI@?$AAa?$AAp?$AAi?$AA?9?$AAm?$AAs?$AA?9?$AAw?$AAi?$AAn?$AA?9?$AAc?$AAo?$AAr?$AAe@ 0000000180059e90     libucrt:winapi_thunks.obj
 0002:00001ed0       ??_C@_1DI@IJCEHOCB@?$AAa?$AAp?$AAi?$AA?9?$AAm?$AAs?$AA?9?$AAw?$AAi?$AAn?$AA?9?$AAc?$AAo?$AAr?$AAe@ 0000000180059ed0     libucrt:winapi_thunks.obj
 0002:00001f10       ??_C@_1EI@MPIAOHOC@?$AAa?$AAp?$AAi?$AA?9?$AAm?$AAs?$AA?9?$AAw?$AAi?$AAn?$AA?9?$AAc?$AAo?$AAr?$AAe@ 0000000180059f10     libucrt:winapi_thunks.obj
 0002:00001f60       ??_C@_1FK@FPHCKFIE@?$AAa?$AAp?$AAi?$AA?9?$AAm?$AAs?$AA?9?$AAw?$AAi?$AAn?$AA?9?$AAc?$AAo?$AAr?$AAe@ 0000000180059f60     libucrt:winapi_thunks.obj
 0002:00001fc0       ??_C@_1EM@DILCGIIO@?$AAa?$AAp?$AAi?$AA?9?$AAm?$AAs?$AA?9?$AAw?$AAi?$AAn?$AA?9?$AAc?$AAo?$AAr?$AAe@ 0000000180059fc0     libucrt:winapi_thunks.obj
 0002:00002010       ??_C@_1DM@LNCGDDPN@?$AAa?$AAp?$AAi?$AA?9?$AAm?$AAs?$AA?9?$AAw?$AAi?$AAn?$AA?9?$AAc?$AAo?$AAr?$AAe@ 000000018005a010     libucrt:winapi_thunks.obj
 0002:00002050       ??_C@_1DO@FPAPJEMD@?$AAa?$AAp?$AAi?$AA?9?$AAm?$AAs?$AA?9?$AAw?$AAi?$AAn?$AA?9?$AAc?$AAo?$AAr?$AAe@ 000000018005a050     libucrt:winapi_thunks.obj
 0002:00002090       ??_C@_1DK@NDHNAHIO@?$AAa?$AAp?$AAi?$AA?9?$AAm?$AAs?$AA?9?$AAw?$AAi?$AAn?$AA?9?$AAc?$AAo?$AAr?$AAe@ 000000018005a090     libucrt:winapi_thunks.obj
 0002:000020d0       ??_C@_1DM@KGHDGBCM@?$AAa?$AAp?$AAi?$AA?9?$AAm?$AAs?$AA?9?$AAw?$AAi?$AAn?$AA?9?$AAc?$AAo?$AAr?$AAe@ 000000018005a0d0     libucrt:winapi_thunks.obj
 0002:00002110       ??_C@_1EO@IJIOEFOH@?$AAa?$AAp?$AAi?$AA?9?$AAm?$AAs?$AA?9?$AAw?$AAi?$AAn?$AA?9?$AAr?$AAt?$AAc?$AAo@ 000000018005a110     libucrt:winapi_thunks.obj
 0002:00002160       ??_C@_1FG@HHGEKANL@?$AAa?$AAp?$AAi?$AA?9?$AAm?$AAs?$AA?9?$AAw?$AAi?$AAn?$AA?9?$AAs?$AAe?$AAc?$AAu@ 000000018005a160     libucrt:winapi_thunks.obj
 0002:000021c0       ??_C@_1EG@DBIOJECG@?$AAe?$AAx?$AAt?$AA?9?$AAm?$AAs?$AA?9?$AAw?$AAi?$AAn?$AA?9?$AAn?$AAt?$AAu?$AAs@ 000000018005a1c0     libucrt:winapi_thunks.obj
 0002:00002210       ??_C@_1EO@FIHMJCLF@?$AAe?$AAx?$AAt?$AA?9?$AAm?$AAs?$AA?9?$AAw?$AAi?$AAn?$AA?9?$AAn?$AAt?$AAu?$AAs@ 000000018005a210     libucrt:winapi_thunks.obj
 0002:00002260       ??_C@_1BC@DNHGCMLG@?$AAa?$AAd?$AAv?$AAa?$AAp?$AAi?$AA3?$AA2@ 000000018005a260     libucrt:winapi_thunks.obj
 0002:00002278       ??_C@_1M@OAIMIKLP@?$AAn?$AAt?$AAd?$AAl?$AAl@ 000000018005a278     libucrt:winapi_thunks.obj
 0002:00002290       ??_C@_1EG@DPGNFKGC@?$AAa?$AAp?$AAi?$AA?9?$AAm?$AAs?$AA?9?$AAw?$AAi?$AAn?$AA?9?$AAa?$AAp?$AAp?$AAm@ 000000018005a290     libucrt:winapi_thunks.obj
 0002:000022d8       ??_C@_1O@BCCLBEOE@?$AAu?$AAs?$AAe?$AAr?$AA3?$AA2@ 000000018005a2d8     libucrt:winapi_thunks.obj
 0002:000022e8       ??_C@_1BA@IAIFMGEF@?$AAe?$AAx?$AAt?$AA?9?$AAm?$AAs?$AA?9@ 000000018005a2e8     libucrt:winapi_thunks.obj
 0002:00002300       ??_C@_0BA@FHFNEAED@AreFileApisANSI@ 000000018005a300     libucrt:winapi_thunks.obj
 0002:00002340       ??_C@_0O@KKBNKAPF@LCMapStringEx@ 000000018005a340     libucrt:winapi_thunks.obj
 0002:00002358       ??_C@_0BB@HBDEELFH@LocaleNameToLCID@ 000000018005a358     libucrt:winapi_thunks.obj
 0002:00002370       ??_C@_0CF@OJOFEIGO@AppPolicyGetProcessTerminationM@ 000000018005a370     libucrt:winapi_thunks.obj
 0002:000023a0       __newctype                 000000018005a3a0     libucrt:ctype.obj
 0002:000026a0       __newclmap                 000000018005a6a0     libucrt:ctype.obj
 0002:00002820       __newcumap                 000000018005a820     libucrt:ctype.obj
 0002:000029a0       _wctype                    000000018005a9a0     libucrt:ctype.obj
 0002:00002bb0       __lc_time_c                000000018005abb0     libucrt:nlsdata.obj
 0002:00002e70       ??_C@_03KOEHGMDN@Sun@      000000018005ae70     libucrt:nlsdata.obj
 0002:00002e74       ??_C@_03PDAGKDH@Mon@       000000018005ae74     libucrt:nlsdata.obj
 0002:00002e78       ??_C@_03NAGEINEP@Tue@      000000018005ae78     libucrt:nlsdata.obj
 0002:00002e7c       ??_C@_03MHOMLAJA@Wed@      000000018005ae7c     libucrt:nlsdata.obj
 0002:00002e80       ??_C@_03IOFIKPDN@Thu@      000000018005ae80     libucrt:nlsdata.obj
 0002:00002e84       ??_C@_03IDIOELNC@Fri@      000000018005ae84     libucrt:nlsdata.obj
 0002:00002e88       ??_C@_03FEFJNEK@Sat@       000000018005ae88     libucrt:nlsdata.obj
 0002:00002e8c       ??_C@_06OOPIFAJ@Sunday@    000000018005ae8c     libucrt:nlsdata.obj
 0002:00002e94       ??_C@_06JLEDEDGH@Monday@   000000018005ae94     libucrt:nlsdata.obj
 0002:00002ea0       ??_C@_07BAAGCFCM@Tuesday@  000000018005aea0     libucrt:nlsdata.obj
 0002:00002ea8       ??_C@_09DLIGFAKA@Wednesday@ 000000018005aea8     libucrt:nlsdata.obj
 0002:00002eb8       ??_C@_08HACCIKIA@Thursday@ 000000018005aeb8     libucrt:nlsdata.obj
 0002:00002ec4       ??_C@_06JECMNKMI@Friday@   000000018005aec4     libucrt:nlsdata.obj
 0002:00002ed0       ??_C@_08INBOOONO@Saturday@ 000000018005aed0     libucrt:nlsdata.obj
 0002:00002edc       ??_C@_03JIHJHPIE@Jan@      000000018005aedc     libucrt:nlsdata.obj
 0002:00002ee0       ??_C@_03HJBDCHOM@Feb@      000000018005aee0     libucrt:nlsdata.obj
 0002:00002ee4       ??_C@_03ODNJBKGA@Mar@      000000018005aee4     libucrt:nlsdata.obj
 0002:00002ee8       ??_C@_03LEOLGMJP@Apr@      000000018005aee8     libucrt:nlsdata.obj
 0002:00002eec       ??_C@_03CNMDKL@May@        000000018005aeec     libucrt:nlsdata.obj
 0002:00002ef0       ??_C@_03IDFGHECI@Jun@      000000018005aef0     libucrt:nlsdata.obj
 0002:00002ef4       ??_C@_03LBGABGKK@Jul@      000000018005aef4     libucrt:nlsdata.obj
 0002:00002ef8       ??_C@_03IFJFEIGA@Aug@      000000018005aef8     libucrt:nlsdata.obj
 0002:00002efc       ??_C@_03GGCAPAJC@Sep@      000000018005aefc     libucrt:nlsdata.obj
 0002:00002f00       ??_C@_03BMAOKBAD@Oct@      000000018005af00     libucrt:nlsdata.obj
 0002:00002f04       ??_C@_03JPJOFNIA@Nov@      000000018005af04     libucrt:nlsdata.obj
 0002:00002f08       ??_C@_03MKABNOCG@Dec@      000000018005af08     libucrt:nlsdata.obj
 0002:00002f10       ??_C@_07CGJPFGJA@January@  000000018005af10     libucrt:nlsdata.obj
 0002:00002f18       ??_C@_08GNJGEPFN@February@ 000000018005af18     libucrt:nlsdata.obj
 0002:00002f24       ??_C@_05HPCKOFNC@March@    000000018005af24     libucrt:nlsdata.obj
 0002:00002f2c       ??_C@_05DMJDNLEJ@April@    000000018005af2c     libucrt:nlsdata.obj
 0002:00002f34       ??_C@_04CNLMGBGM@June@     000000018005af34     libucrt:nlsdata.obj
 0002:00002f3c       ??_C@_04MIEPOIFP@July@     000000018005af3c     libucrt:nlsdata.obj
 0002:00002f44       ??_C@_06LBBHFDDG@August@   000000018005af44     libucrt:nlsdata.obj
 0002:00002f50       ??_C@_09BHHEALKD@September@ 000000018005af50     libucrt:nlsdata.obj
 0002:00002f60       ??_C@_07JJNFCEND@October@  000000018005af60     libucrt:nlsdata.obj
 0002:00002f68       ??_C@_08HCHEGEOA@November@ 000000018005af68     libucrt:nlsdata.obj
 0002:00002f78       ??_C@_08EDHMEBNP@December@ 000000018005af78     libucrt:nlsdata.obj
 0002:00002f84       ??_C@_02DEDBPAFC@AM@       000000018005af84     libucrt:nlsdata.obj
 0002:00002f88       ??_C@_02CJNFDJBF@PM@       000000018005af88     libucrt:nlsdata.obj
 0002:00002f90       ??_C@_08BPBNCDIB@MM?1dd?1yy@ 000000018005af90     libucrt:nlsdata.obj
 0002:00002fa0       ??_C@_0BE@CKGJFCPC@dddd?0?5MMMM?5dd?0?5yyyy@ 000000018005afa0     libucrt:nlsdata.obj
 0002:00002fb8       ??_C@_08JCCMCCIL@HH?3mm?3ss@ 000000018005afb8     libucrt:nlsdata.obj
 0002:00002fc8       ??_C@_17MBGCMIPB@?$AAS?$AAu?$AAn@ 000000018005afc8     libucrt:nlsdata.obj
 0002:00002fd0       ??_C@_17KBOMKBF@?$AAM?$AAo?$AAn@ 000000018005afd0     libucrt:nlsdata.obj
 0002:00002fd8       ??_C@_17BMKGEGOJ@?$AAT?$AAu?$AAe@ 000000018005afd8     libucrt:nlsdata.obj
 0002:00002fe0       ??_C@_17CJEDCEPE@?$AAW?$AAe?$AAd@ 000000018005afe0     libucrt:nlsdata.obj
 0002:00002fe8       ??_C@_17PDPHAADD@?$AAT?$AAh?$AAu@ 000000018005afe8     libucrt:nlsdata.obj
 0002:00002ff0       ??_C@_17HFOLPPLP@?$AAF?$AAr?$AAi@ 000000018005aff0     libucrt:nlsdata.obj
 0002:00002ff8       ??_C@_17GGIBDPIH@?$AAS?$AAa?$AAt@ 000000018005aff8     libucrt:nlsdata.obj
 0002:00003000       ??_C@_1O@IHNHDHPB@?$AAS?$AAu?$AAn?$AAd?$AAa?$AAy@ 000000018005b000     libucrt:nlsdata.obj
 0002:00003010       ??_C@_1O@MMNBFLIA@?$AAM?$AAo?$AAn?$AAd?$AAa?$AAy@ 000000018005b010     libucrt:nlsdata.obj
 0002:00003020       ??_C@_1BA@ENFBFFEK@?$AAT?$AAu?$AAe?$AAs?$AAd?$AAa?$AAy@ 000000018005b020     libucrt:nlsdata.obj
 0002:00003030       ??_C@_1BE@EBOGMDOH@?$AAW?$AAe?$AAd?$AAn?$AAe?$AAs?$AAd?$AAa?$AAy@ 000000018005b030     libucrt:nlsdata.obj
 0002:00003048       ??_C@_1BC@HHMNLIHE@?$AAT?$AAh?$AAu?$AAr?$AAs?$AAd?$AAa?$AAy@ 000000018005b048     libucrt:nlsdata.obj
 0002:00003060       ??_C@_1O@PDICJHAG@?$AAF?$AAr?$AAi?$AAd?$AAa?$AAy@ 000000018005b060     libucrt:nlsdata.obj
 0002:00003070       ??_C@_1BC@ENMNNPAJ@?$AAS?$AAa?$AAt?$AAu?$AAr?$AAd?$AAa?$AAy@ 000000018005b070     libucrt:nlsdata.obj
 0002:00003088       ??_C@_17DKNBKCHM@?$AAJ?$AAa?$AAn@ 000000018005b088     libucrt:nlsdata.obj
 0002:00003090       ??_C@_17LMDJEKJN@?$AAF?$AAe?$AAb@ 000000018005b090     libucrt:nlsdata.obj
 0002:00003098       ??_C@_17CKNLEDEC@?$AAM?$AAa?$AAr@ 000000018005b098     libucrt:nlsdata.obj
 0002:000030a0       ??_C@_17LFPOIHDD@?$AAA?$AAp?$AAr@ 000000018005b0a0     libucrt:nlsdata.obj
 0002:000030a8       ??_C@_17PNNKMEED@?$AAM?$AAa?$AAy@ 000000018005b0a8     libucrt:nlsdata.obj
 0002:000030b0       ??_C@_17KCJGOCPB@?$AAJ?$AAu?$AAn@ 000000018005b0b0     libucrt:nlsdata.obj
 0002:000030b8       ??_C@_17IJPCKHK@?$AAJ?$AAu?$AAl@ 000000018005b0b8     libucrt:nlsdata.obj
 0002:000030c0       ??_C@_17ICPELBCN@?$AAA?$AAu?$AAg@ 000000018005b0c0     libucrt:nlsdata.obj
 0002:000030c8       ??_C@_17HCHCOKMG@?$AAS?$AAe?$AAp@ 000000018005b0c8     libucrt:nlsdata.obj
 0002:000030d0       ??_C@_17FNLKOI@?$AAO?$AAc?$AAt@ 000000018005b0d0     libucrt:nlsdata.obj
 0002:000030d8       ??_C@_17BBDMLCIG@?$AAN?$AAo?$AAv@ 000000018005b0d8     libucrt:nlsdata.obj
 0002:000030e0       ??_C@_17EGKACKIF@?$AAD?$AAe?$AAc@ 000000018005b0e0     libucrt:nlsdata.obj
 0002:000030e8       ??_C@_1BA@EFMEIEBA@?$AAJ?$AAa?$AAn?$AAu?$AAa?$AAr?$AAy@ 000000018005b0e8     libucrt:nlsdata.obj
 0002:000030f8       ??_C@_1BC@JGDDFFAM@?$AAF?$AAe?$AAb?$AAr?$AAu?$AAa?$AAr?$AAy@ 000000018005b0f8     libucrt:nlsdata.obj
 0002:00003110       ??_C@_1M@IKEENEDF@?$AAM?$AAa?$AAr?$AAc?$AAh@ 000000018005b110     libucrt:nlsdata.obj
 0002:00003120       ??_C@_1M@GJNLMHFD@?$AAA?$AAp?$AAr?$AAi?$AAl@ 000000018005b120     libucrt:nlsdata.obj
 0002:00003130       ??_C@_19EPFLPGAP@?$AAJ?$AAu?$AAn?$AAe@ 000000018005b130     libucrt:nlsdata.obj
 0002:00003140       ??_C@_19BIFMLPCD@?$AAJ?$AAu?$AAl?$AAy@ 000000018005b140     libucrt:nlsdata.obj
 0002:00003150       ??_C@_1O@PAHLKOAC@?$AAA?$AAu?$AAg?$AAu?$AAs?$AAt@ 000000018005b150     libucrt:nlsdata.obj
 0002:00003160       ??_C@_1BE@DKAAMBJL@?$AAS?$AAe?$AAp?$AAt?$AAe?$AAm?$AAb?$AAe?$AAr@ 000000018005b160     libucrt:nlsdata.obj
 0002:00003178       ??_C@_1BA@EPANDLNG@?$AAO?$AAc?$AAt?$AAo?$AAb?$AAe?$AAr@ 000000018005b178     libucrt:nlsdata.obj
 0002:00003188       ??_C@_1BC@BGLIFPF@?$AAN?$AAo?$AAv?$AAe?$AAm?$AAb?$AAe?$AAr@ 000000018005b188     libucrt:nlsdata.obj
 0002:000031a0       ??_C@_1BC@FEMKIFH@?$AAD?$AAe?$AAc?$AAe?$AAm?$AAb?$AAe?$AAr@ 000000018005b1a0     libucrt:nlsdata.obj
 0002:000031b4       ??_C@_15ODEHAHHF@?$AAA?$AAM@ 000000018005b1b4     libucrt:nlsdata.obj
 0002:000031bc       ??_C@_15CLMNNGEL@?$AAP?$AAM@ 000000018005b1bc     libucrt:nlsdata.obj
 0002:000031c8       ??_C@_1BC@IEBCMHCM@?$AAM?$AAM?$AA?1?$AAd?$AAd?$AA?1?$AAy?$AAy@ 000000018005b1c8     libucrt:nlsdata.obj
 0002:000031e0       ??_C@_1CI@KNAKOEBC@?$AAd?$AAd?$AAd?$AAd?$AA?0?$AA?5?$AAM?$AAM?$AAM?$AAM?$AA?5?$AAd?$AAd?$AA?0?$AA?5@ 000000018005b1e0     libucrt:nlsdata.obj
 0002:00003208       ??_C@_1BC@GDGBMEMK@?$AAH?$AAH?$AA?3?$AAm?$AAm?$AA?3?$AAs?$AAs@ 000000018005b208     libucrt:nlsdata.obj
 0002:00003220       ??_C@_1M@BMHNFIME@?$AAe?$AAn?$AA?9?$AAU?$AAS@ 000000018005b220     libucrt:nlsdata.obj
 0002:000032b0       ??_C@_03OEIAHPBN@INF@      000000018005b2b0     libucrt:cvt.obj
 0002:000032b4       ??_C@_03OJHLLCGB@inf@      000000018005b2b4     libucrt:cvt.obj
 0002:000032b8       ??_C@_03LKNCIKJB@NAN@      000000018005b2b8     libucrt:cvt.obj
 0002:000032bc       ??_C@_03LHCJEHON@nan@      000000018005b2bc     libucrt:cvt.obj
 0002:000032c0       ??_C@_09OFJJIMPC@NAN?$CISNAN?$CJ@ 000000018005b2c0     libucrt:cvt.obj
 0002:000032d0       ??_C@_09IPFBKMDL@nan?$CIsnan?$CJ@ 000000018005b2d0     libucrt:cvt.obj
 0002:000032e0       ??_C@_08IKHNHAJ@NAN?$CIIND?$CJ@ 000000018005b2e0     libucrt:cvt.obj
 0002:000032f0       ??_C@_08OFCDMILK@nan?$CIind?$CJ@ 000000018005b2f0     libucrt:cvt.obj
 0002:000032fc       ??_C@_05KLBDPFGC@e?$CL000@ 000000018005b2fc     libucrt:cvt.obj
 0002:00003304       ?ccs@?1???$__acrt_stdio_parse_mode@_W@@YA?AU__acrt_stdio_stream_mode@@QEB_W@Z@4QB_WB 000000018005b304     libucrt:openfile.obj
 0002:00003310       ?utf8_encoding@?1???$__acrt_stdio_parse_mode@_W@@YA?AU__acrt_stdio_stream_mode@@QEB_W@Z@4QB_WB 000000018005b310     libucrt:openfile.obj
 0002:00003320       ?utf16_encoding@?1???$__acrt_stdio_parse_mode@_W@@YA?AU__acrt_stdio_stream_mode@@QEB_W@Z@4QB_WB 000000018005b320     libucrt:openfile.obj
 0002:00003330       ?unicode_encoding@?1???$__acrt_stdio_parse_mode@_W@@YA?AU__acrt_stdio_stream_mode@@QEB_W@Z@4QB_WB 000000018005b330     libucrt:openfile.obj
 0002:00003360       ??_C@_1M@HPNHIDJI@?$AAj?$AAa?$AA?9?$AAJ?$AAP@ 000000018005b360     libucrt:mbctype.obj
 0002:00003370       ??_C@_1M@BIBDDEMK@?$AAz?$AAh?$AA?9?$AAC?$AAN@ 000000018005b370     libucrt:mbctype.obj
 0002:00003380       ??_C@_1M@JLOOOEGK@?$AAk?$AAo?$AA?9?$AAK?$AAR@ 000000018005b380     libucrt:mbctype.obj
 0002:00003390       ??_C@_1M@CLNBBOPM@?$AAz?$AAh?$AA?9?$AAT?$AAW@ 000000018005b390     libucrt:mbctype.obj
 0002:000041e0       ??_C@_15EMKDOKLE@?$AAa?$AAr@ 000000018005c1e0     libucrt:lcidtoname_downlevel.obj
 0002:000041e8       ??_C@_15KNPADPLH@?$AAb?$AAg@ 000000018005c1e8     libucrt:lcidtoname_downlevel.obj
 0002:000041f0       ??_C@_15EDMHLDMO@?$AAc?$AAa@ 000000018005c1f0     libucrt:lcidtoname_downlevel.obj
 0002:000041f8       ??_C@_1O@BPEAJADD@?$AAz?$AAh?$AA?9?$AAC?$AAH?$AAS@ 000000018005c1f8     libucrt:lcidtoname_downlevel.obj
 0002:00004208       ??_C@_15LJNHCMNK@?$AAc?$AAs@ 000000018005c208     libucrt:lcidtoname_downlevel.obj
 0002:00004210       ??_C@_15FOMCIDHG@?$AAd?$AAa@ 000000018005c210     libucrt:lcidtoname_downlevel.obj
 0002:00004218       ??_C@_15NBKABECB@?$AAd?$AAe@ 000000018005c218     libucrt:lcidtoname_downlevel.obj
 0002:00004220       ??_C@_15GHPEIIAO@?$AAe?$AAl@ 000000018005c220     libucrt:lcidtoname_downlevel.obj
 0002:00004228       ??_C@_15MNPNEAIF@?$AAe?$AAn@ 000000018005c228     libucrt:lcidtoname_downlevel.obj
 0002:00004230       ??_C@_15GPIOMPMH@?$AAe?$AAs@ 000000018005c230     libucrt:lcidtoname_downlevel.obj
 0002:00004238       ??_C@_15NGLOAKJC@?$AAf?$AAi@ 000000018005c238     libucrt:lcidtoname_downlevel.obj
 0002:00004240       ??_C@_15FBKGNKAM@?$AAf?$AAr@ 000000018005c240     libucrt:lcidtoname_downlevel.obj
 0002:00004248       ??_C@_15KGGCNEFK@?$AAh?$AAe@ 000000018005c248     libucrt:lcidtoname_downlevel.obj
 0002:00004250       ??_C@_15PGHLIDMF@?$AAh?$AAu@ 000000018005c250     libucrt:lcidtoname_downlevel.obj
 0002:00004258       ??_C@_15BIEMAPLM@?$AAi?$AAs@ 000000018005c258     libucrt:lcidtoname_downlevel.obj
 0002:00004260       ??_C@_15IFJLDHAF@?$AAi?$AAt@ 000000018005c260     libucrt:lcidtoname_downlevel.obj
 0002:00004268       ??_C@_15GEMIOCAG@?$AAj?$AAa@ 000000018005c268     libucrt:lcidtoname_downlevel.obj
 0002:00004270       ??_C@_15EPELEGJA@?$AAk?$AAo@ 000000018005c270     libucrt:lcidtoname_downlevel.obj
 0002:00004278       ??_C@_15NDDHIMN@?$AAn?$AAl@ 000000018005c278     libucrt:lcidtoname_downlevel.obj
 0002:00004280       ??_C@_15BPIGNHCD@?$AAn?$AAo@ 000000018005c280     libucrt:lcidtoname_downlevel.obj
 0002:00004288       ??_C@_15DEOPBLCG@?$AAp?$AAl@ 000000018005c288     libucrt:lcidtoname_downlevel.obj
 0002:00004290       ??_C@_15KBECGEFG@?$AAp?$AAt@ 000000018005c290     libucrt:lcidtoname_downlevel.obj
 0002:00004298       ??_C@_15GLJCBFMD@?$AAr?$AAo@ 000000018005c298     libucrt:lcidtoname_downlevel.obj
 0002:000042a0       ??_C@_15FEDGKCDI@?$AAr?$AAu@ 000000018005c2a0     libucrt:lcidtoname_downlevel.obj
 0002:000042a8       ??_C@_15GLKMLLHM@?$AAh?$AAr@ 000000018005c2a8     libucrt:lcidtoname_downlevel.obj
 0002:000042b0       ??_C@_15CPKMFBDB@?$AAs?$AAk@ 000000018005c2b0     libucrt:lcidtoname_downlevel.obj
 0002:000042b8       ??_C@_15BAAIOGMK@?$AAs?$AAq@ 000000018005c2b8     libucrt:lcidtoname_downlevel.obj
 0002:000042c0       ??_C@_15INNPNOHD@?$AAs?$AAv@ 000000018005c2c0     libucrt:lcidtoname_downlevel.obj
 0002:000042c8       ??_C@_15CABMMOGH@?$AAt?$AAh@ 000000018005c2c8     libucrt:lcidtoname_downlevel.obj
 0002:000042d0       ??_C@_15BPLIHJJM@?$AAt?$AAr@ 000000018005c2d0     libucrt:lcidtoname_downlevel.obj
 0002:000042d8       ??_C@_15NEOEKKDJ@?$AAu?$AAr@ 000000018005c2d8     libucrt:lcidtoname_downlevel.obj
 0002:000042e0       ??_C@_15PJPFLCCM@?$AAu?$AAk@ 000000018005c2e0     libucrt:lcidtoname_downlevel.obj
 0002:000042e8       ??_C@_15HPJPHDM@?$AAb?$AAe@ 000000018005c2e8     libucrt:lcidtoname_downlevel.obj
 0002:000042f0       ??_C@_15LCHLGJII@?$AAs?$AAl@ 000000018005c2f0     libucrt:lcidtoname_downlevel.obj
 0002:000042f8       ??_C@_15PCFJPHHO@?$AAe?$AAt@ 000000018005c2f8     libucrt:lcidtoname_downlevel.obj
 0002:00004300       ??_C@_15HPFPGODN@?$AAl?$AAv@ 000000018005c300     libucrt:lcidtoname_downlevel.obj
 0002:00004308       ??_C@_15NFFGKGLG@?$AAl?$AAt@ 000000018005c308     libucrt:lcidtoname_downlevel.obj
 0002:00004310       ??_C@_15BDAKCCHN@?$AAf?$AAa@ 000000018005c310     libucrt:lcidtoname_downlevel.obj
 0002:00004318       ??_C@_15NFGIAIAJ@?$AAv?$AAi@ 000000018005c318     libucrt:lcidtoname_downlevel.obj
 0002:00004320       ??_C@_15LMKNDMHN@?$AAh?$AAy@ 000000018005c320     libucrt:lcidtoname_downlevel.obj
 0002:00004328       ??_C@_15IJBHMCFL@?$AAa?$AAz@ 000000018005c328     libucrt:lcidtoname_downlevel.obj
 0002:00004330       ??_C@_15EKOFJABL@?$AAe?$AAu@ 000000018005c330     libucrt:lcidtoname_downlevel.obj
 0002:00004338       ??_C@_15BGHADCNK@?$AAm?$AAk@ 000000018005c338     libucrt:lcidtoname_downlevel.obj
 0002:00004340       ??_C@_15JDNICKHM@?$AAa?$AAf@ 000000018005c340     libucrt:lcidtoname_downlevel.obj
 0002:00004348       ??_C@_15KPJEDBKD@?$AAk?$AAa@ 000000018005c348     libucrt:lcidtoname_downlevel.obj
 0002:00004350       ??_C@_15PDNFFFEO@?$AAf?$AAo@ 000000018005c350     libucrt:lcidtoname_downlevel.obj
 0002:00004358       ??_C@_15OMLEGLOC@?$AAh?$AAi@ 000000018005c358     libucrt:lcidtoname_downlevel.obj
 0002:00004360       ??_C@_15IDNNENKK@?$AAm?$AAs@ 000000018005c360     libucrt:lcidtoname_downlevel.obj
 0002:00004368       ??_C@_15MACJNBMH@?$AAk?$AAk@ 000000018005c368     libucrt:lcidtoname_downlevel.obj
 0002:00004370       ??_C@_15DKDJEOND@?$AAk?$AAy@ 000000018005c370     libucrt:lcidtoname_downlevel.obj
 0002:00004378       ??_C@_15DFGDLJBG@?$AAs?$AAw@ 000000018005c378     libucrt:lcidtoname_downlevel.obj
 0002:00004380       ??_C@_15BBFAICNG@?$AAu?$AAz@ 000000018005c380     libucrt:lcidtoname_downlevel.obj
 0002:00004388       ??_C@_15DKNDCGEA@?$AAt?$AAt@ 000000018005c388     libucrt:lcidtoname_downlevel.obj
 0002:00004390       ??_C@_15MGIFMDPL@?$AAp?$AAa@ 000000018005c390     libucrt:lcidtoname_downlevel.obj
 0002:00004398       ??_C@_15HCNDBBA@?$AAg?$AAu@ 000000018005c398     libucrt:lcidtoname_downlevel.obj
 0002:000043a0       ??_C@_15FNBEIBON@?$AAt?$AAa@ 000000018005c3a0     libucrt:lcidtoname_downlevel.obj
 0002:000043a8       ??_C@_15NCHGBGLK@?$AAt?$AAe@ 000000018005c3a8     libucrt:lcidtoname_downlevel.obj
 0002:000043b0       ??_C@_15PHPHCBPF@?$AAk?$AAn@ 000000018005c3b0     libucrt:lcidtoname_downlevel.obj
 0002:000043b8       ??_C@_15DLGBCKMP@?$AAm?$AAr@ 000000018005c3b8     libucrt:lcidtoname_downlevel.obj
 0002:000043c0       ??_C@_15EABBLBFF@?$AAs?$AAa@ 000000018005c3c0     libucrt:lcidtoname_downlevel.obj
 0002:000043c8       ??_C@_15CBKOMCOI@?$AAm?$AAn@ 000000018005c3c8     libucrt:lcidtoname_downlevel.obj
 0002:000043d0       ??_C@_15CKDMCJAF@?$AAg?$AAl@ 000000018005c3d0     libucrt:lcidtoname_downlevel.obj
 0002:000043d8       ??_C@_17CNJFBPG@?$AAk?$AAo?$AAk@ 000000018005c3d8     libucrt:lcidtoname_downlevel.obj
 0002:000043e0       ??_C@_17FFBJICPL@?$AAs?$AAy?$AAr@ 000000018005c3e0     libucrt:lcidtoname_downlevel.obj
 0002:000043e8       ??_C@_17KPNDCPAF@?$AAd?$AAi?$AAv@ 000000018005c3e8     libucrt:lcidtoname_downlevel.obj
 0002:000043f0       ??_C@_1M@OKAHONE@?$AAa?$AAr?$AA?9?$AAS?$AAA@ 000000018005c3f0     libucrt:lcidtoname_downlevel.obj
 0002:00004400       ??_C@_1M@FFFIGIGK@?$AAb?$AAg?$AA?9?$AAB?$AAG@ 000000018005c400     libucrt:lcidtoname_downlevel.obj
 0002:00004410       ??_C@_1M@BJNKEDC@?$AAc?$AAa?$AA?9?$AAE?$AAS@ 000000018005c410     libucrt:lcidtoname_downlevel.obj
 0002:00004420       ??_C@_1M@IJJHFJHA@?$AAc?$AAs?$AA?9?$AAC?$AAZ@ 000000018005c420     libucrt:lcidtoname_downlevel.obj
 0002:00004430       ??_C@_1M@CLPEOBGI@?$AAd?$AAa?$AA?9?$AAD?$AAK@ 000000018005c430     libucrt:lcidtoname_downlevel.obj
 0002:00004440       ??_C@_1M@MCMADGCB@?$AAd?$AAe?$AA?9?$AAD?$AAE@ 000000018005c440     libucrt:lcidtoname_downlevel.obj
 0002:00004450       ??_C@_1M@OOCKEMAM@?$AAe?$AAl?$AA?9?$AAG?$AAR@ 000000018005c450     libucrt:lcidtoname_downlevel.obj
 0002:00004460       ??_C@_1M@DDNJFGID@?$AAf?$AAi?$AA?9?$AAF?$AAI@ 000000018005c460     libucrt:lcidtoname_downlevel.obj
 0002:00004470       ??_C@_1M@GLIPPMAC@?$AAf?$AAr?$AA?9?$AAF?$AAR@ 000000018005c470     libucrt:lcidtoname_downlevel.obj
 0002:00004480       ??_C@_1M@GFMCHPE@?$AAh?$AAe?$AA?9?$AAI?$AAL@ 000000018005c480     libucrt:lcidtoname_downlevel.obj
 0002:00004490       ??_C@_1M@MHLPGNKM@?$AAh?$AAu?$AA?9?$AAH?$AAU@ 000000018005c490     libucrt:lcidtoname_downlevel.obj
 0002:000044a0       ??_C@_1M@LPDDNNPN@?$AAi?$AAs?$AA?9?$AAI?$AAS@ 000000018005c4a0     libucrt:lcidtoname_downlevel.obj
 0002:000044b0       ??_C@_1M@MADIPODN@?$AAi?$AAt?$AA?9?$AAI?$AAT@ 000000018005c4b0     libucrt:lcidtoname_downlevel.obj
 0002:000044c0       ??_C@_1M@IHBJJGG@?$AAn?$AAl?$AA?9?$AAN?$AAL@ 000000018005c4c0     libucrt:lcidtoname_downlevel.obj
 0002:000044d0       ??_C@_1M@EANAGDL@?$AAn?$AAb?$AA?9?$AAN?$AAO@ 000000018005c4d0     libucrt:lcidtoname_downlevel.obj
 0002:000044e0       ??_C@_1M@NEIEMEGP@?$AAp?$AAl?$AA?9?$AAP?$AAL@ 000000018005c4e0     libucrt:lcidtoname_downlevel.obj
 0002:000044f0       ??_C@_1M@BOCFIGEP@?$AAp?$AAt?$AA?9?$AAB?$AAR@ 000000018005c4f0     libucrt:lcidtoname_downlevel.obj
 0002:00004500       ??_C@_1M@IMPFOPBG@?$AAr?$AAo?$AA?9?$AAR?$AAO@ 000000018005c500     libucrt:lcidtoname_downlevel.obj
 0002:00004510       ??_C@_1M@IDNNEJMM@?$AAr?$AAu?$AA?9?$AAR?$AAU@ 000000018005c510     libucrt:lcidtoname_downlevel.obj
 0002:00004520       ??_C@_1M@LILEEOGM@?$AAh?$AAr?$AA?9?$AAH?$AAR@ 000000018005c520     libucrt:lcidtoname_downlevel.obj
 0002:00004530       ??_C@_1M@FKIFEHPB@?$AAs?$AAk?$AA?9?$AAS?$AAK@ 000000018005c530     libucrt:lcidtoname_downlevel.obj
 0002:00004540       ??_C@_1M@LJMAMNPJ@?$AAs?$AAq?$AA?9?$AAA?$AAL@ 000000018005c540     libucrt:lcidtoname_downlevel.obj
 0002:00004550       ??_C@_1M@GIAKDKJK@?$AAs?$AAv?$AA?9?$AAS?$AAE@ 000000018005c550     libucrt:lcidtoname_downlevel.obj
 0002:00004560       ??_C@_1M@MKJKIKCL@?$AAt?$AAh?$AA?9?$AAT?$AAH@ 000000018005c560     libucrt:lcidtoname_downlevel.obj
 0002:00004570       ??_C@_1M@MFLCCMPB@?$AAt?$AAr?$AA?9?$AAT?$AAR@ 000000018005c570     libucrt:lcidtoname_downlevel.obj
 0002:00004580       ??_C@_1M@OIJHDKJN@?$AAu?$AAr?$AA?9?$AAP?$AAK@ 000000018005c580     libucrt:lcidtoname_downlevel.obj
 0002:00004590       ??_C@_1M@LHIPCIEK@?$AAi?$AAd?$AA?9?$AAI?$AAD@ 000000018005c590     libucrt:lcidtoname_downlevel.obj
 0002:000045a0       ??_C@_1M@MFMOBGI@?$AAu?$AAk?$AA?9?$AAU?$AAA@ 000000018005c5a0     libucrt:lcidtoname_downlevel.obj
 0002:000045b0       ??_C@_1M@OBGLJIPL@?$AAb?$AAe?$AA?9?$AAB?$AAY@ 000000018005c5b0     libucrt:lcidtoname_downlevel.obj
 0002:000045c0       ??_C@_1M@BCFAJEAD@?$AAs?$AAl?$AA?9?$AAS?$AAI@ 000000018005c5c0     libucrt:lcidtoname_downlevel.obj
 0002:000045d0       ??_C@_1M@FKFFEDDN@?$AAe?$AAt?$AA?9?$AAE?$AAE@ 000000018005c5d0     libucrt:lcidtoname_downlevel.obj
 0002:000045e0       ??_C@_1M@KGKKAACI@?$AAl?$AAv?$AA?9?$AAL?$AAV@ 000000018005c5e0     libucrt:lcidtoname_downlevel.obj
 0002:000045f0       ??_C@_1M@IFGBIJO@?$AAl?$AAt?$AA?9?$AAL?$AAT@ 000000018005c5f0     libucrt:lcidtoname_downlevel.obj
 0002:00004600       ??_C@_1M@FGEAHEDM@?$AAf?$AAa?$AA?9?$AAI?$AAR@ 000000018005c600     libucrt:lcidtoname_downlevel.obj
 0002:00004610       ??_C@_1M@KBMAIBFN@?$AAv?$AAi?$AA?9?$AAV?$AAN@ 000000018005c610     libucrt:lcidtoname_downlevel.obj
 0002:00004620       ??_C@_1M@GPCBKDJK@?$AAh?$AAy?$AA?9?$AAA?$AAM@ 000000018005c620     libucrt:lcidtoname_downlevel.obj
 0002:00004630       ??_C@_1BG@BECMDDJB@?$AAa?$AAz?$AA?9?$AAA?$AAZ?$AA?9?$AAL?$AAa?$AAt?$AAn@ 000000018005c630     libucrt:lcidtoname_downlevel.obj
 0002:00004648       ??_C@_1M@MAOFCAEA@?$AAe?$AAu?$AA?9?$AAE?$AAS@ 000000018005c648     libucrt:lcidtoname_downlevel.obj
 0002:00004658       ??_C@_1M@IGHABKPI@?$AAm?$AAk?$AA?9?$AAM?$AAK@ 000000018005c658     libucrt:lcidtoname_downlevel.obj
 0002:00004668       ??_C@_1M@IAIGNEJG@?$AAt?$AAn?$AA?9?$AAZ?$AAA@ 000000018005c668     libucrt:lcidtoname_downlevel.obj
 0002:00004678       ??_C@_1M@IIJCOJFA@?$AAx?$AAh?$AA?9?$AAZ?$AAA@ 000000018005c678     libucrt:lcidtoname_downlevel.obj
 0002:00004688       ??_C@_1M@LGPJHNJH@?$AAz?$AAu?$AA?9?$AAZ?$AAA@ 000000018005c688     libucrt:lcidtoname_downlevel.obj
 0002:00004698       ??_C@_1M@HOKAOIO@?$AAa?$AAf?$AA?9?$AAZ?$AAA@ 000000018005c698     libucrt:lcidtoname_downlevel.obj
 0002:000046a8       ??_C@_1M@DPCLHLIE@?$AAk?$AAa?$AA?9?$AAG?$AAE@ 000000018005c6a8     libucrt:lcidtoname_downlevel.obj
 0002:000046b8       ??_C@_1M@BLKMHJBI@?$AAf?$AAo?$AA?9?$AAF?$AAO@ 000000018005c6b8     libucrt:lcidtoname_downlevel.obj
 0002:000046c8       ??_C@_1M@LGGJAPPB@?$AAh?$AAi?$AA?9?$AAI?$AAN@ 000000018005c6c8     libucrt:lcidtoname_downlevel.obj
 0002:000046d8       ??_C@_1M@FIKPIHFE@?$AAm?$AAt?$AA?9?$AAM?$AAT@ 000000018005c6d8     libucrt:lcidtoname_downlevel.obj
 0002:000046e8       ??_C@_1M@HEGGPBFA@?$AAs?$AAe?$AA?9?$AAN?$AAO@ 000000018005c6e8     libucrt:lcidtoname_downlevel.obj
 0002:000046f8       ??_C@_1M@EIBJEEPA@?$AAm?$AAs?$AA?9?$AAM?$AAY@ 000000018005c6f8     libucrt:lcidtoname_downlevel.obj
 0002:00004708       ??_C@_1M@FHLBGMPP@?$AAk?$AAk?$AA?9?$AAK?$AAZ@ 000000018005c708     libucrt:lcidtoname_downlevel.obj
 0002:00004718       ??_C@_1M@NGJJLCGI@?$AAk?$AAy?$AA?9?$AAK?$AAG@ 000000018005c718     libucrt:lcidtoname_downlevel.obj
 0002:00004728       ??_C@_1M@GIENNBFC@?$AAs?$AAw?$AA?9?$AAK?$AAE@ 000000018005c728     libucrt:lcidtoname_downlevel.obj
 0002:00004738       ??_C@_1BG@NDGMJIMJ@?$AAu?$AAz?$AA?9?$AAU?$AAZ?$AA?9?$AAL?$AAa?$AAt?$AAn@ 000000018005c738     libucrt:lcidtoname_downlevel.obj
 0002:00004750       ??_C@_1M@IDCCIHBC@?$AAt?$AAt?$AA?9?$AAR?$AAU@ 000000018005c750     libucrt:lcidtoname_downlevel.obj
 0002:00004760       ??_C@_1M@LOICPMOJ@?$AAb?$AAn?$AA?9?$AAI?$AAN@ 000000018005c760     libucrt:lcidtoname_downlevel.obj
 0002:00004770       ??_C@_1M@KPKKNEAH@?$AAp?$AAa?$AA?9?$AAI?$AAN@ 000000018005c770     libucrt:lcidtoname_downlevel.obj
 0002:00004780       ??_C@_1M@PJGPPBOG@?$AAg?$AAu?$AA?9?$AAI?$AAN@ 000000018005c780     libucrt:lcidtoname_downlevel.obj
 0002:00004790       ??_C@_1M@KMKMOPHI@?$AAt?$AAa?$AA?9?$AAI?$AAN@ 000000018005c790     libucrt:lcidtoname_downlevel.obj
 0002:000047a0       ??_C@_1M@KFEHEPAC@?$AAt?$AAe?$AA?9?$AAI?$AAN@ 000000018005c7a0     libucrt:lcidtoname_downlevel.obj
 0002:000047b0       ??_C@_1M@CDCLMGHI@?$AAk?$AAn?$AA?9?$AAI?$AAN@ 000000018005c7b0     libucrt:lcidtoname_downlevel.obj
 0002:000047c0       ??_C@_1M@MIODLDKF@?$AAm?$AAl?$AA?9?$AAI?$AAN@ 000000018005c7c0     libucrt:lcidtoname_downlevel.obj
 0002:000047d0       ??_C@_1M@PBIEACPO@?$AAm?$AAr?$AA?9?$AAI?$AAN@ 000000018005c7d0     libucrt:lcidtoname_downlevel.obj
 0002:000047e0       ??_C@_1M@NIDEAGPH@?$AAs?$AAa?$AA?9?$AAI?$AAN@ 000000018005c7e0     libucrt:lcidtoname_downlevel.obj
 0002:000047f0       ??_C@_1M@FHIHCBIO@?$AAm?$AAn?$AA?9?$AAM?$AAN@ 000000018005c7f0     libucrt:lcidtoname_downlevel.obj
 0002:00004800       ??_C@_1M@JAIJPENP@?$AAc?$AAy?$AA?9?$AAG?$AAB@ 000000018005c800     libucrt:lcidtoname_downlevel.obj
 0002:00004810       ??_C@_1M@PHGFBEPN@?$AAg?$AAl?$AA?9?$AAE?$AAS@ 000000018005c810     libucrt:lcidtoname_downlevel.obj
 0002:00004820       ??_C@_1O@KPIPDNCP@?$AAk?$AAo?$AAk?$AA?9?$AAI?$AAN@ 000000018005c820     libucrt:lcidtoname_downlevel.obj
 0002:00004830       ??_C@_1O@KNHJLDJA@?$AAs?$AAy?$AAr?$AA?9?$AAS?$AAY@ 000000018005c830     libucrt:lcidtoname_downlevel.obj
 0002:00004840       ??_C@_1O@MKEKBLAH@?$AAd?$AAi?$AAv?$AA?9?$AAM?$AAV@ 000000018005c840     libucrt:lcidtoname_downlevel.obj
 0002:00004850       ??_C@_1O@OHDCKDDF@?$AAq?$AAu?$AAz?$AA?9?$AAB?$AAO@ 000000018005c850     libucrt:lcidtoname_downlevel.obj
 0002:00004860       ??_C@_1M@LEPJNLFD@?$AAn?$AAs?$AA?9?$AAZ?$AAA@ 000000018005c860     libucrt:lcidtoname_downlevel.obj
 0002:00004870       ??_C@_1M@OMLEIIJB@?$AAm?$AAi?$AA?9?$AAN?$AAZ@ 000000018005c870     libucrt:lcidtoname_downlevel.obj
 0002:00004880       ??_C@_1M@PMPEAILG@?$AAa?$AAr?$AA?9?$AAI?$AAQ@ 000000018005c880     libucrt:lcidtoname_downlevel.obj
 0002:00004890       ??_C@_1M@CNKPNOEE@?$AAd?$AAe?$AA?9?$AAC?$AAH@ 000000018005c890     libucrt:lcidtoname_downlevel.obj
 0002:000048a0       ??_C@_1M@LKMGMLKO@?$AAe?$AAn?$AA?9?$AAG?$AAB@ 000000018005c8a0     libucrt:lcidtoname_downlevel.obj
 0002:000048b0       ??_C@_1M@PGKJFFGL@?$AAe?$AAs?$AA?9?$AAM?$AAX@ 000000018005c8b0     libucrt:lcidtoname_downlevel.obj
 0002:000048c0       ??_C@_1M@DNNANBDC@?$AAf?$AAr?$AA?9?$AAB?$AAE@ 000000018005c8c0     libucrt:lcidtoname_downlevel.obj
 0002:000048d0       ??_C@_1M@HLGMDFHM@?$AAi?$AAt?$AA?9?$AAC?$AAH@ 000000018005c8d0     libucrt:lcidtoname_downlevel.obj
 0002:000048e0       ??_C@_1M@CLLBGJH@?$AAn?$AAl?$AA?9?$AAB?$AAE@ 000000018005c8e0     libucrt:lcidtoname_downlevel.obj
 0002:000048f0       ??_C@_1M@BODBOGLF@?$AAn?$AAn?$AA?9?$AAN?$AAO@ 000000018005c8f0     libucrt:lcidtoname_downlevel.obj
 0002:00004900       ??_C@_1M@HFFAHKAD@?$AAp?$AAt?$AA?9?$AAP?$AAT@ 000000018005c900     libucrt:lcidtoname_downlevel.obj
 0002:00004910       ??_C@_1BG@LNOAKHIE@?$AAs?$AAr?$AA?9?$AAS?$AAP?$AA?9?$AAL?$AAa?$AAt?$AAn@ 000000018005c910     libucrt:lcidtoname_downlevel.obj
 0002:00004928       ??_C@_1M@HBMHBGAK@?$AAs?$AAv?$AA?9?$AAF?$AAI@ 000000018005c928     libucrt:lcidtoname_downlevel.obj
 0002:00004938       ??_C@_1BG@DGCJGJBE@?$AAa?$AAz?$AA?9?$AAA?$AAZ?$AA?9?$AAC?$AAy?$AAr?$AAl@ 000000018005c938     libucrt:lcidtoname_downlevel.obj
 0002:00004950       ??_C@_1M@KEJDAAHB@?$AAs?$AAe?$AA?9?$AAS?$AAE@ 000000018005c950     libucrt:lcidtoname_downlevel.obj
 0002:00004960       ??_C@_1M@HEIBJJAD@?$AAm?$AAs?$AA?9?$AAB?$AAN@ 000000018005c960     libucrt:lcidtoname_downlevel.obj
 0002:00004970       ??_C@_1BG@PBGJMCEM@?$AAu?$AAz?$AA?9?$AAU?$AAZ?$AA?9?$AAC?$AAy?$AAr?$AAl@ 000000018005c970     libucrt:lcidtoname_downlevel.obj
 0002:00004988       ??_C@_1O@LAOBCMDF@?$AAq?$AAu?$AAz?$AA?9?$AAE?$AAC@ 000000018005c988     libucrt:lcidtoname_downlevel.obj
 0002:00004998       ??_C@_1M@POEEMAIO@?$AAa?$AAr?$AA?9?$AAE?$AAG@ 000000018005c998     libucrt:lcidtoname_downlevel.obj
 0002:000049a8       ??_C@_1M@EFAKDEDL@?$AAz?$AAh?$AA?9?$AAH?$AAK@ 000000018005c9a8     libucrt:lcidtoname_downlevel.obj
 0002:000049b8       ??_C@_1M@HKKIJHGI@?$AAd?$AAe?$AA?9?$AAA?$AAT@ 000000018005c9b8     libucrt:lcidtoname_downlevel.obj
 0002:000049c8       ??_C@_1M@KBFBEHJF@?$AAe?$AAn?$AA?9?$AAA?$AAU@ 000000018005c9c8     libucrt:lcidtoname_downlevel.obj
 0002:000049d8       ??_C@_1M@MNPLFAAH@?$AAe?$AAs?$AA?9?$AAE?$AAS@ 000000018005c9d8     libucrt:lcidtoname_downlevel.obj
 0002:000049e8       ??_C@_1M@HJOOJFMA@?$AAf?$AAr?$AA?9?$AAC?$AAA@ 000000018005c9e8     libucrt:lcidtoname_downlevel.obj
 0002:000049f8       ??_C@_1BG@JPOFPNAB@?$AAs?$AAr?$AA?9?$AAS?$AAP?$AA?9?$AAC?$AAy?$AAr?$AAl@ 000000018005c9f8     libucrt:lcidtoname_downlevel.obj
 0002:00004a10       ??_C@_1M@LNFOCMOB@?$AAs?$AAe?$AA?9?$AAF?$AAI@ 000000018005ca10     libucrt:lcidtoname_downlevel.obj
 0002:00004a20       ??_C@_1O@MGJBOAMB@?$AAq?$AAu?$AAz?$AA?9?$AAP?$AAE@ 000000018005ca20     libucrt:lcidtoname_downlevel.obj
 0002:00004a30       ??_C@_1M@GJINLBOK@?$AAa?$AAr?$AA?9?$AAL?$AAY@ 000000018005ca30     libucrt:lcidtoname_downlevel.obj
 0002:00004a40       ??_C@_1M@GGMNHJNL@?$AAz?$AAh?$AA?9?$AAS?$AAG@ 000000018005ca40     libucrt:lcidtoname_downlevel.obj
 0002:00004a50       ??_C@_1M@HOIKODND@?$AAd?$AAe?$AA?9?$AAL?$AAU@ 000000018005ca50     libucrt:lcidtoname_downlevel.obj
 0002:00004a60       ??_C@_1M@DDOCCGFG@?$AAe?$AAn?$AA?9?$AAC?$AAA@ 000000018005ca60     libucrt:lcidtoname_downlevel.obj
 0002:00004a70       ??_C@_1M@BNOEMJLF@?$AAe?$AAs?$AA?9?$AAG?$AAT@ 000000018005ca70     libucrt:lcidtoname_downlevel.obj
 0002:00004a80       ??_C@_1M@EOGNKEK@?$AAf?$AAr?$AA?9?$AAC?$AAH@ 000000018005ca80     libucrt:lcidtoname_downlevel.obj
 0002:00004a90       ??_C@_1M@FLIDJFHL@?$AAh?$AAr?$AA?9?$AAB?$AAA@ 000000018005ca90     libucrt:lcidtoname_downlevel.obj
 0002:00004aa0       ??_C@_1O@FMCELNAJ@?$AAs?$AAm?$AAj?$AA?9?$AAN?$AAO@ 000000018005caa0     libucrt:lcidtoname_downlevel.obj
 0002:00004ab0       ??_C@_1M@JHGLJMGJ@?$AAa?$AAr?$AA?9?$AAD?$AAZ@ 000000018005cab0     libucrt:lcidtoname_downlevel.obj
 0002:00004ac0       ??_C@_1M@JKKFDCNP@?$AAz?$AAh?$AA?9?$AAM?$AAO@ 000000018005cac0     libucrt:lcidtoname_downlevel.obj
 0002:00004ad0       ??_C@_1M@GEEFALPE@?$AAd?$AAe?$AA?9?$AAL?$AAI@ 000000018005cad0     libucrt:lcidtoname_downlevel.obj
 0002:00004ae0       ??_C@_1M@IGEOFBG@?$AAe?$AAn?$AA?9?$AAN?$AAZ@ 000000018005cae0     libucrt:lcidtoname_downlevel.obj
 0002:00004af0       ??_C@_1M@KDBONEHP@?$AAe?$AAs?$AA?9?$AAC?$AAR@ 000000018005caf0     libucrt:lcidtoname_downlevel.obj
 0002:00004b00       ??_C@_1M@FHMDOHNN@?$AAf?$AAr?$AA?9?$AAL?$AAU@ 000000018005cb00     libucrt:lcidtoname_downlevel.obj
 0002:00004b10       ??_C@_1BG@NFKKMAFG@?$AAb?$AAs?$AA?9?$AAB?$AAA?$AA?9?$AAL?$AAa?$AAt?$AAn@ 000000018005cb10     libucrt:lcidtoname_downlevel.obj
 0002:00004b28       ??_C@_1O@IMNBEMCI@?$AAs?$AAm?$AAj?$AA?9?$AAS?$AAE@ 000000018005cb28     libucrt:lcidtoname_downlevel.obj
 0002:00004b38       ??_C@_1M@DHHMBNDP@?$AAa?$AAr?$AA?9?$AAM?$AAA@ 000000018005cb38     libucrt:lcidtoname_downlevel.obj
 0002:00004b48       ??_C@_1M@BNBLJCGH@?$AAe?$AAn?$AA?9?$AAI?$AAE@ 000000018005cb48     libucrt:lcidtoname_downlevel.obj
 0002:00004b58       ??_C@_1M@GEPAFMDL@?$AAe?$AAs?$AA?9?$AAP?$AAA@ 000000018005cb58     libucrt:lcidtoname_downlevel.obj
 0002:00004b68       ??_C@_1M@OJONDMDL@?$AAf?$AAr?$AA?9?$AAM?$AAC@ 000000018005cb68     libucrt:lcidtoname_downlevel.obj
 0002:00004b78       ??_C@_1BG@OBCNFJB@?$AAs?$AAr?$AA?9?$AAB?$AAA?$AA?9?$AAL?$AAa?$AAt?$AAn@ 000000018005cb78     libucrt:lcidtoname_downlevel.obj
 0002:00004b90       ??_C@_1O@KEMEEGPO@?$AAs?$AAm?$AAa?$AA?9?$AAN?$AAO@ 000000018005cb90     libucrt:lcidtoname_downlevel.obj
 0002:00004ba0       ??_C@_1M@ELMGFODK@?$AAa?$AAr?$AA?9?$AAT?$AAN@ 000000018005cba0     libucrt:lcidtoname_downlevel.obj
 0002:00004bb0       ??_C@_1M@BHDLHFAF@?$AAe?$AAn?$AA?9?$AAZ?$AAA@ 000000018005cbb0     libucrt:lcidtoname_downlevel.obj
 0002:00004bc0       ??_C@_1M@BMGIGLIF@?$AAe?$AAs?$AA?9?$AAD?$AAO@ 000000018005cbc0     libucrt:lcidtoname_downlevel.obj
 0002:00004bd0       ??_C@_1BG@CMBHIPBE@?$AAs?$AAr?$AA?9?$AAB?$AAA?$AA?9?$AAC?$AAy?$AAr?$AAl@ 000000018005cbd0     libucrt:lcidtoname_downlevel.obj
 0002:00004be8       ??_C@_1O@HEDBLHNP@?$AAs?$AAm?$AAa?$AA?9?$AAS?$AAE@ 000000018005cbe8     libucrt:lcidtoname_downlevel.obj
 0002:00004bf8       ??_C@_1M@DAGCADIM@?$AAa?$AAr?$AA?9?$AAO?$AAM@ 000000018005cbf8     libucrt:lcidtoname_downlevel.obj
 0002:00004c08       ??_C@_1M@FODLMICG@?$AAe?$AAn?$AA?9?$AAJ?$AAM@ 000000018005cc08     libucrt:lcidtoname_downlevel.obj
 0002:00004c18       ??_C@_1M@DNMLCIHB@?$AAe?$AAs?$AA?9?$AAV?$AAE@ 000000018005cc18     libucrt:lcidtoname_downlevel.obj
 0002:00004c28       ??_C@_1O@EOKHMKJK@?$AAs?$AAm?$AAs?$AA?9?$AAF?$AAI@ 000000018005cc28     libucrt:lcidtoname_downlevel.obj
 0002:00004c38       ??_C@_1M@CAFJMKOF@?$AAa?$AAr?$AA?9?$AAY?$AAE@ 000000018005cc38     libucrt:lcidtoname_downlevel.obj
 0002:00004c48       ??_C@_1M@CBFHIJLI@?$AAe?$AAn?$AA?9?$AAC?$AAB@ 000000018005cc48     libucrt:lcidtoname_downlevel.obj
 0002:00004c58       ??_C@_1M@BGNFLDN@?$AAe?$AAs?$AA?9?$AAC?$AAO@ 000000018005cc58     libucrt:lcidtoname_downlevel.obj
 0002:00004c68       ??_C@_1O@JMPHMAMC@?$AAs?$AAm?$AAn?$AA?9?$AAF?$AAI@ 000000018005cc68     libucrt:lcidtoname_downlevel.obj
 0002:00004c78       ??_C@_1M@JLANABKE@?$AAa?$AAr?$AA?9?$AAS?$AAY@ 000000018005cc78     libucrt:lcidtoname_downlevel.obj
 0002:00004c88       ??_C@_1M@HPKGCFGN@?$AAe?$AAn?$AA?9?$AAB?$AAZ@ 000000018005cc88     libucrt:lcidtoname_downlevel.obj
 0002:00004c98       ??_C@_1M@OLJCMLGM@?$AAe?$AAs?$AA?9?$AAP?$AAE@ 000000018005cc98     libucrt:lcidtoname_downlevel.obj
 0002:00004ca8       ??_C@_1M@MKKGFKLE@?$AAa?$AAr?$AA?9?$AAJ?$AAO@ 000000018005cca8     libucrt:lcidtoname_downlevel.obj
 0002:00004cb8       ??_C@_1M@EKPGLDNI@?$AAe?$AAn?$AA?9?$AAT?$AAT@ 000000018005ccb8     libucrt:lcidtoname_downlevel.obj
 0002:00004cc8       ??_C@_1M@OONGHFHE@?$AAe?$AAs?$AA?9?$AAA?$AAR@ 000000018005ccc8     libucrt:lcidtoname_downlevel.obj
 0002:00004cd8       ??_C@_1M@OOJFGBHE@?$AAa?$AAr?$AA?9?$AAL?$AAB@ 000000018005ccd8     libucrt:lcidtoname_downlevel.obj
 0002:00004ce8       ??_C@_1M@GCEJHNEG@?$AAe?$AAn?$AA?9?$AAZ?$AAW@ 000000018005cce8     libucrt:lcidtoname_downlevel.obj
 0002:00004cf8       ??_C@_1M@JNOCAHJI@?$AAe?$AAs?$AA?9?$AAE?$AAC@ 000000018005ccf8     libucrt:lcidtoname_downlevel.obj
 0002:00004d08       ??_C@_1M@JEFHPGGB@?$AAa?$AAr?$AA?9?$AAK?$AAW@ 000000018005cd08     libucrt:lcidtoname_downlevel.obj
 0002:00004d18       ??_C@_1M@MLKIBJOJ@?$AAe?$AAn?$AA?9?$AAP?$AAH@ 000000018005cd18     libucrt:lcidtoname_downlevel.obj
 0002:00004d28       ??_C@_1M@BDNIPEND@?$AAe?$AAs?$AA?9?$AAC?$AAL@ 000000018005cd28     libucrt:lcidtoname_downlevel.obj
 0002:00004d38       ??_C@_1M@MPNMEKBD@?$AAa?$AAr?$AA?9?$AAA?$AAE@ 000000018005cd38     libucrt:lcidtoname_downlevel.obj
 0002:00004d48       ??_C@_1M@KBJALCPI@?$AAe?$AAs?$AA?9?$AAU?$AAY@ 000000018005cd48     libucrt:lcidtoname_downlevel.obj
 0002:00004d58       ??_C@_1M@LLCCOAGA@?$AAa?$AAr?$AA?9?$AAB?$AAH@ 000000018005cd58     libucrt:lcidtoname_downlevel.obj
 0002:00004d68       ??_C@_1M@PBFNCDEL@?$AAe?$AAs?$AA?9?$AAP?$AAY@ 000000018005cd68     libucrt:lcidtoname_downlevel.obj
 0002:00004d78       ??_C@_1M@EDGINPNP@?$AAa?$AAr?$AA?9?$AAQ?$AAA@ 000000018005cd78     libucrt:lcidtoname_downlevel.obj
 0002:00004d88       ??_C@_1M@MKDBIIJI@?$AAe?$AAs?$AA?9?$AAB?$AAO@ 000000018005cd88     libucrt:lcidtoname_downlevel.obj
 0002:00004d98       ??_C@_1M@CPKKEBLD@?$AAe?$AAs?$AA?9?$AAS?$AAV@ 000000018005cd98     libucrt:lcidtoname_downlevel.obj
 0002:00004da8       ??_C@_1M@NDBGMMJL@?$AAe?$AAs?$AA?9?$AAH?$AAN@ 000000018005cda8     libucrt:lcidtoname_downlevel.obj
 0002:00004db8       ??_C@_1M@JIJIBHDP@?$AAe?$AAs?$AA?9?$AAN?$AAI@ 000000018005cdb8     libucrt:lcidtoname_downlevel.obj
 0002:00004dc8       ??_C@_1M@CGFMKEEK@?$AAe?$AAs?$AA?9?$AAP?$AAR@ 000000018005cdc8     libucrt:lcidtoname_downlevel.obj
 0002:00004dd8       ??_C@_1O@ICJHKIIK@?$AAz?$AAh?$AA?9?$AAC?$AAH?$AAT@ 000000018005cdd8     libucrt:lcidtoname_downlevel.obj
 0002:00004de8       ??_C@_15CLNEJCE@?$AAs?$AAr@ 000000018005cde8     libucrt:lcidtoname_downlevel.obj
 0002:00005c30       ??_C@_1M@KAHEKEIG@?$AAa?$AAf?$AA?9?$AAz?$AAa@ 000000018005dc30     libucrt:lcidtoname_downlevel.obj
 0002:00005c40       ??_C@_1M@GIECOABL@?$AAa?$AAr?$AA?9?$AAa?$AAe@ 000000018005dc40     libucrt:lcidtoname_downlevel.obj
 0002:00005c50       ??_C@_1M@BMLMEKGI@?$AAa?$AAr?$AA?9?$AAb?$AAh@ 000000018005dc50     libucrt:lcidtoname_downlevel.obj
 0002:00005c60       ??_C@_1M@DAPFDGGB@?$AAa?$AAr?$AA?9?$AAd?$AAz@ 000000018005dc60     libucrt:lcidtoname_downlevel.obj
 0002:00005c70       ??_C@_1M@FJNKGKIG@?$AAa?$AAr?$AA?9?$AAe?$AAg@ 000000018005dc70     libucrt:lcidtoname_downlevel.obj
 0002:00005c80       ??_C@_1M@FLGKKCLO@?$AAa?$AAr?$AA?9?$AAi?$AAq@ 000000018005dc80     libucrt:lcidtoname_downlevel.obj
 0002:00005c90       ??_C@_1M@GNDIPALM@?$AAa?$AAr?$AA?9?$AAj?$AAo@ 000000018005dc90     libucrt:lcidtoname_downlevel.obj
 0002:00005ca0       ??_C@_1M@DDMJFMGJ@?$AAa?$AAr?$AA?9?$AAk?$AAw@ 000000018005dca0     libucrt:lcidtoname_downlevel.obj
 0002:00005cb0       ??_C@_1M@EJALMLHM@?$AAa?$AAr?$AA?9?$AAl?$AAb@ 000000018005dcb0     libucrt:lcidtoname_downlevel.obj
 0002:00005cc0       ??_C@_1M@MOBDBLOC@?$AAa?$AAr?$AA?9?$AAl?$AAy@ 000000018005dcc0     libucrt:lcidtoname_downlevel.obj
 0002:00005cd0       ??_C@_1M@JAOCLHDH@?$AAa?$AAr?$AA?9?$AAm?$AAa@ 000000018005dcd0     libucrt:lcidtoname_downlevel.obj
 0002:00005ce0       ??_C@_1M@JHPMKJIE@?$AAa?$AAr?$AA?9?$AAo?$AAm@ 000000018005dce0     libucrt:lcidtoname_downlevel.obj
 0002:00005cf0       ??_C@_1M@OEPGHFNH@?$AAa?$AAr?$AA?9?$AAq?$AAa@ 000000018005dcf0     libucrt:lcidtoname_downlevel.obj
 0002:00005d00       ??_C@_1M@KJDONENM@?$AAa?$AAr?$AA?9?$AAs?$AAa@ 000000018005dd00     libucrt:lcidtoname_downlevel.obj
 0002:00005d10       ??_C@_1M@DMJDKLKM@?$AAa?$AAr?$AA?9?$AAs?$AAy@ 000000018005dd10     libucrt:lcidtoname_downlevel.obj
 0002:00005d20       ??_C@_1M@OMFIPEDC@?$AAa?$AAr?$AA?9?$AAt?$AAn@ 000000018005dd20     libucrt:lcidtoname_downlevel.obj
 0002:00005d30       ??_C@_1M@IHMHGAON@?$AAa?$AAr?$AA?9?$AAy?$AAe@ 000000018005dd30     libucrt:lcidtoname_downlevel.obj
 0002:00005d40       ??_C@_1BG@KDCPGJGB@?$AAa?$AAz?$AA?9?$AAa?$AAz?$AA?9?$AAc?$AAy?$AAr?$AAl@ 000000018005dd40     libucrt:lcidtoname_downlevel.obj
 0002:00005d58       ??_C@_1BG@IBCKDDOE@?$AAa?$AAz?$AA?9?$AAa?$AAz?$AA?9?$AAl?$AAa?$AAt?$AAn@ 000000018005dd58     libucrt:lcidtoname_downlevel.obj
 0002:00005d70       ??_C@_1M@EGPFDCPD@?$AAb?$AAe?$AA?9?$AAb?$AAy@ 000000018005dd70     libucrt:lcidtoname_downlevel.obj
 0002:00005d80       ??_C@_1M@PCMGMCGC@?$AAb?$AAg?$AA?9?$AAb?$AAg@ 000000018005dd80     libucrt:lcidtoname_downlevel.obj
 0002:00005d90       ??_C@_1M@BJBMFGOB@?$AAb?$AAn?$AA?9?$AAi?$AAn@ 000000018005dd90     libucrt:lcidtoname_downlevel.obj
 0002:00005da0       ??_C@_1BG@EAKMMACD@?$AAb?$AAs?$AA?9?$AAb?$AAa?$AA?9?$AAl?$AAa?$AAt?$AAn@ 000000018005dda0     libucrt:lcidtoname_downlevel.obj
 0002:00005db8       ??_C@_1M@KGADAODK@?$AAc?$AAa?$AA?9?$AAe?$AAs@ 000000018005ddb8     libucrt:lcidtoname_downlevel.obj
 0002:00005dc8       ??_C@_1M@COAJPDHI@?$AAc?$AAs?$AA?9?$AAc?$AAz@ 000000018005ddc8     libucrt:lcidtoname_downlevel.obj
 0002:00005dd8       ??_C@_1M@DHBHFONH@?$AAc?$AAy?$AA?9?$AAg?$AAb@ 000000018005ddd8     libucrt:lcidtoname_downlevel.obj
 0002:00005de8       ??_C@_1M@IMGKELGA@?$AAd?$AAa?$AA?9?$AAd?$AAk@ 000000018005dde8     libucrt:lcidtoname_downlevel.obj
 0002:00005df8       ??_C@_1M@NNDGDNGA@?$AAd?$AAe?$AA?9?$AAa?$AAt@ 000000018005ddf8     libucrt:lcidtoname_downlevel.obj
 0002:00005e08       ??_C@_1M@IKDBHEEM@?$AAd?$AAe?$AA?9?$AAc?$AAh@ 000000018005de08     libucrt:lcidtoname_downlevel.obj
 0002:00005e18       ??_C@_1M@GFFOJMCJ@?$AAd?$AAe?$AA?9?$AAd?$AAe@ 000000018005de18     libucrt:lcidtoname_downlevel.obj
 0002:00005e28       ??_C@_1M@MDNLKBPM@?$AAd?$AAe?$AA?9?$AAl?$AAi@ 000000018005de28     libucrt:lcidtoname_downlevel.obj
 0002:00005e38       ??_C@_1M@NJBEEJNL@?$AAd?$AAe?$AA?9?$AAl?$AAu@ 000000018005de38     libucrt:lcidtoname_downlevel.obj
 0002:00005e48       ??_C@_1O@GNNELBAP@?$AAd?$AAi?$AAv?$AA?9?$AAm?$AAv@ 000000018005de48     libucrt:lcidtoname_downlevel.obj
 0002:00005e58       ??_C@_1M@EJLEOGAE@?$AAe?$AAl?$AA?9?$AAg?$AAr@ 000000018005de58     libucrt:lcidtoname_downlevel.obj
 0002:00005e68       ??_C@_1M@GMPONJN@?$AAe?$AAn?$AA?9?$AAa?$AAu@ 000000018005de68     libucrt:lcidtoname_downlevel.obj
 0002:00005e78       ??_C@_1M@NIDIIPGF@?$AAe?$AAn?$AA?9?$AAb?$AAz@ 000000018005de78     libucrt:lcidtoname_downlevel.obj
 0002:00005e88       ??_C@_1M@JEHMIMFO@?$AAe?$AAn?$AA?9?$AAc?$AAa@ 000000018005de88     libucrt:lcidtoname_downlevel.obj
 0002:00005e98       ??_C@_1M@IGMJCDLA@?$AAe?$AAn?$AA?9?$AAc?$AAb@ 000000018005de98     libucrt:lcidtoname_downlevel.obj
 0002:00005ea8       ??_C@_1M@BNFIGBKG@?$AAe?$AAn?$AA?9?$AAg?$AAb@ 000000018005dea8     libucrt:lcidtoname_downlevel.obj
 0002:00005eb8       ??_C@_1M@LKIFDIGP@?$AAe?$AAn?$AA?9?$AAi?$AAe@ 000000018005deb8     libucrt:lcidtoname_downlevel.obj
 0002:00005ec8       ??_C@_1M@PJKFGCCO@?$AAe?$AAn?$AA?9?$AAj?$AAm@ 000000018005dec8     libucrt:lcidtoname_downlevel.obj
 0002:00005ed8       ??_C@_1M@KPPKEPBO@?$AAe?$AAn?$AA?9?$AAn?$AAz@ 000000018005ded8     libucrt:lcidtoname_downlevel.obj
 0002:00005ee8       ??_C@_1M@GMDGLDOB@?$AAe?$AAn?$AA?9?$AAp?$AAh@ 000000018005dee8     libucrt:lcidtoname_downlevel.obj
 0002:00005ef8       ??_C@_1M@ONGIBJNA@?$AAe?$AAn?$AA?9?$AAt?$AAt@ 000000018005def8     libucrt:lcidtoname_downlevel.obj
 0002:00005f08       ??_C@_1M@LLODPCMM@?$AAe?$AAn?$AA?9?$AAu?$AAs@ 000000018005df08     libucrt:lcidtoname_downlevel.obj
 0002:00005f18       ??_C@_1M@LAKFNPAN@?$AAe?$AAn?$AA?9?$AAz?$AAa@ 000000018005df18     libucrt:lcidtoname_downlevel.obj
 0002:00005f28       ??_C@_1M@MFNHNHEO@?$AAe?$AAn?$AA?9?$AAz?$AAw@ 000000018005df28     libucrt:lcidtoname_downlevel.obj
 0002:00005f38       ??_C@_1M@EJEINPHM@?$AAe?$AAs?$AA?9?$AAa?$AAr@ 000000018005df38     libucrt:lcidtoname_downlevel.obj
 0002:00005f48       ??_C@_1M@GNKPCCJA@?$AAe?$AAs?$AA?9?$AAb?$AAo@ 000000018005df48     libucrt:lcidtoname_downlevel.obj
 0002:00005f58       ??_C@_1M@LEEGFONL@?$AAe?$AAs?$AA?9?$AAc?$AAl@ 000000018005df58     libucrt:lcidtoname_downlevel.obj
 0002:00005f68       ??_C@_1M@KGPDPBDF@?$AAe?$AAs?$AA?9?$AAc?$AAo@ 000000018005df68     libucrt:lcidtoname_downlevel.obj
 0002:00005f78       ??_C@_1M@EIAHOHH@?$AAe?$AAs?$AA?9?$AAc?$AAr@ 000000018005df78     libucrt:lcidtoname_downlevel.obj
 0002:00005f88       ??_C@_1M@LLPGMBIN@?$AAe?$AAs?$AA?9?$AAd?$AAo@ 000000018005df88     libucrt:lcidtoname_downlevel.obj
 0002:00005f98       ??_C@_1M@DKHMKNJA@?$AAe?$AAs?$AA?9?$AAe?$AAc@ 000000018005df98     libucrt:lcidtoname_downlevel.obj
 0002:00005fa8       ??_C@_1M@GKGFPKAP@?$AAe?$AAs?$AA?9?$AAe?$AAs@ 000000018005dfa8     libucrt:lcidtoname_downlevel.obj
 0002:00005fb8       ??_C@_1M@LKHKGDLN@?$AAe?$AAs?$AA?9?$AAg?$AAt@ 000000018005dfb8     libucrt:lcidtoname_downlevel.obj
 0002:00005fc8       ??_C@_1M@HEIIGGJD@?$AAe?$AAs?$AA?9?$AAh?$AAn@ 000000018005dfc8     libucrt:lcidtoname_downlevel.obj
 0002:00005fd8       ??_C@_1M@FBDHPPGD@?$AAe?$AAs?$AA?9?$AAm?$AAx@ 000000018005dfd8     libucrt:lcidtoname_downlevel.obj
 0002:00005fe8       ??_C@_1M@DPAGLNDH@?$AAe?$AAs?$AA?9?$AAn?$AAi@ 000000018005dfe8     libucrt:lcidtoname_downlevel.obj
 0002:00005ff8       ??_C@_1M@MDGOPGDD@?$AAe?$AAs?$AA?9?$AAp?$AAa@ 000000018005dff8     libucrt:lcidtoname_downlevel.obj
 0002:00006008       ??_C@_1M@EMAMGBGE@?$AAe?$AAs?$AA?9?$AAp?$AAe@ 000000018005e008     libucrt:lcidtoname_downlevel.obj
 0002:00006018       ??_C@_1M@IBMCAOEC@?$AAe?$AAs?$AA?9?$AAp?$AAr@ 000000018005e018     libucrt:lcidtoname_downlevel.obj
 0002:00006028       ??_C@_1M@FGMDIJED@?$AAe?$AAs?$AA?9?$AAp?$AAy@ 000000018005e028     libucrt:lcidtoname_downlevel.obj
 0002:00006038       ??_C@_1M@IIDEOLLL@?$AAe?$AAs?$AA?9?$AAs?$AAv@ 000000018005e038     libucrt:lcidtoname_downlevel.obj
 0002:00006048       ??_C@_1M@GAOBIPA@?$AAe?$AAs?$AA?9?$AAu?$AAy@ 000000018005e048     libucrt:lcidtoname_downlevel.obj
 0002:00006058       ??_C@_1M@JKFFICHJ@?$AAe?$AAs?$AA?9?$AAv?$AAe@ 000000018005e058     libucrt:lcidtoname_downlevel.obj
 0002:00006068       ??_C@_1M@PNMLOJDF@?$AAe?$AAt?$AA?9?$AAe?$AAe@ 000000018005e068     libucrt:lcidtoname_downlevel.obj
 0002:00006078       ??_C@_1M@GHHLIKEI@?$AAe?$AAu?$AA?9?$AAe?$AAs@ 000000018005e078     libucrt:lcidtoname_downlevel.obj
 0002:00006088       ??_C@_1M@PBNONODE@?$AAf?$AAa?$AA?9?$AAi?$AAr@ 000000018005e088     libucrt:lcidtoname_downlevel.obj
 0002:00006098       ??_C@_1M@JEEHPMIL@?$AAf?$AAi?$AA?9?$AAf?$AAi@ 000000018005e098     libucrt:lcidtoname_downlevel.obj
 0002:000060a8       ??_C@_1M@LMDCNDBA@?$AAf?$AAo?$AA?9?$AAf?$AAo@ 000000018005e0a8     libucrt:lcidtoname_downlevel.obj
 0002:000060b8       ??_C@_1M@JKEOHLDK@?$AAf?$AAr?$AA?9?$AAb?$AAe@ 000000018005e0b8     libucrt:lcidtoname_downlevel.obj
 0002:000060c8       ??_C@_1M@NOHADPMI@?$AAf?$AAr?$AA?9?$AAc?$AAa@ 000000018005e0c8     libucrt:lcidtoname_downlevel.obj
 0002:000060d8       ??_C@_1M@KDHIHAEC@?$AAf?$AAr?$AA?9?$AAc?$AAh@ 000000018005e0d8     libucrt:lcidtoname_downlevel.obj
 0002:000060e8       ??_C@_1M@MMBBFGAK@?$AAf?$AAr?$AA?9?$AAf?$AAr@ 000000018005e0e8     libucrt:lcidtoname_downlevel.obj
 0002:000060f8       ??_C@_1M@PAFNENNF@?$AAf?$AAr?$AA?9?$AAl?$AAu@ 000000018005e0f8     libucrt:lcidtoname_downlevel.obj
 0002:00006108       ??_C@_1M@EOHDJGDD@?$AAf?$AAr?$AA?9?$AAm?$AAc@ 000000018005e108     libucrt:lcidtoname_downlevel.obj
 0002:00006118       ??_C@_1M@FAPLLOPF@?$AAg?$AAl?$AA?9?$AAe?$AAs@ 000000018005e118     libucrt:lcidtoname_downlevel.obj
 0002:00006128       ??_C@_1M@FOPBFLOO@?$AAg?$AAu?$AA?9?$AAi?$AAn@ 000000018005e128     libucrt:lcidtoname_downlevel.obj
 0002:00006138       ??_C@_1M@KBMCINPM@?$AAh?$AAe?$AA?9?$AAi?$AAl@ 000000018005e138     libucrt:lcidtoname_downlevel.obj
 0002:00006148       ??_C@_1M@BBPHKFPJ@?$AAh?$AAi?$AA?9?$AAi?$AAn@ 000000018005e148     libucrt:lcidtoname_downlevel.obj
 0002:00006158       ??_C@_1M@PMBNDPHD@?$AAh?$AAr?$AA?9?$AAb?$AAa@ 000000018005e158     libucrt:lcidtoname_downlevel.obj
 0002:00006168       ??_C@_1M@BPCKOEGE@?$AAh?$AAr?$AA?9?$AAh?$AAr@ 000000018005e168     libucrt:lcidtoname_downlevel.obj
 0002:00006178       ??_C@_1M@GACBMHKE@?$AAh?$AAu?$AA?9?$AAh?$AAu@ 000000018005e178     libucrt:lcidtoname_downlevel.obj
 0002:00006188       ??_C@_1M@MILPAJJC@?$AAh?$AAy?$AA?9?$AAa?$AAm@ 000000018005e188     libucrt:lcidtoname_downlevel.obj
 0002:00006198       ??_C@_1M@BABBICEC@?$AAi?$AAd?$AA?9?$AAi?$AAd@ 000000018005e198     libucrt:lcidtoname_downlevel.obj
 0002:000061a8       ??_C@_1M@BIKNHHPF@?$AAi?$AAs?$AA?9?$AAi?$AAs@ 000000018005e1a8     libucrt:lcidtoname_downlevel.obj
 0002:000061b8       ??_C@_1M@NMPCJPHE@?$AAi?$AAt?$AA?9?$AAc?$AAh@ 000000018005e1b8     libucrt:lcidtoname_downlevel.obj
 0002:000061c8       ??_C@_1M@GHKGFEDF@?$AAi?$AAt?$AA?9?$AAi?$AAt@ 000000018005e1c8     libucrt:lcidtoname_downlevel.obj
 0002:000061d8       ??_C@_1M@NIEJCJJA@?$AAj?$AAa?$AA?9?$AAj?$AAp@ 000000018005e1d8     libucrt:lcidtoname_downlevel.obj
 0002:000061e8       ??_C@_1M@JILFNBIM@?$AAk?$AAa?$AA?9?$AAg?$AAe@ 000000018005e1e8     libucrt:lcidtoname_downlevel.obj
 0002:000061f8       ??_C@_1M@PACPMGPH@?$AAk?$AAk?$AA?9?$AAk?$AAz@ 000000018005e1f8     libucrt:lcidtoname_downlevel.obj
 0002:00006208       ??_C@_1M@IELFGMHA@?$AAk?$AAn?$AA?9?$AAi?$AAn@ 000000018005e208     libucrt:lcidtoname_downlevel.obj
 0002:00006218       ??_C@_1O@IBBJHCH@?$AAk?$AAo?$AAk?$AA?9?$AAi?$AAn@ 000000018005e218     libucrt:lcidtoname_downlevel.obj
 0002:00006228       ??_C@_1M@DMHAEOGC@?$AAk?$AAo?$AA?9?$AAk?$AAr@ 000000018005e228     libucrt:lcidtoname_downlevel.obj
 0002:00006238       ??_C@_1M@HBAHBIGA@?$AAk?$AAy?$AA?9?$AAk?$AAg@ 000000018005e238     libucrt:lcidtoname_downlevel.obj
 0002:00006248       ??_C@_1M@KPMILCJG@?$AAl?$AAt?$AA?9?$AAl?$AAt@ 000000018005e248     libucrt:lcidtoname_downlevel.obj
 0002:00006258       ??_C@_1M@BDEKKCA@?$AAl?$AAv?$AA?9?$AAl?$AAv@ 000000018005e258     libucrt:lcidtoname_downlevel.obj
 0002:00006268       ??_C@_1M@ELCKCCJJ@?$AAm?$AAi?$AA?9?$AAn?$AAz@ 000000018005e268     libucrt:lcidtoname_downlevel.obj
 0002:00006278       ??_C@_1M@CBOOLAPA@?$AAm?$AAk?$AA?9?$AAm?$AAk@ 000000018005e278     libucrt:lcidtoname_downlevel.obj
 0002:00006288       ??_C@_1M@GPHNBJKN@?$AAm?$AAl?$AA?9?$AAi?$AAn@ 000000018005e288     libucrt:lcidtoname_downlevel.obj
 0002:00006298       ??_C@_1M@PABJILIG@?$AAm?$AAn?$AA?9?$AAm?$AAn@ 000000018005e298     libucrt:lcidtoname_downlevel.obj
 0002:000062a8       ??_C@_1M@FGBKKIPG@?$AAm?$AAr?$AA?9?$AAi?$AAn@ 000000018005e2a8     libucrt:lcidtoname_downlevel.obj
 0002:000062b8       ??_C@_1M@NDBPDDAL@?$AAm?$AAs?$AA?9?$AAb?$AAn@ 000000018005e2b8     libucrt:lcidtoname_downlevel.obj
 0002:000062c8       ??_C@_1M@OPIHOOPI@?$AAm?$AAs?$AA?9?$AAm?$AAy@ 000000018005e2c8     libucrt:lcidtoname_downlevel.obj
 0002:000062d8       ??_C@_1M@PPDBCNFM@?$AAm?$AAt?$AA?9?$AAm?$AAt@ 000000018005e2d8     libucrt:lcidtoname_downlevel.obj
 0002:000062e8       ??_C@_1M@KDJDKMDD@?$AAn?$AAb?$AA?9?$AAn?$AAo@ 000000018005e2e8     libucrt:lcidtoname_downlevel.obj
 0002:000062f8       ??_C@_1M@KFCFLMJP@?$AAn?$AAl?$AA?9?$AAb?$AAe@ 000000018005e2f8     libucrt:lcidtoname_downlevel.obj
 0002:00006308       ??_C@_1M@KPOPDDGO@?$AAn?$AAl?$AA?9?$AAn?$AAl@ 000000018005e308     libucrt:lcidtoname_downlevel.obj
 0002:00006318       ??_C@_1M@LJKPEMLN@?$AAn?$AAn?$AA?9?$AAn?$AAo@ 000000018005e318     libucrt:lcidtoname_downlevel.obj
 0002:00006328       ??_C@_1M@BDGHHBFL@?$AAn?$AAs?$AA?9?$AAz?$AAa@ 000000018005e328     libucrt:lcidtoname_downlevel.obj
 0002:00006338       ??_C@_1M@IDEHOAP@?$AAp?$AAa?$AA?9?$AAi?$AAn@ 000000018005e338     libucrt:lcidtoname_downlevel.obj
 0002:00006348       ??_C@_1M@HDBKGOGH@?$AAp?$AAl?$AA?9?$AAp?$AAl@ 000000018005e348     libucrt:lcidtoname_downlevel.obj
 0002:00006358       ??_C@_1M@LJLLCMEH@?$AAp?$AAt?$AA?9?$AAb?$AAr@ 000000018005e358     libucrt:lcidtoname_downlevel.obj
 0002:00006368       ??_C@_1M@NCMONAAL@?$AAp?$AAt?$AA?9?$AAp?$AAt@ 000000018005e368     libucrt:lcidtoname_downlevel.obj
 0002:00006378       ??_C@_1O@EAKMAJDN@?$AAq?$AAu?$AAz?$AA?9?$AAb?$AAo@ 000000018005e378     libucrt:lcidtoname_downlevel.obj
 0002:00006388       ??_C@_1O@BHHPIGDN@?$AAq?$AAu?$AAz?$AA?9?$AAe?$AAc@ 000000018005e388     libucrt:lcidtoname_downlevel.obj
 0002:00006398       ??_C@_1O@GBAPEKMJ@?$AAq?$AAu?$AAz?$AA?9?$AAp?$AAe@ 000000018005e398     libucrt:lcidtoname_downlevel.obj
 0002:000063a8       ??_C@_1M@CLGLEFBO@?$AAr?$AAo?$AA?9?$AAr?$AAo@ 000000018005e3a8     libucrt:lcidtoname_downlevel.obj
 0002:000063b8       ??_C@_1M@CEEDODME@?$AAr?$AAu?$AA?9?$AAr?$AAu@ 000000018005e3b8     libucrt:lcidtoname_downlevel.obj
 0002:000063c8       ??_C@_1M@HPKKKMPP@?$AAs?$AAa?$AA?9?$AAi?$AAn@ 000000018005e3c8     libucrt:lcidtoname_downlevel.obj
 0002:000063d8       ??_C@_1M@BKMAIGOJ@?$AAs?$AAe?$AA?9?$AAf?$AAi@ 000000018005e3d8     libucrt:lcidtoname_downlevel.obj
 0002:000063e8       ??_C@_1M@NDPIFLFI@?$AAs?$AAe?$AA?9?$AAn?$AAo@ 000000018005e3e8     libucrt:lcidtoname_downlevel.obj
 0002:000063f8       ??_C@_1M@DANKKHJ@?$AAs?$AAe?$AA?9?$AAs?$AAe@ 000000018005e3f8     libucrt:lcidtoname_downlevel.obj
 0002:00006408       ??_C@_1M@PNBLONPJ@?$AAs?$AAk?$AA?9?$AAs?$AAk@ 000000018005e408     libucrt:lcidtoname_downlevel.obj
 0002:00006418       ??_C@_1M@LFMODOAL@?$AAs?$AAl?$AA?9?$AAs?$AAi@ 000000018005e418     libucrt:lcidtoname_downlevel.obj
 0002:00006428       ??_C@_1O@DFKOMPG@?$AAs?$AAm?$AAa?$AA?9?$AAn?$AAo@ 000000018005e428     libucrt:lcidtoname_downlevel.obj
 0002:00006438       ??_C@_1O@NDKPBNNH@?$AAs?$AAm?$AAa?$AA?9?$AAs?$AAe@ 000000018005e438     libucrt:lcidtoname_downlevel.obj
 0002:00006448       ??_C@_1O@PLLKBHAB@?$AAs?$AAm?$AAj?$AA?9?$AAn?$AAo@ 000000018005e448     libucrt:lcidtoname_downlevel.obj
 0002:00006458       ??_C@_1O@CLEPOGCA@?$AAs?$AAm?$AAj?$AA?9?$AAs?$AAe@ 000000018005e458     libucrt:lcidtoname_downlevel.obj
 0002:00006468       ??_C@_1O@DLGJGKMK@?$AAs?$AAm?$AAn?$AA?9?$AAf?$AAi@ 000000018005e468     libucrt:lcidtoname_downlevel.obj
 0002:00006478       ??_C@_1O@OJDJGAJC@?$AAs?$AAm?$AAs?$AA?9?$AAf?$AAi@ 000000018005e478     libucrt:lcidtoname_downlevel.obj
 0002:00006488       ??_C@_1M@BOFOGHPB@?$AAs?$AAq?$AA?9?$AAa?$AAl@ 000000018005e488     libucrt:lcidtoname_downlevel.obj
 0002:00006498       ??_C@_1BG@LJBBIPGB@?$AAs?$AAr?$AA?9?$AAb?$AAa?$AA?9?$AAc?$AAy?$AAr?$AAl@ 000000018005e498     libucrt:lcidtoname_downlevel.obj
 0002:000064b0       ??_C@_1BG@JLBENFOE@?$AAs?$AAr?$AA?9?$AAb?$AAa?$AA?9?$AAl?$AAa?$AAt?$AAn@ 000000018005e4b0     libucrt:lcidtoname_downlevel.obj
 0002:000064c8       ??_C@_1BG@KODPNHE@?$AAs?$AAr?$AA?9?$AAs?$AAp?$AA?9?$AAc?$AAy?$AAr?$AAl@ 000000018005e4c8     libucrt:lcidtoname_downlevel.obj
 0002:000064e0       ??_C@_1BG@CIOGKHPB@?$AAs?$AAr?$AA?9?$AAs?$AAp?$AA?9?$AAl?$AAa?$AAt?$AAn@ 000000018005e4e0     libucrt:lcidtoname_downlevel.obj
 0002:000064f8       ??_C@_1M@NGFJLMAC@?$AAs?$AAv?$AA?9?$AAf?$AAi@ 000000018005e4f8     libucrt:lcidtoname_downlevel.obj
 0002:00006508       ??_C@_1M@MPJEJAJC@?$AAs?$AAv?$AA?9?$AAs?$AAe@ 000000018005e508     libucrt:lcidtoname_downlevel.obj
 0002:00006518       ??_C@_1M@MPNDHLFK@?$AAs?$AAw?$AA?9?$AAk?$AAe@ 000000018005e518     libucrt:lcidtoname_downlevel.obj
 0002:00006528       ??_C@_1O@KOHBJJI@?$AAs?$AAy?$AAr?$AA?9?$AAs?$AAy@ 000000018005e528     libucrt:lcidtoname_downlevel.obj
 0002:00006538       ??_C@_1M@LDCEFHA@?$AAt?$AAa?$AA?9?$AAi?$AAn@ 000000018005e538     libucrt:lcidtoname_downlevel.obj
 0002:00006548       ??_C@_1M@CNJOFAK@?$AAt?$AAe?$AA?9?$AAi?$AAn@ 000000018005e548     libucrt:lcidtoname_downlevel.obj
 0002:00006558       ??_C@_1M@GNAECACD@?$AAt?$AAh?$AA?9?$AAt?$AAh@ 000000018005e558     libucrt:lcidtoname_downlevel.obj
 0002:00006568       ??_C@_1M@CHBIHOJO@?$AAt?$AAn?$AA?9?$AAz?$AAa@ 000000018005e568     libucrt:lcidtoname_downlevel.obj
 0002:00006578       ??_C@_1M@GCCMIGPJ@?$AAt?$AAr?$AA?9?$AAt?$AAr@ 000000018005e578     libucrt:lcidtoname_downlevel.obj
 0002:00006588       ??_C@_1M@CELMCNBK@?$AAt?$AAt?$AA?9?$AAr?$AAu@ 000000018005e588     libucrt:lcidtoname_downlevel.obj
 0002:00006598       ??_C@_1M@KLMCELGA@?$AAu?$AAk?$AA?9?$AAu?$AAa@ 000000018005e598     libucrt:lcidtoname_downlevel.obj
 0002:000065a8       ??_C@_1M@EPAJJAJF@?$AAu?$AAr?$AA?9?$AAp?$AAk@ 000000018005e5a8     libucrt:lcidtoname_downlevel.obj
 0002:000065b8       ??_C@_1BG@GEGPMCDJ@?$AAu?$AAz?$AA?9?$AAu?$AAz?$AA?9?$AAc?$AAy?$AAr?$AAl@ 000000018005e5b8     libucrt:lcidtoname_downlevel.obj
 0002:000065d0       ??_C@_1BG@EGGKJILM@?$AAu?$AAz?$AA?9?$AAu?$AAz?$AA?9?$AAl?$AAa?$AAt?$AAn@ 000000018005e5d0     libucrt:lcidtoname_downlevel.obj
 0002:000065e8       ??_C@_1M@GFOCLFF@?$AAv?$AAi?$AA?9?$AAv?$AAn@ 000000018005e5e8     libucrt:lcidtoname_downlevel.obj
 0002:000065f8       ??_C@_1M@CPAMEDFI@?$AAx?$AAh?$AA?9?$AAz?$AAa@ 000000018005e5f8     libucrt:lcidtoname_downlevel.obj
 0002:00006608       ??_C@_1O@EBKIFIGN@?$AAz?$AAh?$AA?9?$AAc?$AAh?$AAs@ 000000018005e608     libucrt:lcidtoname_downlevel.obj
 0002:00006618       ??_C@_1O@NMHPGANE@?$AAz?$AAh?$AA?9?$AAc?$AAh?$AAt@ 000000018005e618     libucrt:lcidtoname_downlevel.obj
 0002:00006628       ??_C@_1M@LPINJOMC@?$AAz?$AAh?$AA?9?$AAc?$AAn@ 000000018005e628     libucrt:lcidtoname_downlevel.obj
 0002:00006638       ??_C@_1M@OCJEJODD@?$AAz?$AAh?$AA?9?$AAh?$AAk@ 000000018005e638     libucrt:lcidtoname_downlevel.obj
 0002:00006648       ??_C@_1M@DNDLJINH@?$AAz?$AAh?$AA?9?$AAm?$AAo@ 000000018005e648     libucrt:lcidtoname_downlevel.obj
 0002:00006658       ??_C@_1M@MBFDNDND@?$AAz?$AAh?$AA?9?$AAs?$AAg@ 000000018005e658     libucrt:lcidtoname_downlevel.obj
 0002:00006668       ??_C@_1M@IMEPLEPE@?$AAz?$AAh?$AA?9?$AAt?$AAw@ 000000018005e668     libucrt:lcidtoname_downlevel.obj
 0002:00006678       ??_C@_1M@BBGHNHJP@?$AAz?$AAu?$AA?9?$AAz?$AAa@ 000000018005e678     libucrt:lcidtoname_downlevel.obj
 0002:00006684       ??_C@_03JGHBODFD@pow@      000000018005e684     libucrt:fpexcept.obj
 0002:00006688       ??_C@_03MGHMBJCF@log@      000000018005e688     libucrt:fpexcept.obj
 0002:0000668c       ??_C@_05HGHHAHAP@log10@    000000018005e68c     libucrt:fpexcept.obj
 0002:00006694       ??_C@_03BLEJJJBH@sin@      000000018005e694     libucrt:fpexcept.obj
 0002:00006698       ??_C@_03LALBNOCG@cos@      000000018005e698     libucrt:fpexcept.obj
 0002:0000669c       ??_C@_03IIINPABG@tan@      000000018005e69c     libucrt:fpexcept.obj
 0002:000066a0       __xmm@80000000000000008000000000000000 000000018005e6a0     libucrt:fpexcept.obj
 0002:000066b0       ?large_power_data@?1??multiply_by_power_of_ten@__crt_strtox@@YA_NAEAUbig_integer@2@I@Z@4QBIB 000000018005e6b0     libucrt:cfout.obj
 0002:00006fc0       ?large_power_indices@?1??multiply_by_power_of_ten@__crt_strtox@@YA_NAEAUbig_integer@2@I@Z@4QBUunpack_index@?1??12@YA_N0I@Z@B 000000018005efc0     libucrt:cfout.obj
 0002:00007058       ?small_powers_of_ten@?1??multiply_by_power_of_ten@__crt_strtox@@YA_NAEAUbig_integer@2@I@Z@4QBIB 000000018005f058     libucrt:cfout.obj
 0002:0000707c       ??_C@_01GBGANLPD@0@        000000018005f07c     libucrt:cfout.obj
 0002:00007080       ??_C@_05DNEBIAHO@1?$CDINF@ 000000018005f080     libucrt:cfout.obj
 0002:00007088       ??_C@_06IMKFLFPG@1?$CDQNAN@ 000000018005f088     libucrt:cfout.obj
 0002:00007090       ??_C@_06PGGFOGJG@1?$CDSNAN@ 000000018005f090     libucrt:cfout.obj
 0002:00007098       ??_C@_05PHHOCPM@1?$CDIND@  000000018005f098     libucrt:cfout.obj
 0002:000070b0       __real@3ff0000000000000    000000018005f0b0     libucrt:ceil.obj
 0002:00007310       __log10_256_lead           000000018005f310     libucrt:log10_256_lead_tail_table.obj
 0002:00007b20       __log10_256_tail           000000018005fb20     libucrt:log10_256_lead_tail_table.obj
 0002:00008330       __log_F_inv_qword          0000000180060330     libucrt:log_f_inv_qword_table.obj
 0002:00008b40       ??_C@_04HIGFGEHP@logf@     0000000180060b40     libucrt:log_special.obj
 0002:00008b48       ??_C@_1BA@BALFACEM@?$AAC?$AAO?$AAN?$AAO?$AAU?$AAT?$AA$@ 0000000180060b48     libucrt:initcon.obj
 0002:00008b68       ??_C@_0BC@EOODALEL@Unknown?5exception@ 0000000180060b68     api.cpp.obj
 0002:00008b80       ??_C@_0BF@KINCDENJ@bad?5array?5new?5length@ 0000000180060b80     api.cpp.obj
 0002:00008b98       ??_C@_1BG@OAJIMIDC@?$AAc?$AAa?$AAl?$AAc?$AAu?$AAl?$AAa?$AAt?$AAo?$AAr@ 0000000180060b98     api.cpp.obj
 0002:00008bb0       ??_C@_0BA@FOIKENOD@vector?5too?5long@ 0000000180060bb0     api.cpp.obj
 0002:00008cd0       ?start_from_line@@3HA      0000000180060cd0     calc.cpp.obj
 0002:00009880       ??_7CalcDialog@@6B@        0000000180061880     api.cpp.obj
 0002:000098d0       ??_C@_0BA@JFNIOLAK@string?5too?5long@ 00000001800618d0     api-far3.cpp.obj
 0002:000098e0       ??_C@_19GMEBBPBD@?$AAc?$AAa?$AAl?$AAc@ 00000001800618e0     api-far3.cpp.obj
 0002:000098f0       ??_C@_1FE@KNDGJLM@?$AAC?$AAa?$AAl?$AAc?$AAu?$AAl?$AAa?$AAt?$AAo?$AAr?$AA?5?$AAp?$AAl?$AAu?$AAg@ 00000001800618f0     api-far3.cpp.obj
 0002:00009948       ??_C@_1BK@OGLIABLH@?$AAu?$AAn?$AAc?$AAl?$AAe?$AA?9?$AAv?$AAu?$AAn?$AAk?$AAi?$AAs@ 0000000180061948     api-far3.cpp.obj
 0002:00009968       PConfigGuid                0000000180061968     api-far3.cpp.obj
 0002:00009980       ??_7CalcDialogFuncsFar3@@6B@ 0000000180061980     api-far3.cpp.obj
 0002:00009a50       MenuGuid                   0000000180061a50     api-far3.cpp.obj
 0002:00009a60       MsgGuid                    0000000180061a60     api-far3.cpp.obj
 0002:00009a70       MainGuid                   0000000180061a70     api-far3.cpp.obj
 0002:00009a88       ??_7CalcApiFar3@@6B@       0000000180061a88     api-far3.cpp.obj
 0002:00009b18       PMenuGuid                  0000000180061b18     api-far3.cpp.obj
 0002:00009b28       ??_C@_11LOCGONAA@@         0000000180061b28     calc.cpp.obj
 0002:00009b30       ??_C@_1O@DLKBEOLN@?$AA?$CG?$AAe?$AAx?$AAp?$AAr?$AA?3@ 0000000180061b30     calc.cpp.obj
 0002:00009b40       ??_C@_1BE@NKEBLGBD@?$AAc?$AAa?$AAl?$AAc?$AA_?$AAe?$AAx?$AAp?$AAr@ 0000000180061b40     calc.cpp.obj
 0002:00009b58       ??_C@_1M@ILHOPKA@?$AAE?$AAr?$AAr?$AAo?$AAr@ 0000000180061b58     calc.cpp.obj
 0002:00009b70       ??_C@_1EE@CDDCLPCA@?$AAB?$AAa?$AAd?$AA?5?$AAF?$AAA?$AAR?$AA?5?$AAv?$AAe?$AAr?$AAs?$AAi?$AAo?$AAn@ 0000000180061b70     calc.cpp.obj
 0002:00009bb8       ??_C@_17ONHPNHHE@?$AAd?$AAi?$AAe@ 0000000180061bb8     calc.cpp.obj
 0002:00009bc0       ??_C@_1BI@OCEAEKFP@?$AAc?$AAa?$AAl?$AAc?$AAs?$AAe?$AAt?$AA?4?$AAc?$AAs?$AAr@ 0000000180061bc0     calc.cpp.obj
 0002:00009bd8       ??_C@_1O@HCAHPFFC@?$AAa?$AAc?$AAt?$AAi?$AAo?$AAn@ 0000000180061bd8     calc.cpp.obj
 0002:00009be8       ??_C@_13NMPKAAJP@?$AA?$DN@ 0000000180061be8     calc.cpp.obj
 0002:00009bf0       ??_C@_1BC@ENICKDH@?$AAC?$AAo?$AAn?$AAt?$AAe?$AAn?$AAt?$AAs@ 0000000180061bf0     calc.cpp.obj
 0002:00009c04       ??_C@_13ODFOLHGE@?$AA?8@   0000000180061c04     calc.cpp.obj
 0002:00009c08       ??_C@_1BC@BGHNJLFB@?$AA?5?$AA?5?$AA?5?$AA?5?$AA?5?$AA?5?$AA?5?$AA?5@ 0000000180061c08     calc.cpp.obj
 0002:00009c1c       ??_C@_13EBCNDICG@?$AA?3@   0000000180061c1c     calc.cpp.obj
 0002:00009c28       ??_7DlgCalc@@6B@           0000000180061c28     calc.cpp.obj
 0002:00009c80       ??_7DlgUnits@@6B@          0000000180061c80     calc.cpp.obj
 0002:00009cd8       ??_C@_1BG@EMOINBMC@?$AAa?$AAu?$AAt?$AAo?$AAU?$AAp?$AAd?$AAa?$AAt?$AAe@ 0000000180061cd8     config.cpp.obj
 0002:00009cf0       ??_C@_13JGCMLPCH@?$AA1@    0000000180061cf0     config.cpp.obj
 0002:00009cf8       ??_C@_1BM@NOLBKNDA@?$AAc?$AAa?$AAs?$AAe?$AAS?$AAe?$AAn?$AAs?$AAi?$AAt?$AAi?$AAv?$AAe@ 0000000180061cf8     config.cpp.obj
 0002:00009d14       ??_C@_13COJANIEC@?$AA0@    0000000180061d14     config.cpp.obj
 0002:00009d18       ??_C@_1BE@EFAIPMMM@?$AAp?$AAa?$AAd?$AAZ?$AAe?$AAr?$AAo?$AAe?$AAs@ 0000000180061d18     config.cpp.obj
 0002:00009d30       ??_C@_1BI@MADFDLFP@?$AAh?$AAi?$AAs?$AAt?$AAo?$AAr?$AAy?$AAH?$AAi?$AAd?$AAe@ 0000000180061d30     config.cpp.obj
 0002:00009d48       ??_C@_1BK@DNLBMCLO@?$AAh?$AAi?$AAs?$AAt?$AAo?$AAr?$AAy?$AAA?$AAb?$AAo?$AAv?$AAe@ 0000000180061d48     config.cpp.obj
 0002:00009d68       ??_C@_1BK@PILFMAJD@?$AAh?$AAi?$AAs?$AAt?$AAo?$AAr?$AAy?$AAB?$AAe?$AAl?$AAo?$AAw@ 0000000180061d68     config.cpp.obj
 0002:00009d88       ??_C@_1BK@GHGEEAEP@?$AAh?$AAi?$AAs?$AAt?$AAo?$AAr?$AAy?$AAL?$AAi?$AAn?$AAe?$AAs@ 0000000180061d88     config.cpp.obj
 0002:00009da4       ??_C@_13OLCEPAKN@?$AA8@    0000000180061da4     config.cpp.obj
 0002:00009da8       ??_C@_1BK@GAAJGDMF@?$AAa?$AAu?$AAt?$AAo?$AAC?$AAo?$AAm?$AAp?$AAl?$AAe?$AAt?$AAe@ 0000000180061da8     config.cpp.obj
 0002:00009dc8       ??_C@_1BI@BMHANOHI@?$AAu?$AAs?$AAe?$AAR?$AAe?$AAg?$AAi?$AAo?$AAn?$AAa?$AAl@ 0000000180061dc8     config.cpp.obj
 0002:00009de0       ??_C@_1BK@INEBBMLC@?$AAd?$AAe?$AAc?$AAi?$AAm?$AAa?$AAl?$AAP?$AAo?$AAi?$AAn?$AAt@ 0000000180061de0     config.cpp.obj
 0002:00009dfc       ??_C@_13JOFGPIOO@?$AA?4@   0000000180061dfc     config.cpp.obj
 0002:00009e00       ??_C@_19OPADFNGK@?$AAA?$AAr?$AAg?$AAs@ 0000000180061e00     config.cpp.obj
 0002:00009e0c       ??_C@_13DEFPDAGF@?$AA?0@   0000000180061e0c     config.cpp.obj
 0002:00009e10       ??_C@_1BC@COPOKELB@?$AAu?$AAs?$AAe?$AAD?$AAe?$AAl?$AAi?$AAm@ 0000000180061e10     config.cpp.obj
 0002:00009e28       ??_C@_1BG@OKFKILMC@?$AAd?$AAi?$AAg?$AAi?$AAt?$AAD?$AAe?$AAl?$AAi?$AAm@ 0000000180061e28     config.cpp.obj
 0002:00009e40       ??_C@_1BE@CKJHCDEO@?$AAm?$AAa?$AAx?$AAP?$AAe?$AAr?$AAi?$AAo?$AAd@ 0000000180061e40     config.cpp.obj
 0002:00009e54       ??_C@_15HBDAHCPF@?$AA1?$AA0@ 0000000180061e54     config.cpp.obj
 0002:00009e60       ??_C@_1BK@PCMCJKIH@?$AAr?$AAe?$AAs?$AAu?$AAl?$AAt?$AAL?$AAe?$AAn?$AAg?$AAt?$AAh@ 0000000180061e60     config.cpp.obj
 0002:00009e80       ??_C@_17KPJHAFJN@?$AA1?$AA2?$AA8@ 0000000180061e80     config.cpp.obj
 0002:00009e88       ??_C@_1CI@HIMBCFBC@?$AAr?$AAe?$AAp?$AAF?$AAr?$AAa?$AAc?$AAt?$AAi?$AAo?$AAn?$AAM?$AAa?$AAx?$AAS@ 0000000180061e88     config.cpp.obj
 0002:00009eb0       ??_C@_15JGPBBLHF@?$AA3?$AA2@ 0000000180061eb0     config.cpp.obj
 0002:00009eb8       ??_C@_1CK@OIDBNNIH@?$AAr?$AAe?$AAp?$AAF?$AAr?$AAa?$AAc?$AAt?$AAi?$AAo?$AAn?$AAM?$AAa?$AAx?$AAP@ 0000000180061eb8     config.cpp.obj
 0002:00009ee8       ??_C@_1CA@PLFMGKCJ@?$AAc?$AAo?$AAn?$AAt?$AAF?$AAr?$AAa?$AAc?$AAt?$AAi?$AAo?$AAn?$AAM?$AAa?$AAx@ 0000000180061ee8     config.cpp.obj
 0002:00009f08       ??_C@_15ODFHNFBK@?$AA6?$AA4@ 0000000180061f08     config.cpp.obj
 0002:00009f10       ??_C@_15JJHPCKJM@?$AA?4?$AA?0@ 0000000180061f10     config.cpp.obj
 0002:00009f18       ??_C@_19DDIDEHHP@?$AA?0?$AA?$DL?$AA?4?$AA?3@ 0000000180061f18     config.cpp.obj
 0002:00009f28       ??_C@_1M@HPFGHMCG@?$AA?5?$AA?0?$AA?8?$AA?$GA?$PP?$KA@ 0000000180061f28     config.cpp.obj
 0002:00009f38       ??_C@_1O@BJPKKLLM@?$AAC?$AAo?$AAn?$AAf?$AAi?$AAg@ 0000000180061f38     config.cpp.obj
 0002:00009f50       ??_7DlgConfig@@6B@         0000000180061f50     config.cpp.obj
 0002:00009fa0       ??_C@_1BA@LIEBAKIN@?$AA_?$AAf?$AAa?$AAc?$AAt?$AAo?$AAr@ 0000000180061fa0     newparse.cpp.obj
 0002:00009fb0       ??_C@_1M@BCHCJKCF@?$AA_?$AAf?$AAr?$AAa?$AAc@ 0000000180061fb0     newparse.cpp.obj
 0002:00009fc0       ??_C@_1O@GCDALDMK@?$AA_?$AAf?$AAl?$AAo?$AAo?$AAr@ 0000000180061fc0     newparse.cpp.obj
 0002:00009fd0       ??_C@_1M@DGBFPLGI@?$AA_?$AAc?$AAe?$AAi?$AAl@ 0000000180061fd0     newparse.cpp.obj
 0002:00009fe0       ??_C@_19ICLHACJN@?$AA_?$AAs?$AAi?$AAn@ 0000000180061fe0     newparse.cpp.obj
 0002:00009ff0       ??_C@_19IKCGFPOJ@?$AA_?$AAc?$AAo?$AAs@ 0000000180061ff0     newparse.cpp.obj
 0002:0000a000       ??_C@_19GECBIJOJ@?$AA_?$AAt?$AAa?$AAn@ 0000000180062000     newparse.cpp.obj
 0002:0000a010       ??_C@_1BA@IGMPBGBG@?$AA_?$AAa?$AAr?$AAc?$AAt?$AAa?$AAn@ 0000000180062010     newparse.cpp.obj
 0002:0000a020       ??_C@_17LCBEIOON@?$AA_?$AAl?$AAn@ 0000000180062020     newparse.cpp.obj
 0002:0000a028       ??_C@_19DMKFNCNP@?$AA_?$AAr?$AAn?$AAd@ 0000000180062028     newparse.cpp.obj
 0002:0000a038       ??_C@_17CHGNDHLB@?$AA_?$AAi?$AAf@ 0000000180062038     newparse.cpp.obj
 0002:0000a040       ??_C@_19JKHDHKFO@?$AA_?$AAf?$AA2?$AAb@ 0000000180062040     newparse.cpp.obj
 0002:0000a050       ??_C@_19NIFGHNCD@?$AA_?$AAd?$AA2?$AAb@ 0000000180062050     newparse.cpp.obj
 0002:0000a060       ??_C@_19JBFLODPD@?$AA_?$AAb?$AA2?$AAf@ 0000000180062060     newparse.cpp.obj
 0002:0000a070       ??_C@_19DLFCCLHI@?$AA_?$AAb?$AA2?$AAd@ 0000000180062070     newparse.cpp.obj
 0002:0000a080       ??_C@_1M@PFCLPFLP@?$AA_?$AAf?$AAi?$AAn?$AAf@ 0000000180062080     newparse.cpp.obj
 0002:0000a090       ??_C@_1M@MLAMGGJM@?$AA_?$AAf?$AAn?$AAa?$AAn@ 0000000180062090     newparse.cpp.obj
 0002:0000a0a0       ??_C@_1O@FMDJELAN@?$AA_?$AAn?$AAu?$AAm?$AAe?$AAr@ 00000001800620a0     newparse.cpp.obj
 0002:0000a0b0       ??_C@_1O@LGMOEBMI@?$AA_?$AAd?$AAe?$AAn?$AAo?$AAm@ 00000001800620b0     newparse.cpp.obj
 0002:0000a0c0       ??_C@_19LEGAPOEO@?$AA_?$AAg?$AAc?$AAd@ 00000001800620c0     newparse.cpp.obj
 0002:0000a0d0       ??_C@_1O@KAHOIPCF@?$AA_?$AAi?$AAn?$AAt?$AA6?$AA4@ 00000001800620d0     newparse.cpp.obj
 0002:0000a0e0       ??_C@_1BA@MEJOLAKK@?$AA_?$AAu?$AAi?$AAn?$AAt?$AA6?$AA4@ 00000001800620e0     newparse.cpp.obj
 0002:0000a0f0       ??_C@_19ENGNKIDN@?$AA_?$AAi?$AAn?$AAt@ 00000001800620f0     newparse.cpp.obj
 0002:0000a100       ??_C@_1M@MDKCFAEA@?$AA_?$AAu?$AAi?$AAn?$AAt@ 0000000180062100     newparse.cpp.obj
 0002:0000a110       ??_C@_1O@GFEDMHMF@?$AA_?$AAs?$AAh?$AAo?$AAr?$AAt@ 0000000180062110     newparse.cpp.obj
 0002:0000a120       ??_C@_1BA@BKDPIEK@?$AA_?$AAu?$AAs?$AAh?$AAo?$AAr?$AAt@ 0000000180062120     newparse.cpp.obj
 0002:0000a130       ??_C@_1M@PBIFEMHI@?$AA_?$AAc?$AAh?$AAa?$AAr@ 0000000180062130     newparse.cpp.obj
 0002:0000a140       ??_C@_1M@DAIDOKPN@?$AA_?$AAb?$AAy?$AAt?$AAe@ 0000000180062140     newparse.cpp.obj
 0002:0000a150       ??_C@_1BA@GLCAMJLF@?$AA_?$AAd?$AAo?$AAu?$AAb?$AAl?$AAe@ 0000000180062150     newparse.cpp.obj
 0002:0000a160       ??_C@_1O@HNFBINGG@?$AA_?$AAf?$AAl?$AAo?$AAa?$AAt@ 0000000180062160     newparse.cpp.obj
 0002:0000a170       ??_C@_19OLLKCKCA@?$AA_?$AAl?$AAo?$AAr@ 0000000180062170     newparse.cpp.obj
 0002:0000a180       ??_C@_1M@JLOFLGEI@?$AA_?$AAl?$AAa?$AAn?$AAd@ 0000000180062180     newparse.cpp.obj
 0002:0000a190       ??_C@_17COEPBEGE@?$AA_?$AAo?$AAr@ 0000000180062190     newparse.cpp.obj
 0002:0000a198       ??_C@_19BDELBFPB@?$AA_?$AAx?$AAo?$AAr@ 0000000180062198     newparse.cpp.obj
 0002:0000a1a8       ??_C@_19MOJBOEBH@?$AA_?$AAa?$AAn?$AAd@ 00000001800621a8     newparse.cpp.obj
 0002:0000a1b8       ??_C@_19BKLBKBNF@?$AA_?$AAn?$AAe?$AAq@ 00000001800621b8     newparse.cpp.obj
 0002:0000a1c8       ??_C@_17JNGBJIOM@?$AA_?$AAe?$AAq@ 00000001800621c8     newparse.cpp.obj
 0002:0000a1d0       ??_C@_17OHHHMJNF@?$AA_?$AAg?$AAt@ 00000001800621d0     newparse.cpp.obj
 0002:0000a1d8       ??_C@_17INLADJBG@?$AA_?$AAl?$AAt@ 00000001800621d8     newparse.cpp.obj
 0002:0000a1e0       ??_C@_19FDCEDJBP@?$AA_?$AAs?$AAh?$AAr@ 00000001800621e0     newparse.cpp.obj
 0002:0000a1f0       ??_C@_19ODOCBJLD@?$AA_?$AAs?$AAh?$AAl@ 00000001800621f0     newparse.cpp.obj
 0002:0000a200       ??_C@_19ICILAJDJ@?$AA_?$AAr?$AAo?$AAr@ 0000000180062200     newparse.cpp.obj
 0002:0000a210       ??_C@_19DCENCJJF@?$AA_?$AAr?$AAo?$AAl@ 0000000180062210     newparse.cpp.obj
 0002:0000a220       ??_C@_1O@CDNAJKIG@?$AA_?$AAm?$AAi?$AAn?$AAu?$AAs@ 0000000180062220     newparse.cpp.obj
 0002:0000a230       ??_C@_1M@JJKNFPIB@?$AA_?$AAp?$AAl?$AAu?$AAs@ 0000000180062230     newparse.cpp.obj
 0002:0000a240       ??_C@_19FCGCCCPN@?$AA_?$AAm?$AAo?$AAd@ 0000000180062240     newparse.cpp.obj
 0002:0000a250       ??_C@_19GBGEEFNP@?$AA_?$AAd?$AAi?$AAv@ 0000000180062250     newparse.cpp.obj
 0002:0000a260       ??_C@_19DFJLCLOP@?$AA_?$AAm?$AAu?$AAl@ 0000000180062260     newparse.cpp.obj
 0002:0000a270       ??_C@_19PHHAPOHG@?$AA_?$AAp?$AAo?$AAw@ 0000000180062270     newparse.cpp.obj
 0002:0000a27c       ??_C@_15HFJMEONN@?$AA?2?$AA?4@ 000000018006227c     newparse.cpp.obj
 0002:0000a284       ??_C@_15JFEDDJOO@?$AA?2?$AA?5@ 0000000180062284     newparse.cpp.obj
 0002:0000a290       ??_C@_17GIBPGHOB@?$AAo?$AAp?$AA0@ 0000000180062290     newparse.cpp.obj
 0002:0000a298       ??_C@_13IMODFHAA@?$AA?9@   0000000180062298     newparse.cpp.obj
 0002:0000a29c       ??_C@_13KJIIAINM@?$AA?$CL@ 000000018006229c     newparse.cpp.obj
 0002:0000a2a0       ??_C@_1M@NJIACANO@?$AA_?$AAl?$AAn?$AAo?$AAt@ 00000001800622a0     newparse.cpp.obj
 0002:0000a2b0       ??_C@_19IMPEHCIB@?$AA_?$AAn?$AAo?$AAt@ 00000001800622b0     newparse.cpp.obj
 0002:0000a2c0       ??_C@_17NAKDAAIE@?$AAo?$AAp?$AA1@ 00000001800622c0     newparse.cpp.obj
 0002:0000a2c8       ??_C@_19HDOMKNDF@?$AAo?$AAp?$AA?$CF?$AAd@ 00000001800622c8     newparse.cpp.obj
 0002:0000a2d8       ??_C@_1CA@GBIOOIMH@?$AA?2?$AA?$HL?$AA?$CI?$AA?$FL?$AA?$FO?$AA?2?$AA?$HL?$AA?2?$AA?$HN?$AA?$FN?$AA?$CL?$AA?$DP?$AA?$CJ?$AA?2?$AA?$HN@ 00000001800622d8     newparse.cpp.obj
 0002:0000a2f8       ??_C@_19HLDNIMFL@?$AA?$CG?$AAd?$AAe?$AAc@ 00000001800622f8     newparse.cpp.obj
 0002:0000a304       ??_C@_13HGPDMIBE@?$AA?$DP@ 0000000180062304     newparse.cpp.obj
 0002:0000a308       ??_C@_1O@PPDEINNO@?$AA1?$AAe?$AA?9?$AA1?$AA5?$AA0@ 0000000180062308     newparse.cpp.obj
 0002:0000a318       ??_C@_1O@CBHGBLIO@?$AA1?$AAe?$AA?9?$AA2?$AA0?$AA0@ 0000000180062318     newparse.cpp.obj
 0002:0000a328       ??_C@_1BA@ICPJGPKE@?$AAe?$AAn?$AA?3?$AAn?$AAa?$AAm?$AAe@ 0000000180062328     newparse.cpp.obj
 0002:0000a338       ??_C@_1BA@HNMPNFGJ@?$AA?$CF?$AAs?$AA?3?$AAn?$AAa?$AAm?$AAe@ 0000000180062338     newparse.cpp.obj
 0002:0000a348       ??_C@_19CDBMBMMD@?$AAC?$AAa?$AAl?$AAc@ 0000000180062348     newparse.cpp.obj
 0002:0000a358       ??_C@_19FPOAHCMC@?$AAl?$AAa?$AAn?$AAg@ 0000000180062358     newparse.cpp.obj
 0002:0000a364       ??_C@_15NFICGAJK@?$AAi?$AAd@ 0000000180062364     newparse.cpp.obj
 0002:0000a370       ??_C@_17GFFKFGK@?$AAU?$AAs?$AAe@ 0000000180062370     newparse.cpp.obj
 0002:0000a378       ??_C@_17PNBAHNJB@?$AAS?$AAe?$AAt@ 0000000180062378     newparse.cpp.obj
 0002:0000a380       ??_C@_19DINFBLAK@?$AAN?$AAa?$AAm?$AAe@ 0000000180062380     newparse.cpp.obj
 0002:0000a390       ??_C@_1O@OIPMHIBM@?$AAd?$AAi?$AAa?$AAl?$AAo?$AAg@ 0000000180062390     newparse.cpp.obj
 0002:0000a3a0       ??_C@_19HIPAKEND@?$AAt?$AAe?$AAx?$AAt@ 00000001800623a0     newparse.cpp.obj
 0002:0000a3b0       ??_C@_1M@DNMONOGI@?$AAf?$AAi?$AAe?$AAl?$AAd@ 00000001800623b0     newparse.cpp.obj
 0002:0000a3c0       ??_C@_1M@ICKBLNNC@?$AAs?$AAc?$AAa?$AAl?$AAe@ 00000001800623c0     newparse.cpp.obj
 0002:0000a3d0       ??_C@_1M@ONBNGBOD@?$AAi?$AAn?$AAp?$AAu?$AAt@ 00000001800623d0     newparse.cpp.obj
 0002:0000a3e0       ??_C@_1O@KEKEFEMI@?$AAo?$AAu?$AAt?$AAp?$AAu?$AAt@ 00000001800623e0     newparse.cpp.obj
 0002:0000a3f0       ??_C@_19HDFEANGE@?$AA?5?$AA?7?$AA?$CL?$AA?9@ 00000001800623f0     newparse.cpp.obj
 0002:0000a400       ??_C@_1BK@NJOKGMIK@?$AA0?$AA1?$AA2?$AA3?$AA4?$AA5?$AA6?$AA7?$AA8?$AA9?$AA?4?$AA?0@ 0000000180062400     newparse.cpp.obj
 0002:0000a41c       ??_C@_15BNFAMCLC@?$AAE?$AAe@ 000000018006241c     newparse.cpp.obj
 0002:0000a428       ??_C@_1BG@PGBNDIAE@?$AA0?$AA1?$AA2?$AA3?$AA4?$AA5?$AA6?$AA7?$AA8?$AA9@ 0000000180062428     newparse.cpp.obj
 0002:0000a440       ??_C@_1M@EPLBPJEA@?$AAC?$AAo?$AAn?$AAs?$AAt@ 0000000180062440     newparse.cpp.obj
 0002:0000a44c       ??_C@_15NLAMEGHJ@?$AAO?$AAp@ 000000018006244c     newparse.cpp.obj
 0002:0000a458       ??_C@_19HAAMEJFN@?$AAF?$AAu?$AAn?$AAc@ 0000000180062458     newparse.cpp.obj
 0002:0000a468       ??_C@_1M@IBBKPFPL@?$AAA?$AAd?$AAd?$AAo?$AAn@ 0000000180062468     newparse.cpp.obj
 0002:0000a478       ??_C@_1BA@KOGKMJKI@?$AAN?$AAu?$AAm?$AAe?$AAr?$AAa?$AAl@ 0000000180062478     newparse.cpp.obj
 0002:0000a488       ??_C@_17LPNGEIND@?$AAd?$AAe?$AAc@ 0000000180062488     newparse.cpp.obj
 0002:0000a490       ??_C@_17GPGBINAC@?$AAh?$AAe?$AAx@ 0000000180062490     newparse.cpp.obj
 0002:0000a498       ??_C@_17PJCLNILO@?$AAo?$AAc?$AAt@ 0000000180062498     newparse.cpp.obj
 0002:0000a4a0       ??_C@_17PMBBFJPC@?$AAb?$AAi?$AAn@ 00000001800624a0     newparse.cpp.obj
 0002:0000a4a8       ??_C@_17IOJIKBHJ@?$AAe?$AAx?$AAp@ 00000001800624a8     newparse.cpp.obj
 0002:0000a4b0       ??_C@_17EHKOIIAO@?$AAr?$AAe?$AAp@ 00000001800624b0     newparse.cpp.obj
 0002:0000a4b8       ??_C@_17OGOCLKHB@?$AAc?$AAo?$AAn@ 00000001800624b8     newparse.cpp.obj
 0002:0000a4c0       ??_C@_1M@PJEDGFGL@?$AAd?$AAe?$AAl?$AAi?$AAm@ 00000001800624c0     newparse.cpp.obj
 0002:0000a4d0       ??_C@_1O@EGNKCMDO@?$AAS?$AAy?$AAn?$AAt?$AAa?$AAx@ 00000001800624d0     newparse.cpp.obj
 0002:0000a4e0       ??_C@_19PHGLOJIJ@?$AAM?$AAe?$AAa?$AAn@ 00000001800624e0     newparse.cpp.obj
 0002:0000a4f0       ??_C@_19HHIIBINK@?$AAn?$AAa?$AAm?$AAe@ 00000001800624f0     newparse.cpp.obj
 0002:0000a4fc       ??_C@_15NMKAEDEP@?$AAo?$AAp@ 00000001800624fc     newparse.cpp.obj
 0002:0000a508       ??_C@_1BC@MKJLPPGE@?$AAp?$AAr?$AAi?$AAo?$AAr?$AAi?$AAt?$AAy@ 0000000180062508     newparse.cpp.obj
 0002:0000a520       ??_C@_1BA@LJFFLCNF@?$AAn?$AAu?$AAm?$AAe?$AAr?$AAa?$AAl@ 0000000180062520     newparse.cpp.obj
 0002:0000a530       ??_C@_1M@JJCLCOAD@?$AAa?$AAd?$AAd?$AAo?$AAn@ 0000000180062530     newparse.cpp.obj
 0002:0000a540       ??_C@_1O@JODKLKCF@?$AAf?$AAo?$AAr?$AAm?$AAa?$AAt@ 0000000180062540     newparse.cpp.obj
 0002:0000a550       ??_C@_1M@KHKPDBBF@?$AAr?$AAa?$AAd?$AAi?$AAx@ 0000000180062550     newparse.cpp.obj
 0002:0000a560       ??_C@_19DMECPMPJ@?$AA1?$AAe?$AA1?$AA0@ 0000000180062560     newparse.cpp.obj
 0002:0000a570       ??_C@_1M@IBFOCACA@?$AA1?$AAe?$AA1?$AA0?$AA0@ 0000000180062570     newparse.cpp.obj
 0002:0000a580       ??_C@_1O@FOMBHNJF@?$AA1?$AAe?$AA1?$AA0?$AA0?$AA0@ 0000000180062580     newparse.cpp.obj
 0002:0000a590       ??_C@_1BA@NCKJNFLO@?$AA1?$AAe?$AA1?$AA0?$AA0?$AA0?$AA0@ 0000000180062590     newparse.cpp.obj
 0002:0000a5a0       ??_C@_1BC@HMNEIPGF@?$AA1?$AAe?$AA1?$AA0?$AA0?$AA0?$AA0?$AA0@ 00000001800625a0     newparse.cpp.obj
 0002:0000a5b8       ??_C@_1BE@JFKGIFCG@?$AA1?$AAe?$AA1?$AA0?$AA0?$AA0?$AA0?$AA0?$AA0@ 00000001800625b8     newparse.cpp.obj
 0002:0000a5d0       ??_C@_1BG@KOCHJJIM@?$AA1?$AAe?$AA1?$AA0?$AA0?$AA0?$AA0?$AA0?$AA0?$AA0@ 00000001800625d0     newparse.cpp.obj
 0002:0000a5e8       ??_C@_1BI@OOMOKKCB@?$AA1?$AAe?$AA1?$AA0?$AA0?$AA0?$AA0?$AA0?$AA0?$AA0?$AA0@ 00000001800625e8     newparse.cpp.obj
 0002:0000a600       ??_C@_1M@GBBGNHOB@?$AA1?$AAe?$AA?9?$AA1?$AA0@ 0000000180062600     newparse.cpp.obj
 0002:0000a610       ??_C@_1O@KPPJBMGN@?$AA1?$AAe?$AA?9?$AA1?$AA0?$AA0@ 0000000180062610     newparse.cpp.obj
 0002:0000a620       ??_C@_1BA@DEHJBOPN@?$AA1?$AAe?$AA?9?$AA1?$AA0?$AA0?$AA0@ 0000000180062620     newparse.cpp.obj
 0002:0000a630       ??_C@_1BC@KLDGGOEL@?$AA1?$AAe?$AA?9?$AA1?$AA0?$AA0?$AA0?$AA0@ 0000000180062630     newparse.cpp.obj
 0002:0000a648       ??_C@_1BE@EJKMIJAG@?$AA1?$AAe?$AA?9?$AA1?$AA0?$AA0?$AA0?$AA0?$AA0@ 0000000180062648     newparse.cpp.obj
 0002:0000a660       ??_C@_1BG@DCBFCNAP@?$AA1?$AAe?$AA?9?$AA1?$AA0?$AA0?$AA0?$AA0?$AA0?$AA0@ 0000000180062660     newparse.cpp.obj
 0002:0000a678       ??_C@_1BI@DCGMIKAO@?$AA1?$AAe?$AA?9?$AA1?$AA0?$AA0?$AA0?$AA0?$AA0?$AA0?$AA0@ 0000000180062678     newparse.cpp.obj
 0002:0000a690       ??_C@_1BK@GDMFINHN@?$AA1?$AAe?$AA?9?$AA1?$AA0?$AA0?$AA0?$AA0?$AA0?$AA0?$AA0?$AA0@ 0000000180062690     newparse.cpp.obj
 0002:0000a6ac       ??_C@_13LLDNKHDC@?$AA?$CI@ 00000001800626ac     newparse.cpp.obj
 0002:0000a6b0       ??_C@_13DIBMAFH@?$AA?$CJ@  00000001800626b0     newparse.cpp.obj
 0002:0000a6b4       ??_C@_13MCLHKIEA@?$AA?$FL@ 00000001800626b4     newparse.cpp.obj
 0002:0000a6b8       ??_C@_13OHNMPHJM@?$AA?$FN@ 00000001800626b8     newparse.cpp.obj
 0002:0000a6bc       ??_C@_13EPJEBPGL@?$AAb@    00000001800626bc     newparse.cpp.obj
 0002:0000a6c0       ??_C@_13LNPOMHLG@?$AAo@    00000001800626c0     newparse.cpp.obj
 0002:0000a6c4       ??_C@_13CACJPPAP@?$AAh@    00000001800626c4     newparse.cpp.obj
 0002:0000a6c8       ??_C@_17BOKJADLI@?$AAN?$AAa?$AAN@ 00000001800626c8     newparse.cpp.obj
 0002:0000a6d0       ??_C@_19LMLHAANK@?$AA?9?$AAI?$AAn?$AAf@ 00000001800626d0     newparse.cpp.obj
 0002:0000a6e0       ??_C@_19LBKJHAJN@?$AA?$CL?$AAI?$AAn?$AAf@ 00000001800626e0     newparse.cpp.obj
 0002:0000a6f0       ??_C@_19LKNGIOFH@?$AA1?$AAe?$AA2?$AA0@ 00000001800626f0     newparse.cpp.obj
 0002:0000a700       ??_C@_19HBIKFNPC@?$AA1?$AAe?$AA3?$AA0@ 0000000180062700     newparse.cpp.obj
 0002:0000a710       ??_C@_19GMIPGNEK@?$AA1?$AAe?$AA4?$AA0@ 0000000180062710     newparse.cpp.obj
 0002:0000a720       ??_C@_19KHNDLOOP@?$AA1?$AAe?$AA5?$AA0@ 0000000180062720     newparse.cpp.obj
 0002:0000a730       ??_C@_1M@OHICKFEP@?$AA1?$AAe?$AA?9?$AA2?$AA0@ 0000000180062730     newparse.cpp.obj
 0002:0000a740       ??_C@_1M@CMNOHGOK@?$AA1?$AAe?$AA?9?$AA3?$AA0@ 0000000180062740     newparse.cpp.obj
 0002:0000a750       ??_C@_1M@DBNLEGFC@?$AA1?$AAe?$AA?9?$AA4?$AA0@ 0000000180062750     newparse.cpp.obj
 0002:0000a760       ??_C@_1M@PKIHJFPH@?$AA1?$AAe?$AA?9?$AA5?$AA0@ 0000000180062760     newparse.cpp.obj
 0002:0000a770       ??_C@_0BI@CFPLBAOH@invalid?5string?5position@ 0000000180062770     newparse.cpp.obj
 0002:0000a788       ??_C@_04PKGIDFMJ@?$CK10?$FO@ 0000000180062788     newparse.cpp.obj
 0002:0000a798       ??_7UnaryOperationNodeFactory@?$MathExpressionBase@USArg@@@@6B@ 0000000180062798     newparse.cpp.obj
 0002:0000a7a8       ??_7ArgNodeFactory@?$MathExpressionBase@USArg@@@@6B@ 00000001800627a8     newparse.cpp.obj
 0002:0000a7b0       ?log_tab@?1??ToStringLog2@?$UInt@$01@ttmath@@IEBAN_K@Z@4PANA 00000001800627b0     newparse.cpp.obj
 0002:0000a7b0       ?log_tab@?1??ToStringLog2@?$UInt@$0BK@@ttmath@@IEBAN_K@Z@4PANA 00000001800627b0     newparse.cpp.obj
 0002:0000a830       ??_7ConstValueNodeFactoryImpl@NamedConstantList@?$MathExpressionBase@USArg@@@@6B@ 0000000180062830     newparse.cpp.obj
 0002:0000a890       ??_7ArgNode@?$MathExpressionBase@USArg@@@@6B@ 0000000180062890     newparse.cpp.obj
 0002:0000a938       ??_7?$FunctionPointerNode@P6A?AUSArg@@U1@@Z@?$MathExpressionBase@USArg@@@@6B@ 0000000180062938     newparse.cpp.obj
 0002:0000a950       ??_7?$MathExpressionNodeFactory@USArg@@@?$FunctionListBase@VFunctionalNodeFactory@?$MathExpressionBase@USArg@@@@@?$MathExpressionBase@USArg@@@@6B@ 0000000180062950     newparse.cpp.obj
 0002:0000a968       ??_7FunctionalNodeFactory@?$MathExpressionBase@USArg@@@@6B@ 0000000180062968     newparse.cpp.obj
 0002:0000a980       ??_7?$FunctionPointerNodeFactory@P6A?AUSArg@@AEBU1@0@Z@?$FunctionListBase@VFunctionalNodeFactory@?$MathExpressionBase@USArg@@@@@?$MathExpressionBase@USArg@@@@6B@ 0000000180062980     newparse.cpp.obj
 0002:0000a990       ?temp_table@?1??SetLn2@?$Big@$00$0BK@@ttmath@@QEAAXXZ@4QBIB 0000000180062990     newparse.cpp.obj
 0002:0000a990       ?temp_table@?1??SetLn2@?$Big@$01$0BK@@ttmath@@QEAAXXZ@4QBIB 0000000180062990     newparse.cpp.obj
 0002:0000ad90       ?temp_table@?1??SetLn10@?$Big@$01$0BK@@ttmath@@QEAAXXZ@4QBIB 0000000180062d90     newparse.cpp.obj
 0002:0000b198       ??_7?$FunctionPointerNode@P6A?AUSArg@@AEBU1@00@Z@?$MathExpressionBase@USArg@@@@6B@ 0000000180063198     newparse.cpp.obj
 0002:0000b1b0       ??_7ConstValueNodeFactory@?$MathExpressionBase@USArg@@@@6B@ 00000001800631b0     newparse.cpp.obj
 0002:0000b1c0       ??_7FunctionalNode@?$MathExpressionBase@USArg@@@@6B@ 00000001800631c0     newparse.cpp.obj
 0002:0000b1d8       ??_7?$MathExpressionBase@USArg@@@@6B@ 00000001800631d8     newparse.cpp.obj
 0002:0000b230       ??_7?$FunctionPointerNodeFactory@P6A?AUSArg@@XZ@?$FunctionListBase@VFunctionalNodeFactory@?$MathExpressionBase@USArg@@@@@?$MathExpressionBase@USArg@@@@6B@ 0000000180063230     newparse.cpp.obj
 0002:0000b248       ??_7BinaryOperationNodeFactory@?$MathExpressionBase@USArg@@@@6B@ 0000000180063248     newparse.cpp.obj
 0002:0000b258       ??_7?$FunctionPointerNodeFactory@P6A?AUSArg@@U1@@Z@?$FunctionListBase@VUnaryOperationNodeFactory@?$MathExpressionBase@USArg@@@@@?$MathExpressionBase@USArg@@@@6B@ 0000000180063258     newparse.cpp.obj
 0002:0000b268       ??_7ArgNodeFactoryImpl@ArgList@?$MathExpressionBase@USArg@@@@6B@ 0000000180063268     newparse.cpp.obj
 0002:0000b278       ??_7?$FunctionPointerNodeFactory@P6A?AUSArg@@AEBU1@00@Z@?$FunctionListBase@VFunctionalNodeFactory@?$MathExpressionBase@USArg@@@@@?$MathExpressionBase@USArg@@@@6B@ 0000000180063278     newparse.cpp.obj
 0002:0000b290       ??_7?$FunctionPointerNodeFactory@P6A?AUSArg@@AEBU1@@Z@?$FunctionListBase@VUnaryOperationNodeFactory@?$MathExpressionBase@USArg@@@@@?$MathExpressionBase@USArg@@@@6B@ 0000000180063290     newparse.cpp.obj
 0002:0000b2a0       ??_7?$FunctionPointerNodeFactory@P6A?AUSArg@@AEBU1@@Z@?$FunctionListBase@VFunctionalNodeFactory@?$MathExpressionBase@USArg@@@@@?$MathExpressionBase@USArg@@@@6B@ 00000001800632a0     newparse.cpp.obj
 0002:0000b2b8       ??_7?$MathExpressionNode@USArg@@@?$MathExpressionBase@USArg@@@@6B@ 00000001800632b8     newparse.cpp.obj
 0002:0000b2d0       ??_7?$FunctionPointerNode@P6A?AUSArg@@AEBU1@0@Z@?$MathExpressionBase@USArg@@@@6B@ 00000001800632d0     newparse.cpp.obj
 0002:0000b2e8       ??_7?$FunctionPointerNodeFactory@P6A?AUSArg@@AEBU1@0@Z@?$FunctionListBase@VBinaryOperationNodeFactory@?$MathExpressionBase@USArg@@@@@?$MathExpressionBase@USArg@@@@6B@ 00000001800632e8     newparse.cpp.obj
 0002:0000b380       ??_7CalcParser@@6B@        0000000180063380     newparse.cpp.obj
 0002:0000b3d8       ??_7?$FunctionPointerNode@P6A?AUSArg@@XZ@?$MathExpressionBase@USArg@@@@6B@ 00000001800633d8     newparse.cpp.obj
 0002:0000b3f0       ??_7?$FunctionPointerNode@P6A?AUSArg@@AEBU1@@Z@?$MathExpressionBase@USArg@@@@6B@ 00000001800633f0     newparse.cpp.obj
 0002:0000b408       ??_7ConstValueNode@?$MathExpressionBase@USArg@@@@6B@ 0000000180063408     newparse.cpp.obj
 0002:0000b420       ??_7Node@?$MathExpressionBase@USArg@@@@6B@ 0000000180063420     newparse.cpp.obj
 0002:0000b430       ??_C@_1CC@JPENPCAM@?$AA0?$AA1?$AA2?$AA3?$AA4?$AA5?$AA6?$AA7?$AA8?$AA9?$AAA?$AAB?$AAC?$AAD?$AAE@ 0000000180063430     sarg.cpp.obj
 0002:0000b460       ?temp_table@?1??SetE@?$Big@$00$0BK@@ttmath@@QEAAXXZ@4QBIB 0000000180063460     sarg.cpp.obj
 0002:0000b860       ?temp_table@?1??SetMantissaPi@?$Big@$00$0BK@@ttmath@@AEAAXXZ@4QBIB 0000000180063860     sarg.cpp.obj
 0002:0000bc60       ??_C@_15JJPIMNBO@?$AAr?$AAb@ 0000000180063c60     sgml.cpp.obj
 0002:0000bc68       ??_C@_19GOOLGBJN@?$AA?$CG?$AAl?$AAt?$AA?$DL@ 0000000180063c68     sgml.cpp.obj
 0002:0000bc78       ??_C@_19DDIBHNML@?$AA?$CG?$AAg?$AAt?$AA?$DL@ 0000000180063c78     sgml.cpp.obj
 0002:0000bc88       ??_C@_1M@CKOFOPMN@?$AA?$CG?$AAa?$AAm?$AAp?$AA?$DL@ 0000000180063c88     sgml.cpp.obj
 0002:0000bc98       ??_C@_1O@KDPLEHB@?$AA?$CG?$AAq?$AAu?$AAo?$AAt?$AA?$DL@ 0000000180063c98     sgml.cpp.obj
 0002:0000bca8       ??_C@_1BG@PPCNHJGL@?$AAx?$AAi?$AA?3?$AAi?$AAn?$AAc?$AAl?$AAu?$AAd?$AAe@ 0000000180063ca8     sgml.cpp.obj
 0002:0000bcc0       ??_C@_19HGEEHDNG@?$AAh?$AAr?$AAe?$AAf@ 0000000180063cc0     sgml.cpp.obj
 0002:0000bcd8       ??_7CSgmlEl@@6B@           0000000180063cd8     sgml.cpp.obj
 0002:0000bd28       __real@3ff4000000000000    0000000180063d28     newparse.cpp.obj
 0002:0000bd30       __real@4004000000000000    0000000180063d30     newparse.cpp.obj
 0002:0000bd38       __real@4050000000000000    0000000180063d38     newparse.cpp.obj
 0002:0000bd40       __real@43e0000000000000    0000000180063d40     sarg.cpp.obj
 0002:0000bd48       __real@5f000000            0000000180063d48     sarg.cpp.obj
 0002:0000bd4c       __real@7f800000            0000000180063d4c     sarg.cpp.obj
 0002:0000bd50       __real@7fc00000            0000000180063d50     sarg.cpp.obj
 0002:0000bd54       __real@80000000            0000000180063d54     sarg.cpp.obj
 0002:0000bd60       __xmm@ffffffffffffffff0000000000000001 0000000180063d60     calc.cpp.obj
 0002:0000bd70       __xmm@ffffffffffffffffffffffffffffffff 0000000180063d70     newparse.cpp.obj
 0002:0000bd88       ??_7bad_cast@std@@6B@      0000000180063d88     libvcruntime:rtti.obj
 0002:0000bda0       ??_7bad_typeid@std@@6B@    0000000180063da0     libvcruntime:rtti.obj
 0002:0000bdb8       ??_7__non_rtti_object@std@@6B@ 0000000180063db8     libvcruntime:rtti.obj
 0002:0000bdc8       ??_C@_0CB@CGKGGDFI@Access?5violation?5?9?5no?5RTTI?5data@ 0000000180063dc8     libvcruntime:rtti.obj
 0002:0000bdf0       ??_C@_0BC@JNJNLHBP@Bad?5dynamic_cast?$CB@ 0000000180063df0     libvcruntime:rtti.obj
 0002:0000be08       __real@3c7007887af0cbbc    0000000180063e08     libucrt:atan.obj
 0002:0000be10       __real@3c7a2b7f222f65e0    0000000180063e10     libucrt:atan.obj
 0002:0000be18       __real@3c81a62633145c06    0000000180063e18     libucrt:atan.obj
 0002:0000be20       __real@3c91a62633145c06    0000000180063e20     libucrt:atan.obj
 0002:0000be28       __real@3f22a75ce41b9f87    0000000180063e28     libucrt:atan.obj
 0002:0000be30       __real@3f9f2d2116f053f2    0000000180063e30     libucrt:atan.obj
 0002:0000be38       __real@3fa3f197f1e85ed9    0000000180063e38     libucrt:atan.obj
 0002:0000be40       __real@3fcc3de43db425c0    0000000180063e40     libucrt:atan.obj
 0002:0000be48       __real@3fd12bcb0a9169f3    0000000180063e48     libucrt:atan.obj
 0002:0000be50       __real@3fdb2cb05bf9beff    0000000180063e50     libucrt:atan.obj
 0002:0000be58       __real@3fdca6be4c993b3c    0000000180063e58     libucrt:atan.obj
 0002:0000be60       __real@3fddac670561bb4f    0000000180063e60     libucrt:atan.obj
 0002:0000be68       __real@3fe921fb54442d18    0000000180063e68     libucrt:atan.obj
 0002:0000be70       __real@3fe9c1b08fda1eec    0000000180063e70     libucrt:atan.obj
 0002:0000be78       __real@3fef730bd281f69b    0000000180063e78     libucrt:atan.obj
 0002:0000be80       __real@3ff699c644c48d2e    0000000180063e80     libucrt:atan.obj
 0002:0000be88       __real@3ff8000000000000    0000000180063e88     libucrt:atan.obj
 0002:0000be90       __real@3ff921fb54442d18    0000000180063e90     libucrt:atan.obj
 0002:0000be98       __real@3ffd372a17cdf5a0    0000000180063e98     libucrt:atan.obj
 0002:0000bea0       __real@4000000000000000    0000000180063ea0     libucrt:atan.obj
 0002:0000bea8       __real@43d0dc0000000000    0000000180063ea8     libucrt:atan.obj
 0002:0000beb0       __real@bff0000000000000    0000000180063eb0     libucrt:atan.obj
 0002:0000beb8       __real@bff921fb54442d18    0000000180063eb8     libucrt:atan.obj
 0002:0000bec0       __real@3f73476a758da22a    0000000180063ec0     libucrt:atanf.obj
 0002:0000bec8       __real@3fc89e173a81ee7f    0000000180063ec8     libucrt:atanf.obj
 0002:0000bed0       __real@3fc90fdb            0000000180063ed0     libucrt:atanf.obj
 0002:0000bed8       __real@3fd2fa5316907834    0000000180063ed8     libucrt:atanf.obj
 0002:0000bee0       __real@3fd327e3df2cf2aa    0000000180063ee0     libucrt:atanf.obj
 0002:0000bee8       __real@3fec777ca21053f0    0000000180063ee8     libucrt:atanf.obj
 0002:0000bef0       __real@3ff1c58793da6ea4    0000000180063ef0     libucrt:atanf.obj
 0002:0000bef8       __real@43d3200000000000    0000000180063ef8     libucrt:atanf.obj
 0002:0000bf00       __real@bfc90fdb            0000000180063f00     libucrt:atanf.obj
 0002:0000bf04       __real@3f800000            0000000180063f04     libucrt:ceilf.obj
 0002:0000c10c       __real@bf800000            000000018006410c     libucrt:floorf.obj
 0002:0000e5a0       __Lcosarray                00000001800665a0     libucrt:lsincos_array.obj
 0002:0000e600       __Lsinarray                0000000180066600     libucrt:lsincos_array.obj
 0002:0000e980       ??_C@_04LAGPAAHP@sinf@     0000000180066980     libucrt:sincos_special.obj
 0002:0000e988       ??_C@_04OBBKPIAC@cosf@     0000000180066988     libucrt:sincos_special.obj
 0002:0000e990       ??_C@_04MHPLPEIA@tanf@     0000000180066990     libucrt:sincos_special.obj
 0002:0000e9b0       __Lcosfarray               00000001800669b0     libucrt:lsincosf_array.obj
 0002:0000e9e0       __Lsinfarray               00000001800669e0     libucrt:lsincosf_array.obj
 0002:0000ea00       __log_256_lead             0000000180066a00     libucrt:log_256_lead_tail_table.obj
 0002:0000f210       __log_256_tail             0000000180067210     libucrt:log_256_lead_tail_table.obj
 0002:0000fa20       __log_128_lead             0000000180067a20     libucrt:log_128_lead_tail_table.obj
 0002:0000fc30       __log_128_tail             0000000180067c30     libucrt:log_128_lead_tail_table.obj
 0002:0000fe40       __log_F_inv_dword          0000000180067e40     libucrt:log_f_inv_dword_table.obj
 0002:00010050       __two_to_jby64_head_table  0000000180068050     libucrt:two_to_jby64_head_tail_table.obj
 0002:00010250       __two_to_jby64_tail_table  0000000180068250     libucrt:two_to_jby64_head_tail_table.obj
 0002:00010450       ??_C@_04MBFDLNIM@powf@     0000000180068450     libucrt:pow_special.obj
 0002:00010460       __two_to_jby64_table       0000000180068460     libucrt:two_to_jby64_table.obj
 0002:00010660       __L_2_by_pi_bits           0000000180068660     libucrt:l2_by_pi_bits.obj
 0002:00010810       _load_config_used          0000000180068810     LIBCMT:loadcfg.obj
 0002:00010980       ??_R4logic_error@std@@6B@  0000000180068980     libcpmt:xthrow.obj
 0002:000109a8       ??_R3logic_error@std@@8    00000001800689a8     libcpmt:xthrow.obj
 0002:000109c0       ??_R2logic_error@std@@8    00000001800689c0     libcpmt:xthrow.obj
 0002:000109d8       ??_R1A@?0A@EA@logic_error@std@@8 00000001800689d8     libcpmt:xthrow.obj
 0002:00010a00       ??_R4length_error@std@@6B@ 0000000180068a00     libcpmt:xthrow.obj
 0002:00010a28       ??_R3length_error@std@@8   0000000180068a28     libcpmt:xthrow.obj
 0002:00010a40       ??_R2length_error@std@@8   0000000180068a40     libcpmt:xthrow.obj
 0002:00010a60       ??_R1A@?0A@EA@length_error@std@@8 0000000180068a60     libcpmt:xthrow.obj
 0002:00010a88       ??_R4out_of_range@std@@6B@ 0000000180068a88     libcpmt:xthrow.obj
 0002:00010ab0       ??_R3out_of_range@std@@8   0000000180068ab0     libcpmt:xthrow.obj
 0002:00010ac8       ??_R2out_of_range@std@@8   0000000180068ac8     libcpmt:xthrow.obj
 0002:00010ae8       ??_R1A@?0A@EA@out_of_range@std@@8 0000000180068ae8     libcpmt:xthrow.obj
 0002:00010b10       ??_R4type_info@@6B@        0000000180068b10     LIBCMT:std_type_info_static.obj
 0002:00010b38       ??_R3type_info@@8          0000000180068b38     LIBCMT:std_type_info_static.obj
 0002:00010b50       ??_R2type_info@@8          0000000180068b50     LIBCMT:std_type_info_static.obj
 0002:00010b60       ??_R1A@?0A@EA@type_info@@8 0000000180068b60     LIBCMT:std_type_info_static.obj
 0002:00010b88       ??_R4bad_exception@std@@6B@ 0000000180068b88     libvcruntime:frame.obj
 0002:00010bb0       ??_R3bad_exception@std@@8  0000000180068bb0     libvcruntime:frame.obj
 0002:00010bc8       ??_R2bad_exception@std@@8  0000000180068bc8     libvcruntime:frame.obj
 0002:00010be0       ??_R1A@?0A@EA@bad_exception@std@@8 0000000180068be0     libvcruntime:frame.obj
 0002:00010c08       ??_R4exception@std@@6B@    0000000180068c08     api.cpp.obj
 0002:00010c30       ??_R2bad_array_new_length@std@@8 0000000180068c30     api.cpp.obj
 0002:00010c50       ??_R4CalcDialog@@6B@       0000000180068c50     api.cpp.obj
 0002:00010c78       ??_R2bad_alloc@std@@8      0000000180068c78     api.cpp.obj
 0002:00010c90       ??_R1A@?0A@EA@exception@std@@8 0000000180068c90     api.cpp.obj
 0002:00010cb8       ??_R1A@?0A@EA@bad_alloc@std@@8 0000000180068cb8     api.cpp.obj
 0002:00010ce0       ??_R2exception@std@@8      0000000180068ce0     api.cpp.obj
 0002:00010cf0       ??_R1A@?0A@EA@CalcDialog@@8 0000000180068cf0     api.cpp.obj
 0002:00010d18       ??_R3exception@std@@8      0000000180068d18     api.cpp.obj
 0002:00010d30       ??_R4bad_alloc@std@@6B@    0000000180068d30     api.cpp.obj
 0002:00010d58       ??_R3CalcDialog@@8         0000000180068d58     api.cpp.obj
 0002:00010d70       ??_R3bad_array_new_length@std@@8 0000000180068d70     api.cpp.obj
 0002:00010d88       ??_R3bad_alloc@std@@8      0000000180068d88     api.cpp.obj
 0002:00010da0       ??_R2CalcDialog@@8         0000000180068da0     api.cpp.obj
 0002:00010db0       ??_R4bad_array_new_length@std@@6B@ 0000000180068db0     api.cpp.obj
 0002:00010dd8       ??_R1A@?0A@EA@bad_array_new_length@std@@8 0000000180068dd8     api.cpp.obj
 0002:00010e00       ??_R3CalcApiFar3@@8        0000000180068e00     api-far3.cpp.obj
 0002:00010e18       ??_R1A@?0A@EA@CalcDialogFuncs@@8 0000000180068e18     api-far3.cpp.obj
 0002:00010e40       ??_R3CalcDialogFuncsFar3@@8 0000000180068e40     api-far3.cpp.obj
 0002:00010e58       ??_R1A@?0A@EA@CalcApi@@8   0000000180068e58     api-far3.cpp.obj
 0002:00010e80       ??_R4CalcDialogFuncsFar3@@6B@ 0000000180068e80     api-far3.cpp.obj
 0002:00010ea8       ??_R2CalcDialogFuncs@@8    0000000180068ea8     api-far3.cpp.obj
 0002:00010eb8       ??_R4CalcApiFar3@@6B@      0000000180068eb8     api-far3.cpp.obj
 0002:00010ee0       ??_R2CalcDialogFuncsFar3@@8 0000000180068ee0     api-far3.cpp.obj
 0002:00010ef8       ??_R3CalcApi@@8            0000000180068ef8     api-far3.cpp.obj
 0002:00010f10       ??_R2CalcApi@@8            0000000180068f10     api-far3.cpp.obj
 0002:00010f20       ??_R1A@?0A@EA@CalcApiFar3@@8 0000000180068f20     api-far3.cpp.obj
 0002:00010f48       ??_R3CalcDialogFuncs@@8    0000000180068f48     api-far3.cpp.obj
 0002:00010f60       ??_R2CalcApiFar3@@8        0000000180068f60     api-far3.cpp.obj
 0002:00010f78       ??_R1A@?0A@EA@CalcDialogFuncsFar3@@8 0000000180068f78     api-far3.cpp.obj
 0002:00010fa0       ??_R1A@?0A@EA@DlgCalc@@8   0000000180068fa0     calc.cpp.obj
 0002:00010fc8       ??_R4DlgCalc@@6B@          0000000180068fc8     calc.cpp.obj
 0002:00010ff0       ??_R3DlgUnits@@8           0000000180068ff0     calc.cpp.obj
 0002:00011008       ??_R2DlgCalc@@8            0000000180069008     calc.cpp.obj
 0002:00011020       ??_R1A@?0A@EA@DlgUnits@@8  0000000180069020     calc.cpp.obj
 0002:00011048       ??_R2DlgUnits@@8           0000000180069048     calc.cpp.obj
 0002:00011060       ??_R4DlgUnits@@6B@         0000000180069060     calc.cpp.obj
 0002:00011088       ??_R3DlgCalc@@8            0000000180069088     calc.cpp.obj
 0002:000110a0       ??_R3DlgConfig@@8          00000001800690a0     config.cpp.obj
 0002:000110b8       ??_R1A@?0A@EA@DlgConfig@@8 00000001800690b8     config.cpp.obj
 0002:000110e0       ??_R4DlgConfig@@6B@        00000001800690e0     config.cpp.obj
 0002:00011108       ??_R2DlgConfig@@8          0000000180069108     config.cpp.obj
 0002:00011120       ??_R3?$FunctionPointerNode@P6A?AUSArg@@U1@@Z@?$MathExpressionBase@USArg@@@@8 0000000180069120     newparse.cpp.obj
 0002:00011138       ??_R3ArgNodeFactory@?$MathExpressionBase@USArg@@@@8 0000000180069138     newparse.cpp.obj
 0002:00011150       ??_R2?$FunctionPointerNodeFactory@P6A?AUSArg@@AEBU1@0@Z@?$FunctionListBase@VFunctionalNodeFactory@?$MathExpressionBase@USArg@@@@@?$MathExpressionBase@USArg@@@@8 0000000180069150     newparse.cpp.obj
 0002:00011168       ??_R4CalcParser@@6B@       0000000180069168     newparse.cpp.obj
 0002:00011190       ??_R1A@?0A@EA@ArgNodeFactoryImpl@ArgList@?$MathExpressionBase@USArg@@@@8 0000000180069190     newparse.cpp.obj
 0002:000111b8       ??_R2Node@?$MathExpressionBase@USArg@@@@8 00000001800691b8     newparse.cpp.obj
 0002:000111c8       ??_R3?$MathExpressionNode@USArg@@@?$MathExpressionBase@USArg@@@@8 00000001800691c8     newparse.cpp.obj
 0002:000111e0       ??_R1A@?0A@EA@?$FunctionPointerNodeFactory@P6A?AUSArg@@AEBU1@0@Z@?$FunctionListBase@VBinaryOperationNodeFactory@?$MathExpressionBase@USArg@@@@@?$MathExpressionBase@USArg@@@@8 00000001800691e0     newparse.cpp.obj
 0002:00011208       ??_R2?$FunctionPointerNodeFactory@P6A?AUSArg@@AEBU1@00@Z@?$FunctionListBase@VFunctionalNodeFactory@?$MathExpressionBase@USArg@@@@@?$MathExpressionBase@USArg@@@@8 0000000180069208     newparse.cpp.obj
 0002:00011220       ??_R3?$FunctionPointerNode@P6A?AUSArg@@XZ@?$MathExpressionBase@USArg@@@@8 0000000180069220     newparse.cpp.obj
 0002:00011238       ??_R2?$FunctionPointerNode@P6A?AUSArg@@AEBU1@@Z@?$MathExpressionBase@USArg@@@@8 0000000180069238     newparse.cpp.obj
 0002:00011258       ??_R1A@?0A@EA@?$FunctionPointerNodeFactory@P6A?AUSArg@@AEBU1@@Z@?$FunctionListBase@VFunctionalNodeFactory@?$MathExpressionBase@USArg@@@@@?$MathExpressionBase@USArg@@@@8 0000000180069258     newparse.cpp.obj
 0002:00011280       ??_R3?$FunctionPointerNode@P6A?AUSArg@@AEBU1@@Z@?$MathExpressionBase@USArg@@@@8 0000000180069280     newparse.cpp.obj
 0002:00011298       ??_R4?$FunctionPointerNodeFactory@P6A?AUSArg@@AEBU1@0@Z@?$FunctionListBase@VBinaryOperationNodeFactory@?$MathExpressionBase@USArg@@@@@?$MathExpressionBase@USArg@@@@6B@ 0000000180069298     newparse.cpp.obj
 0002:000112c0       ??_R2ArgNodeFactoryImpl@ArgList@?$MathExpressionBase@USArg@@@@8 00000001800692c0     newparse.cpp.obj
 0002:000112d8       ??_R4?$FunctionPointerNode@P6A?AUSArg@@U1@@Z@?$MathExpressionBase@USArg@@@@6B@ 00000001800692d8     newparse.cpp.obj
 0002:00011300       ??_R4ConstValueNodeFactoryImpl@NamedConstantList@?$MathExpressionBase@USArg@@@@6B@ 0000000180069300     newparse.cpp.obj
 0002:00011328       ??_R3?$FunctionPointerNode@P6A?AUSArg@@AEBU1@0@Z@?$MathExpressionBase@USArg@@@@8 0000000180069328     newparse.cpp.obj
 0002:00011340       ??_R3?$FunctionPointerNode@P6A?AUSArg@@AEBU1@00@Z@?$MathExpressionBase@USArg@@@@8 0000000180069340     newparse.cpp.obj
 0002:00011358       ??_R2BinaryOperationNodeFactory@?$MathExpressionBase@USArg@@@@8 0000000180069358     newparse.cpp.obj
 0002:00011368       ??_R1A@?0A@EA@?$FunctionPointerNode@P6A?AUSArg@@XZ@?$MathExpressionBase@USArg@@@@8 0000000180069368     newparse.cpp.obj
 0002:00011390       ??_R3Node@?$MathExpressionBase@USArg@@@@8 0000000180069390     newparse.cpp.obj
 0002:000113a8       ??_R3?$FunctionPointerNodeFactory@P6A?AUSArg@@XZ@?$FunctionListBase@VFunctionalNodeFactory@?$MathExpressionBase@USArg@@@@@?$MathExpressionBase@USArg@@@@8 00000001800693a8     newparse.cpp.obj
 0002:000113c0       ??_R1A@?0A@EA@?$FunctionPointerNodeFactory@P6A?AUSArg@@U1@@Z@?$FunctionListBase@VUnaryOperationNodeFactory@?$MathExpressionBase@USArg@@@@@?$MathExpressionBase@USArg@@@@8 00000001800693c0     newparse.cpp.obj
 0002:000113e8       ??_R3?$FunctionPointerNodeFactory@P6A?AUSArg@@AEBU1@@Z@?$FunctionListBase@VFunctionalNodeFactory@?$MathExpressionBase@USArg@@@@@?$MathExpressionBase@USArg@@@@8 00000001800693e8     newparse.cpp.obj
 0002:00011400       ??_R2FunctionalNodeFactory@?$MathExpressionBase@USArg@@@@8 0000000180069400     newparse.cpp.obj
 0002:00011410       ??_R3?$MathExpressionNodeFactory@USArg@@@?$FunctionListBase@VFunctionalNodeFactory@?$MathExpressionBase@USArg@@@@@?$MathExpressionBase@USArg@@@@8 0000000180069410     newparse.cpp.obj
 0002:00011428       ??_R2FunctionalNode@?$MathExpressionBase@USArg@@@@8 0000000180069428     newparse.cpp.obj
 0002:00011440       ??_R3ArgNode@?$MathExpressionBase@USArg@@@@8 0000000180069440     newparse.cpp.obj
 0002:00011458       ??_R1A@?0A@EA@FunctionalNodeFactory@?$MathExpressionBase@USArg@@@@8 0000000180069458     newparse.cpp.obj
 0002:00011480       ??_R4FunctionalNode@?$MathExpressionBase@USArg@@@@6B@ 0000000180069480     newparse.cpp.obj
 0002:000114a8       ??_R2?$FunctionPointerNodeFactory@P6A?AUSArg@@XZ@?$FunctionListBase@VFunctionalNodeFactory@?$MathExpressionBase@USArg@@@@@?$MathExpressionBase@USArg@@@@8 00000001800694a8     newparse.cpp.obj
 0002:000114c0       ??_R2UnaryOperationNodeFactory@?$MathExpressionBase@USArg@@@@8 00000001800694c0     newparse.cpp.obj
 0002:000114d0       ??_R4?$FunctionPointerNodeFactory@P6A?AUSArg@@AEBU1@@Z@?$FunctionListBase@VFunctionalNodeFactory@?$MathExpressionBase@USArg@@@@@?$MathExpressionBase@USArg@@@@6B@ 00000001800694d0     newparse.cpp.obj
 0002:000114f8       ??_R4ArgNode@?$MathExpressionBase@USArg@@@@6B@ 00000001800694f8     newparse.cpp.obj
 0002:00011520       ??_R2ConstValueNodeFactoryImpl@NamedConstantList@?$MathExpressionBase@USArg@@@@8 0000000180069520     newparse.cpp.obj
 0002:00011538       ??_R1A@?0A@EA@BinaryOperationNodeFactory@?$MathExpressionBase@USArg@@@@8 0000000180069538     newparse.cpp.obj
 0002:00011560       ??_R4UnaryOperationNodeFactory@?$MathExpressionBase@USArg@@@@6B@ 0000000180069560     newparse.cpp.obj
 0002:00011588       ??_R1A@?0A@EA@FunctionalNode@?$MathExpressionBase@USArg@@@@8 0000000180069588     newparse.cpp.obj
 0002:000115b0       ??_R4?$MathExpressionNodeFactory@USArg@@@?$FunctionListBase@VFunctionalNodeFactory@?$MathExpressionBase@USArg@@@@@?$MathExpressionBase@USArg@@@@6B@ 00000001800695b0     newparse.cpp.obj
 0002:000115d8       ??_R3FunctionalNodeFactory@?$MathExpressionBase@USArg@@@@8 00000001800695d8     newparse.cpp.obj
 0002:000115f0       ??_R1A@?0A@EA@?$FunctionPointerNodeFactory@P6A?AUSArg@@AEBU1@00@Z@?$FunctionListBase@VFunctionalNodeFactory@?$MathExpressionBase@USArg@@@@@?$MathExpressionBase@USArg@@@@8 00000001800695f0     newparse.cpp.obj
 0002:00011618       ??_R3UnaryOperationNodeFactory@?$MathExpressionBase@USArg@@@@8 0000000180069618     newparse.cpp.obj
 0002:00011630       ??_R2ArgNodeFactory@?$MathExpressionBase@USArg@@@@8 0000000180069630     newparse.cpp.obj
 0002:00011640       ??_R4ConstValueNode@?$MathExpressionBase@USArg@@@@6B@ 0000000180069640     newparse.cpp.obj
 0002:00011668       ??_R4?$FunctionPointerNodeFactory@P6A?AUSArg@@AEBU1@@Z@?$FunctionListBase@VUnaryOperationNodeFactory@?$MathExpressionBase@USArg@@@@@?$MathExpressionBase@USArg@@@@6B@ 0000000180069668     newparse.cpp.obj
 0002:00011690       ??_R1A@?0A@EA@Node@?$MathExpressionBase@USArg@@@@8 0000000180069690     newparse.cpp.obj
 0002:000116b8       ??_R2?$FunctionPointerNodeFactory@P6A?AUSArg@@AEBU1@@Z@?$FunctionListBase@VFunctionalNodeFactory@?$MathExpressionBase@USArg@@@@@?$MathExpressionBase@USArg@@@@8 00000001800696b8     newparse.cpp.obj
 0002:000116d0       ??_R1A@?0A@EA@ConstValueNodeFactory@?$MathExpressionBase@USArg@@@@8 00000001800696d0     newparse.cpp.obj
 0002:000116f8       ??_R3ConstValueNode@?$MathExpressionBase@USArg@@@@8 00000001800696f8     newparse.cpp.obj
 0002:00011710       ??_R4?$FunctionPointerNode@P6A?AUSArg@@AEBU1@@Z@?$MathExpressionBase@USArg@@@@6B@ 0000000180069710     newparse.cpp.obj
 0002:00011738       ??_R2ConstValueNodeFactory@?$MathExpressionBase@USArg@@@@8 0000000180069738     newparse.cpp.obj
 0002:00011748       ??_R4Node@?$MathExpressionBase@USArg@@@@6B@ 0000000180069748     newparse.cpp.obj
 0002:00011770       ??_R3?$FunctionPointerNodeFactory@P6A?AUSArg@@AEBU1@@Z@?$FunctionListBase@VUnaryOperationNodeFactory@?$MathExpressionBase@USArg@@@@@?$MathExpressionBase@USArg@@@@8 0000000180069770     newparse.cpp.obj
 0002:00011788       ??_R4?$FunctionPointerNode@P6A?AUSArg@@XZ@?$MathExpressionBase@USArg@@@@6B@ 0000000180069788     newparse.cpp.obj
 0002:000117b0       ??_R1A@?0A@EA@?$FunctionPointerNodeFactory@P6A?AUSArg@@AEBU1@0@Z@?$FunctionListBase@VFunctionalNodeFactory@?$MathExpressionBase@USArg@@@@@?$MathExpressionBase@USArg@@@@8 00000001800697b0     newparse.cpp.obj
 0002:000117d8       ??_R4FunctionalNodeFactory@?$MathExpressionBase@USArg@@@@6B@ 00000001800697d8     newparse.cpp.obj
 0002:00011800       ??_R4?$MathExpressionNode@USArg@@@?$MathExpressionBase@USArg@@@@6B@ 0000000180069800     newparse.cpp.obj
 0002:00011828       ??_R2?$FunctionPointerNode@P6A?AUSArg@@AEBU1@00@Z@?$MathExpressionBase@USArg@@@@8 0000000180069828     newparse.cpp.obj
 0002:00011848       ??_R3ArgNodeFactoryImpl@ArgList@?$MathExpressionBase@USArg@@@@8 0000000180069848     newparse.cpp.obj
 0002:00011860       ??_R1A@?0A@EA@?$MathExpressionNode@USArg@@@?$MathExpressionBase@USArg@@@@8 0000000180069860     newparse.cpp.obj
 0002:00011888       ??_R3FunctionalNode@?$MathExpressionBase@USArg@@@@8 0000000180069888     newparse.cpp.obj
 0002:000118a0       ??_R1A@?0A@EA@?$FunctionPointerNodeFactory@P6A?AUSArg@@AEBU1@@Z@?$FunctionListBase@VUnaryOperationNodeFactory@?$MathExpressionBase@USArg@@@@@?$MathExpressionBase@USArg@@@@8 00000001800698a0     newparse.cpp.obj
 0002:000118c8       ??_R3ConstValueNodeFactory@?$MathExpressionBase@USArg@@@@8 00000001800698c8     newparse.cpp.obj
 0002:000118e0       ??_R3?$FunctionPointerNodeFactory@P6A?AUSArg@@AEBU1@0@Z@?$FunctionListBase@VBinaryOperationNodeFactory@?$MathExpressionBase@USArg@@@@@?$MathExpressionBase@USArg@@@@8 00000001800698e0     newparse.cpp.obj
 0002:000118f8       ??_R4ArgNodeFactory@?$MathExpressionBase@USArg@@@@6B@ 00000001800698f8     newparse.cpp.obj
 0002:00011920       ??_R3ConstValueNodeFactoryImpl@NamedConstantList@?$MathExpressionBase@USArg@@@@8 0000000180069920     newparse.cpp.obj
 0002:00011938       ??_R1A@?0A@EA@ArgNode@?$MathExpressionBase@USArg@@@@8 0000000180069938     newparse.cpp.obj
 0002:00011960       ??_R2ConstValueNode@?$MathExpressionBase@USArg@@@@8 0000000180069960     newparse.cpp.obj
 0002:00011978       ??_R3BinaryOperationNodeFactory@?$MathExpressionBase@USArg@@@@8 0000000180069978     newparse.cpp.obj
 0002:00011990       ??_R1A@?0A@EA@?$FunctionPointerNodeFactory@P6A?AUSArg@@XZ@?$FunctionListBase@VFunctionalNodeFactory@?$MathExpressionBase@USArg@@@@@?$MathExpressionBase@USArg@@@@8 0000000180069990     newparse.cpp.obj
 0002:000119b8       ??_R2ArgNode@?$MathExpressionBase@USArg@@@@8 00000001800699b8     newparse.cpp.obj
 0002:000119d0       ??_R4?$FunctionPointerNodeFactory@P6A?AUSArg@@U1@@Z@?$FunctionListBase@VUnaryOperationNodeFactory@?$MathExpressionBase@USArg@@@@@?$MathExpressionBase@USArg@@@@6B@ 00000001800699d0     newparse.cpp.obj
 0002:000119f8       ??_R1A@?0A@EA@ConstValueNode@?$MathExpressionBase@USArg@@@@8 00000001800699f8     newparse.cpp.obj
 0002:00011a20       ??_R3CalcParser@@8         0000000180069a20     newparse.cpp.obj
 0002:00011a38       ??_R4BinaryOperationNodeFactory@?$MathExpressionBase@USArg@@@@6B@ 0000000180069a38     newparse.cpp.obj
 0002:00011a60       ??_R4ConstValueNodeFactory@?$MathExpressionBase@USArg@@@@6B@ 0000000180069a60     newparse.cpp.obj
 0002:00011a88       ??_R1A@?0A@EA@?$FunctionPointerNode@P6A?AUSArg@@AEBU1@00@Z@?$MathExpressionBase@USArg@@@@8 0000000180069a88     newparse.cpp.obj
 0002:00011ab0       ??_R2CalcParser@@8         0000000180069ab0     newparse.cpp.obj
 0002:00011ac8       ??_R1A@?0A@EA@?$FunctionPointerNode@P6A?AUSArg@@AEBU1@0@Z@?$MathExpressionBase@USArg@@@@8 0000000180069ac8     newparse.cpp.obj
 0002:00011af0       ??_R4?$FunctionPointerNodeFactory@P6A?AUSArg@@XZ@?$FunctionListBase@VFunctionalNodeFactory@?$MathExpressionBase@USArg@@@@@?$MathExpressionBase@USArg@@@@6B@ 0000000180069af0     newparse.cpp.obj
 0002:00011b18       ??_R2?$MathExpressionBase@USArg@@@@8 0000000180069b18     newparse.cpp.obj
 0002:00011b28       ??_R4ArgNodeFactoryImpl@ArgList@?$MathExpressionBase@USArg@@@@6B@ 0000000180069b28     newparse.cpp.obj
 0002:00011b50       ??_R1A@?0A@EA@?$FunctionPointerNode@P6A?AUSArg@@U1@@Z@?$MathExpressionBase@USArg@@@@8 0000000180069b50     newparse.cpp.obj
 0002:00011b78       ??_R2?$FunctionPointerNode@P6A?AUSArg@@AEBU1@0@Z@?$MathExpressionBase@USArg@@@@8 0000000180069b78     newparse.cpp.obj
 0002:00011b98       ??_R4?$FunctionPointerNodeFactory@P6A?AUSArg@@AEBU1@0@Z@?$FunctionListBase@VFunctionalNodeFactory@?$MathExpressionBase@USArg@@@@@?$MathExpressionBase@USArg@@@@6B@ 0000000180069b98     newparse.cpp.obj
 0002:00011bc0       ??_R2?$FunctionPointerNode@P6A?AUSArg@@XZ@?$MathExpressionBase@USArg@@@@8 0000000180069bc0     newparse.cpp.obj
 0002:00011be0       ??_R2?$FunctionPointerNodeFactory@P6A?AUSArg@@AEBU1@0@Z@?$FunctionListBase@VBinaryOperationNodeFactory@?$MathExpressionBase@USArg@@@@@?$MathExpressionBase@USArg@@@@8 0000000180069be0     newparse.cpp.obj
 0002:00011bf8       ??_R4?$MathExpressionBase@USArg@@@@6B@ 0000000180069bf8     newparse.cpp.obj
 0002:00011c20       ??_R2?$FunctionPointerNodeFactory@P6A?AUSArg@@AEBU1@@Z@?$FunctionListBase@VUnaryOperationNodeFactory@?$MathExpressionBase@USArg@@@@@?$MathExpressionBase@USArg@@@@8 0000000180069c20     newparse.cpp.obj
 0002:00011c38       ??_R1A@?0A@EA@ArgNodeFactory@?$MathExpressionBase@USArg@@@@8 0000000180069c38     newparse.cpp.obj
 0002:00011c60       ??_R3?$FunctionPointerNodeFactory@P6A?AUSArg@@AEBU1@0@Z@?$FunctionListBase@VFunctionalNodeFactory@?$MathExpressionBase@USArg@@@@@?$MathExpressionBase@USArg@@@@8 0000000180069c60     newparse.cpp.obj
 0002:00011c78       ??_R4?$FunctionPointerNode@P6A?AUSArg@@AEBU1@0@Z@?$MathExpressionBase@USArg@@@@6B@ 0000000180069c78     newparse.cpp.obj
 0002:00011ca0       ??_R1A@?0A@EA@ConstValueNodeFactoryImpl@NamedConstantList@?$MathExpressionBase@USArg@@@@8 0000000180069ca0     newparse.cpp.obj
 0002:00011cc8       ??_R2?$MathExpressionNode@USArg@@@?$MathExpressionBase@USArg@@@@8 0000000180069cc8     newparse.cpp.obj
 0002:00011ce8       ??_R1A@?0A@EA@?$MathExpressionBase@USArg@@@@8 0000000180069ce8     newparse.cpp.obj
 0002:00011d10       ??_R1A@?0A@EA@?$MathExpressionNodeFactory@USArg@@@?$FunctionListBase@VFunctionalNodeFactory@?$MathExpressionBase@USArg@@@@@?$MathExpressionBase@USArg@@@@8 0000000180069d10     newparse.cpp.obj
 0002:00011d38       ??_R2?$FunctionPointerNodeFactory@P6A?AUSArg@@U1@@Z@?$FunctionListBase@VUnaryOperationNodeFactory@?$MathExpressionBase@USArg@@@@@?$MathExpressionBase@USArg@@@@8 0000000180069d38     newparse.cpp.obj
 0002:00011d50       ??_R2?$FunctionPointerNode@P6A?AUSArg@@U1@@Z@?$MathExpressionBase@USArg@@@@8 0000000180069d50     newparse.cpp.obj
 0002:00011d70       ??_R3?$FunctionPointerNodeFactory@P6A?AUSArg@@U1@@Z@?$FunctionListBase@VUnaryOperationNodeFactory@?$MathExpressionBase@USArg@@@@@?$MathExpressionBase@USArg@@@@8 0000000180069d70     newparse.cpp.obj
 0002:00011d88       ??_R4?$FunctionPointerNodeFactory@P6A?AUSArg@@AEBU1@00@Z@?$FunctionListBase@VFunctionalNodeFactory@?$MathExpressionBase@USArg@@@@@?$MathExpressionBase@USArg@@@@6B@ 0000000180069d88     newparse.cpp.obj
 0002:00011db0       ??_R2?$MathExpressionNodeFactory@USArg@@@?$FunctionListBase@VFunctionalNodeFactory@?$MathExpressionBase@USArg@@@@@?$MathExpressionBase@USArg@@@@8 0000000180069db0     newparse.cpp.obj
 0002:00011dc8       ??_R3?$FunctionPointerNodeFactory@P6A?AUSArg@@AEBU1@00@Z@?$FunctionListBase@VFunctionalNodeFactory@?$MathExpressionBase@USArg@@@@@?$MathExpressionBase@USArg@@@@8 0000000180069dc8     newparse.cpp.obj
 0002:00011de0       ??_R3?$MathExpressionBase@USArg@@@@8 0000000180069de0     newparse.cpp.obj
 0002:00011df8       ??_R1A@?0A@EA@?$FunctionPointerNode@P6A?AUSArg@@AEBU1@@Z@?$MathExpressionBase@USArg@@@@8 0000000180069df8     newparse.cpp.obj
 0002:00011e20       ??_R4?$FunctionPointerNode@P6A?AUSArg@@AEBU1@00@Z@?$MathExpressionBase@USArg@@@@6B@ 0000000180069e20     newparse.cpp.obj
 0002:00011e48       ??_R1A@?0A@EA@CalcParser@@8 0000000180069e48     newparse.cpp.obj
 0002:00011e70       ??_R1A@?0A@EA@UnaryOperationNodeFactory@?$MathExpressionBase@USArg@@@@8 0000000180069e70     newparse.cpp.obj
 0002:00011e98       ??_R4CSgmlEl@@6B@          0000000180069e98     sgml.cpp.obj
 0002:00011ec0       ??_R1A@?0A@EA@CSgmlEl@@8   0000000180069ec0     sgml.cpp.obj
 0002:00011ee8       ??_R2CSgmlEl@@8            0000000180069ee8     sgml.cpp.obj
 0002:00011ef8       ??_R3CSgmlEl@@8            0000000180069ef8     sgml.cpp.obj
 0002:00011f10       ??_R4bad_cast@std@@6B@     0000000180069f10     libvcruntime:rtti.obj
 0002:00011f38       ??_R3bad_cast@std@@8       0000000180069f38     libvcruntime:rtti.obj
 0002:00011f50       ??_R2bad_cast@std@@8       0000000180069f50     libvcruntime:rtti.obj
 0002:00011f68       ??_R1A@?0A@EA@bad_cast@std@@8 0000000180069f68     libvcruntime:rtti.obj
 0002:00011f90       ??_R4bad_typeid@std@@6B@   0000000180069f90     libvcruntime:rtti.obj
 0002:00011fb8       ??_R3bad_typeid@std@@8     0000000180069fb8     libvcruntime:rtti.obj
 0002:00011fd0       ??_R2bad_typeid@std@@8     0000000180069fd0     libvcruntime:rtti.obj
 0002:00011fe8       ??_R1A@?0A@EA@bad_typeid@std@@8 0000000180069fe8     libvcruntime:rtti.obj
 0002:00012010       ??_R4__non_rtti_object@std@@6B@ 000000018006a010     libvcruntime:rtti.obj
 0002:00012038       ??_R3__non_rtti_object@std@@8 000000018006a038     libvcruntime:rtti.obj
 0002:00012050       ??_R2__non_rtti_object@std@@8 000000018006a050     libvcruntime:rtti.obj
 0002:00012070       ??_R1A@?0A@EA@__non_rtti_object@std@@8 000000018006a070     libvcruntime:rtti.obj
 0002:00012408       __rtc_iaa                  000000018006a408     LIBCMT:initsect.obj
 0002:00012410       __rtc_izz                  000000018006a410     LIBCMT:initsect.obj
 0002:00012418       __rtc_taa                  000000018006a418     LIBCMT:initsect.obj
 0002:00012420       __rtc_tzz                  000000018006a420     LIBCMT:initsect.obj
 0002:00017218       _TI2?AVbad_alloc@std@@     000000018006f218     libcpmt:xthrow.obj
 0002:00017238       _CTA2?AVbad_alloc@std@@    000000018006f238     libcpmt:xthrow.obj
 0002:00017250       _CT??_R0?AVlogic_error@std@@@8??0logic_error@std@@QEAA@AEBV01@@Z24 000000018006f250     libcpmt:xthrow.obj
 0002:00017278       _TI3?AVlength_error@std@@  000000018006f278     libcpmt:xthrow.obj
 0002:00017298       _CTA3?AVlength_error@std@@ 000000018006f298     libcpmt:xthrow.obj
 0002:000172b8       _CT??_R0?AVlength_error@std@@@8??0length_error@std@@QEAA@AEBV01@@Z24 000000018006f2b8     libcpmt:xthrow.obj
 0002:000172e0       _TI3?AVout_of_range@std@@  000000018006f2e0     libcpmt:xthrow.obj
 0002:00017300       _CTA3?AVout_of_range@std@@ 000000018006f300     libcpmt:xthrow.obj
 0002:00017320       _CT??_R0?AVout_of_range@std@@@8??0out_of_range@std@@QEAA@AEBV01@@Z24 000000018006f320     libcpmt:xthrow.obj
 0002:00017348       _TI2?AVbad_exception@std@@ 000000018006f348     libvcruntime:frame.obj
 0002:00017368       _CTA2?AVbad_exception@std@@ 000000018006f368     libvcruntime:frame.obj
 0002:00017380       _CT??_R0?AVbad_exception@std@@@8??0bad_exception@std@@QEAA@AEBV01@@Z24 000000018006f380     libvcruntime:frame.obj
 0002:000173a8       _CTA3?AVbad_array_new_length@std@@ 000000018006f3a8     api.cpp.obj
 0002:000173c8       _CT??_R0?AVbad_array_new_length@std@@@8??0bad_array_new_length@std@@QEAA@AEBV01@@Z24 000000018006f3c8     api.cpp.obj
 0002:000173f0       _CT??_R0?AVbad_alloc@std@@@8??0bad_alloc@std@@QEAA@AEBV01@@Z24 000000018006f3f0     api.cpp.obj
 0002:00017418       _CT??_R0?AVexception@std@@@8??0exception@std@@QEAA@AEBV01@@Z24 000000018006f418     api.cpp.obj
 0002:00017440       _TI3?AVbad_array_new_length@std@@ 000000018006f440     api.cpp.obj
 0002:00017460       _TI1?AW4CALC_ERROR@@       000000018006f460     newparse.cpp.obj
 0002:00017480       _CT??_R0?AW4CALC_ERROR@@@84 000000018006f480     newparse.cpp.obj
 0002:000174a8       _CTA1?AW4CALC_ERROR@@      000000018006f4a8     newparse.cpp.obj
 0002:000174b8       _TI3?AV__non_rtti_object@std@@ 000000018006f4b8     libvcruntime:rtti.obj
 0002:000174d8       _CTA3?AV__non_rtti_object@std@@ 000000018006f4d8     libvcruntime:rtti.obj
 0002:000174f8       _CT??_R0?AV__non_rtti_object@std@@@8??0__non_rtti_object@std@@QEAA@AEBV01@@Z24 000000018006f4f8     libvcruntime:rtti.obj
 0002:00017520       _CT??_R0?AVbad_typeid@std@@@8??0bad_typeid@std@@QEAA@AEBV01@@Z24 000000018006f520     libvcruntime:rtti.obj
 0002:00017548       _TI2?AVbad_cast@std@@      000000018006f548     libvcruntime:rtti.obj
 0002:00017568       _CTA2?AVbad_cast@std@@     000000018006f568     libvcruntime:rtti.obj
 0002:00017580       _CT??_R0?AVbad_cast@std@@@8??0bad_cast@std@@QEAA@AEBV01@@Z24 000000018006f580     libvcruntime:rtti.obj
 0002:00017654       __IMPORT_DESCRIPTOR_KERNEL32 000000018006f654     kernel32:KERNEL32.dll
 0002:00017668       __NULL_IMPORT_DESCRIPTOR   000000018006f668     kernel32:KERNEL32.dll
 0003:00000000       __scrt_native_dllmain_reason 0000000180070000     LIBCMT:utility.obj
 0003:00000008       __isa_available            0000000180070008     LIBCMT:cpu_disp.obj
 0003:0000000c       __isa_enabled              000000018007000c     LIBCMT:cpu_disp.obj
 0003:00000010       __memcpy_nt_iters          0000000180070010     LIBCMT:cpu_disp.obj
 0003:00000018       __memset_nt_iters          0000000180070018     LIBCMT:cpu_disp.obj
 0003:00000020       __security_cookie_complement 0000000180070020     LIBCMT:gs_cookie.obj
 0003:00000028       __security_cookie          0000000180070028     LIBCMT:gs_cookie.obj
 0003:00000040       __abort_behavior           0000000180070040     libucrt:abort.obj
 0003:00000060       _pwctype                   0000000180070060     libucrt:ctype.obj
 0003:00000070       __acrt_initial_locale_data 0000000180070070     libucrt:nlsdata.obj
 0003:000001c8       __acrt_initial_locale_pointers 00000001800701c8     libucrt:nlsdata.obj
 0003:000001d8       __acrt_wide_c_locale_string 00000001800701d8     libucrt:nlsdata.obj
 0003:000001e0       _iob                       00000001800701e0     libucrt:_file.obj
 0003:000002f0       __badioinfo                00000001800702f0     libucrt:ioinit.obj
 0003:00000340       _lookuptrailbytes          0000000180070340     libucrt:read.obj
 0003:00000440       __acrt_initial_multibyte_data 0000000180070440     libucrt:mbctype.obj
 0003:00000980       __globallocalestatus       0000000180070980     libucrt:glstatus.obj
 0003:00000990       __acrt_lconv_c             0000000180070990     libucrt:localeconv.obj
 0003:00000a28       __acrt_lconv_static_decimal 0000000180070a28     libucrt:localeconv.obj
 0003:00000a2c       __acrt_lconv_static_W_decimal 0000000180070a2c     libucrt:localeconv.obj
 0003:00000a60       _fltused                   0000000180070a60     LIBCMT:fltused.obj
 0003:00000a70       ?badFar@@3_NA              0000000180070a70     calc.cpp.obj
 0003:00000a74       ?curRadio@@3HA             0000000180070a74     calc.cpp.obj
 0003:00000a78       ?calc_cy@@3HA              0000000180070a78     calc.cpp.obj
 0003:00000a7c       ?calc_cx@@3HA              0000000180070a7c     calc.cpp.obj
 0003:00000a80       ?cur_op_name@@3V?$basic_string@_WU?$char_traits@_W@std@@V?$allocator@_W@2@@std@@A 0000000180070a80     newparse.cpp.obj
 0003:00000aa0       ?rep_fraction_thr2@CalcParser@@1V?$Big@$00$0BK@@ttmath@@A 0000000180070aa0     newparse.cpp.obj
 0003:00000b80       ?from_convs@CalcParser@@2PAUConv@ttmath@@A 0000000180070b80     newparse.cpp.obj
 0003:000011e0       ?rep_fraction_thr@CalcParser@@1V?$Big@$00$0BK@@ttmath@@A 00000001800711e0     newparse.cpp.obj
 0003:000012c0       ?to_convs@CalcParser@@2PAUConv@ttmath@@A 00000001800712c0     newparse.cpp.obj
 0003:00001920       ?error_overflow_msg@?1???$ToStringBase@V?$basic_string@_WU?$char_traits@_W@std@@V?$allocator@_W@2@@std@@_W@?$Big@$00$0BK@@ttmath@@AEBA_KAEAV?$basic_string@_WU?$char_traits@_W@std@@V?$allocator@_W@2@@std@@AEBUConv@2@@Z@4PADA 0000000180071920     newparse.cpp.obj
 0003:0000192c       ?error_nan_msg@?1???$ToStringBase@V?$basic_string@_WU?$char_traits@_W@std@@V?$allocator@_W@2@@std@@_W@?$Big@$00$0BK@@ttmath@@AEBA_KAEAV?$basic_string@_WU?$char_traits@_W@std@@V?$allocator@_W@2@@std@@AEBUConv@2@@Z@4PADA 000000018007192c     newparse.cpp.obj
 0003:00001c20       ??_R0?AVlogic_error@std@@@8 0000000180071c20     libcpmt:xthrow.obj
 0003:00001c48       ??_R0?AVlength_error@std@@@8 0000000180071c48     libcpmt:xthrow.obj
 0003:00001c70       ??_R0?AVout_of_range@std@@@8 0000000180071c70     libcpmt:xthrow.obj
 0003:00001c98       ??_R0?AVbad_exception@std@@@8 0000000180071c98     libvcruntime:frame.obj
 0003:00001cc0       ??_R0?AVbad_alloc@std@@@8  0000000180071cc0     api.cpp.obj
 0003:00001ce8       ??_R0?AVexception@std@@@8  0000000180071ce8     api.cpp.obj
 0003:00001d10       ??_R0?AVbad_array_new_length@std@@@8 0000000180071d10     api.cpp.obj
 0003:00001d40       ??_R0?AW4CALC_ERROR@@@8    0000000180071d40     calc.cpp.obj
 0003:00001d70       ??_R0?AVConstValueNode@?$MathExpressionBase@USArg@@@@@8 0000000180071d70     newparse.cpp.obj
 0003:00001db8       ??_R0?AVNode@?$MathExpressionBase@USArg@@@@@8 0000000180071db8     newparse.cpp.obj
 0003:00001df0       ??_R0?AV__non_rtti_object@std@@@8 0000000180071df0     libvcruntime:rtti.obj
 0003:00001e20       ??_R0?AVbad_typeid@std@@@8 0000000180071e20     libvcruntime:rtti.obj
 0003:00001e48       ??_R0?AVbad_cast@std@@@8   0000000180071e48     libvcruntime:rtti.obj
 0003:00001e70       ??_R0?AVtype_info@@@8      0000000180071e70     LIBCMT:std_type_info_static.obj
 0003:00001e90       ??_R0?AVCalcDialog@@@8     0000000180071e90     api.cpp.obj
 0003:00001eb8       ??_R0?AVCalcApi@@@8        0000000180071eb8     api-far3.cpp.obj
 0003:00001ed8       ??_R0?AVCalcApiFar3@@@8    0000000180071ed8     api-far3.cpp.obj
 0003:00001f00       ??_R0?AVCalcDialogFuncs@@@8 0000000180071f00     api-far3.cpp.obj
 0003:00001f28       ??_R0?AVCalcDialogFuncsFar3@@@8 0000000180071f28     api-far3.cpp.obj
 0003:00001f58       ??_R0?AVDlgCalc@@@8        0000000180071f58     calc.cpp.obj
 0003:00001f78       ??_R0?AVDlgUnits@@@8       0000000180071f78     calc.cpp.obj
 0003:00001f98       ??_R0?AVDlgConfig@@@8      0000000180071f98     config.cpp.obj
 0003:00001fc0       ??_R0?AV?$FunctionPointerNode@P6A?AUSArg@@AEBU1@00@Z@?$MathExpressionBase@USArg@@@@@8 0000000180071fc0     newparse.cpp.obj
 0003:00002020       ??_R0?AV?$FunctionPointerNodeFactory@P6A?AUSArg@@XZ@?$FunctionListBase@VFunctionalNodeFactory@?$MathExpressionBase@USArg@@@@@?$MathExpressionBase@USArg@@@@@8 0000000180072020     newparse.cpp.obj
 0003:000020d0       ??_R0?AVConstValueNodeFactory@?$MathExpressionBase@USArg@@@@@8 00000001800720d0     newparse.cpp.obj
 0003:00002120       ??_R0?AV?$FunctionPointerNodeFactory@P6A?AUSArg@@AEBU1@00@Z@?$FunctionListBase@VFunctionalNodeFactory@?$MathExpressionBase@USArg@@@@@?$MathExpressionBase@USArg@@@@@8 0000000180072120     newparse.cpp.obj
 0003:000021d0       ??_R0?AVArgNodeFactory@?$MathExpressionBase@USArg@@@@@8 00000001800721d0     newparse.cpp.obj
 0003:00002218       ??_R0?AVArgNode@?$MathExpressionBase@USArg@@@@@8 0000000180072218     newparse.cpp.obj
 0003:00002260       ??_R0?AV?$FunctionPointerNodeFactory@P6A?AUSArg@@AEBU1@0@Z@?$FunctionListBase@VBinaryOperationNodeFactory@?$MathExpressionBase@USArg@@@@@?$MathExpressionBase@USArg@@@@@8 0000000180072260     newparse.cpp.obj
 0003:00002320       ??_R0?AV?$MathExpressionNode@USArg@@@?$MathExpressionBase@USArg@@@@@8 0000000180072320     newparse.cpp.obj
 0003:00002370       ??_R0?AV?$FunctionPointerNodeFactory@P6A?AUSArg@@U1@@Z@?$FunctionListBase@VUnaryOperationNodeFactory@?$MathExpressionBase@USArg@@@@@?$MathExpressionBase@USArg@@@@@8 0000000180072370     newparse.cpp.obj
 0003:00002420       ??_R0?AV?$FunctionPointerNode@P6A?AUSArg@@AEBU1@0@Z@?$MathExpressionBase@USArg@@@@@8 0000000180072420     newparse.cpp.obj
 0003:00002480       ??_R0?AV?$FunctionPointerNodeFactory@P6A?AUSArg@@AEBU1@0@Z@?$FunctionListBase@VFunctionalNodeFactory@?$MathExpressionBase@USArg@@@@@?$MathExpressionBase@USArg@@@@@8 0000000180072480     newparse.cpp.obj
 0003:00002530       ??_R0?AVUnaryOperationNodeFactory@?$MathExpressionBase@USArg@@@@@8 0000000180072530     newparse.cpp.obj
 0003:00002580       ??_R0?AV?$FunctionPointerNodeFactory@P6A?AUSArg@@AEBU1@@Z@?$FunctionListBase@VFunctionalNodeFactory@?$MathExpressionBase@USArg@@@@@?$MathExpressionBase@USArg@@@@@8 0000000180072580     newparse.cpp.obj
 0003:00002630       ??_R0?AV?$FunctionPointerNode@P6A?AUSArg@@AEBU1@@Z@?$MathExpressionBase@USArg@@@@@8 0000000180072630     newparse.cpp.obj
 0003:00002690       ??_R0?AV?$FunctionPointerNodeFactory@P6A?AUSArg@@AEBU1@@Z@?$FunctionListBase@VUnaryOperationNodeFactory@?$MathExpressionBase@USArg@@@@@?$MathExpressionBase@USArg@@@@@8 0000000180072690     newparse.cpp.obj
 0003:00002750       ??_R0?AV?$FunctionPointerNode@P6A?AUSArg@@U1@@Z@?$MathExpressionBase@USArg@@@@@8 0000000180072750     newparse.cpp.obj
 0003:000027b0       ??_R0?AVArgNodeFactoryImpl@ArgList@?$MathExpressionBase@USArg@@@@@8 00000001800727b0     newparse.cpp.obj
 0003:00002800       ??_R0?AVBinaryOperationNodeFactory@?$MathExpressionBase@USArg@@@@@8 0000000180072800     newparse.cpp.obj
 0003:00002850       ??_R0?AVFunctionalNode@?$MathExpressionBase@USArg@@@@@8 0000000180072850     newparse.cpp.obj
 0003:00002898       ??_R0?AV?$MathExpressionBase@USArg@@@@@8 0000000180072898     newparse.cpp.obj
 0003:000028d0       ??_R0?AVCalcParser@@@8     00000001800728d0     newparse.cpp.obj
 0003:00002900       ??_R0?AV?$FunctionPointerNode@P6A?AUSArg@@XZ@?$MathExpressionBase@USArg@@@@@8 0000000180072900     newparse.cpp.obj
 0003:00002960       ??_R0?AVConstValueNodeFactoryImpl@NamedConstantList@?$MathExpressionBase@USArg@@@@@8 0000000180072960     newparse.cpp.obj
 0003:000029c0       ??_R0?AVFunctionalNodeFactory@?$MathExpressionBase@USArg@@@@@8 00000001800729c0     newparse.cpp.obj
 0003:00002a10       ??_R0?AV?$MathExpressionNodeFactory@USArg@@@?$FunctionListBase@VFunctionalNodeFactory@?$MathExpressionBase@USArg@@@@@?$MathExpressionBase@USArg@@@@@8 0000000180072a10     newparse.cpp.obj
 0003:00002ab0       ??_R0?AVCSgmlEl@@@8        0000000180072ab0     sgml.cpp.obj
 0003:00002ad0       __scrt_current_native_startup_state 0000000180072ad0     LIBCMT:utility.obj
 0003:00002ad8       __scrt_native_startup_lock 0000000180072ad8     LIBCMT:utility.obj
 0003:00002b1c       __favor                    0000000180072b1c     LIBCMT:cpu_disp.obj
 0003:00002b20       __scrt_debugger_hook_flag  0000000180072b20     LIBCMT:utility_desktop.obj
 0003:00002b28       __castguard_check_failure_os_handled_fptr 0000000180072b28     LIBCMT:guard_support.obj
 0003:00002b30       ?__type_info_root_node@@3U__type_info_node@@A 0000000180072b30     LIBCMT:tncleanup.obj
 0003:00002b40       ?_OptionsStorage@?1??__local_stdio_scanf_options@@9@4_KA 0000000180072b40     LIBCMT:default_local_stdio_options.obj
 0003:00002b48       ?__WinRTOutOfMemoryExceptionCallback@@3P6APEAXXZEA 0000000180072b48     libvcruntime:ehhelpers.obj
 0003:00002bd0       __pPurecall                0000000180072bd0     libvcruntime:purevirt_data.obj
 0003:00002c08       ?pArgList@UnDecorator@@0PEAVReplicator@@EA 0000000180072c08     libvcruntime:undname.obj
 0003:00002c10       ?pZNameList@UnDecorator@@0PEAVReplicator@@EA 0000000180072c10     libvcruntime:undname.obj
 0003:00002c18       ?pTemplateArgList@UnDecorator@@0PEAVReplicator@@EA 0000000180072c18     libvcruntime:undname.obj
 0003:00002c20       ?gName@UnDecorator@@0PEBDEB 0000000180072c20     libvcruntime:undname.obj
 0003:00002c28       ?name@UnDecorator@@0PEBDEB 0000000180072c28     libvcruntime:undname.obj
 0003:00002c30       ?disableFlags@UnDecorator@@0KA 0000000180072c30     libvcruntime:undname.obj
 0003:00002c34       ?fExplicitTemplateParams@UnDecorator@@0_NA 0000000180072c34     libvcruntime:undname.obj
 0003:00002c35       ?fGetTemplateArgumentList@UnDecorator@@0_NA 0000000180072c35     libvcruntime:undname.obj
 0003:00002c38       ?m_pGetParameter@UnDecorator@@0P6APEADJ@ZEA 0000000180072c38     libvcruntime:undname.obj
 0003:00002c40       ?m_CHPENameOffset@UnDecorator@@0KA 0000000180072c40     libvcruntime:undname.obj
 0003:00002c44       ?m_recursionLevel@UnDecorator@@0KA 0000000180072c44     libvcruntime:undname.obj
 0003:00002cd8       ?c_exit_complete@?1???R<lambda_6e4b09c48022b2350581041d5f6b0c4c>@@QEBA@XZ@4_NA 0000000180072cd8     libucrt:exit.obj
 0003:00002de8       _environ_table             0000000180072de8     libucrt:environment_initialization.obj
 0003:00002df0       _wenviron_table            0000000180072df0     libucrt:environment_initialization.obj
 0003:00002df8       __dcrt_initial_wide_environment 0000000180072df8     libucrt:environment_initialization.obj
 0003:00002e00       __dcrt_initial_narrow_environment 0000000180072e00     libucrt:environment_initialization.obj
 0003:00002e08       __acrt_atexit_table        0000000180072e08     libucrt:onexit.obj
 0003:00002e20       __acrt_at_quick_exit_table 0000000180072e20     libucrt:onexit.obj
 0003:00002ff0       __acrt_locale_changed_data 0000000180072ff0     libucrt:wsetlocale.obj
 0003:00002ff8       __acrt_current_locale_data 0000000180072ff8     libucrt:nlsdata.obj
 0003:00003000       _nstream                   0000000180073000     libucrt:_file.obj
 0003:00003008       __piob                     0000000180073008     libucrt:_file.obj
 0003:00003010       _cflush                    0000000180073010     libucrt:_file.obj
 0003:00003020       __acrt_stdout_buffer       0000000180073020     libucrt:_sftbuf.obj
 0003:00003028       __acrt_stderr_buffer       0000000180073028     libucrt:_sftbuf.obj
 0003:00003030       __pioinfo                  0000000180073030     libucrt:ioinit.obj
 0003:00003430       _nhandle                   0000000180073430     libucrt:ioinit.obj
 0003:00003678       _mbctype                   0000000180073678     libucrt:mbctype.obj
 0003:00003680       _mbcasemap                 0000000180073680     libucrt:mbctype.obj
 0003:00003688       __acrt_current_multibyte_data 0000000180073688     libucrt:mbctype.obj
 0003:00003698       _pgmptr                    0000000180073698     libucrt:argv_data.obj
 0003:000036a0       __argc                     00000001800736a0     libucrt:argv_data.obj
 0003:000036a8       __argv                     00000001800736a8     libucrt:argv_data.obj
 0003:000036b0       __wargv                    00000001800736b0     libucrt:argv_data.obj
 0003:000036b8       _acmdln                    00000001800736b8     libucrt:argv_data.obj
 0003:000036c0       _wcmdln                    00000001800736c0     libucrt:argv_data.obj
 0003:000036c8       __acrt_heap                00000001800736c8     libucrt:heap_handle.obj
 0003:000036fc       __acrt_lconv_static_null   00000001800736fc     libucrt:localeconv.obj
 0003:00003700       __acrt_lconv_static_W_null 0000000180073700     libucrt:localeconv.obj
 0003:00003710       _commode                   0000000180073710     libucrt:ncommode.obj
 0003:00003718       _umaskval                  0000000180073718     libucrt:umask.obj
 0003:0000371c       __fma3_is_available        000000018007371c     libucrt:fma3_available.obj
 0003:00003720       __use_fma3_lib             0000000180073720     libucrt:fma3_available.obj
 0003:00003724       _fmode                     0000000180073724     libucrt:txtmode.obj
 0003:00003ca0       ?api@@3PEAVCalcApi@@EA     0000000180073ca0     api.cpp.obj
 0003:00003ca8       ?dlg_funcs@@3PEAVCalcDialogFuncs@@EA 0000000180073ca8     api.cpp.obj
 0003:00003cb0       ?cur_dlg_dlg_size@@3UCalcCoord@@A 0000000180073cb0     calc.cpp.obj
 0003:00003cb4       ?calc_error@@3HA           0000000180073cb4     calc.cpp.obj
 0003:00003cb8       ?cur_dlg_items_num@@3HA    0000000180073cb8     calc.cpp.obj
 0003:00003cbc       ?cur_dlg_id@@3HA           0000000180073cbc     calc.cpp.obj
 0003:00003cc0       ?cur_dlg_items@@3PEAUCalcDialogItem@@EA 0000000180073cc0     calc.cpp.obj
 0003:00003cc8       ?coreReturn@@3PEA_WEA      0000000180073cc8     calc.cpp.obj
 0003:00003cd0       ?cx_column_width@@3PAHA    0000000180073cd0     calc.cpp.obj
 0003:00003cf8       ?parser@@3PEAVCalcParser@@EA 0000000180073cf8     calc.cpp.obj
 0003:00003d00       ?cur_dlg_items_numedits@@3HA 0000000180073d00     calc.cpp.obj
 0003:00003d04       ?cur_dlg_need_recalc@@3HA  0000000180073d04     calc.cpp.obj
 0003:00003d08       ?DialogsNum@CalcParser@@1HA 0000000180073d08     newparse.cpp.obj
 0003:00003d0c       ?main_addons_num@CalcParser@@2IA 0000000180073d0c     newparse.cpp.obj
 0003:00003d10       ?props@@3UCalcProperties@@A 0000000180073d10     config.cpp.obj
 0003:00003d5c       ?rep_fraction_max_start@CalcParser@@1HA 0000000180073d5c     newparse.cpp.obj
 0003:00003d60       ?DialogData@CalcParser@@1PEAUSDialogData@@EA 0000000180073d60     newparse.cpp.obj
 0003:00003d68       ?Functs@CalcParser@@1PEAUSSyntax@@EA 0000000180073d68     newparse.cpp.obj
 0003:00003d70       ?Ops@CalcParser@@1PEAUSSyntax@@EA 0000000180073d70     newparse.cpp.obj
 0003:00003d78       ?delim_digit@CalcParser@@2_WA 0000000180073d78     newparse.cpp.obj
 0003:00003d7c       ?rep_fraction_max_period@CalcParser@@1HA 0000000180073d7c     newparse.cpp.obj
 0003:00003d80       ?delim_decimal@CalcParser@@2_WA 0000000180073d80     newparse.cpp.obj
 0003:00003d84       ?delim_args@CalcParser@@2_WA 0000000180073d84     newparse.cpp.obj
 0003:00003d88       ?Addons@CalcParser@@1PEAUSSyntax@@EA 0000000180073d88     newparse.cpp.obj
 0003:00003d90       ?Consts@CalcParser@@1PEAUSSyntax@@EA 0000000180073d90     newparse.cpp.obj
 0003:00003d98       ?Numerals@CalcParser@@1PEAUSSyntax@@EA 0000000180073d98     newparse.cpp.obj
 0003:00003da0       ?cont_fraction_max@CalcParser@@1HA 0000000180073da0     newparse.cpp.obj
 0003:00003da8       ?user_funcs@CalcParser@@1PEAVUserFunctionList@1@EA 0000000180073da8     newparse.cpp.obj
 0003:00003de8       ?calc_edit_length@@3HA     0000000180073de8     calc.cpp.obj
 0003:00003df0       ?allFunctions@CalcParser@@1VFunctionList@?$MathExpressionBase@USArg@@@@A 0000000180073df0     newparse.cpp.obj
 0003:00003e08       ?allNamedConstants@CalcParser@@1VNamedConstantList@?$MathExpressionBase@USArg@@@@A 0000000180073e08     newparse.cpp.obj
 0003:00003e20       ?user_un_ops@CalcParser@@1V?$hash_map@V?$basic_string@_WU?$char_traits@_W@std@@V?$allocator@_W@2@@std@@PEAVCalcParser@@UStrHashFunc@@U?$equal_to@V?$basic_string@_WU?$char_traits@_W@std@@V?$allocator@_W@2@@std@@@2@V?$allocator@U?$pair@V?$basic_string@_WU?$char_traits@_W@std@@V?$allocator@_W@2@@std@@PEAVCalcParser@@@std@@@2@@ag@@A 0000000180073e20     newparse.cpp.obj
 0003:00003e58       ?rep_fraction_coefs@CalcParser@@1V?$vector@V?$Int@$0BI@@ttmath@@V?$allocator@V?$Int@$0BI@@ttmath@@@std@@@std@@A 0000000180073e58     newparse.cpp.obj
 0003:00003e70       ?user_bin_ops@CalcParser@@1V?$hash_map@V?$basic_string@_WU?$char_traits@_W@std@@V?$allocator@_W@2@@std@@PEAVCalcParser@@UStrHashFunc@@U?$equal_to@V?$basic_string@_WU?$char_traits@_W@std@@V?$allocator@_W@2@@std@@@2@V?$allocator@U?$pair@V?$basic_string@_WU?$char_traits@_W@std@@V?$allocator@_W@2@@std@@PEAVCalcParser@@@std@@@2@@ag@@A 0000000180073e70     newparse.cpp.obj
 0003:00003ea8       ?addons@CalcParser@@2V?$vector@VCalcAddon@@V?$allocator@VCalcAddon@@@std@@@std@@A 0000000180073ea8     newparse.cpp.obj
 0003:00003ec0       ?rep_mul1@CalcParser@@1V?$vector@V?$Big@$00$0BK@@ttmath@@V?$allocator@V?$Big@$00$0BK@@ttmath@@@std@@@std@@A 0000000180073ec0     newparse.cpp.obj
 0003:00003ed8       ?rep_mul2@CalcParser@@1V?$vector@V?$Big@$00$0BK@@ttmath@@V?$allocator@V?$Big@$00$0BK@@ttmath@@@std@@@std@@A 0000000180073ed8     newparse.cpp.obj
 0003:00003ef0       ?allBinaryOpTable@CalcParser@@1VBinaryOperationTable@?$MathExpressionBase@USArg@@@@A 0000000180073ef0     newparse.cpp.obj
 0003:00003f08       ?allUnaryOpTable@CalcParser@@1VUnaryOperationTable@?$MathExpressionBase@USArg@@@@A 0000000180073f08     newparse.cpp.obj
 0003:00003f58       ?_OptionsStorage@?1??__local_stdio_printf_options@@9@4_KA 0000000180073f58     newparse.cpp.obj
 0003:00003f60       ?guardians@?1??ToString_LogBase@?$Big@$01$0BK@@ttmath@@AEAA_K_KAEAV23@@Z@4PAHA 0000000180073f60     newparse.cpp.obj
 0003:00003fa0       ?id@?$num_put@DV?$ostreambuf_iterator@DU?$char_traits@D@std@@@std@@@std@@2V0locale@2@A 0000000180073fa0     calc.cpp.obj
 0003:00003fa8       ?id@?$numpunct@D@std@@2V0locale@2@A 0000000180073fa8     calc.cpp.obj
 0003:00004d90       ?log_history@?1??ToString_LogBase@?$Big@$01$0BK@@ttmath@@AEAA_K_KAEAV23@@Z@4PAV23@A 0000000180074d90     newparse.cpp.obj
 0003:00006490       ??_B?1??ToString_LogBase@?$Big@$01$0BK@@ttmath@@AEAA_K_KAEAV12@@Z@51 0000000180076490     newparse.cpp.obj
 0003:00006c80       ?cgamma@?1???$Gamma@V?$Big@$00$0BK@@ttmath@@@ttmath@@YA?AV?$Big@$00$0BK@@1@AEBV21@PEAW4ErrorCode@1@@Z@4U?$CGamma@V?$Big@$00$0BK@@ttmath@@@1@A 0000000180076c80     sarg.cpp.obj
 0003:00006cc8       ??_B?1???$Gamma@V?$Big@$00$0BK@@ttmath@@@ttmath@@YA?AV?$Big@$00$0BK@@0@AEBV10@PEAW4ErrorCode@0@@Z@51 0000000180076cc8     sarg.cpp.obj
 0003:00006cd0       __dyn_tls_init_callback    0000000180076cd0     <common>
 0003:00006cd8       __scrt_ucrt_dll_is_in_use  0000000180076cd8     <common>

 entry point at        0001:00037d6c

 Static symbols

 0000:fff81000       .debug$S                   0000000180000000     calc.exp
 0000:fff81000       .debug$S                   0000000180000000     kernel32:KERNEL32.dll
 0000:fff81000       .debug$S                   0000000180000000     kernel32:KERNEL32.dll
 0000:fff81000       .debug$S                   0000000180000000     kernel32:KERNEL32.dll
 0000:fff81000       .debug$S                   0000000180000000     kernel32:KERNEL32.dll
 0000:fff81000       .debug$S                   0000000180000000     kernel32:KERNEL32.dll
 0000:fff81000       .debug$S                   0000000180000000     kernel32:KERNEL32.dll
 0000:fff81000       .debug$S                   0000000180000000     kernel32:KERNEL32.dll
 0000:fff81000       .debug$S                   0000000180000000     kernel32:KERNEL32.dll
 0000:fff81000       .debug$S                   0000000180000000     kernel32:KERNEL32.dll
 0000:fff81000       .debug$S                   0000000180000000     kernel32:KERNEL32.dll
 0000:fff81000       .debug$S                   0000000180000000     kernel32:KERNEL32.dll
 0000:fff81000       .debug$S                   0000000180000000     kernel32:KERNEL32.dll
 0000:fff81000       .debug$S                   0000000180000000     kernel32:KERNEL32.dll
 0000:fff81000       .debug$S                   0000000180000000     kernel32:KERNEL32.dll
 0000:fff81000       .debug$S                   0000000180000000     kernel32:KERNEL32.dll
 0000:fff81000       .debug$S                   0000000180000000     kernel32:KERNEL32.dll
 0000:fff81000       .debug$S                   0000000180000000     kernel32:KERNEL32.dll
 0000:fff81000       .debug$S                   0000000180000000     kernel32:KERNEL32.dll
 0000:fff81000       .debug$S                   0000000180000000     kernel32:KERNEL32.dll
 0000:fff81000       .debug$S                   0000000180000000     kernel32:KERNEL32.dll
 0000:fff81000       .debug$S                   0000000180000000     kernel32:KERNEL32.dll
 0000:fff81000       .debug$S                   0000000180000000     kernel32:KERNEL32.dll
 0000:fff81000       .debug$S                   0000000180000000     kernel32:KERNEL32.dll
 0000:fff81000       .debug$S                   0000000180000000     kernel32:KERNEL32.dll
 0000:fff81000       .debug$S                   0000000180000000     kernel32:KERNEL32.dll
 0000:fff81000       .debug$S                   0000000180000000     kernel32:KERNEL32.dll
 0000:fff81000       .debug$S                   0000000180000000     kernel32:KERNEL32.dll
 0000:fff81000       .debug$S                   0000000180000000     kernel32:KERNEL32.dll
 0000:fff81000       .debug$S                   0000000180000000     kernel32:KERNEL32.dll
 0000:fff81000       .debug$S                   0000000180000000     kernel32:KERNEL32.dll
 0000:fff81000       .debug$S                   0000000180000000     kernel32:KERNEL32.dll
 0000:fff81000       .debug$S                   0000000180000000     kernel32:KERNEL32.dll
 0000:fff81000       .debug$S                   0000000180000000     kernel32:KERNEL32.dll
 0000:fff81000       .debug$S                   0000000180000000     kernel32:KERNEL32.dll
 0000:fff81000       .debug$S                   0000000180000000     kernel32:KERNEL32.dll
 0000:fff81000       .debug$S                   0000000180000000     kernel32:KERNEL32.dll
 0000:fff81000       .debug$S                   0000000180000000     kernel32:KERNEL32.dll
 0000:fff81000       .debug$S                   0000000180000000     kernel32:KERNEL32.dll
 0000:fff81000       .debug$S                   0000000180000000     kernel32:KERNEL32.dll
 0000:fff81000       .debug$S                   0000000180000000     kernel32:KERNEL32.dll
 0000:fff81000       .debug$S                   0000000180000000     kernel32:KERNEL32.dll
 0000:fff81000       .debug$S                   0000000180000000     kernel32:KERNEL32.dll
 0000:fff81000       .debug$S                   0000000180000000     kernel32:KERNEL32.dll
 0000:fff81000       .debug$S                   0000000180000000     kernel32:KERNEL32.dll
 0000:fff81000       .debug$S                   0000000180000000     kernel32:KERNEL32.dll
 0000:fff81000       .debug$S                   0000000180000000     kernel32:KERNEL32.dll
 0000:fff81000       .debug$S                   0000000180000000     kernel32:KERNEL32.dll
 0000:fff81000       .debug$S                   0000000180000000     kernel32:KERNEL32.dll
 0000:fff81000       .debug$S                   0000000180000000     kernel32:KERNEL32.dll
 0000:fff81000       .debug$S                   0000000180000000     kernel32:KERNEL32.dll
 0000:fff81000       .debug$S                   0000000180000000     kernel32:KERNEL32.dll
 0000:fff81000       .debug$S                   0000000180000000     kernel32:KERNEL32.dll
 0000:fff81000       .debug$S                   0000000180000000     kernel32:KERNEL32.dll
 0000:fff81000       .debug$S                   0000000180000000     kernel32:KERNEL32.dll
 0000:fff81000       .debug$S                   0000000180000000     kernel32:KERNEL32.dll
 0000:fff81000       .debug$S                   0000000180000000     kernel32:KERNEL32.dll
 0000:fff81000       .debug$S                   0000000180000000     kernel32:KERNEL32.dll
 0000:fff81000       .debug$S                   0000000180000000     kernel32:KERNEL32.dll
 0000:fff81000       .debug$S                   0000000180000000     kernel32:KERNEL32.dll
 0000:fff81000       .debug$S                   0000000180000000     kernel32:KERNEL32.dll
 0000:fff81000       .debug$S                   0000000180000000     kernel32:KERNEL32.dll
 0000:fff81000       .debug$S                   0000000180000000     kernel32:KERNEL32.dll
 0000:fff81000       .debug$S                   0000000180000000     kernel32:KERNEL32.dll
 0000:fff81000       .debug$S                   0000000180000000     kernel32:KERNEL32.dll
 0000:fff81000       .debug$S                   0000000180000000     kernel32:KERNEL32.dll
 0000:fff81000       .debug$S                   0000000180000000     kernel32:KERNEL32.dll
 0000:fff81000       .debug$S                   0000000180000000     kernel32:KERNEL32.dll
 0000:fff81000       .debug$S                   0000000180000000     kernel32:KERNEL32.dll
 0000:fff81000       .debug$S                   0000000180000000     kernel32:KERNEL32.dll
 0000:fff81000       .debug$S                   0000000180000000     kernel32:KERNEL32.dll
 0000:fff81000       .debug$S                   0000000180000000     kernel32:KERNEL32.dll
 0000:fff81000       .debug$S                   0000000180000000     kernel32:KERNEL32.dll
 0000:fff81000       .debug$S                   0000000180000000     kernel32:KERNEL32.dll
 0000:fff81000       .debug$S                   0000000180000000     kernel32:KERNEL32.dll
 0000:fff81000       .debug$S                   0000000180000000     kernel32:KERNEL32.dll
 0000:fff81000       .debug$S                   0000000180000000     kernel32:KERNEL32.dll
 0000:fff81000       .debug$S                   0000000180000000     kernel32:KERNEL32.dll
 0000:fff81000       .debug$S                   0000000180000000     kernel32:KERNEL32.dll
 0000:fff81000       .debug$S                   0000000180000000     kernel32:KERNEL32.dll
 0000:fff81000       .debug$S                   0000000180000000     kernel32:KERNEL32.dll
 0000:fff81000       .debug$S                   0000000180000000     kernel32:KERNEL32.dll
 0000:fff81000       .debug$S                   0000000180000000     kernel32:KERNEL32.dll
 0000:fff81000       .debug$S                   0000000180000000     kernel32:KERNEL32.dll
 0000:fff81000       .debug$S                   0000000180000000     kernel32:KERNEL32.dll
 0000:fff81000       .debug$S                   0000000180000000     kernel32:KERNEL32.dll
 0000:fff81000       .debug$S                   0000000180000000     kernel32:KERNEL32.dll
 0000:fff81000       .debug$S                   0000000180000000     kernel32:KERNEL32.dll
 0000:fff81000       .debug$S                   0000000180000000     kernel32:KERNEL32.dll
 0000:fff81000       .debug$S                   0000000180000000     kernel32:KERNEL32.dll
 0000:fff81000       .debug$S                   0000000180000000     kernel32:KERNEL32.dll
 0001:00000000       ??__Edlg_hash@@YAXXZ       0000000180001000 f   api.cpp.obj
 0001:00000020       ??__Ecalc_edit_length@@YAXXZ 0000000180001020 f   calc.cpp.obj
 0001:00000030       ??__Ecur_op_name@@YAXXZ    0000000180001030 f   newparse.cpp.obj
 0001:00000060       ??__E?addons@CalcParser@@2V?$vector@VCalcAddon@@V?$allocator@VCalcAddon@@@std@@@std@@A@@YAXXZ 0000000180001060 f   newparse.cpp.obj
 0001:00000070       ??__E?user_bin_ops@CalcParser@@1V?$hash_map@V?$basic_string@_WU?$char_traits@_W@std@@V?$allocator@_W@2@@std@@PEAVCalcParser@@UStrHashFunc@@U?$equal_to@V?$basic_string@_WU?$char_traits@_W@std@@V?$allocator@_W@2@@std@@@2@V?$allocator@U?$pair@V?$basic_string@_WU?$char_traits@_W@std@@V?$allocator@_W@2@@std@@PEAVCalcParser@@@std@@@2@@ag@@A@@YAXXZ 0000000180001070 f   newparse.cpp.obj
 0001:00000090       ??__E?user_un_ops@CalcParser@@1V?$hash_map@V?$basic_string@_WU?$char_traits@_W@std@@V?$allocator@_W@2@@std@@PEAVCalcParser@@UStrHashFunc@@U?$equal_to@V?$basic_string@_WU?$char_traits@_W@std@@V?$allocator@_W@2@@std@@@2@V?$allocator@U?$pair@V?$basic_string@_WU?$char_traits@_W@std@@V?$allocator@_W@2@@std@@PEAVCalcParser@@@std@@@2@@ag@@A@@YAXXZ 0000000180001090 f   newparse.cpp.obj
 0001:000000b0       ??__E?allFunctions@CalcParser@@1VFunctionList@?$MathExpressionBase@USArg@@@@A@@YAXXZ 00000001800010b0 f   newparse.cpp.obj
 0001:000000c0       ??__E?allNamedConstants@CalcParser@@1VNamedConstantList@?$MathExpressionBase@USArg@@@@A@@YAXXZ 00000001800010c0 f   newparse.cpp.obj
 0001:000000d0       ??__E?allUnaryOpTable@CalcParser@@1VUnaryOperationTable@?$MathExpressionBase@USArg@@@@A@@YAXXZ 00000001800010d0 f   newparse.cpp.obj
 0001:000000e0       ??__E?allBinaryOpTable@CalcParser@@1VBinaryOperationTable@?$MathExpressionBase@USArg@@@@A@@YAXXZ 00000001800010e0 f   newparse.cpp.obj
 0001:000000f0       ??__E?rep_fraction_coefs@CalcParser@@1V?$vector@V?$Int@$0BI@@ttmath@@V?$allocator@V?$Int@$0BI@@ttmath@@@std@@@std@@A@@YAXXZ 00000001800010f0 f   newparse.cpp.obj
 0001:00000100       ??__E?rep_mul1@CalcParser@@1V?$vector@V?$Big@$00$0BK@@ttmath@@V?$allocator@V?$Big@$00$0BK@@ttmath@@@std@@@std@@A@@YAXXZ 0000000180001100 f   newparse.cpp.obj
 0001:00000110       ??__E?rep_mul2@CalcParser@@1V?$vector@V?$Big@$00$0BK@@ttmath@@V?$allocator@V?$Big@$00$0BK@@ttmath@@@std@@@std@@A@@YAXXZ 0000000180001110 f   newparse.cpp.obj
 0001:00000120       ??__E?rep_fraction_thr@CalcParser@@1V?$Big@$00$0BK@@ttmath@@A@@YAXXZ 0000000180001120 f   newparse.cpp.obj
 0001:00000130       ??__E?rep_fraction_thr2@CalcParser@@1V?$Big@$00$0BK@@ttmath@@A@@YAXXZ 0000000180001130 f   newparse.cpp.obj
 0001:000003d0       ?dlgProc@@YA_JPEAXHH0@Z    00000001800013d0 f   api.cpp.obj
 0001:0000a7a4       $LN53                      000000018000b7a4     config.cpp.obj
 0001:0000d130       ??1<unnamed-type-builtin_ops>@?1??AddAll@CalcParser@@SA_N_N@Z@QEAA@XZ 000000018000e130 f   newparse.cpp.obj
 0001:0000ed20       $LN13                      000000018000fd20     newparse.cpp.obj
 0001:00029c14       $LN39                      000000018002ac14     sarg.cpp.obj
 0001:00029f64       $LN43                      000000018002af64     sarg.cpp.obj
 0001:0002a584       $LN47                      000000018002b584     sarg.cpp.obj
 0001:0002a868       $LN108                     000000018002b868     sarg.cpp.obj
 0001:0002aa40       $LN18                      000000018002ba40     sarg.cpp.obj
 0001:0002ac10       $LN18                      000000018002bc10     sarg.cpp.obj
 0001:0002ade0       $LN18                      000000018002bde0     sarg.cpp.obj
 0001:0002b034       $LN73                      000000018002c034     sarg.cpp.obj
 0001:0002b238       $LN41                      000000018002c238     sarg.cpp.obj
 0001:0002b468       $LN13                      000000018002c468     sarg.cpp.obj
 0001:0002b724       $LN29                      000000018002c724     sarg.cpp.obj
 0001:0002bc20       $LN40                      000000018002cc20     sarg.cpp.obj
 0001:0002bdb4       $LN42                      000000018002cdb4     sarg.cpp.obj
 0001:0002bf80       $LN86                      000000018002cf80     sarg.cpp.obj
 0001:0002c4bc       $LN92                      000000018002d4bc     sarg.cpp.obj
 0001:0002c528       $LN15                      000000018002d528     sarg.cpp.obj
 0001:0002c574       $LN15                      000000018002d574     sarg.cpp.obj
 0001:00034de0       initialize_environment     0000000180035de0 f   libucrt:initialization.obj
 0001:00034de0       initialize_global_state_isolation 0000000180035de0 f   libucrt:initialization.obj
 0001:00034de0       report_memory_leaks        0000000180035de0 f   libucrt:initialization.obj
 0001:00034de0       uninitialize_c             0000000180035de0 f   libucrt:initialization.obj
 0001:00034de0       uninitialize_global_state_isolation 0000000180035de0 f   libucrt:initialization.obj
 0001:00035b90       trex_charnode              0000000180036b90 f   trex.c.obj
 0001:00035d84       $LN40                      0000000180036d84     trex.c.obj
 0001:00035da4       $LN39                      0000000180036da4     trex.c.obj
 0001:00035de0       trex_class                 0000000180036de0 f   trex.c.obj
 0001:00036290       trex_element               0000000180037290 f   trex.c.obj
 0001:00036680       trex_error                 0000000180037680 f   trex.c.obj
 0001:00036730       trex_list                  0000000180037730 f   trex.c.obj
 0001:00036880       trex_matchcclass           0000000180037880 f   trex.c.obj
 0001:00036a40       $LN26                      0000000180037a40     trex.c.obj
 0001:00036a84       $LN25                      0000000180037a84     trex.c.obj
 0001:00036ac0       trex_matchclass            0000000180037ac0 f   trex.c.obj
 0001:00036c6c       $LN47                      0000000180037c6c     trex.c.obj
 0001:00036cb0       $LN46                      0000000180037cb0     trex.c.obj
 0001:00036cf0       trex_matchnode             0000000180037cf0 f   trex.c.obj
 0001:00037108       $LN112                     0000000180038108     trex.c.obj
 0001:00037140       trex_newnode               0000000180038140 f   trex.c.obj
 0001:000371c0       trex_parsenumber           00000001800381c0 f   trex.c.obj
 0001:00037a4c       ?dllmain_crt_dispatch@@YAHQEAUHINSTANCE__@@KQEAX@Z 0000000180038a4c f   LIBCMT:dll_dllmain.obj
 0001:00037a9c       ?dllmain_crt_process_attach@@YAHQEAUHINSTANCE__@@QEAX@Z 0000000180038a9c f   LIBCMT:dll_dllmain.obj
 0001:00037bb4       ?dllmain_crt_process_detach@@YAH_N@Z 0000000180038bb4 f   LIBCMT:dll_dllmain.obj
 0001:00037c38       ?dllmain_dispatch@@YAHQEAUHINSTANCE__@@KQEAX@Z 0000000180038c38 f   LIBCMT:dll_dllmain.obj
 0001:00038f10       $$000000                   0000000180039f10     libvcruntime:memset.obj
 0001:000396fc       ??$BuildCatchObjectHelperInternal@V__FrameHandler4@@@@YAHPEAUEHExceptionRecord@@PEAXPEAUHandlerType4@FH4@@PEBU_s_CatchableType@@@Z 000000018003a6fc f   libvcruntime:frame.obj
 0001:00039900       ??$BuildCatchObjectInternal@V__FrameHandler4@@@@YAXPEAUEHExceptionRecord@@PEAXPEAUHandlerType4@FH4@@PEBU_s_CatchableType@@@Z 000000018003a900 f   libvcruntime:frame.obj
 0001:000399c4       ??$CatchIt@V__FrameHandler4@@@@YAXPEAUEHExceptionRecord@@PEA_KPEAU_CONTEXT@@PEAU_xDISPATCHER_CONTEXT@@PEAUFuncInfo4@FH4@@PEAUHandlerType4@4@PEBU_s_CatchableType@@PEAUTryBlockMapEntry4@4@H1EE@Z 000000018003a9c4 f   libvcruntime:frame.obj
 0001:00039a98       ??$FindHandler@V__FrameHandler4@@@@YAXPEAUEHExceptionRecord@@PEA_KPEAU_CONTEXT@@PEAU_xDISPATCHER_CONTEXT@@PEAUFuncInfo4@FH4@@EH1@Z 000000018003aa98 f   libvcruntime:frame.obj
 0001:00039f94       ??$FindHandlerForForeignException@V__FrameHandler4@@@@YAXPEAUEHExceptionRecord@@PEA_KPEAU_CONTEXT@@PEAU_xDISPATCHER_CONTEXT@@PEAUFuncInfo4@FH4@@HH1@Z 000000018003af94 f   libvcruntime:frame.obj
 0001:0003ad24       ?ExFilterRethrow@@YAHPEAU_EXCEPTION_POINTERS@@PEAUEHExceptionRecord@@PEAH@Z 000000018003bd24 f   libvcruntime:frame.obj
 0001:0003adac       ?ExFilterRethrowFH4@@YAHPEAU_EXCEPTION_POINTERS@@PEAUEHExceptionRecord@@HPEAH@Z 000000018003bdac f   libvcruntime:frame.obj
 0001:0003b0c4       ?IsInExceptionSpec@@YAEPEAUEHExceptionRecord@@PEBU_s_ESTypeList@@@Z 000000018003c0c4 f   libvcruntime:frame.obj
 0001:0003b1b4       ?Is_bad_exception_allowed@@YAEPEBU_s_ESTypeList@@@Z 000000018003c1b4 f   libvcruntime:frame.obj
 0001:0003b580       $$000000                   000000018003c580     libvcruntime:notify.obj
 0001:0003b5c4       ?try_get_function@@YAPEAXW4function_id@?A0x5cc078d5@@QEBDQEBW4module_id@2@2@Z 000000018003c5c4 f   libvcruntime:winapi_downlevel.obj
 0001:0003b8a0       $$000000                   000000018003c8a0     libvcruntime:handlers.obj
 0001:0003b9b0       $$000000                   000000018003c9b0     libvcruntime:memcpy.obj
 0001:0003cc38       ??$common_xtox@K_W@@YAHKQEA_W_KI_N@Z 000000018003dc38 f   libucrt:xtoa.obj
 0001:0003d004       ?_wcslwr_s_l_stat@@YAHPEA_W_KPEAU__crt_locale_pointers@@@Z 000000018003e004 f   libucrt:wcslwr.obj
 0001:0003d2b0       ??$common_vsprintf@Vstandard_base@__crt_stdio_output@@_W@@YAH_KQEA_W0QEB_WQEAU__crt_locale_pointers@@QEAD@Z 000000018003e2b0 f   libucrt:output.obj
 0001:0003e0a8       $LN17                      000000018003f0a8     libucrt:output.obj
 0001:0003ea74       ??$common_ftell@J@@YAJV__crt_stdio_stream@@@Z 000000018003fa74 f   libucrt:ftell.obj
 0001:0003eae4       ??$common_ftell_nolock@_J@@YA_JV__crt_stdio_stream@@@Z 000000018003fae4 f   libucrt:ftell.obj
 0001:0003ec14       ?common_ftell_read_mode_nolock@@YA_JV__crt_stdio_stream@@_J1@Z 000000018003fc14 f   libucrt:ftell.obj
 0001:0003ed60       ?common_ftell_translated_utf8_nolock@@YA_JV__crt_stdio_stream@@_J@Z 000000018003fd60 f   libucrt:ftell.obj
 0001:0003eedc       ?count_newline_bytes@@YA_JQEBD0W4__crt_lowio_text_mode@@@Z 000000018003fedc f   libucrt:ftell.obj
 0001:0003f1e8       ?common_fseek@@YAHV__crt_stdio_stream@@_JH@Z 00000001800401e8 f   libucrt:fseek.obj
 0001:0003f254       ?common_fseek_binary_mode_read_only_fast_track_nolock@@YA_NV__crt_stdio_stream@@_JH@Z 0000000180040254 f   libucrt:fseek.obj
 0001:0003f338       ?common_fseek_nolock@@YAHV__crt_stdio_stream@@_JH@Z 0000000180040338 f   libucrt:fseek.obj
 0001:0003f4bc       ??$common_fsopen@_W@@YAPEAU_iobuf@@QEB_W0H@Z 00000001800404bc f   libucrt:fopen.obj
 0001:00040190       ??$?RV<lambda_d80eeec6fff315bfe5c115232f3240e3>@@AEAV<lambda_6e4b09c48022b2350581041d5f6b0c4c>@@V<lambda_2358e3775559c9db80273638284d5e45>@@@?$__crt_seh_guarded_call@X@@QEAAX$$QEAV<lambda_d80eeec6fff315bfe5c115232f3240e3>@@AEAV<lambda_6e4b09c48022b2350581041d5f6b0c4c>@@$$QEAV<lambda_2358e3775559c9db80273638284d5e45>@@@Z 0000000180041190 f   libucrt:exit.obj
 0001:000401c8       ??R<lambda_6e4b09c48022b2350581041d5f6b0c4c>@@QEBA@XZ 00000001800411c8 f   libucrt:exit.obj
 0001:0004028c       ?atexit_exception_filter@@YAHK@Z 000000018004128c f   libucrt:exit.obj
 0001:00040298       ?common_exit@@YAXHW4_crt_exit_cleanup_mode@@W4_crt_exit_return_mode@@@Z 0000000180041298 f   libucrt:exit.obj
 0001:00040354       ?exit_or_terminate_process@@YAXI@Z 0000000180041354 f   libucrt:exit.obj
 0001:000403a0       ?try_cor_exit_process@@YAXI@Z 00000001800413a0 f   libucrt:exit.obj
 0001:00040428       ??$parse_command_line@D@@YAXPEADPEAPEAD0PEA_K2@Z 0000000180041428 f   libucrt:argv_parsing.obj
 0001:000407d0       ??$common_initialize_environment_nolock@D@@YAHXZ 00000001800417d0 f   libucrt:environment_initialization.obj
 0001:0004083c       ??$create_environment@D@@YAQEAPEADQEAD@Z 000000018004183c f   libucrt:environment_initialization.obj
 0001:00040944       ??$free_environment@D@@YAXQEAPEAD@Z 0000000180041944 f   libucrt:environment_initialization.obj
 0001:00040944       ??$free_environment@_W@@YAXQEAPEA_W@Z 0000000180041944 f   libucrt:environment_initialization.obj
 0001:00040988       ??$uninitialize_environment_internal@D@@YAXAEAPEAPEAD@Z 0000000180041988 f   libucrt:environment_initialization.obj
 0001:000409a4       ??$uninitialize_environment_internal@_W@@YAXAEAPEAPEA_W@Z 00000001800419a4 f   libucrt:environment_initialization.obj
 0001:00040a00       ??$?RV<lambda_638799b9deba96c50f710eeac98168cd>@@AEAV<lambda_22ebabd17bc4fa466a2aca6d8deb888d>@@V<lambda_a6f7d7db0129f75315ebf26d50c089f1>@@@?$__crt_seh_guarded_call@H@@QEAAH$$QEAV<lambda_638799b9deba96c50f710eeac98168cd>@@AEAV<lambda_22ebabd17bc4fa466a2aca6d8deb888d>@@$$QEAV<lambda_a6f7d7db0129f75315ebf26d50c089f1>@@@Z 0000000180041a00 f   libucrt:onexit.obj
 0001:00040a3c       ??$?RV<lambda_7777bce6b2f8c936911f934f8298dc43>@@AEAV<lambda_f03950bc5685219e0bcd2087efbe011e>@@V<lambda_3883c3dff614d5e0c5f61bb1ac94921c>@@@?$__crt_seh_guarded_call@H@@QEAAH$$QEAV<lambda_7777bce6b2f8c936911f934f8298dc43>@@AEAV<lambda_f03950bc5685219e0bcd2087efbe011e>@@$$QEAV<lambda_3883c3dff614d5e0c5f61bb1ac94921c>@@@Z 0000000180041a3c f   libucrt:onexit.obj
 0001:00040a78       ??R<lambda_22ebabd17bc4fa466a2aca6d8deb888d>@@QEBAHXZ 0000000180041a78 f   libucrt:onexit.obj
 0001:00040c28       ??R<lambda_f03950bc5685219e0bcd2087efbe011e>@@QEBAHXZ 0000000180041c28 f   libucrt:onexit.obj
 0001:00040dfc       initialize_global_variables 0000000180041dfc f   libucrt:initialization.obj
 0001:00040e10       initialize_c               0000000180041e10 f   libucrt:initialization.obj
 0001:00040e34       uninitialize_environment   0000000180041e34 f   libucrt:initialization.obj
 0001:00040e44       initialize_pointers        0000000180041e44 f   libucrt:initialization.obj
 0001:00040e84       uninitialize_vcruntime     0000000180041e84 f   libucrt:initialization.obj
 0001:00040e8c       uninitialize_allocated_memory 0000000180041e8c f   libucrt:initialization.obj
 0001:00040ecc       uninitialize_allocated_io_buffers 0000000180041ecc f   libucrt:initialization.obj
 0001:00041130       $$000000                   0000000180042130     libucrt:strncmp.obj
 0001:00041200       ??$?RV<lambda_0ae27a3a962d80f24befdcbee591983d>@@AEAV<lambda_8d0ee55de4b1038c4002e0adecdf1839>@@V<lambda_dc504788e8f1664fe9b84e20bfb512f2>@@@?$__crt_seh_guarded_call@X@@QEAAX$$QEAV<lambda_0ae27a3a962d80f24befdcbee591983d>@@AEAV<lambda_8d0ee55de4b1038c4002e0adecdf1839>@@$$QEAV<lambda_dc504788e8f1664fe9b84e20bfb512f2>@@@Z 0000000180042200 f   libucrt:per_thread_data.obj
 0001:00041240       ??$?RV<lambda_2d41944a1d46af3157314b8a01080d33>@@AEAV<lambda_8f455de75cd7d7f24b4096f044d8b9e6>@@V<lambda_aa500f224e6afead328df44964fe2772>@@@?$__crt_seh_guarded_call@X@@QEAAX$$QEAV<lambda_2d41944a1d46af3157314b8a01080d33>@@AEAV<lambda_8f455de75cd7d7f24b4096f044d8b9e6>@@$$QEAV<lambda_aa500f224e6afead328df44964fe2772>@@@Z 0000000180042240 f   libucrt:per_thread_data.obj
 0001:00041280       ??$?RV<lambda_aa87e3671a710a21b5dc78c0bdf72e11>@@AEAV<lambda_92619d2358a28f41a33ba319515a20b9>@@V<lambda_6992ecaafeb10aed2b74cb1fae11a551>@@@?$__crt_seh_guarded_call@X@@QEAAX$$QEAV<lambda_aa87e3671a710a21b5dc78c0bdf72e11>@@AEAV<lambda_92619d2358a28f41a33ba319515a20b9>@@$$QEAV<lambda_6992ecaafeb10aed2b74cb1fae11a551>@@@Z 0000000180042280 f   libucrt:per_thread_data.obj
 0001:000412c8       ??$?RV<lambda_f2e299630e499de9f9a165e60fcd3db5>@@AEAV<lambda_2ae9d31cdba2644fcbeaf08da7c24588>@@V<lambda_40d01ff24d0e7b3814fdbdcee8eab3c7>@@@?$__crt_seh_guarded_call@X@@QEAAX$$QEAV<lambda_f2e299630e499de9f9a165e60fcd3db5>@@AEAV<lambda_2ae9d31cdba2644fcbeaf08da7c24588>@@$$QEAV<lambda_40d01ff24d0e7b3814fdbdcee8eab3c7>@@@Z 00000001800422c8 f   libucrt:per_thread_data.obj
 0001:00041328       ?construct_ptd_array@@YAXQEAU__acrt_ptd@@@Z 0000000180042328 f   libucrt:per_thread_data.obj
 0001:000413f8       ?destroy_fls@@YAXPEAX@Z    00000001800423f8 f   libucrt:per_thread_data.obj
 0001:00041418       ?destroy_ptd_array@@YAXQEAU__acrt_ptd@@@Z 0000000180042418 f   libucrt:per_thread_data.obj
 0001:00041510       ?replace_current_thread_locale_nolock@@YAXQEAU__acrt_ptd@@QEAU__crt_locale_data@@@Z 0000000180042510 f   libucrt:per_thread_data.obj
 0001:00041a04       ?try_get_function@@YAPEAXW4function_id@?A0x391cf84c@@QEBDQEBW4module_id@2@2@Z 0000000180042a04 f   libucrt:winapi_thunks.obj
 0001:0004213c       ??$?RV<lambda_410d79af7f07d98d83a3f525b3859a53>@@AEAV<lambda_3e16ef9562a7dcce91392c22ab16ea36>@@V<lambda_38119f0e861e05405d8a144b9b982f0a>@@@?$__crt_seh_guarded_call@X@@QEAAX$$QEAV<lambda_410d79af7f07d98d83a3f525b3859a53>@@AEAV<lambda_3e16ef9562a7dcce91392c22ab16ea36>@@$$QEAV<lambda_38119f0e861e05405d8a144b9b982f0a>@@@Z 000000018004313c f   libucrt:wsetlocale.obj
 0001:000422a4       _call_matherr              00000001800432a4 f   libucrt:libm_error.obj
 0001:0004230c       _exception_enabled         000000018004330c f   libucrt:libm_error.obj
 0001:000428b0       ?fp_format_a@@YAHQEBNPEAD_KQEAD2H_NIQEAU__crt_locale_pointers@@W4__acrt_rounding_mode@@@Z 00000001800438b0 f   libucrt:cvt.obj
 0001:00042c30       ?fp_format_e@@YAHQEBNQEAD_K12H_NIQEAU__crt_locale_pointers@@W4__acrt_rounding_mode@@@Z 0000000180043c30 f   libucrt:cvt.obj
 0001:00042d20       ?fp_format_e_internal@@YAHQEAD_KH_NIQEAU_strflt@@2QEAU__crt_locale_pointers@@@Z 0000000180043d20 f   libucrt:cvt.obj
 0001:00042ef4       ?fp_format_f_internal@@YAHQEAD_KHQEAU_strflt@@_NQEAU__crt_locale_pointers@@@Z 0000000180043ef4 f   libucrt:cvt.obj
 0001:0004305c       ?fp_format_g@@YAHQEBNQEAD_K12H_NIW4__acrt_rounding_mode@@QEAU__crt_locale_pointers@@@Z 000000018004405c f   libucrt:cvt.obj
 0001:000431a4       ?should_round_up@@YA_NQEBN_KFW4__acrt_rounding_mode@@@Z 00000001800441a4 f   libucrt:cvt.obj
 0001:000437c8       ?initialize_inherited_file_handles_nolock@@YAXXZ 00000001800447c8 f   libucrt:ioinit.obj
 0001:000438b8       ?initialize_stdio_handles_nolock@@YAXXZ 00000001800448b8 f   libucrt:ioinit.obj
 0001:00043a40       ??$common_lseek@J@@YAJHJH@Z 0000000180044a40 f   libucrt:lseek.obj
 0001:00043b2c       ??$common_lseek@_J@@YA_JH_JH@Z 0000000180044b2c f   libucrt:lseek.obj
 0001:00043c1c       ??$common_lseek_nolock@J@@YAJHJH@Z 0000000180044c1c f   libucrt:lseek.obj
 0001:00043d10       ??$common_lseek_nolock@_J@@YA_JH_JH@Z 0000000180044d10 f   libucrt:lseek.obj
 0001:00043dc4       ??$translate_text_mode_nolock@_W@@YAHHQEA_W_K@Z 0000000180044dc4 f   libucrt:read.obj
 0001:0004400c       ?translate_ansi_or_utf8_nolock@@YAHHQEAD_KQEA_W1@Z 000000018004500c f   libucrt:read.obj
 0001:00044ab0       ??$?RV<lambda_751a882b2c74d4b022dec766aa51a29a>@@AEAV<lambda_628dfdc04ba53c8bfc02c9951375f3f5>@@V<lambda_f6c7be5f7998530c34de24c7437d6b54>@@@?$__crt_seh_guarded_call@H@@QEAAH$$QEAV<lambda_751a882b2c74d4b022dec766aa51a29a>@@AEAV<lambda_628dfdc04ba53c8bfc02c9951375f3f5>@@$$QEAV<lambda_f6c7be5f7998530c34de24c7437d6b54>@@@Z 0000000180045ab0 f   libucrt:close.obj
 0001:00044cfc       ?find_or_allocate_unused_stream_nolock@@YA?AV__crt_stdio_stream@@XZ 0000000180045cfc f   libucrt:stream.obj
 0001:00044e28       ??$?RV<lambda_842d9ff0dc9ef11c61343bbaebe7f885>@@AEAV<lambda_c5860995281e5c4ce005b3de8f5874ee>@@V<lambda_d90129c13df834fdcbf8d2b88dafcf2d>@@@?$__crt_seh_guarded_call@X@@QEAAX$$QEAV<lambda_842d9ff0dc9ef11c61343bbaebe7f885>@@AEAV<lambda_c5860995281e5c4ce005b3de8f5874ee>@@$$QEAV<lambda_d90129c13df834fdcbf8d2b88dafcf2d>@@@Z 0000000180045e28 f   libucrt:fflush.obj
 0001:00044ec4       ??$?RV<lambda_886d6c58226a84441f68b9f2b8217b83>@@AEAV<lambda_ab61a845afdef5b7c387490eaf3616ee>@@V<lambda_f7f22ab5edc0698d5f6905b0d3f44752>@@@?$__crt_seh_guarded_call@X@@QEAAX$$QEAV<lambda_886d6c58226a84441f68b9f2b8217b83>@@AEAV<lambda_ab61a845afdef5b7c387490eaf3616ee>@@$$QEAV<lambda_f7f22ab5edc0698d5f6905b0d3f44752>@@@Z 0000000180045ec4 f   libucrt:fflush.obj
 0001:00044fa4       ?common_flush_all@@YAH_N@Z 0000000180045fa4 f   libucrt:fflush.obj
 0001:000457d0       ?<lambda_invoker_cdecl>@<lambda_a1ce4c8ae42411fd470c77163914f50e>@@CAHPEBX0@Z 00000001800467d0 f   libucrt:argv_wildcards.obj
 0001:00045ae8       ??$common_expand_argv_wildcards@D@@YAHQEAPEADQEAPEAPEAD@Z 0000000180046ae8 f   libucrt:argv_wildcards.obj
 0001:00045cf4       ??$copy_and_add_argument_to_buffer@D@@YAHQEBD0_KAEAV?$argument_list@D@?A0x5f5c8891@@@Z 0000000180046cf4 f   libucrt:argv_wildcards.obj
 0001:00045e7c       ??$expand_argument_wildcards@D@@YAHQEAD0AEAV?$argument_list@D@?A0x5f5c8891@@@Z 0000000180046e7c f   libucrt:argv_wildcards.obj
 0001:000463c8       ??$?RV<lambda_efdfa57d1f175319df784efa44bb7b81>@@AEAV<lambda_5f0a4c1567f8adc6734073e5d1e1b35c>@@V<lambda_2e8a7d3640ea6ccb4c2413664c2db6fd>@@@?$__crt_seh_guarded_call@X@@QEAAX$$QEAV<lambda_efdfa57d1f175319df784efa44bb7b81>@@AEAV<lambda_5f0a4c1567f8adc6734073e5d1e1b35c>@@$$QEAV<lambda_2e8a7d3640ea6ccb4c2413664c2db6fd>@@@Z 00000001800473c8 f   libucrt:mbctype.obj
 0001:00046584       ?getSystemCP@@YAHH@Z       0000000180047584 f   libucrt:mbctype.obj
 0001:00046604       ?setSBCS@@YAXPEAU__crt_multibyte_data@@@Z 0000000180047604 f   libucrt:mbctype.obj
 0001:00046694       ?setSBUpLow@@YAXPEAU__crt_multibyte_data@@@Z 0000000180047694 f   libucrt:mbctype.obj
 0001:00046878       ?setmbcp_internal@@YAHH_NQEAU__acrt_ptd@@QEAPEAU__crt_multibyte_data@@@Z 0000000180047878 f   libucrt:mbctype.obj
 0001:00046a38       ?update_thread_multibyte_data_internal@@YAPEAU__crt_multibyte_data@@QEAU__acrt_ptd@@QEAPEAU1@@Z 0000000180047a38 f   libucrt:mbctype.obj
 0001:00046e28       ?x_ismbbtype_l@@YAHPEAU__crt_locale_pointers@@IHH@Z 0000000180047e28 f   libucrt:ismbbyte.obj
 0001:0004720c       ??$?RV<lambda_450d765d439847d4c735a33c368b5fc0>@@AEAV<lambda_44731a7d0e6d81c3e6aa82d741081786>@@V<lambda_601a2a7da3b7a96e9554ac7215c4b07c>@@@?$__crt_seh_guarded_call@P6AXH@Z@@QEAAP6AXH@Z$$QEAV<lambda_450d765d439847d4c735a33c368b5fc0>@@AEAV<lambda_44731a7d0e6d81c3e6aa82d741081786>@@$$QEAV<lambda_601a2a7da3b7a96e9554ac7215c4b07c>@@@Z 000000018004820c f   libucrt:signal.obj
 0001:00047d34       ?free_crt_array_internal@@YAXQEAPEBX_K@Z 0000000180048d34 f   libucrt:inittime.obj
 0001:00049ad0       memcpy_s                   000000018004aad0 f   libucrt:cfout.obj
 0001:0004a37c       ??$?RV<lambda_a37b2b86f63e897a80ea819b0eb08c01>@@AEAV<lambda_38ce7e780aa69e748d6df282ebc68efe>@@V<lambda_99fb1378e971ab6e7edea83e3a7a83a2>@@@?$__crt_seh_guarded_call@H@@QEAAH$$QEAV<lambda_a37b2b86f63e897a80ea819b0eb08c01>@@AEAV<lambda_38ce7e780aa69e748d6df282ebc68efe>@@$$QEAV<lambda_99fb1378e971ab6e7edea83e3a7a83a2>@@@Z 000000018004b37c f   libucrt:commit.obj
 0001:0004a49c       ?write_double_translated_ansi_nolock@@YA?AUwrite_result@?A0x17268360@@HQEBDI@Z 000000018004b49c f   libucrt:write.obj
 0001:0004a988       ?write_text_ansi_nolock@@YA?AUwrite_result@?A0x17268360@@HQEBDI@Z 000000018004b988 f   libucrt:write.obj
 0001:0004aa8c       ?write_text_utf16le_nolock@@YA?AUwrite_result@?A0x17268360@@HQEBDI@Z 000000018004ba8c f   libucrt:write.obj
 0001:0004aba8       ?write_text_utf8_nolock@@YA?AUwrite_result@?A0x17268360@@HQEBDI@Z 000000018004bba8 f   libucrt:write.obj
 0001:0004b0e8       ??$common_sopen_dispatch@_W@@YAHQEB_WHHHQEAHH@Z 000000018004c0e8 f   libucrt:open.obj
 0001:0004b1ac       ?configure_text_mode@@YAHHUfile_options@?A0xa9d50aae@@HAEAW4__crt_lowio_text_mode@@@Z 000000018004c1ac f   libucrt:open.obj
 0001:0004b440       ?decode_options@@YA?AUfile_options@?A0xa9d50aae@@HHH@Z 000000018004c440 f   libucrt:open.obj
 0001:0004b64c       ?truncate_ctrl_z_if_present@@YAHH@Z 000000018004c64c f   libucrt:open.obj
 0001:0004c014       fallbackMethod             000000018004d014 f   libucrt:strpbrk.obj
 0001:0004c3cc       $LN78                      000000018004d3cc     libucrt:strpbrk.obj
 0001:0004c408       $LN77                      000000018004d408     libucrt:strpbrk.obj
 0001:0004c448       $LN76                      000000018004d448     libucrt:strpbrk.obj
 0001:0004c524       ?__acrt_LCMapStringA_stat@@YAHPEAU__crt_locale_pointers@@PEB_WKPEBDHPEADHHH@Z 000000018004d524 f   libucrt:lcmapstringa.obj
 0001:0004c8d4       ?initialize_multibyte@@YAHXZ 000000018004d8d4 f   libucrt:multibyte_initializer.obj
 0001:0004c930       $$000000                   000000018004d930     libucrt:fpsr.obj
 0001:0004cb80       $$000000                   000000018004db80     libucrt:log10.obj
 0001:0004d79c       common_control87           000000018004e79c f   libucrt:ieee.obj
 0001:0004db10       _log_special_common        000000018004eb10 f   libucrt:log_special.obj
 0001:0004dbc8       _logf_special_common       000000018004ebc8 f   libucrt:log_special.obj
 0001:0004de30       $$000000                   000000018004ee30     LIBCMT:amdsecgs.obj
 0001:0004dfd0       $$000000                   000000018004efd0     LIBCMT:chkstk.obj
 0001:0004e1ec       capture_current_context    000000018004f1ec f   LIBCMT:gs_report.obj
 0001:0004e25c       capture_previous_context   000000018004f25c f   LIBCMT:gs_report.obj
 0001:0004e2d0       $$000000                   000000018004f2d0     libvcruntime:memcmp.obj
 0001:0004e588       ?FindMITargetTypeInstance@@YAPEBU_s_RTTIBaseClassDescriptor@@PEAXPEBU_s_RTTICompleteObjectLocator@@PEAUTypeDescriptor@@_J2_K@Z 000000018004f588 f   libvcruntime:rtti.obj
 0001:0004e710       ?FindSITargetTypeInstance@@YAPEBU_s_RTTIBaseClassDescriptor@@PEBU_s_RTTICompleteObjectLocator@@PEAUTypeDescriptor@@1_K@Z 000000018004f710 f   libvcruntime:rtti.obj
 0001:0004e848       ?FindVITargetTypeInstance@@YAPEBU_s_RTTIBaseClassDescriptor@@PEAXPEBU_s_RTTICompleteObjectLocator@@PEAUTypeDescriptor@@_J2_K@Z 000000018004f848 f   libvcruntime:rtti.obj
 0001:0004f090       $$000000                   0000000180050090     libucrt:cos.obj
 0001:0004f610       $$000000                   0000000180050610     libucrt:cosf.obj
 0001:0004fc40       $$000000                   0000000180050c40     libucrt:log.obj
 0001:00050170       $$000000                   0000000180051170     libucrt:logf.obj
 0001:00050570       $$000000                   0000000180051570     libucrt:pow.obj
 0001:00051c10       $$000000                   0000000180052c10     libucrt:powf.obj
 0001:00052ae0       $$000000                   0000000180053ae0     libucrt:sin.obj
 0001:00053050       $$000000                   0000000180054050     libucrt:sinf.obj
 0001:00053750       $$000000                   0000000180054750     libucrt:tan.obj
 0001:00053d10       _tan_piby4                 0000000180054d10 f   libucrt:tan.obj
 0001:00053ef0       $$000000                   0000000180054ef0     libucrt:tanf.obj
 0001:00054570       $$000000                   0000000180055570     libucrt:remainder_piby2_forasm.obj
 0001:000548c0       $$000000                   00000001800558c0     libucrt:remainder_piby2_forfma3.obj
 0001:00054b64       _sincos_special            0000000180055b64 f   libucrt:sincos_special.obj
 0001:00054c08       _sincosf_special           0000000180055c08 f   libucrt:sincos_special.obj
 0001:00054cd0       $$000000                   0000000180055cd0     libucrt:remainder_piby2f_forasm.obj
 0001:000550d0       $$000000                   00000001800560d0     libucrt:remainder_piby2f_forc.obj
 0001:00055260       $$000000                   0000000180056260     LIBCMT:guard_dispatch.obj
 0001:00055280       $$000000                   0000000180056280     LIBCMT:guard_xfg_dispatch.obj
 0001:000552a0       $$000000                   00000001800562a0     libvcruntime:setjmp.obj
 0001:00055360       $$000000                   0000000180056360     libvcruntime:longjmp.obj
 0001:00055460       ?dtor$0@?0???__Edlg_hash@@YAXXZ@4HA 0000000180056460 f   api.cpp.obj
 0001:00055470       ?dtor$0@?0??reHash@?$hash_map@PEAXPEAVCalcDialog@@UDlgHashFunc@@U?$equal_to@PEAX@std@@V?$allocator@U?$pair@PEAXPEAVCalcDialog@@@std@@@4@@ag@@QEAAXXZ@4HA 0000000180056470 f   api.cpp.obj
 0001:00055470       ?dtor$0@?0??reHash@?$hash_map@V?$basic_string@_WU?$char_traits@_W@std@@V?$allocator@_W@2@@std@@PEAVCalcParser@@UStrHashFunc@@U?$equal_to@V?$basic_string@_WU?$char_traits@_W@std@@V?$allocator@_W@2@@std@@@2@V?$allocator@U?$pair@V?$basic_string@_WU?$char_traits@_W@std@@V?$allocator@_W@2@@std@@PEAVCalcParser@@@std@@@2@@ag@@QEAAXXZ@4HA 0000000180056470 f   newparse.cpp.obj
 0001:00055470       ?dtor$1@?0???0?$hash_map@V?$basic_string@_WU?$char_traits@_W@std@@V?$allocator@_W@2@@std@@PEAVCalcParser@@UStrHashFunc@@U?$equal_to@V?$basic_string@_WU?$char_traits@_W@std@@V?$allocator@_W@2@@std@@@2@V?$allocator@U?$pair@V?$basic_string@_WU?$char_traits@_W@std@@V?$allocator@_W@2@@std@@PEAVCalcParser@@@std@@@2@@ag@@QEAA@XZ@4HA 0000000180056470 f   newparse.cpp.obj
 0001:00055480       ?dtor$0@?0??Menu@CalcApiFar3@@UEAA_JHHH_KPEB_W1AEBV?$vector@VCalcMenuItem@@V?$allocator@VCalcMenuItem@@@std@@@std@@@Z@4HA 0000000180056480 f   api-far3.cpp.obj
 0001:00055490       ?catch$4@?0??CreateApiFar3@@YAPEAVCalcApi@@PEAX@Z@4HA 0000000180056490 f   api-far3.cpp.obj
 0001:0005549d       __catch$?CreateApiFar3@@YAPEAVCalcApi@@PEAX@Z$0 000000018005649d f   api-far3.cpp.obj
 0001:000554b0       ?dtor$1@?0??InitDynamicData@@YAXXZ@4HA 00000001800564b0 f   calc.cpp.obj
 0001:000554d0       ?dtor$0@?0??CalcMenu@@YAHH@Z@4HA 00000001800564d0 f   calc.cpp.obj
 0001:000554d0       ?dtor$0@?0??EditorDialog@@YAXXZ@4HA 00000001800564d0 f   calc.cpp.obj
 0001:000554e0       ?dtor$0@?0??OnClose@DlgCalc@@UEAA_JHPEAX@Z@4HA 00000001800564e0 f   calc.cpp.obj
 0001:000554e0       ?dtor$0@?0??OnDrawDialog@DlgCalc@@UEAA_JHPEAX@Z@4HA 00000001800564e0 f   calc.cpp.obj
 0001:000554e0       ?dtor$0@?0??OnGotFocus@DlgUnits@@UEAA_JHPEAX@Z@4HA 00000001800564e0 f   calc.cpp.obj
 0001:000554e0       ?dtor$0@?0??OnResizeConsole@DlgUnits@@UEAA_JHPEAX@Z@4HA 00000001800564e0 f   calc.cpp.obj
 0001:000554e0       ?dtor$0@?0??ShellDialog@@YAXXZ@4HA 00000001800564e0 f   calc.cpp.obj
 0001:000554e0       ?dtor$0@?0??LoadConfig@@YAHXZ@4HA 00000001800564e0 f   config.cpp.obj
 0001:000554e0       ?dtor$0@?0??SaveConfig@@YAHXZ@4HA 00000001800564e0 f   config.cpp.obj
 0001:000554f0       ?dtor$0@?0??OnEditChangeInternal@DlgUnits@@UEAA_JHPEAX@Z@4HA 00000001800564f0 f   calc.cpp.obj
 0001:00055520       ?dtor$1@?0??OnEditChangeInternal@DlgUnits@@UEAA_JHPEAX@Z@4HA 0000000180056520 f   calc.cpp.obj
 0001:00055530       ?catch$6@?0??OnEditChangeInternal@DlgUnits@@UEAA_JHPEAX@Z@4HA 0000000180056530 f   calc.cpp.obj
 0001:0005553d       __catch$?OnEditChangeInternal@DlgUnits@@UEAA_JHPEAX@Z$0 000000018005653d f   calc.cpp.obj
 0001:00055560       ?dtor$0@?0??OnEditChangeInternal@DlgCalc@@QEAA_JHPEAX_N@Z@4HA 0000000180056560 f   calc.cpp.obj
 0001:00055560       ?dtor$0@?0??OnInput@DlgCalc@@UEAA_JHPEAX@Z@4HA 0000000180056560 f   calc.cpp.obj
 0001:00055560       ?dtor$0@?0??OnInput@DlgUnits@@UEAA_JHPEAX@Z@4HA 0000000180056560 f   calc.cpp.obj
 0001:00055560       ?dtor$1@?0??OnEditChangeInternal@DlgCalc@@QEAA_JHPEAX_N@Z@4HA 0000000180056560 f   calc.cpp.obj
 0001:00055560       ?dtor$1@?0??OnInput@DlgCalc@@UEAA_JHPEAX@Z@4HA 0000000180056560 f   calc.cpp.obj
 0001:00055560       ?dtor$2@?0??OnEditChangeInternal@DlgCalc@@QEAA_JHPEAX_N@Z@4HA 0000000180056560 f   calc.cpp.obj
 0001:00055560       ?dtor$3@?0??OnEditChangeInternal@DlgCalc@@QEAA_JHPEAX_N@Z@4HA 0000000180056560 f   calc.cpp.obj
 0001:00055560       ?dtor$4@?0??OnEditChangeInternal@DlgCalc@@QEAA_JHPEAX_N@Z@4HA 0000000180056560 f   calc.cpp.obj
 0001:00055560       ?dtor$0@?0???$ToString_SetCommaAndExponent@V?$basic_string@_WU?$char_traits@_W@std@@V?$allocator@_W@2@@std@@_W@?$Big@$00$0BK@@ttmath@@AEBA_KAEAV?$basic_string@_WU?$char_traits@_W@std@@V?$allocator@_W@2@@std@@AEBUConv@1@AEAV?$Int@$01@1@@Z@4HA 0000000180056560 f   newparse.cpp.obj
 0001:00055570       ?dtor$0@?0??ShowUnitsDialog@@YAXH@Z@4HA 0000000180056570 f   calc.cpp.obj
 0001:00055580       ?dtor$2@?0??OnInput@DlgCalc@@UEAA_JHPEAX@Z@4HA 0000000180056580 f   calc.cpp.obj
 0001:00055590       ?dtor$5@?0??OnEditChangeInternal@DlgCalc@@QEAA_JHPEAX_N@Z@4HA 0000000180056590 f   calc.cpp.obj
 0001:00055590       ?dtor$6@?0??OnEditChangeInternal@DlgCalc@@QEAA_JHPEAX_N@Z@4HA 0000000180056590 f   calc.cpp.obj
 0001:00055590       ?dtor$40@?0??AddAll@CalcParser@@SA_N_N@Z@4HA 0000000180056590 f   newparse.cpp.obj
 0001:00055590       ?dtor$4@?0??parse_terminal_token@?$MathExpressionBase@USArg@@@@MEAA_NAEAPEB_WPEAPEAVNode@1@@Z@4HA 0000000180056590 f   newparse.cpp.obj
 0001:000555a0       ?dtor$0@?0??CalcShowDialog@@YAXXZ@4HA 00000001800565a0 f   calc.cpp.obj
 0001:000555b0       ?dtor$0@?0??ConfigDialog@@YA_NXZ@4HA 00000001800565b0 f   config.cpp.obj
 0001:000555c0       ?dtor$1@?0??ConfigDialog@@YA_NXZ@4HA 00000001800565c0 f   config.cpp.obj
 0001:000555c0       ?dtor$41@?0??AddAll@CalcParser@@SA_N_N@Z@4HA 00000001800565c0 f   newparse.cpp.obj
 0001:000555c0       ?dtor$42@?0??AddAll@CalcParser@@SA_N_N@Z@4HA 00000001800565c0 f   newparse.cpp.obj
 0001:000555c0       ?dtor$46@?0??AddAll@CalcParser@@SA_N_N@Z@4HA 00000001800565c0 f   newparse.cpp.obj
 0001:000555c0       ?dtor$50@?0??AddAll@CalcParser@@SA_N_N@Z@4HA 00000001800565c0 f   newparse.cpp.obj
 0001:000555c0       ?dtor$52@?0??AddAll@CalcParser@@SA_N_N@Z@4HA 00000001800565c0 f   newparse.cpp.obj
 0001:000555c0       ?dtor$67@?0??AddAll@CalcParser@@SA_N_N@Z@4HA 00000001800565c0 f   newparse.cpp.obj
 0001:000555c0       ?dtor$75@?0??AddAll@CalcParser@@SA_N_N@Z@4HA 00000001800565c0 f   newparse.cpp.obj
 0001:000555c0       ?dtor$82@?0??AddAll@CalcParser@@SA_N_N@Z@4HA 00000001800565c0 f   newparse.cpp.obj
 0001:000555d0       ?dtor$0@?0???0CalcAddonPart@@QEAA@AEBV0@@Z@4HA 00000001800565d0 f   newparse.cpp.obj
 0001:000555d0       ?dtor$0@?0??MathOpNameCallback@@YAXV?$basic_string@_WU?$char_traits@_W@std@@V?$allocator@_W@2@@std@@@Z@4HA 00000001800565d0 f   newparse.cpp.obj
 0001:000555e0       ?dtor$1@?0???0CalcAddonPart@@QEAA@AEBV0@@Z@4HA 00000001800565e0 f   newparse.cpp.obj
 0001:00055600       ?dtor$0@?0???0CalcParser@@QEAA@AEBV0@@Z@4HA 0000000180056600 f   newparse.cpp.obj
 0001:00055600       ?dtor$0@?0???0CalcParser@@QEAA@XZ@4HA 0000000180056600 f   newparse.cpp.obj
 0001:00055610       ?dtor$1@?0???0CalcParser@@QEAA@AEBV0@@Z@4HA 0000000180056610 f   newparse.cpp.obj
 0001:00055610       ?dtor$1@?0???0CalcParser@@QEAA@XZ@4HA 0000000180056610 f   newparse.cpp.obj
 0001:00055630       ?dtor$1@?0??AddAll@CalcParser@@SA_N_N@Z@4HA 0000000180056630 f   newparse.cpp.obj
 0001:00055640       ?dtor$3@?0??AddAll@CalcParser@@SA_N_N@Z@4HA 0000000180056640 f   newparse.cpp.obj
 0001:00055650       ?dtor$5@?0??AddAll@CalcParser@@SA_N_N@Z@4HA 0000000180056650 f   newparse.cpp.obj
 0001:00055660       ?dtor$7@?0??AddAll@CalcParser@@SA_N_N@Z@4HA 0000000180056660 f   newparse.cpp.obj
 0001:00055670       ?dtor$9@?0??AddAll@CalcParser@@SA_N_N@Z@4HA 0000000180056670 f   newparse.cpp.obj
 0001:00055690       ?dtor$11@?0??AddAll@CalcParser@@SA_N_N@Z@4HA 0000000180056690 f   newparse.cpp.obj
 0001:000556b0       ?dtor$13@?0??AddAll@CalcParser@@SA_N_N@Z@4HA 00000001800566b0 f   newparse.cpp.obj
 0001:000556d0       ?dtor$15@?0??AddAll@CalcParser@@SA_N_N@Z@4HA 00000001800566d0 f   newparse.cpp.obj
 0001:000556f0       ?dtor$17@?0??AddAll@CalcParser@@SA_N_N@Z@4HA 00000001800566f0 f   newparse.cpp.obj
 0001:00055710       ?dtor$19@?0??AddAll@CalcParser@@SA_N_N@Z@4HA 0000000180056710 f   newparse.cpp.obj
 0001:00055730       ?dtor$21@?0??AddAll@CalcParser@@SA_N_N@Z@4HA 0000000180056730 f   newparse.cpp.obj
 0001:00055750       ?dtor$23@?0??AddAll@CalcParser@@SA_N_N@Z@4HA 0000000180056750 f   newparse.cpp.obj
 0001:00055770       ?dtor$25@?0??AddAll@CalcParser@@SA_N_N@Z@4HA 0000000180056770 f   newparse.cpp.obj
 0001:00055790       ?dtor$27@?0??AddAll@CalcParser@@SA_N_N@Z@4HA 0000000180056790 f   newparse.cpp.obj
 0001:000557b0       ?dtor$29@?0??AddAll@CalcParser@@SA_N_N@Z@4HA 00000001800567b0 f   newparse.cpp.obj
 0001:000557d0       ?dtor$31@?0??AddAll@CalcParser@@SA_N_N@Z@4HA 00000001800567d0 f   newparse.cpp.obj
 0001:000557f0       ?dtor$33@?0??AddAll@CalcParser@@SA_N_N@Z@4HA 00000001800567f0 f   newparse.cpp.obj
 0001:00055810       ?dtor$35@?0??AddAll@CalcParser@@SA_N_N@Z@4HA 0000000180056810 f   newparse.cpp.obj
 0001:00055830       ?dtor$37@?0??AddAll@CalcParser@@SA_N_N@Z@4HA 0000000180056830 f   newparse.cpp.obj
 0001:00055850       ?dtor$0@?0???$ToString_SetCommaAndExponent_Normal_SetCommaInside@V?$basic_string@_WU?$char_traits@_W@std@@V?$allocator@_W@2@@std@@_W@?$Big@$00$0BK@@ttmath@@AEBAXAEAV?$basic_string@_WU?$char_traits@_W@std@@V?$allocator@_W@2@@std@@AEBUConv@1@AEAV?$Int@$01@1@@Z@4HA 0000000180056850 f   newparse.cpp.obj
 0001:00055850       ?dtor$1@?0??print_continued_decimal@@YAXAEAV?$basic_string@_WU?$char_traits@_W@std@@V?$allocator@_W@2@@std@@USArg@@H_N@Z@4HA 0000000180056850 f   newparse.cpp.obj
 0001:00055850       ?dtor$44@?0??AddAll@CalcParser@@SA_N_N@Z@4HA 0000000180056850 f   newparse.cpp.obj
 0001:00055850       ?dtor$45@?0??AddAll@CalcParser@@SA_N_N@Z@4HA 0000000180056850 f   newparse.cpp.obj
 0001:00055850       ?dtor$49@?0??AddAll@CalcParser@@SA_N_N@Z@4HA 0000000180056850 f   newparse.cpp.obj
 0001:00055850       ?dtor$51@?0??AddAll@CalcParser@@SA_N_N@Z@4HA 0000000180056850 f   newparse.cpp.obj
 0001:00055850       ?dtor$53@?0??AddAll@CalcParser@@SA_N_N@Z@4HA 0000000180056850 f   newparse.cpp.obj
 0001:00055850       ?dtor$55@?0??AddAll@CalcParser@@SA_N_N@Z@4HA 0000000180056850 f   newparse.cpp.obj
 0001:00055850       ?dtor$57@?0??AddAll@CalcParser@@SA_N_N@Z@4HA 0000000180056850 f   newparse.cpp.obj
 0001:00055850       ?dtor$59@?0??AddAll@CalcParser@@SA_N_N@Z@4HA 0000000180056850 f   newparse.cpp.obj
 0001:00055850       ?dtor$61@?0??AddAll@CalcParser@@SA_N_N@Z@4HA 0000000180056850 f   newparse.cpp.obj
 0001:00055850       ?dtor$64@?0??AddAll@CalcParser@@SA_N_N@Z@4HA 0000000180056850 f   newparse.cpp.obj
 0001:00055850       ?dtor$66@?0??AddAll@CalcParser@@SA_N_N@Z@4HA 0000000180056850 f   newparse.cpp.obj
 0001:00055850       ?dtor$69@?0??AddAll@CalcParser@@SA_N_N@Z@4HA 0000000180056850 f   newparse.cpp.obj
 0001:00055850       ?dtor$72@?0??AddAll@CalcParser@@SA_N_N@Z@4HA 0000000180056850 f   newparse.cpp.obj
 0001:00055850       ?dtor$77@?0??AddAll@CalcParser@@SA_N_N@Z@4HA 0000000180056850 f   newparse.cpp.obj
 0001:00055850       ?dtor$81@?0??AddAll@CalcParser@@SA_N_N@Z@4HA 0000000180056850 f   newparse.cpp.obj
 0001:00055850       ?dtor$83@?0??AddAll@CalcParser@@SA_N_N@Z@4HA 0000000180056850 f   newparse.cpp.obj
 0001:00055860       ?dtor$47@?0??AddAll@CalcParser@@SA_N_N@Z@4HA 0000000180056860 f   newparse.cpp.obj
 0001:00055860       ?dtor$54@?0??AddAll@CalcParser@@SA_N_N@Z@4HA 0000000180056860 f   newparse.cpp.obj
 0001:00055860       ?dtor$56@?0??AddAll@CalcParser@@SA_N_N@Z@4HA 0000000180056860 f   newparse.cpp.obj
 0001:00055860       ?dtor$58@?0??AddAll@CalcParser@@SA_N_N@Z@4HA 0000000180056860 f   newparse.cpp.obj
 0001:00055860       ?dtor$60@?0??AddAll@CalcParser@@SA_N_N@Z@4HA 0000000180056860 f   newparse.cpp.obj
 0001:00055860       ?dtor$63@?0??AddAll@CalcParser@@SA_N_N@Z@4HA 0000000180056860 f   newparse.cpp.obj
 0001:00055860       ?dtor$65@?0??AddAll@CalcParser@@SA_N_N@Z@4HA 0000000180056860 f   newparse.cpp.obj
 0001:00055860       ?dtor$68@?0??AddAll@CalcParser@@SA_N_N@Z@4HA 0000000180056860 f   newparse.cpp.obj
 0001:00055860       ?dtor$70@?0??AddAll@CalcParser@@SA_N_N@Z@4HA 0000000180056860 f   newparse.cpp.obj
 0001:00055860       ?dtor$71@?0??AddAll@CalcParser@@SA_N_N@Z@4HA 0000000180056860 f   newparse.cpp.obj
 0001:00055860       ?dtor$73@?0??AddAll@CalcParser@@SA_N_N@Z@4HA 0000000180056860 f   newparse.cpp.obj
 0001:00055860       ?dtor$76@?0??AddAll@CalcParser@@SA_N_N@Z@4HA 0000000180056860 f   newparse.cpp.obj
 0001:00055860       ?dtor$80@?0??AddAll@CalcParser@@SA_N_N@Z@4HA 0000000180056860 f   newparse.cpp.obj
 0001:00055870       ?dtor$48@?0??AddAll@CalcParser@@SA_N_N@Z@4HA 0000000180056870 f   newparse.cpp.obj
 0001:00055880       ?dtor$62@?0??AddAll@CalcParser@@SA_N_N@Z@4HA 0000000180056880 f   newparse.cpp.obj
 0001:000558a0       ?dtor$74@?0??AddAll@CalcParser@@SA_N_N@Z@4HA 00000001800568a0 f   newparse.cpp.obj
 0001:000558b0       ?dtor$79@?0??AddAll@CalcParser@@SA_N_N@Z@4HA 00000001800568b0 f   newparse.cpp.obj
 0001:000558d0       ?dtor$144@?0??AddAll@CalcParser@@SA_N_N@Z@4HA 00000001800568d0 f   newparse.cpp.obj
 0001:000558f0       ?dtor$146@?0??AddAll@CalcParser@@SA_N_N@Z@4HA 00000001800568f0 f   newparse.cpp.obj
 0001:00055900       ?dtor$158@?0??AddAll@CalcParser@@SA_N_N@Z@4HA 0000000180056900 f   newparse.cpp.obj
 0001:00055920       ?dtor$160@?0??AddAll@CalcParser@@SA_N_N@Z@4HA 0000000180056920 f   newparse.cpp.obj
 0001:00055930       ?dtor$172@?0??AddAll@CalcParser@@SA_N_N@Z@4HA 0000000180056930 f   newparse.cpp.obj
 0001:00055950       ?dtor$174@?0??AddAll@CalcParser@@SA_N_N@Z@4HA 0000000180056950 f   newparse.cpp.obj
 0001:00055960       ?dtor$182@?0??AddAll@CalcParser@@SA_N_N@Z@4HA 0000000180056960 f   newparse.cpp.obj
 0001:00055960       ?dtor$193@?0??AddAll@CalcParser@@SA_N_N@Z@4HA 0000000180056960 f   newparse.cpp.obj
 0001:00055980       ?dtor$184@?0??AddAll@CalcParser@@SA_N_N@Z@4HA 0000000180056980 f   newparse.cpp.obj
 0001:00055980       ?dtor$195@?0??AddAll@CalcParser@@SA_N_N@Z@4HA 0000000180056980 f   newparse.cpp.obj
 0001:00055990       ?dtor$202@?0??AddAll@CalcParser@@SA_N_N@Z@4HA 0000000180056990 f   newparse.cpp.obj
 0001:00055990       ?dtor$212@?0??AddAll@CalcParser@@SA_N_N@Z@4HA 0000000180056990 f   newparse.cpp.obj
 0001:00055990       ?dtor$222@?0??AddAll@CalcParser@@SA_N_N@Z@4HA 0000000180056990 f   newparse.cpp.obj
 0001:00055990       ?dtor$232@?0??AddAll@CalcParser@@SA_N_N@Z@4HA 0000000180056990 f   newparse.cpp.obj
 0001:000559b0       ?dtor$204@?0??AddAll@CalcParser@@SA_N_N@Z@4HA 00000001800569b0 f   newparse.cpp.obj
 0001:000559b0       ?dtor$214@?0??AddAll@CalcParser@@SA_N_N@Z@4HA 00000001800569b0 f   newparse.cpp.obj
 0001:000559b0       ?dtor$224@?0??AddAll@CalcParser@@SA_N_N@Z@4HA 00000001800569b0 f   newparse.cpp.obj
 0001:000559b0       ?dtor$234@?0??AddAll@CalcParser@@SA_N_N@Z@4HA 00000001800569b0 f   newparse.cpp.obj
 0001:000559c0       ?dtor$0@?0??ReplaceDelims@CalcParser@@KA?AV?$basic_string@_WU?$char_traits@_W@std@@V?$allocator@_W@2@@std@@PEB_W@Z@4HA 00000001800569c0 f   newparse.cpp.obj
 0001:000559f0       ?dtor$1@?0??ReplaceDelims@CalcParser@@KA?AV?$basic_string@_WU?$char_traits@_W@std@@V?$allocator@_W@2@@std@@PEB_W@Z@4HA 00000001800569f0 f   newparse.cpp.obj
 0001:000559f0       ?dtor$2@?0??Parse@CalcAddonPart@@QEAAX_N@Z@4HA 00000001800569f0 f   newparse.cpp.obj
 0001:000559f0       ?dtor$2@?0??ReplaceDelims@CalcParser@@KA?AV?$basic_string@_WU?$char_traits@_W@std@@V?$allocator@_W@2@@std@@PEB_W@Z@4HA 00000001800569f0 f   newparse.cpp.obj
 0001:000559f0       ?dtor$4@?0??FillDialogData@CalcParser@@SAXPEAVCSgmlEl@@_NPEB_W@Z@4HA 00000001800569f0 f   newparse.cpp.obj
 0001:00055a00       ?catch$0@?0??Parse@CalcParser@@QEAA?AUSArg@@PEB_W_N@Z@4HA 0000000180056a00 f   newparse.cpp.obj
 0001:00055a0d       __catch$?Parse@CalcParser@@QEAA?AUSArg@@PEB_W_N@Z$0 0000000180056a0d f   newparse.cpp.obj
 0001:00055a30       ?dtor$1@?0??parse_number@CalcParser@@MEAA_NPEAUSArg@@PEB_WPEAPEA_W@Z@4HA 0000000180056a30 f   newparse.cpp.obj
 0001:00055a80       ?dtor$2@?0??parse_number@CalcParser@@MEAA_NPEAUSArg@@PEB_WPEAPEA_W@Z@4HA 0000000180056a80 f   newparse.cpp.obj
 0001:00055a90       ?dtor$3@?0??parse_number@CalcParser@@MEAA_NPEAUSArg@@PEB_WPEAPEA_W@Z@4HA 0000000180056a90 f   newparse.cpp.obj
 0001:00055aa0       ?dtor$4@?0??parse_number@CalcParser@@MEAA_NPEAUSArg@@PEB_WPEAPEA_W@Z@4HA 0000000180056aa0 f   newparse.cpp.obj
 0001:00055ab0       ?dtor$5@?0??parse_number@CalcParser@@MEAA_NPEAUSArg@@PEB_WPEAPEA_W@Z@4HA 0000000180056ab0 f   newparse.cpp.obj
 0001:00055ac0       ?dtor$6@?0??parse_number@CalcParser@@MEAA_NPEAUSArg@@PEB_WPEAPEA_W@Z@4HA 0000000180056ac0 f   newparse.cpp.obj
 0001:00055ad0       ?dtor$11@?0??parse_number@CalcParser@@MEAA_NPEAUSArg@@PEB_WPEAPEA_W@Z@4HA 0000000180056ad0 f   newparse.cpp.obj
 0001:00055af0       ?dtor$13@?0??parse_number@CalcParser@@MEAA_NPEAUSArg@@PEB_WPEAPEA_W@Z@4HA 0000000180056af0 f   newparse.cpp.obj
 0001:00055b00       ?dtor$25@?0??parse_number@CalcParser@@MEAA_NPEAUSArg@@PEB_WPEAPEA_W@Z@4HA 0000000180056b00 f   newparse.cpp.obj
 0001:00055b20       ?dtor$27@?0??parse_number@CalcParser@@MEAA_NPEAUSArg@@PEB_WPEAPEA_W@Z@4HA 0000000180056b20 f   newparse.cpp.obj
 0001:00055b30       ?dtor$0@?0??Parse@CalcAddonPart@@QEAAX_N@Z@4HA 0000000180056b30 f   newparse.cpp.obj
 0001:00055b50       ?dtor$1@?0??Parse@CalcAddonPart@@QEAAX_N@Z@4HA 0000000180056b50 f   newparse.cpp.obj
 0001:00055b60       ?dtor$0@?0???$add@USArg@@@FunctionList@?$MathExpressionBase@USArg@@@@QEAAXAEBV?$basic_string@_WU?$char_traits@_W@std@@V?$allocator@_W@2@@std@@PEBV1@0@Z@4HA 0000000180056b60 f   newparse.cpp.obj
 0001:00055b60       ?dtor$0@?0???$add@USArg@@@UnaryOperationTable@?$MathExpressionBase@USArg@@@@QEAAXAEBV?$basic_string@_WU?$char_traits@_W@std@@V?$allocator@_W@2@@std@@P6A?AUSArg@@AEBU4@@Z0@Z@4HA 0000000180056b60 f   newparse.cpp.obj
 0001:00055b60       ?dtor$7@?0??Parse@CalcAddonPart@@QEAAX_N@Z@4HA 0000000180056b60 f   newparse.cpp.obj
 0001:00055b80       ?dtor$2@?0???$add@USArg@@@FunctionList@?$MathExpressionBase@USArg@@@@QEAAXAEBV?$basic_string@_WU?$char_traits@_W@std@@V?$allocator@_W@2@@std@@PEBV1@0@Z@4HA 0000000180056b80 f   newparse.cpp.obj
 0001:00055b80       ?dtor$2@?0???$add@USArg@@@UnaryOperationTable@?$MathExpressionBase@USArg@@@@QEAAXAEBV?$basic_string@_WU?$char_traits@_W@std@@V?$allocator@_W@2@@std@@P6A?AUSArg@@AEBU4@@Z0@Z@4HA 0000000180056b80 f   newparse.cpp.obj
 0001:00055b80       ?dtor$9@?0??Parse@CalcAddonPart@@QEAAX_N@Z@4HA 0000000180056b80 f   newparse.cpp.obj
 0001:00055b90       ?catch$17@?0??Parse@CalcAddonPart@@QEAAX_N@Z@4HA 0000000180056b90 f   newparse.cpp.obj
 0001:00055b9d       __catch$?Parse@CalcAddonPart@@QEAAX_N@Z$0 0000000180056b9d f   newparse.cpp.obj
 0001:00055bd0       ?dtor$0@?0??limit_number@@YAHHAEBUSArg@@H@Z@4HA 0000000180056bd0 f   newparse.cpp.obj
 0001:00055bf0       ?dtor$1@?0??limit_number@@YAHHAEBUSArg@@H@Z@4HA 0000000180056bf0 f   newparse.cpp.obj
 0001:00055c10       ?dtor$0@?0??convertToString@@YAPEA_WAEBUSArg@@HH_N11PEAW4CALC_ERROR@@@Z@4HA 0000000180056c10 f   newparse.cpp.obj
 0001:00055c20       ?dtor$1@?0??convertToString@@YAPEA_WAEBUSArg@@HH_N11PEAW4CALC_ERROR@@@Z@4HA 0000000180056c20 f   newparse.cpp.obj
 0001:00055c40       ?dtor$2@?0??convertToString@@YAPEA_WAEBUSArg@@HH_N11PEAW4CALC_ERROR@@@Z@4HA 0000000180056c40 f   newparse.cpp.obj
 0001:00055c60       ?dtor$3@?0??convertToString@@YAPEA_WAEBUSArg@@HH_N11PEAW4CALC_ERROR@@@Z@4HA 0000000180056c60 f   newparse.cpp.obj
 0001:00055c70       ?catch$15@?0??convertToString@@YAPEA_WAEBUSArg@@HH_N11PEAW4CALC_ERROR@@@Z@4HA 0000000180056c70 f   newparse.cpp.obj
 0001:00055c7d       __catch$?convertToString@@YAPEA_WAEBUSArg@@HH_N11PEAW4CALC_ERROR@@@Z$0 0000000180056c7d f   newparse.cpp.obj
 0001:00055cd0       ?dtor$0@?0??binary_op@CalcParser@@KA?AUSArg@@AEBU2@0@Z@4HA 0000000180056cd0 f   newparse.cpp.obj
 0001:00055d00       ?dtor$0@?0??unary_op@CalcParser@@KA?AUSArg@@AEBU2@@Z@4HA 0000000180056d00 f   newparse.cpp.obj
 0001:00055d30       ?dtor$0@?0??insert@?$hash_map@V?$basic_string@_WU?$char_traits@_W@std@@V?$allocator@_W@2@@std@@PEAVCalcParser@@UStrHashFunc@@U?$equal_to@V?$basic_string@_WU?$char_traits@_W@std@@V?$allocator@_W@2@@std@@@2@V?$allocator@U?$pair@V?$basic_string@_WU?$char_traits@_W@std@@V?$allocator@_W@2@@std@@PEAVCalcParser@@@std@@@2@@ag@@QEAA?AU?$pair@V?$IteratorBase@$0A@@?$hash_map@V?$basic_string@_WU?$char_traits@_W@std@@V?$allocator@_W@2@@std@@PEAVCalcParser@@UStrHashFunc@@U?$equal_to@V?$basic_string@_WU?$char_traits@_W@std@@V?$allocator@_W@2@@std@@@2@V?$allocator@U?$pair@V?$basic_string@_WU?$char_traits@_W@std@@V?$allocator@_W@2@@std@@PEAVCalcParser@@@std@@@2@@ag@@_N@std@@AEBU?$pair@V?$basic_string@_WU?$char_traits@_W@std@@V?$allocator@_W@2@@std@@PEAVCalcParser@@@4@@Z@4HA 0000000180056d30 f   newparse.cpp.obj
 0001:00055d30       ?dtor$1@?0??insert@?$hash_map@V?$basic_string@_WU?$char_traits@_W@std@@V?$allocator@_W@2@@std@@PEAVCalcParser@@UStrHashFunc@@U?$equal_to@V?$basic_string@_WU?$char_traits@_W@std@@V?$allocator@_W@2@@std@@@2@V?$allocator@U?$pair@V?$basic_string@_WU?$char_traits@_W@std@@V?$allocator@_W@2@@std@@PEAVCalcParser@@@std@@@2@@ag@@QEAA?AU?$pair@V?$IteratorBase@$0A@@?$hash_map@V?$basic_string@_WU?$char_traits@_W@std@@V?$allocator@_W@2@@std@@PEAVCalcParser@@UStrHashFunc@@U?$equal_to@V?$basic_string@_WU?$char_traits@_W@std@@V?$allocator@_W@2@@std@@@2@V?$allocator@U?$pair@V?$basic_string@_WU?$char_traits@_W@std@@V?$allocator@_W@2@@std@@PEAVCalcParser@@@std@@@2@@ag@@_N@std@@AEBU?$pair@V?$basic_string@_WU?$char_traits@_W@std@@V?$allocator@_W@2@@std@@PEAVCalcParser@@@4@@Z@4HA 0000000180056d30 f   newparse.cpp.obj
 0001:00055d40       ?dtor$0@?0???0?$hash_map@V?$basic_string@_WU?$char_traits@_W@std@@V?$allocator@_W@2@@std@@PEAVCalcParser@@UStrHashFunc@@U?$equal_to@V?$basic_string@_WU?$char_traits@_W@std@@V?$allocator@_W@2@@std@@@2@V?$allocator@U?$pair@V?$basic_string@_WU?$char_traits@_W@std@@V?$allocator@_W@2@@std@@PEAVCalcParser@@@std@@@2@@ag@@QEAA@XZ@4HA 0000000180056d40 f   newparse.cpp.obj
 0001:00055d50       ?dtor$0@?0???$add@USArg@@@PriorityLevel@BinaryOperationTable@?$MathExpressionBase@USArg@@@@QEAAXAEBV?$basic_string@_WU?$char_traits@_W@std@@V?$allocator@_W@2@@std@@P6A?AUSArg@@AEBU5@1@Z0@Z@4HA 0000000180056d50 f   newparse.cpp.obj
 0001:00055d50       ?dtor$0@?0??add_argument@?$MathExpressionBase@USArg@@@@QEAAXAEBV?$basic_string@_WU?$char_traits@_W@std@@V?$allocator@_W@2@@std@@H0@Z@4HA 0000000180056d50 f   newparse.cpp.obj
 0001:00055d70       ?dtor$2@?0???$add@USArg@@@PriorityLevel@BinaryOperationTable@?$MathExpressionBase@USArg@@@@QEAAXAEBV?$basic_string@_WU?$char_traits@_W@std@@V?$allocator@_W@2@@std@@P6A?AUSArg@@AEBU5@1@Z0@Z@4HA 0000000180056d70 f   newparse.cpp.obj
 0001:00055d70       ?dtor$2@?0??add_argument@?$MathExpressionBase@USArg@@@@QEAAXAEBV?$basic_string@_WU?$char_traits@_W@std@@V?$allocator@_W@2@@std@@H0@Z@4HA 0000000180056d70 f   newparse.cpp.obj
 0001:00055d80       ?dtor$1@?0??parse_expression@?$MathExpressionBase@USArg@@@@MEAA_N_KAEAPEB_WPEAPEAVNode@1@@Z@4HA 0000000180056d80 f   newparse.cpp.obj
 0001:00055d80       ?dtor$2@?0??parse_expression@?$MathExpressionBase@USArg@@@@MEAA_N_KAEAPEB_WPEAPEAVNode@1@@Z@4HA 0000000180056d80 f   newparse.cpp.obj
 0001:00055d80       ?dtor$3@?0??parse_terminal_token@?$MathExpressionBase@USArg@@@@MEAA_NAEAPEB_WPEAPEAVNode@1@@Z@4HA 0000000180056d80 f   newparse.cpp.obj
 0001:00055d80       ?dtor$6@?0??parse_terminal_token@?$MathExpressionBase@USArg@@@@MEAA_NAEAPEB_WPEAPEAVNode@1@@Z@4HA 0000000180056d80 f   newparse.cpp.obj
 0001:00055d80       ?dtor$7@?0??parse_terminal_token@?$MathExpressionBase@USArg@@@@MEAA_NAEAPEB_WPEAPEAVNode@1@@Z@4HA 0000000180056d80 f   newparse.cpp.obj
 0001:00055d90       ?dtor$2@?0??parse_terminal_token@?$MathExpressionBase@USArg@@@@MEAA_NAEAPEB_WPEAPEAVNode@1@@Z@4HA 0000000180056d90 f   newparse.cpp.obj
 0001:00055da0       ?dtor$0@?0???$add@USArg@@@NamedConstantList@?$MathExpressionBase@USArg@@@@QEAAXAEBV?$basic_string@_WU?$char_traits@_W@std@@V?$allocator@_W@2@@std@@AEBUSArg@@0@Z@4HA 0000000180056da0 f   newparse.cpp.obj
 0001:00055dc0       ?dtor$2@?0???$add@USArg@@@NamedConstantList@?$MathExpressionBase@USArg@@@@QEAAXAEBV?$basic_string@_WU?$char_traits@_W@std@@V?$allocator@_W@2@@std@@AEBUSArg@@0@Z@4HA 0000000180056dc0 f   newparse.cpp.obj
 0001:00055dd0       ?dtor$0@?0??create_node@?$MathExpressionNodeFactory@USArg@@@?$FunctionListBase@VFunctionalNodeFactory@?$MathExpressionBase@USArg@@@@@?$MathExpressionBase@USArg@@@@UEBAPEAVNode@3@AEBVNodeList@3@AEBV?$basic_string@_WU?$char_traits@_W@std@@V?$allocator@_W@2@@std@@@Z@4HA 0000000180056dd0 f   newparse.cpp.obj
 0001:00055df0       ?dtor$1@?0??create_node@?$FunctionPointerNodeFactory@P6A?AUSArg@@AEBU1@00@Z@?$FunctionListBase@VFunctionalNodeFactory@?$MathExpressionBase@USArg@@@@@?$MathExpressionBase@USArg@@@@UEBAPEAVNode@3@AEBVNodeList@3@AEBV?$basic_string@_WU?$char_traits@_W@std@@V?$allocator@_W@2@@std@@@Z@4HA 0000000180056df0 f   newparse.cpp.obj
 0001:00055df0       ?dtor$1@?0??create_node@?$FunctionPointerNodeFactory@P6A?AUSArg@@AEBU1@0@Z@?$FunctionListBase@VBinaryOperationNodeFactory@?$MathExpressionBase@USArg@@@@@?$MathExpressionBase@USArg@@@@UEBAPEAVNode@3@AEBVNodeList@3@AEBV?$basic_string@_WU?$char_traits@_W@std@@V?$allocator@_W@2@@std@@@Z@4HA 0000000180056df0 f   newparse.cpp.obj
 0001:00055df0       ?dtor$1@?0??create_node@?$FunctionPointerNodeFactory@P6A?AUSArg@@AEBU1@0@Z@?$FunctionListBase@VFunctionalNodeFactory@?$MathExpressionBase@USArg@@@@@?$MathExpressionBase@USArg@@@@UEBAPEAVNode@3@AEBVNodeList@3@AEBV?$basic_string@_WU?$char_traits@_W@std@@V?$allocator@_W@2@@std@@@Z@4HA 0000000180056df0 f   newparse.cpp.obj
 0001:00055df0       ?dtor$1@?0??create_node@?$FunctionPointerNodeFactory@P6A?AUSArg@@AEBU1@@Z@?$FunctionListBase@VFunctionalNodeFactory@?$MathExpressionBase@USArg@@@@@?$MathExpressionBase@USArg@@@@UEBAPEAVNode@3@AEBVNodeList@3@AEBV?$basic_string@_WU?$char_traits@_W@std@@V?$allocator@_W@2@@std@@@Z@4HA 0000000180056df0 f   newparse.cpp.obj
 0001:00055df0       ?dtor$1@?0??create_node@?$FunctionPointerNodeFactory@P6A?AUSArg@@AEBU1@@Z@?$FunctionListBase@VUnaryOperationNodeFactory@?$MathExpressionBase@USArg@@@@@?$MathExpressionBase@USArg@@@@UEBAPEAVNode@3@AEBVNodeList@3@AEBV?$basic_string@_WU?$char_traits@_W@std@@V?$allocator@_W@2@@std@@@Z@4HA 0000000180056df0 f   newparse.cpp.obj
 0001:00055df0       ?dtor$1@?0??create_node@?$FunctionPointerNodeFactory@P6A?AUSArg@@U1@@Z@?$FunctionListBase@VUnaryOperationNodeFactory@?$MathExpressionBase@USArg@@@@@?$MathExpressionBase@USArg@@@@UEBAPEAVNode@3@AEBVNodeList@3@AEBV?$basic_string@_WU?$char_traits@_W@std@@V?$allocator@_W@2@@std@@@Z@4HA 0000000180056df0 f   newparse.cpp.obj
 0001:00055df0       ?dtor$1@?0??create_node@?$FunctionPointerNodeFactory@P6A?AUSArg@@XZ@?$FunctionListBase@VFunctionalNodeFactory@?$MathExpressionBase@USArg@@@@@?$MathExpressionBase@USArg@@@@UEBAPEAVNode@3@AEBVNodeList@3@AEBV?$basic_string@_WU?$char_traits@_W@std@@V?$allocator@_W@2@@std@@@Z@4HA 0000000180056df0 f   newparse.cpp.obj
 0001:00055df0       ?dtor$1@?0??create_node@?$MathExpressionNodeFactory@USArg@@@?$FunctionListBase@VFunctionalNodeFactory@?$MathExpressionBase@USArg@@@@@?$MathExpressionBase@USArg@@@@UEBAPEAVNode@3@AEBVNodeList@3@AEBV?$basic_string@_WU?$char_traits@_W@std@@V?$allocator@_W@2@@std@@@Z@4HA 0000000180056df0 f   newparse.cpp.obj
 0001:00055e00       ?dtor$2@?0??create_node@?$MathExpressionNodeFactory@USArg@@@?$FunctionListBase@VFunctionalNodeFactory@?$MathExpressionBase@USArg@@@@@?$MathExpressionBase@USArg@@@@UEBAPEAVNode@3@AEBVNodeList@3@AEBV?$basic_string@_WU?$char_traits@_W@std@@V?$allocator@_W@2@@std@@@Z@4HA 0000000180056e00 f   newparse.cpp.obj
 0001:00055e10       ?dtor$0@?0??create_node@?$FunctionPointerNodeFactory@P6A?AUSArg@@AEBU1@00@Z@?$FunctionListBase@VFunctionalNodeFactory@?$MathExpressionBase@USArg@@@@@?$MathExpressionBase@USArg@@@@UEBAPEAVNode@3@AEBVNodeList@3@AEBV?$basic_string@_WU?$char_traits@_W@std@@V?$allocator@_W@2@@std@@@Z@4HA 0000000180056e10 f   newparse.cpp.obj
 0001:00055e10       ?dtor$0@?0??create_node@?$FunctionPointerNodeFactory@P6A?AUSArg@@AEBU1@0@Z@?$FunctionListBase@VBinaryOperationNodeFactory@?$MathExpressionBase@USArg@@@@@?$MathExpressionBase@USArg@@@@UEBAPEAVNode@3@AEBVNodeList@3@AEBV?$basic_string@_WU?$char_traits@_W@std@@V?$allocator@_W@2@@std@@@Z@4HA 0000000180056e10 f   newparse.cpp.obj
 0001:00055e10       ?dtor$0@?0??create_node@?$FunctionPointerNodeFactory@P6A?AUSArg@@AEBU1@0@Z@?$FunctionListBase@VFunctionalNodeFactory@?$MathExpressionBase@USArg@@@@@?$MathExpressionBase@USArg@@@@UEBAPEAVNode@3@AEBVNodeList@3@AEBV?$basic_string@_WU?$char_traits@_W@std@@V?$allocator@_W@2@@std@@@Z@4HA 0000000180056e10 f   newparse.cpp.obj
 0001:00055e10       ?dtor$0@?0??create_node@?$FunctionPointerNodeFactory@P6A?AUSArg@@AEBU1@@Z@?$FunctionListBase@VFunctionalNodeFactory@?$MathExpressionBase@USArg@@@@@?$MathExpressionBase@USArg@@@@UEBAPEAVNode@3@AEBVNodeList@3@AEBV?$basic_string@_WU?$char_traits@_W@std@@V?$allocator@_W@2@@std@@@Z@4HA 0000000180056e10 f   newparse.cpp.obj
 0001:00055e10       ?dtor$0@?0??create_node@?$FunctionPointerNodeFactory@P6A?AUSArg@@AEBU1@@Z@?$FunctionListBase@VUnaryOperationNodeFactory@?$MathExpressionBase@USArg@@@@@?$MathExpressionBase@USArg@@@@UEBAPEAVNode@3@AEBVNodeList@3@AEBV?$basic_string@_WU?$char_traits@_W@std@@V?$allocator@_W@2@@std@@@Z@4HA 0000000180056e10 f   newparse.cpp.obj
 0001:00055e10       ?dtor$0@?0??create_node@?$FunctionPointerNodeFactory@P6A?AUSArg@@U1@@Z@?$FunctionListBase@VUnaryOperationNodeFactory@?$MathExpressionBase@USArg@@@@@?$MathExpressionBase@USArg@@@@UEBAPEAVNode@3@AEBVNodeList@3@AEBV?$basic_string@_WU?$char_traits@_W@std@@V?$allocator@_W@2@@std@@@Z@4HA 0000000180056e10 f   newparse.cpp.obj
 0001:00055e10       ?dtor$0@?0??create_node@?$FunctionPointerNodeFactory@P6A?AUSArg@@XZ@?$FunctionListBase@VFunctionalNodeFactory@?$MathExpressionBase@USArg@@@@@?$MathExpressionBase@USArg@@@@UEBAPEAVNode@3@AEBVNodeList@3@AEBV?$basic_string@_WU?$char_traits@_W@std@@V?$allocator@_W@2@@std@@@Z@4HA 0000000180056e10 f   newparse.cpp.obj
 0001:00055e30       ?dtor$0@?0???0FunctionalNode@?$MathExpressionBase@USArg@@@@IEAA@AEBVNodeList@1@@Z@4HA 0000000180056e30 f   newparse.cpp.obj
 0001:00055e40       ?catch$0@?0???$_Resize_reallocate@U_Value_init_tag@std@@@?$vector@VCalcAddonPart@@V?$allocator@VCalcAddonPart@@@std@@@std@@AEAAX_KAEBU_Value_init_tag@1@@Z@4HA 0000000180056e40 f   newparse.cpp.obj
 0001:00055e4d       __catch$??$_Resize_reallocate@U_Value_init_tag@std@@@?$vector@VCalcAddonPart@@V?$allocator@VCalcAddonPart@@@std@@@std@@AEAAX_KAEBU_Value_init_tag@1@@Z$0 0000000180056e4d f   newparse.cpp.obj
 0001:00055e80       ?dtor$0@?0??ToString_Log@?$Big@$01$0BK@@ttmath@@AEAA_KAEBV12@_K@Z@4HA 0000000180056e80 f   newparse.cpp.obj
 0001:00055ea0       ?dtor$0@?0???$_Uninitialized_copy@PEAVCalcAddonPart@@V?$allocator@VCalcAddonPart@@@std@@@std@@YAPEAVCalcAddonPart@@QEAV1@0PEAV1@AEAV?$allocator@VCalcAddonPart@@@0@@Z@4HA 0000000180056ea0 f   newparse.cpp.obj
 0001:00055eb0       ?dtor$0@?0???LSArg@@QEBA?AU0@AEBU0@@Z@4HA 0000000180056eb0 f   sarg.cpp.obj
 0001:00055ec0       ?dtor$0@?0???$Gamma@V?$Big@$00$0BK@@ttmath@@@ttmath@@YA?AV?$Big@$00$0BK@@0@AEBV10@PEAW4ErrorCode@0@@Z@4HA 0000000180056ec0 f   sarg.cpp.obj
 0001:00055ee0       ?dtor$1@?0???$Gamma@V?$Big@$00$0BK@@ttmath@@@ttmath@@YA?AV?$Big@$00$0BK@@0@AEBV10@PEAW4ErrorCode@0@@Z@4HA 0000000180056ee0 f   sarg.cpp.obj
 0001:00055ef0       ?dtor$2@?0???$Gamma@V?$Big@$00$0BK@@ttmath@@@ttmath@@YA?AV?$Big@$00$0BK@@0@AEBV10@PEAW4ErrorCode@0@@Z@4HA 0000000180056ef0 f   sarg.cpp.obj
 0001:00055f00       __scrt_is_nonwritable_in_current_image$filt$0 0000000180056f00 f   LIBCMT:utility.obj
 0001:00055f18       ?fin$0@?0???_M@YAXPEAX_K1P6AX0@Z@Z@4HA 0000000180056f18 f   LIBCMT:ehvecdtr.obj
 0001:00055f44       ?filt$0@?0??__ArrayUnwind@@YAXPEAX_K1P6AX0@Z@Z@4HA 0000000180056f44 f   LIBCMT:ehvecdtr.obj
 0001:00055fa3       ?fin$0@?0???_L@YAXPEAX_K1P6AX0@Z2@Z@4HA 0000000180056fa3 f   LIBCMT:ehvecctr.obj
 0001:00055fcf       ?fin$0@?0??dllmain_crt_process_attach@@YAHQEAUHINSTANCE__@@QEAX@Z@4HA 0000000180056fcf f   LIBCMT:dll_dllmain.obj
 0001:00055fe6       ?fin$0@?0??dllmain_crt_process_detach@@YAH_N@Z@4HA 0000000180056fe6 f   LIBCMT:dll_dllmain.obj
 0001:00055fff       ?fin$1@?0??dllmain_crt_process_detach@@YAH_N@Z@4HA 0000000180056fff f   LIBCMT:dll_dllmain.obj
 0001:00056013       ?filt$0@?0??dllmain_dispatch@@YAHQEAUHINSTANCE__@@KQEAX@Z@4HA 0000000180057013 f   LIBCMT:dll_dllmain.obj
 0001:00056049       ?filt$0@?0???$_CallSETranslator@V__FrameHandler4@@@@YAHPEAUEHExceptionRecord@@PEA_KPEAU_CONTEXT@@PEAU_xDISPATCHER_CONTEXT@@PEAUFuncInfo4@FH4@@K1H@Z@4HA 0000000180057049 f   libvcruntime:risctrnsctrl.obj
 0001:000560e8       __DestructExceptionObject$filt$0 00000001800570e8 f   libvcruntime:ehhelpers.obj
 0001:0005617e       ?filt$0@?0??CxxCallCatchBlock@__FrameHandler4@@SAPEAXPEAU_EXCEPTION_RECORD@@@Z@4HA 000000018005717e f   libvcruntime:frame.obj
 0001:000561ad       ?fin$1@?0??CxxCallCatchBlock@__FrameHandler4@@SAPEAXPEAU_EXCEPTION_RECORD@@@Z@4HA 00000001800571ad f   libvcruntime:frame.obj
 0001:00056230       ?filt$0@?0??FrameUnwindToState@__FrameHandler4@@SAXPEA_KPEAU_xDISPATCHER_CONTEXT@@PEAUFuncInfo4@FH4@@H@Z@4HA 0000000180057230 f   libvcruntime:frame.obj
 0001:00056246       ?fin$1@?0??FrameUnwindToState@__FrameHandler4@@SAXPEA_KPEAU_xDISPATCHER_CONTEXT@@PEAUFuncInfo4@FH4@@H@Z@4HA 0000000180057246 f   libvcruntime:frame.obj
 0001:00056269       fclose$fin$0               0000000180057269 f   libucrt:fclose.obj
 0001:00056269       ?fin$0@?0??common_fseek@@YAHV__crt_stdio_stream@@_JH@Z@4HA 0000000180057269 f   libucrt:fseek.obj
 0001:00056269       ?fin$0@?0???$common_ftell@J@@YAJV__crt_stdio_stream@@@Z@4HA 0000000180057269 f   libucrt:ftell.obj
 0001:00056269       rewind$fin$0               0000000180057269 f   libucrt:rewind.obj
 0001:00056281       ?fin$0@?0???$common_fsopen@_W@@YAPEAU_iobuf@@QEB_W0H@Z@4HA 0000000180057281 f   libucrt:fopen.obj
 0001:000562ac       fread_s$fin$0              00000001800572ac f   libucrt:fread.obj
 0001:000562c4       _query_new_handler$fin$0   00000001800572c4 f   libucrt:new_handler.obj
 0001:000562da       ?fin$0@?0???$?RV<lambda_0ae27a3a962d80f24befdcbee591983d>@@AEAV<lambda_8d0ee55de4b1038c4002e0adecdf1839>@@V<lambda_dc504788e8f1664fe9b84e20bfb512f2>@@@?$__crt_seh_guarded_call@X@@QEAAX$$QEAV<lambda_0ae27a3a962d80f24befdcbee591983d>@@AEAV<lambda_8d0ee55de4b1038c4002e0adecdf1839>@@$$QEAV<lambda_dc504788e8f1664fe9b84e20bfb512f2>@@@Z@4HA 00000001800572da f   libucrt:per_thread_data.obj
 0001:000562da       ?fin$0@?0???$?RV<lambda_2d41944a1d46af3157314b8a01080d33>@@AEAV<lambda_8f455de75cd7d7f24b4096f044d8b9e6>@@V<lambda_aa500f224e6afead328df44964fe2772>@@@?$__crt_seh_guarded_call@X@@QEAAX$$QEAV<lambda_2d41944a1d46af3157314b8a01080d33>@@AEAV<lambda_8f455de75cd7d7f24b4096f044d8b9e6>@@$$QEAV<lambda_aa500f224e6afead328df44964fe2772>@@@Z@4HA 00000001800572da f   libucrt:per_thread_data.obj
 0001:000562da       ?fin$0@?0???$?RV<lambda_aa87e3671a710a21b5dc78c0bdf72e11>@@AEAV<lambda_92619d2358a28f41a33ba319515a20b9>@@V<lambda_6992ecaafeb10aed2b74cb1fae11a551>@@@?$__crt_seh_guarded_call@X@@QEAAX$$QEAV<lambda_aa87e3671a710a21b5dc78c0bdf72e11>@@AEAV<lambda_92619d2358a28f41a33ba319515a20b9>@@$$QEAV<lambda_6992ecaafeb10aed2b74cb1fae11a551>@@@Z@4HA 00000001800572da f   libucrt:per_thread_data.obj
 0001:000562da       ?fin$0@?0???$?RV<lambda_f2e299630e499de9f9a165e60fcd3db5>@@AEAV<lambda_2ae9d31cdba2644fcbeaf08da7c24588>@@V<lambda_40d01ff24d0e7b3814fdbdcee8eab3c7>@@@?$__crt_seh_guarded_call@X@@QEAAX$$QEAV<lambda_f2e299630e499de9f9a165e60fcd3db5>@@AEAV<lambda_2ae9d31cdba2644fcbeaf08da7c24588>@@$$QEAV<lambda_40d01ff24d0e7b3814fdbdcee8eab3c7>@@@Z@4HA 00000001800572da f   libucrt:per_thread_data.obj
 0001:000562da       ?fin$0@?0???$?RV<lambda_efdfa57d1f175319df784efa44bb7b81>@@AEAV<lambda_5f0a4c1567f8adc6734073e5d1e1b35c>@@V<lambda_2e8a7d3640ea6ccb4c2413664c2db6fd>@@@?$__crt_seh_guarded_call@X@@QEAAX$$QEAV<lambda_efdfa57d1f175319df784efa44bb7b81>@@AEAV<lambda_5f0a4c1567f8adc6734073e5d1e1b35c>@@$$QEAV<lambda_2e8a7d3640ea6ccb4c2413664c2db6fd>@@@Z@4HA 00000001800572da f   libucrt:mbctype.obj
 0001:000562da       ?fin$0@?0???$?RV<lambda_450d765d439847d4c735a33c368b5fc0>@@AEAV<lambda_44731a7d0e6d81c3e6aa82d741081786>@@V<lambda_601a2a7da3b7a96e9554ac7215c4b07c>@@@?$__crt_seh_guarded_call@P6AXH@Z@@QEAAP6AXH@Z$$QEAV<lambda_450d765d439847d4c735a33c368b5fc0>@@AEAV<lambda_44731a7d0e6d81c3e6aa82d741081786>@@$$QEAV<lambda_601a2a7da3b7a96e9554ac7215c4b07c>@@@Z@4HA 00000001800572da f   libucrt:signal.obj
 0001:000562da       ?fin$0@?0???$?RV<lambda_d80eeec6fff315bfe5c115232f3240e3>@@AEAV<lambda_6e4b09c48022b2350581041d5f6b0c4c>@@V<lambda_2358e3775559c9db80273638284d5e45>@@@?$__crt_seh_guarded_call@X@@QEAAX$$QEAV<lambda_d80eeec6fff315bfe5c115232f3240e3>@@AEAV<lambda_6e4b09c48022b2350581041d5f6b0c4c>@@$$QEAV<lambda_2358e3775559c9db80273638284d5e45>@@@Z@4HA 00000001800572da f   libucrt:exit.obj
 0001:000562da       ?fin$0@?0???$?RV<lambda_638799b9deba96c50f710eeac98168cd>@@AEAV<lambda_22ebabd17bc4fa466a2aca6d8deb888d>@@V<lambda_a6f7d7db0129f75315ebf26d50c089f1>@@@?$__crt_seh_guarded_call@H@@QEAAH$$QEAV<lambda_638799b9deba96c50f710eeac98168cd>@@AEAV<lambda_22ebabd17bc4fa466a2aca6d8deb888d>@@$$QEAV<lambda_a6f7d7db0129f75315ebf26d50c089f1>@@@Z@4HA 00000001800572da f   libucrt:onexit.obj
 0001:000562da       ?fin$0@?0???$?RV<lambda_7777bce6b2f8c936911f934f8298dc43>@@AEAV<lambda_f03950bc5685219e0bcd2087efbe011e>@@V<lambda_3883c3dff614d5e0c5f61bb1ac94921c>@@@?$__crt_seh_guarded_call@H@@QEAAH$$QEAV<lambda_7777bce6b2f8c936911f934f8298dc43>@@AEAV<lambda_f03950bc5685219e0bcd2087efbe011e>@@$$QEAV<lambda_3883c3dff614d5e0c5f61bb1ac94921c>@@@Z@4HA 00000001800572da f   libucrt:onexit.obj
 0001:000562f4       ?filt$0@?0???R<lambda_6e4b09c48022b2350581041d5f6b0c4c>@@QEBA@XZ@4HA 00000001800572f4 f   libucrt:exit.obj
 0001:0005630f       ?fin$0@?0???$?RV<lambda_410d79af7f07d98d83a3f525b3859a53>@@AEAV<lambda_3e16ef9562a7dcce91392c22ab16ea36>@@V<lambda_38119f0e861e05405d8a144b9b982f0a>@@@?$__crt_seh_guarded_call@X@@QEAAX$$QEAV<lambda_410d79af7f07d98d83a3f525b3859a53>@@AEAV<lambda_3e16ef9562a7dcce91392c22ab16ea36>@@$$QEAV<lambda_38119f0e861e05405d8a144b9b982f0a>@@@Z@4HA 000000018005730f f   libucrt:wsetlocale.obj
 0001:00056329       __acrt_initialize_lowio$fin$0 0000000180057329 f   libucrt:ioinit.obj
 0001:00056329       __acrt_lowio_ensure_fh_exists$fin$0 0000000180057329 f   libucrt:osfinfo.obj
 0001:00056329       _alloc_osfhnd$fin$0        0000000180057329 f   libucrt:osfinfo.obj
 0001:00056342       ?fin$0@?0???$common_lseek@J@@YAJHJH@Z@4HA 0000000180057342 f   libucrt:lseek.obj
 0001:00056342       ?fin$0@?0???$common_lseek@_J@@YA_JH_JH@Z@4HA 0000000180057342 f   libucrt:lseek.obj
 0001:00056342       _write$fin$0               0000000180057342 f   libucrt:write.obj
 0001:00056359       _read$fin$0                0000000180057359 f   libucrt:read.obj
 0001:00056370       ?fin$0@?0???$?RV<lambda_751a882b2c74d4b022dec766aa51a29a>@@AEAV<lambda_628dfdc04ba53c8bfc02c9951375f3f5>@@V<lambda_f6c7be5f7998530c34de24c7437d6b54>@@@?$__crt_seh_guarded_call@H@@QEAAH$$QEAV<lambda_751a882b2c74d4b022dec766aa51a29a>@@AEAV<lambda_628dfdc04ba53c8bfc02c9951375f3f5>@@$$QEAV<lambda_f6c7be5f7998530c34de24c7437d6b54>@@@Z@4HA 0000000180057370 f   libucrt:close.obj
 0001:00056370       ?fin$0@?0???$?RV<lambda_a37b2b86f63e897a80ea819b0eb08c01>@@AEAV<lambda_38ce7e780aa69e748d6df282ebc68efe>@@V<lambda_99fb1378e971ab6e7edea83e3a7a83a2>@@@?$__crt_seh_guarded_call@H@@QEAAH$$QEAV<lambda_a37b2b86f63e897a80ea819b0eb08c01>@@AEAV<lambda_38ce7e780aa69e748d6df282ebc68efe>@@$$QEAV<lambda_99fb1378e971ab6e7edea83e3a7a83a2>@@@Z@4HA 0000000180057370 f   libucrt:commit.obj
 0001:0005638a       _fcloseall$fin$0           000000018005738a f   libucrt:closeall.obj
 0001:0005638a       ?fin$0@?0??__acrt_stdio_allocate_stream@@YA?AV__crt_stdio_stream@@XZ@4HA 000000018005738a f   libucrt:stream.obj
 0001:000563a3       ?fin$0@?0???$?RV<lambda_842d9ff0dc9ef11c61343bbaebe7f885>@@AEAV<lambda_c5860995281e5c4ce005b3de8f5874ee>@@V<lambda_d90129c13df834fdcbf8d2b88dafcf2d>@@@?$__crt_seh_guarded_call@X@@QEAAX$$QEAV<lambda_842d9ff0dc9ef11c61343bbaebe7f885>@@AEAV<lambda_c5860995281e5c4ce005b3de8f5874ee>@@$$QEAV<lambda_d90129c13df834fdcbf8d2b88dafcf2d>@@@Z@4HA 00000001800573a3 f   libucrt:fflush.obj
 0001:000563be       ?fin$0@?0???$?RV<lambda_886d6c58226a84441f68b9f2b8217b83>@@AEAV<lambda_ab61a845afdef5b7c387490eaf3616ee>@@V<lambda_f7f22ab5edc0698d5f6905b0d3f44752>@@@?$__crt_seh_guarded_call@X@@QEAAX$$QEAV<lambda_886d6c58226a84441f68b9f2b8217b83>@@AEAV<lambda_ab61a845afdef5b7c387490eaf3616ee>@@$$QEAV<lambda_f7f22ab5edc0698d5f6905b0d3f44752>@@@Z@4HA 00000001800573be f   libucrt:fflush.obj
 0001:000563db       ?fin$0@?0??update_thread_multibyte_data_internal@@YAPEAU__crt_multibyte_data@@QEAU__acrt_ptd@@QEAPEAU1@@Z@4HA 00000001800573db f   libucrt:mbctype.obj
 0001:000563f4       raise$fin$0                00000001800573f4 f   libucrt:signal.obj
 0001:00056415       __acrt_update_thread_locale_data$fin$0 0000000180057415 f   libucrt:locale_refcounting.obj
 0001:0005642e       _ctrlfp$filt$0             000000018005742e f   libucrt:fpctrl.obj
 0001:0005642e       common_control87$filt$0    000000018005742e f   libucrt:ieee.obj
 0001:0005645a       ?fin$0@?0???$common_sopen_dispatch@_W@@YAHQEB_WHHHQEAHH@Z@4HA 000000018005745a f   libucrt:open.obj
 0001:000564b0       _IsNonwritableInCurrentImage$filt$0 00000001800574b0 f   LIBCMT:pesect.obj
 0001:000564d0       __RTDynamicCast$filt$0     00000001800574d0 f   libvcruntime:rtti.obj
 0001:000564f0       ??__Fdlg_hash@@YAXXZ       00000001800574f0 f   api.cpp.obj
 0001:00056600       ??__Fcur_op_name@@YAXXZ    0000000180057600 f   newparse.cpp.obj
 0001:00056650       ??__F?addons@CalcParser@@2V?$vector@VCalcAddon@@V?$allocator@VCalcAddon@@@std@@@std@@A@@YAXXZ 0000000180057650 f   newparse.cpp.obj
 0001:000566c0       ??__F?user_un_ops@CalcParser@@1V?$hash_map@V?$basic_string@_WU?$char_traits@_W@std@@V?$allocator@_W@2@@std@@PEAVCalcParser@@UStrHashFunc@@U?$equal_to@V?$basic_string@_WU?$char_traits@_W@std@@V?$allocator@_W@2@@std@@@2@V?$allocator@U?$pair@V?$basic_string@_WU?$char_traits@_W@std@@V?$allocator@_W@2@@std@@PEAVCalcParser@@@std@@@2@@ag@@A@@YAXXZ 00000001800576c0 f   newparse.cpp.obj
 0001:00056710       ??__F?user_bin_ops@CalcParser@@1V?$hash_map@V?$basic_string@_WU?$char_traits@_W@std@@V?$allocator@_W@2@@std@@PEAVCalcParser@@UStrHashFunc@@U?$equal_to@V?$basic_string@_WU?$char_traits@_W@std@@V?$allocator@_W@2@@std@@@2@V?$allocator@U?$pair@V?$basic_string@_WU?$char_traits@_W@std@@V?$allocator@_W@2@@std@@PEAVCalcParser@@@std@@@2@@ag@@A@@YAXXZ 0000000180057710 f   newparse.cpp.obj
 0001:00056760       ??__F?allFunctions@CalcParser@@1VFunctionList@?$MathExpressionBase@USArg@@@@A@@YAXXZ 0000000180057760 f   newparse.cpp.obj
 0001:00056800       ??__F?allNamedConstants@CalcParser@@1VNamedConstantList@?$MathExpressionBase@USArg@@@@A@@YAXXZ 0000000180057800 f   newparse.cpp.obj
 0001:000568a0       ??__F?allUnaryOpTable@CalcParser@@1VUnaryOperationTable@?$MathExpressionBase@USArg@@@@A@@YAXXZ 00000001800578a0 f   newparse.cpp.obj
 0001:00056940       ??__F?allBinaryOpTable@CalcParser@@1VBinaryOperationTable@?$MathExpressionBase@USArg@@@@A@@YAXXZ 0000000180057940 f   newparse.cpp.obj
 0001:000569e0       ??__F?rep_fraction_coefs@CalcParser@@1V?$vector@V?$Int@$0BI@@ttmath@@V?$allocator@V?$Int@$0BI@@ttmath@@@std@@@std@@A@@YAXXZ 00000001800579e0 f   newparse.cpp.obj
 0001:00056a40       ??__F?rep_mul2@CalcParser@@1V?$vector@V?$Big@$00$0BK@@ttmath@@V?$allocator@V?$Big@$00$0BK@@ttmath@@@std@@@std@@A@@YAXXZ 0000000180057a40 f   newparse.cpp.obj
 0001:00056aa0       ??__F?rep_mul1@CalcParser@@1V?$vector@V?$Big@$00$0BK@@ttmath@@V?$allocator@V?$Big@$00$0BK@@ttmath@@@std@@@std@@A@@YAXXZ 0000000180057aa0 f   newparse.cpp.obj
 0001:00056b00       ??__F?rep_fraction_thr2@CalcParser@@1V?$Big@$00$0BK@@ttmath@@A@@YAXXZ 0000000180057b00 f   newparse.cpp.obj
 0001:00056b10       ??__F?rep_fraction_thr@CalcParser@@1V?$Big@$00$0BK@@ttmath@@A@@YAXXZ 0000000180057b10 f   newparse.cpp.obj
 0001:00056b20       ??__Fbuiltin_ops@?1??AddAll@CalcParser@@SA_N_N@Z@YAXXZ 0000000180057b20 f   newparse.cpp.obj
 0001:00056b40       ??__FBig_0@?1??parse_number@CalcParser@@MEAA_NPEAUSArg@@PEB_WPEAPEA_W@Z@YAXXZ 0000000180057b40 f   newparse.cpp.obj
 0001:00056b50       ??__Fe_10@?1??limit_number@@YAHHAEBUSArg@@H@Z@YAXXZ 0000000180057b50 f   newparse.cpp.obj
 0001:00056b70       ??__Fe10@?1??limit_number@@YAHHAEBUSArg@@H@Z@YAXXZ 0000000180057b70 f   newparse.cpp.obj
 0001:00056b90       ??__Fb1@?1??print_continued_decimal@@YAXAEAV?$basic_string@_WU?$char_traits@_W@std@@V?$allocator@_W@2@@std@@USArg@@H_N@Z@YAXXZ 0000000180057b90 f   newparse.cpp.obj
 0001:00056ba0       ??__Fb1@?1??GetFraction@CalcParser@@SAXV?$Big@$00$0BK@@ttmath@@PEAV?$Int@$0BI@@3@1@Z@YAXXZ 0000000180057ba0 f   newparse.cpp.obj
 0001:00056bb0       ??__Fden@?1??GetFraction@CalcParser@@SAXV?$Big@$00$0BK@@ttmath@@PEAV?$Int@$0BI@@3@1@Z@YAXXZ 0000000180057bb0 f   newparse.cpp.obj
 0001:00056bc0       ??__Fnum@?1??GetFraction@CalcParser@@SAXV?$Big@$00$0BK@@ttmath@@PEAV?$Int@$0BI@@3@1@Z@YAXXZ 0000000180057bc0 f   newparse.cpp.obj
 0001:00056bd0       ??__Fstored_b@?1??GetFraction@CalcParser@@SAXV?$Big@$00$0BK@@ttmath@@PEAV?$Int@$0BI@@3@1@Z@YAXXZ 0000000180057bd0 f   newparse.cpp.obj
 0001:00056be0       ??__Fcont_series@?1??GetFraction@CalcParser@@SAXV?$Big@$00$0BK@@ttmath@@PEAV?$Int@$0BI@@3@1@Z@YAXXZ 0000000180057be0 f   newparse.cpp.obj
 0001:00056c40       ??__Fe_10@?L@??convertToString@@YAPEA_WAEBUSArg@@HH_N11PEAW4CALC_ERROR@@@Z@YAXXZ 0000000180057c40 f   newparse.cpp.obj
 0001:00056c60       ??__Fe10@?L@??convertToString@@YAPEA_WAEBUSArg@@HH_N11PEAW4CALC_ERROR@@@Z@YAXXZ 0000000180057c60 f   newparse.cpp.obj
 0001:00056ca0       ??__Fcgamma@?1???$Gamma@V?$Big@$00$0BK@@ttmath@@@ttmath@@YA?AV?$Big@$00$0BK@@0@AEBV10@PEAW4ErrorCode@0@@Z@YAXXZ 0000000180057ca0 f   sarg.cpp.obj
 0002:00000290       ?dlg_hash$initializer$@@3P6AXXZEA 0000000180058290     api.cpp.obj
 0002:00000298       ?calc_edit_length$initializer$@@3P6AXXZEA 0000000180058298     calc.cpp.obj
 0002:000002a0       ?cur_op_name$initializer$@@3P6AXXZEA 00000001800582a0     newparse.cpp.obj
 0002:000002a8       ??addons$initializer$@CalcParser@@2P6AXXZEA@@3P6AXXZEA 00000001800582a8     newparse.cpp.obj
 0002:000002b0       ??user_bin_ops$initializer$@CalcParser@@1P6AXXZEA@@3P6AXXZEA 00000001800582b0     newparse.cpp.obj
 0002:000002b8       ??user_un_ops$initializer$@CalcParser@@1P6AXXZEA@@3P6AXXZEA 00000001800582b8     newparse.cpp.obj
 0002:000002c0       ??allFunctions$initializer$@CalcParser@@1P6AXXZEA@@3P6AXXZEA 00000001800582c0     newparse.cpp.obj
 0002:000002c8       ??allNamedConstants$initializer$@CalcParser@@1P6AXXZEA@@3P6AXXZEA 00000001800582c8     newparse.cpp.obj
 0002:000002d0       ??allUnaryOpTable$initializer$@CalcParser@@1P6AXXZEA@@3P6AXXZEA 00000001800582d0     newparse.cpp.obj
 0002:000002d8       ??allBinaryOpTable$initializer$@CalcParser@@1P6AXXZEA@@3P6AXXZEA 00000001800582d8     newparse.cpp.obj
 0002:000002e0       ??rep_fraction_coefs$initializer$@CalcParser@@1P6AXXZEA@@3P6AXXZEA 00000001800582e0     newparse.cpp.obj
 0002:000002e8       ??rep_mul1$initializer$@CalcParser@@1P6AXXZEA@@3P6AXXZEA 00000001800582e8     newparse.cpp.obj
 0002:000002f0       ??rep_mul2$initializer$@CalcParser@@1P6AXXZEA@@3P6AXXZEA 00000001800582f0     newparse.cpp.obj
 0002:000002f8       ??rep_fraction_thr$initializer$@CalcParser@@1P6AXXZEA@@3P6AXXZEA 00000001800582f8     newparse.cpp.obj
 0002:00000300       ??rep_fraction_thr2$initializer$@CalcParser@@1P6AXXZEA@@3P6AXXZEA 0000000180058300     newparse.cpp.obj
 0002:00000690       ?ExceptionTemplate@?1??UnwindNestedFrames@__FrameHandler4@@SAXPEA_KPEAUEHExceptionRecord@@PEAU_CONTEXT@@0PEAXPEAUFuncInfo4@FH4@@HHPEAUHandlerType4@6@PEAU_xDISPATCHER_CONTEXT@@E@Z@4U_EXCEPTION_RECORD@@B 0000000180058690     libvcruntime:risctrnsctrl.obj
 0002:00000760       ?tokenTable@@3QBUStringLiteral@@B 0000000180058760     libvcruntime:undname.obj
 0002:00000860       ?nameTable@@3QBUStringLiteral@@B 0000000180058860     libvcruntime:undname.obj
 0002:00000d90       ?rttiTable@@3QBUStringLiteral@@B 0000000180058d90     libvcruntime:undname.obj
 0002:00000de0       ?IndirectionName@@3QBUStringLiteral@@B 0000000180058de0     libvcruntime:undname.obj
 0002:00000e40       ?PrefixName@@3QBUStringLiteral@@B 0000000180058e40     libvcruntime:undname.obj
 0002:00001518       ?module_names@?A0x5cc078d5@@3QBQEB_WB 0000000180059518     libvcruntime:winapi_downlevel.obj
 0002:000015d8       ?candidate_modules@?1??try_get_FlsAlloc@@YAP6AKP6AXPEAX@Z@ZXZ@4QBW4module_id@?A0x5cc078d5@@B 00000001800595d8     libvcruntime:winapi_downlevel.obj
 0002:000015f0       ?candidate_modules@?1??try_get_FlsFree@@YAP6AHK@ZXZ@4QBW4module_id@?A0x5cc078d5@@B 00000001800595f0     libvcruntime:winapi_downlevel.obj
 0002:00001600       ?candidate_modules@?1??try_get_FlsGetValue@@YAP6APEAXK@ZXZ@4QBW4module_id@?A0x5cc078d5@@B 0000000180059600     libvcruntime:winapi_downlevel.obj
 0002:00001618       ?candidate_modules@?1??try_get_FlsSetValue@@YAP6AHKPEAX@ZXZ@4QBW4module_id@?A0x5cc078d5@@B 0000000180059618     libvcruntime:winapi_downlevel.obj
 0002:00001630       ?candidate_modules@?1??try_get_InitializeCriticalSectionEx@@YAP6AHPEAU_RTL_CRITICAL_SECTION@@KK@ZXZ@4QBW4module_id@?A0x5cc078d5@@B 0000000180059630     libvcruntime:winapi_downlevel.obj
 0002:00001b80       __acrt_initializers        0000000180059b80     libucrt:initialization.obj
 0002:00001c80       ?errtable@@3QBUerrentry@?A0x31fdb9ec@@B 0000000180059c80     libucrt:errno.obj
 0002:00001df0       ?module_names@?A0x391cf84c@@3QBQEB_WB 0000000180059df0     libucrt:winapi_thunks.obj
 0002:000022f8       ?candidate_modules@?1??try_get_AreFileApisANSI@@YAP6AHXZXZ@4QBW4module_id@?A0x391cf84c@@B 000000018005a2f8     libucrt:winapi_thunks.obj
 0002:00002310       ?candidate_modules@?1??try_get_FlsAlloc@@YAP6AKP6AXPEAX@Z@ZXZ@4QBW4module_id@?A0x391cf84c@@B 000000018005a310     libucrt:winapi_thunks.obj
 0002:00002318       ?candidate_modules@?1??try_get_FlsFree@@YAP6AHK@ZXZ@4QBW4module_id@?A0x391cf84c@@B 000000018005a318     libucrt:winapi_thunks.obj
 0002:00002320       ?candidate_modules@?1??try_get_FlsGetValue@@YAP6APEAXK@ZXZ@4QBW4module_id@?A0x391cf84c@@B 000000018005a320     libucrt:winapi_thunks.obj
 0002:00002328       ?candidate_modules@?1??try_get_FlsSetValue@@YAP6AHKPEAX@ZXZ@4QBW4module_id@?A0x391cf84c@@B 000000018005a328     libucrt:winapi_thunks.obj
 0002:00002330       ?candidate_modules@?1??try_get_InitializeCriticalSectionEx@@YAP6AHPEAU_RTL_CRITICAL_SECTION@@KK@ZXZ@4QBW4module_id@?A0x391cf84c@@B 000000018005a330     libucrt:winapi_thunks.obj
 0002:00002338       ?candidate_modules@?1??try_get_LCMapStringEx@@YAP6AHPEB_WK0HPEA_WHPEAU_nlsversioninfo@@PEAX_J@ZXZ@4QBW4module_id@?A0x391cf84c@@B 000000018005a338     libucrt:winapi_thunks.obj
 0002:00002350       ?candidate_modules@?1??try_get_LocaleNameToLCID@@YAP6AKPEB_WK@ZXZ@4QBW4module_id@?A0x391cf84c@@B 000000018005a350     libucrt:winapi_thunks.obj
 0002:0000236c       ?candidate_modules@?1??try_get_AppPolicyGetProcessTerminationMethod@@YAP6AJPEAXPEAW4AppPolicyProcessTerminationMethod@@@ZXZ@4QBW4module_id@?A0x391cf84c@@B 000000018005a36c     libucrt:winapi_thunks.obj
 0002:00003230       ?strings@?1??fp_format_nan_or_infinity@@YAHW4__acrt_fp_class@@_NPEAD_K1@Z@4QAY03QEBDA 000000018005b230     libucrt:cvt.obj
 0002:00003340       ?_mb_locale_names@@3QBQEB_WB 000000018005b340     libucrt:mbctype.obj
 0002:000033a0       ?LcidToLocaleNameTable@?A0x881e4c05@@3QBULcidToLocaleName@1@B 000000018005b3a0     libucrt:lcidtoname_downlevel.obj
 0002:00004df0       ?LocaleNameToIndexTable@?A0x881e4c05@@3QBULocaleNameIndex@1@B 000000018005cdf0     libucrt:lcidtoname_downlevel.obj
 0002:000070a0       __real@433fffffffffffff    000000018005f0a0     libucrt:fpsr.obj
 0002:000070a8       __real@c33fffffffffffff    000000018005f0a8     libucrt:fpsr.obj
 0002:000070c0       __real_ninf                000000018005f0c0     libucrt:log10.obj
 0002:000070d0       __real_inf                 000000018005f0d0     libucrt:log10.obj
 0002:000070e0       __real_neg_qnan            000000018005f0e0     libucrt:log10.obj
 0002:000070f0       __real_qnanbit             000000018005f0f0     libucrt:log10.obj
 0002:00007100       __int_1023                 000000018005f100     libucrt:log10.obj
 0002:00007110       __mask_001                 000000018005f110     libucrt:log10.obj
 0002:00007120       __mask_mant                000000018005f120     libucrt:log10.obj
 0002:00007130       __mask_mant_top8           000000018005f130     libucrt:log10.obj
 0002:00007140       __mask_mant9               000000018005f140     libucrt:log10.obj
 0002:00007150       __real_log10_e             000000018005f150     libucrt:log10.obj
 0002:00007160       __real_log10_e_lead        000000018005f160     libucrt:log10.obj
 0002:00007170       __real_log10_e_tail        000000018005f170     libucrt:log10.obj
 0002:00007180       __real_log10_2_lead        000000018005f180     libucrt:log10.obj
 0002:00007190       __real_log10_2_tail        000000018005f190     libucrt:log10.obj
 0002:000071a0       __real_two                 000000018005f1a0     libucrt:log10.obj
 0002:000071b0       __real_one                 000000018005f1b0     libucrt:log10.obj
 0002:000071c0       __real_half                000000018005f1c0     libucrt:log10.obj
 0002:000071d0       __mask_100                 000000018005f1d0     libucrt:log10.obj
 0002:000071e0       __real_1_over_512          000000018005f1e0     libucrt:log10.obj
 0002:000071f0       __real_1_over_2            000000018005f1f0     libucrt:log10.obj
 0002:00007200       __real_1_over_3            000000018005f200     libucrt:log10.obj
 0002:00007210       __real_1_over_4            000000018005f210     libucrt:log10.obj
 0002:00007220       __real_1_over_5            000000018005f220     libucrt:log10.obj
 0002:00007230       __real_1_over_6            000000018005f230     libucrt:log10.obj
 0002:00007240       __real_neg_1023            000000018005f240     libucrt:log10.obj
 0002:00007250       __mask_2045                000000018005f250     libucrt:log10.obj
 0002:00007260       __real_threshold           000000018005f260     libucrt:log10.obj
 0002:00007270       __real_near_one_lt         000000018005f270     libucrt:log10.obj
 0002:00007280       __real_near_one_gt         000000018005f280     libucrt:log10.obj
 0002:00007290       __real_min_norm            000000018005f290     libucrt:log10.obj
 0002:000072a0       __real_notsign             000000018005f2a0     libucrt:log10.obj
 0002:000072b0       __real_ca1                 000000018005f2b0     libucrt:log10.obj
 0002:000072c0       __real_ca2                 000000018005f2c0     libucrt:log10.obj
 0002:000072d0       __real_ca3                 000000018005f2d0     libucrt:log10.obj
 0002:000072e0       __real_ca4                 000000018005f2e0     libucrt:log10.obj
 0002:000072f0       __mask_lower               000000018005f2f0     libucrt:log10.obj
 0002:00007300       __flag_x_zero              000000018005f300     libucrt:log10.obj
 0002:00007304       __flag_x_neg               000000018005f304     libucrt:log10.obj
 0002:00007308       __flag_x_nan               000000018005f308     libucrt:log10.obj
 0002:00008b58       GS_ExceptionPointers       0000000180060b58     LIBCMT:gs_report.obj
 0002:00008bc0       ?rgPrimes@@3QB_KB          0000000180060bc0     api.cpp.obj
 0002:00008ca0       ?dlg_guids@@3QBU_GUID@@B   0000000180060ca0     api-far3.cpp.obj
 0002:00008ce0       ?dialog_template@@3QBUCalcDialogItem@@B 0000000180060ce0     calc.cpp.obj
 0002:00008da0       ?types@@3QAY0BE@$$CB_WA    0000000180060da0     calc.cpp.obj
 0002:00008f60       ?param_table@@3QBU<unnamed-type-param_table>@@B 0000000180060f60     config.cpp.obj
 0002:00009260       ?dlgItems@@3QBU<unnamed-type-dlgItems>@@B 0000000180061260     config.cpp.obj
 0002:00009770       ?rgPrimes@@3QB_KB          0000000180061770     newparse.cpp.obj
 0002:00009850       ?ntdll@modules@@3QB_WB     0000000180061850     vc_crt_fix_impl.cpp.obj
 0002:00009860       ?kernel32@modules@@3QB_WB  0000000180061860     vc_crt_fix_impl.cpp.obj
 0002:0000a840       ?group_nums@?1??SetDelims@CalcParser@@SA_N_W00@Z@4QBHB 0000000180062840     newparse.cpp.obj
 0002:0000a8a0       ?addon_formats@?BB@??AddLexem@CalcParser@@KA_NAEAPEAUSSyntax@@PEAVCSgmlEl@@1_N@Z@4QBU<unnamed-type-addon_formats>@?BB@??12@KA_N0112@Z@B 00000001800628a0     newparse.cpp.obj
 0002:0000b2f0       ?str_suffixes@?1??print_string@@YAXAEAV?$basic_string@_WU?$char_traits@_W@std@@V?$allocator@_W@2@@std@@USArg@@HH_N22@Z@4PAPEB_WA 00000001800632f0     newparse.cpp.obj
 0002:0000bf10       L_real_piby2_1             0000000180063f10     libucrt:cos.obj
 0002:0000bf20       L_real_piby2_1tail         0000000180063f20     libucrt:cos.obj
 0002:0000bf30       L_real_piby2_2             0000000180063f30     libucrt:cos.obj
 0002:0000bf40       L_real_piby2_2tail         0000000180063f40     libucrt:cos.obj
 0002:0000bf50       L_one                      0000000180063f50     libucrt:cos.obj
 0002:0000bf60       L_signbit                  0000000180063f60     libucrt:cos.obj
 0002:0000bf70       L_int_one                  0000000180063f70     libucrt:cos.obj
 0002:0000bf80       L_int_two                  0000000180063f80     libucrt:cos.obj
 0002:0000bf90       L_2_by_pi                  0000000180063f90     libucrt:cos.obj
 0002:0000bf98       L_one_half                 0000000180063f98     libucrt:cos.obj
 0002:0000bfa0       L_neg_one_half             0000000180063fa0     libucrt:cos.obj
 0002:0000bfa8       L_two_to_neg_27            0000000180063fa8     libucrt:cos.obj
 0002:0000bfb0       L_two_to_neg_13            0000000180063fb0     libucrt:cos.obj
 0002:0000bfb8       L_piby4                    0000000180063fb8     libucrt:cos.obj
 0002:0000bfc0       L_small_arg_cw             0000000180063fc0     libucrt:cos.obj
 0002:0000bfc8       L_small_arg_bdl            0000000180063fc8     libucrt:cos.obj
 0002:0000bfd0       L_sign_mask                0000000180063fd0     libucrt:cos.obj
 0002:0000bfd8       L__inf_mask_64             0000000180063fd8     libucrt:cos.obj
 0002:0000bfe0       L_2_to_32                  0000000180063fe0     libucrt:cos.obj
 0002:0000bff0       L_real_one                 0000000180063ff0     libucrt:cosf.obj
 0002:0000c000       L_one_half                 0000000180064000     libucrt:cosf.obj
 0002:0000c010       L_2bypi                    0000000180064010     libucrt:cosf.obj
 0002:0000c020       L_one_sixth                0000000180064020     libucrt:cosf.obj
 0002:0000c030       L_piby2                    0000000180064030     libucrt:cosf.obj
 0002:0000c040       L_piby2_1                  0000000180064040     libucrt:cosf.obj
 0002:0000c050       L_piby2_1tail              0000000180064050     libucrt:cosf.obj
 0002:0000c060       L_piby2_2                  0000000180064060     libucrt:cosf.obj
 0002:0000c070       L_piby2_2tail              0000000180064070     libucrt:cosf.obj
 0002:0000c080       L_large_x_sse2             0000000180064080     libucrt:cosf.obj
 0002:0000c090       L_large_x_fma3             0000000180064090     libucrt:cosf.obj
 0002:0000c0a0       L_sign_mask                00000001800640a0     libucrt:cosf.obj
 0002:0000c0b0       L__int_three               00000001800640b0     libucrt:cosf.obj
 0002:0000c0c0       L__min_norm_double         00000001800640c0     libucrt:cosf.obj
 0002:0000c0d0       L_two_to_neg_7             00000001800640d0     libucrt:cosf.obj
 0002:0000c0e0       L_two_to_neg_13            00000001800640e0     libucrt:cosf.obj
 0002:0000c0f0       L_two_to_32_float          00000001800640f0     libucrt:cosf.obj
 0002:0000c0f8       L_one_float                00000001800640f8     libucrt:cosf.obj
 0002:0000c100       L_inf_mask_32              0000000180064100     libucrt:cosf.obj
 0002:0000c110       __real_ninf                0000000180064110     libucrt:log.obj
 0002:0000c120       __real_inf                 0000000180064120     libucrt:log.obj
 0002:0000c130       __real_neg_qnan            0000000180064130     libucrt:log.obj
 0002:0000c140       __real_qnanbit             0000000180064140     libucrt:log.obj
 0002:0000c150       __real_min_norm            0000000180064150     libucrt:log.obj
 0002:0000c160       __real_mant                0000000180064160     libucrt:log.obj
 0002:0000c170       __mask_1023                0000000180064170     libucrt:log.obj
 0002:0000c180       __mask_001                 0000000180064180     libucrt:log.obj
 0002:0000c190       __mask_mant_all8           0000000180064190     libucrt:log.obj
 0002:0000c1a0       __mask_mant9               00000001800641a0     libucrt:log.obj
 0002:0000c1b0       __real_two                 00000001800641b0     libucrt:log.obj
 0002:0000c1c0       __real_one                 00000001800641c0     libucrt:log.obj
 0002:0000c1d0       __real_near_one_lt         00000001800641d0     libucrt:log.obj
 0002:0000c1e0       __real_near_one_gt         00000001800641e0     libucrt:log.obj
 0002:0000c1f0       __real_half                00000001800641f0     libucrt:log.obj
 0002:0000c200       __mask_100                 0000000180064200     libucrt:log.obj
 0002:0000c210       __real_1_over_512          0000000180064210     libucrt:log.obj
 0002:0000c220       __real_1_over_2            0000000180064220     libucrt:log.obj
 0002:0000c230       __real_1_over_3            0000000180064230     libucrt:log.obj
 0002:0000c240       __real_1_over_4            0000000180064240     libucrt:log.obj
 0002:0000c250       __real_1_over_5            0000000180064250     libucrt:log.obj
 0002:0000c260       __real_1_over_6            0000000180064260     libucrt:log.obj
 0002:0000c270       __mask_1023_f              0000000180064270     libucrt:log.obj
 0002:0000c280       __mask_2045                0000000180064280     libucrt:log.obj
 0002:0000c290       __real_threshold           0000000180064290     libucrt:log.obj
 0002:0000c2a0       __real_notsign             00000001800642a0     libucrt:log.obj
 0002:0000c2b0       __real_ca1                 00000001800642b0     libucrt:log.obj
 0002:0000c2c0       __real_ca2                 00000001800642c0     libucrt:log.obj
 0002:0000c2d0       __real_ca3                 00000001800642d0     libucrt:log.obj
 0002:0000c2e0       __real_ca4                 00000001800642e0     libucrt:log.obj
 0002:0000c2f0       __real_log2_lead           00000001800642f0     libucrt:log.obj
 0002:0000c300       __real_log2_tail           0000000180064300     libucrt:log.obj
 0002:0000c310       __flag_x_zero              0000000180064310     libucrt:log.obj
 0002:0000c314       __flag_x_neg               0000000180064314     libucrt:log.obj
 0002:0000c318       __flag_x_nan               0000000180064318     libucrt:log.obj
 0002:0000c320       L_real_one                 0000000180064320     libucrt:logf.obj
 0002:0000c330       L_real_two                 0000000180064330     libucrt:logf.obj
 0002:0000c340       L_real_ninf                0000000180064340     libucrt:logf.obj
 0002:0000c350       L_real_inf                 0000000180064350     libucrt:logf.obj
 0002:0000c360       L_real_nan                 0000000180064360     libucrt:logf.obj
 0002:0000c370       L_real_neg_qnan            0000000180064370     libucrt:logf.obj
 0002:0000c380       L_real_notsign             0000000180064380     libucrt:logf.obj
 0002:0000c390       L_real_mant                0000000180064390     libucrt:logf.obj
 0002:0000c3a0       L_mask_127                 00000001800643a0     libucrt:logf.obj
 0002:0000c3b0       L_mask_253                 00000001800643b0     libucrt:logf.obj
 0002:0000c3c0       L_mask_mant_all7           00000001800643c0     libucrt:logf.obj
 0002:0000c3d0       L_mask_mant8               00000001800643d0     libucrt:logf.obj
 0002:0000c3e0       L_real_ca1                 00000001800643e0     libucrt:logf.obj
 0002:0000c3f0       L_real_ca2                 00000001800643f0     libucrt:logf.obj
 0002:0000c400       L_real_log2_lead           0000000180064400     libucrt:logf.obj
 0002:0000c410       L_real_log2_tail           0000000180064410     libucrt:logf.obj
 0002:0000c420       L_real_half                0000000180064420     libucrt:logf.obj
 0002:0000c430       L_real_1_over_3            0000000180064430     libucrt:logf.obj
 0002:0000c440       L_real_1_over_2            0000000180064440     libucrt:logf.obj
 0002:0000c444       L_real_neg127              0000000180064444     libucrt:logf.obj
 0002:0000c448       L_real_qnanbit             0000000180064448     libucrt:logf.obj
 0002:0000c44c       L_real_threshold           000000018006444c     libucrt:logf.obj
 0002:0000c450       L_flag_x_zero              0000000180064450     libucrt:logf.obj
 0002:0000c454       L_flag_x_neg               0000000180064454     libucrt:logf.obj
 0002:0000c458       L_flag_x_nan               0000000180064458     libucrt:logf.obj
 0002:0000c460       __flag_x_one_y_snan        0000000180064460     libucrt:pow.obj
 0002:0000c464       __flag_x_zero_z_inf        0000000180064464     libucrt:pow.obj
 0002:0000c468       __flag_x_nan               0000000180064468     libucrt:pow.obj
 0002:0000c46c       __flag_y_nan               000000018006446c     libucrt:pow.obj
 0002:0000c470       __flag_x_nan_y_nan         0000000180064470     libucrt:pow.obj
 0002:0000c474       __flag_x_neg_y_notint      0000000180064474     libucrt:pow.obj
 0002:0000c478       __flag_z_zero              0000000180064478     libucrt:pow.obj
 0002:0000c47c       __flag_z_denormal          000000018006447c     libucrt:pow.obj
 0002:0000c480       __flag_z_inf               0000000180064480     libucrt:pow.obj
 0002:0000c490       __ay_max_bound             0000000180064490     libucrt:pow.obj
 0002:0000c498       __ay_min_bound             0000000180064498     libucrt:pow.obj
 0002:0000c4a0       __sign_mask                00000001800644a0     libucrt:pow.obj
 0002:0000c4a8       __sign_and_exp_mask        00000001800644a8     libucrt:pow.obj
 0002:0000c4b0       __exp_mask                 00000001800644b0     libucrt:pow.obj
 0002:0000c4b8       __neg_inf                  00000001800644b8     libucrt:pow.obj
 0002:0000c4c0       __pos_inf                  00000001800644c0     libucrt:pow.obj
 0002:0000c4c8       __pos_one                  00000001800644c8     libucrt:pow.obj
 0002:0000c4d0       __pos_zero                 00000001800644d0     libucrt:pow.obj
 0002:0000c4d8       __exp_mant_mask            00000001800644d8     libucrt:pow.obj
 0002:0000c4e0       __mant_mask                00000001800644e0     libucrt:pow.obj
 0002:0000c4e8       __ind_pattern              00000001800644e8     libucrt:pow.obj
 0002:0000c4f0       __neg_qnan                 00000001800644f0     libucrt:pow.obj
 0002:0000c4f8       __qnan                     00000001800644f8     libucrt:pow.obj
 0002:0000c500       __qnan_set                 0000000180064500     libucrt:pow.obj
 0002:0000c508       __neg_one                  0000000180064508     libucrt:pow.obj
 0002:0000c510       __neg_zero                 0000000180064510     libucrt:pow.obj
 0002:0000c518       __exp_shift                0000000180064518     libucrt:pow.obj
 0002:0000c520       __exp_bias                 0000000180064520     libucrt:pow.obj
 0002:0000c528       __exp_bias_m1              0000000180064528     libucrt:pow.obj
 0002:0000c530       __yexp_53                  0000000180064530     libucrt:pow.obj
 0002:0000c538       __mant_full                0000000180064538     libucrt:pow.obj
 0002:0000c540       __1_before_mant            0000000180064540     libucrt:pow.obj
 0002:0000c548       __mask_mant_all8           0000000180064548     libucrt:pow.obj
 0002:0000c550       __mask_mant9               0000000180064550     libucrt:pow.obj
 0002:0000c560       __real_fffffffff8000000    0000000180064560     libucrt:pow.obj
 0002:0000c570       __mask_8000000000000000    0000000180064570     libucrt:pow.obj
 0002:0000c580       __real_4090040000000000    0000000180064580     libucrt:pow.obj
 0002:0000c590       __real_C090C80000000000    0000000180064590     libucrt:pow.obj
 0002:0000c5a0       __real_ninf                00000001800645a0     libucrt:pow.obj
 0002:0000c5b0       __real_inf                 00000001800645b0     libucrt:pow.obj
 0002:0000c5c0       __real_nan                 00000001800645c0     libucrt:pow.obj
 0002:0000c5d0       __real_mant                00000001800645d0     libucrt:pow.obj
 0002:0000c5e0       __mask_1023                00000001800645e0     libucrt:pow.obj
 0002:0000c5f0       __mask_001                 00000001800645f0     libucrt:pow.obj
 0002:0000c600       __real_log2_lead           0000000180064600     libucrt:pow.obj
 0002:0000c610       __real_log2_tail           0000000180064610     libucrt:pow.obj
 0002:0000c620       __real_two                 0000000180064620     libucrt:pow.obj
 0002:0000c630       __real_one                 0000000180064630     libucrt:pow.obj
 0002:0000c640       __real_half                0000000180064640     libucrt:pow.obj
 0002:0000c650       __mask_100                 0000000180064650     libucrt:pow.obj
 0002:0000c660       __real_1_over_2            0000000180064660     libucrt:pow.obj
 0002:0000c670       __real_1_over_3            0000000180064670     libucrt:pow.obj
 0002:0000c680       __real_1_over_4            0000000180064680     libucrt:pow.obj
 0002:0000c690       __real_1_over_5            0000000180064690     libucrt:pow.obj
 0002:0000c6a0       __real_1_over_6            00000001800646a0     libucrt:pow.obj
 0002:0000c6b0       __real_1_over_7            00000001800646b0     libucrt:pow.obj
 0002:0000c6c0       __mask_1023_f              00000001800646c0     libucrt:pow.obj
 0002:0000c6d0       __mask_2045                00000001800646d0     libucrt:pow.obj
 0002:0000c6e0       __real_threshold           00000001800646e0     libucrt:pow.obj
 0002:0000c6f0       __real_notsign             00000001800646f0     libucrt:pow.obj
 0002:0000c700       __log_F_inv_head           0000000180064700     libucrt:pow.obj
 0002:0000cf10       __log_F_inv_tail           0000000180064f10     libucrt:pow.obj
 0002:0000d720       __denormal_threshold       0000000180065720     libucrt:pow.obj
 0002:0000d730       __enable_almost_inf        0000000180065730     libucrt:pow.obj
 0002:0000d740       __real_zero                0000000180065740     libucrt:pow.obj
 0002:0000d750       __real_smallest_denormal   0000000180065750     libucrt:pow.obj
 0002:0000d760       __denormal_tiny_threshold  0000000180065760     libucrt:pow.obj
 0002:0000d770       __real_p65536              0000000180065770     libucrt:pow.obj
 0002:0000d780       __real_m68800              0000000180065780     libucrt:pow.obj
 0002:0000d790       __real_64_by_log2          0000000180065790     libucrt:pow.obj
 0002:0000d7a0       __real_log2_by_64_head     00000001800657a0     libucrt:pow.obj
 0002:0000d7b0       __real_log2_by_64_tail     00000001800657b0     libucrt:pow.obj
 0002:0000d7c0       __real_1_by_720            00000001800657c0     libucrt:pow.obj
 0002:0000d7d0       __real_1_by_120            00000001800657d0     libucrt:pow.obj
 0002:0000d7e0       __real_1_by_24             00000001800657e0     libucrt:pow.obj
 0002:0000d7f0       __real_1_by_6              00000001800657f0     libucrt:pow.obj
 0002:0000d800       __real_1_by_2              0000000180065800     libucrt:pow.obj
 0002:0000d810       __flag_x_one_y_snan        0000000180065810     libucrt:powf.obj
 0002:0000d814       __flag_x_zero_z_inf        0000000180065814     libucrt:powf.obj
 0002:0000d818       __flag_x_nan               0000000180065818     libucrt:powf.obj
 0002:0000d81c       __flag_y_nan               000000018006581c     libucrt:powf.obj
 0002:0000d820       __flag_x_nan_y_nan         0000000180065820     libucrt:powf.obj
 0002:0000d824       __flag_x_neg_y_notint      0000000180065824     libucrt:powf.obj
 0002:0000d828       __flag_z_zero              0000000180065828     libucrt:powf.obj
 0002:0000d82c       __flag_z_denormal          000000018006582c     libucrt:powf.obj
 0002:0000d830       __flag_z_inf               0000000180065830     libucrt:powf.obj
 0002:0000d834       L__1_by_3                  0000000180065834     libucrt:powf.obj
 0002:0000d83c       L__log2                    000000018006583c     libucrt:powf.obj
 0002:0000d844       L__max_exp_arg             0000000180065844     libucrt:powf.obj
 0002:0000d84c       L__min_exp_arg             000000018006584c     libucrt:powf.obj
 0002:0000d854       L__real_log2_by_64         0000000180065854     libucrt:powf.obj
 0002:0000d85c       L__1_by_6                  000000018006585c     libucrt:powf.obj
 0002:0000d864       L__real_threshold          0000000180065864     libucrt:powf.obj
 0002:0000d86c       L__real_one                000000018006586c     libucrt:powf.obj
 0002:0000d874       L__real_two                0000000180065874     libucrt:powf.obj
 0002:0000d87c       L__neg_zero                000000018006587c     libucrt:powf.obj
 0002:0000d890       L__real_ca42               0000000180065890     libucrt:powf.obj
 0002:0000d898       L__real_ca4                0000000180065898     libucrt:powf.obj
 0002:0000d8a0       L__real_ca31               00000001800658a0     libucrt:powf.obj
 0002:0000d8a8       L__real_ca3                00000001800658a8     libucrt:powf.obj
 0002:0000d8b0       L__clear_sign              00000001800658b0     libucrt:powf.obj
 0002:0000d8c0       L__real_64_by_log2         00000001800658c0     libucrt:powf.obj
 0002:0000d8d0       L__1_by_2                  00000001800658d0     libucrt:powf.obj
 0002:0000d8e0       L__1023                    00000001800658e0     libucrt:powf.obj
 0002:0000d8f0       L__xexp_bits_xmantissa_bits 00000001800658f0     libucrt:powf.obj
 0002:0000e110       L_real_piby2_1             0000000180066110     libucrt:sin.obj
 0002:0000e120       L_real_piby2_1tail         0000000180066120     libucrt:sin.obj
 0002:0000e130       L_real_piby2_2             0000000180066130     libucrt:sin.obj
 0002:0000e140       L_real_piby2_2tail         0000000180066140     libucrt:sin.obj
 0002:0000e150       L_one                      0000000180066150     libucrt:sin.obj
 0002:0000e160       L_signbit                  0000000180066160     libucrt:sin.obj
 0002:0000e170       L_int_one                  0000000180066170     libucrt:sin.obj
 0002:0000e180       L_int_two                  0000000180066180     libucrt:sin.obj
 0002:0000e190       L_int_three                0000000180066190     libucrt:sin.obj
 0002:0000e1a0       L_2_by_pi                  00000001800661a0     libucrt:sin.obj
 0002:0000e1a8       L_one_half                 00000001800661a8     libucrt:sin.obj
 0002:0000e1b0       L_one_sixth                00000001800661b0     libucrt:sin.obj
 0002:0000e1b8       L_two_to_neg_27            00000001800661b8     libucrt:sin.obj
 0002:0000e1c0       L_two_to_neg_13            00000001800661c0     libucrt:sin.obj
 0002:0000e1c8       L_piby4                    00000001800661c8     libucrt:sin.obj
 0002:0000e1d0       L_small_arg_cw             00000001800661d0     libucrt:sin.obj
 0002:0000e1d8       L_small_arg_bdl            00000001800661d8     libucrt:sin.obj
 0002:0000e1e0       L__inf_mask_64             00000001800661e0     libucrt:sin.obj
 0002:0000e1e8       L_near_one                 00000001800661e8     libucrt:sin.obj
 0002:0000e1f0       L_signbit                  00000001800661f0     libucrt:sinf.obj
 0002:0000e200       L_sign_mask                0000000180066200     libucrt:sinf.obj
 0002:0000e210       L_one                      0000000180066210     libucrt:sinf.obj
 0002:0000e220       L_int_three                0000000180066220     libucrt:sinf.obj
 0002:0000e230       L_one_half                 0000000180066230     libucrt:sinf.obj
 0002:0000e240       L_twobypi                  0000000180066240     libucrt:sinf.obj
 0002:0000e250       L_piby2_1                  0000000180066250     libucrt:sinf.obj
 0002:0000e260       L_one_sixth                0000000180066260     libucrt:sinf.obj
 0002:0000e270       L_piby2_1tail              0000000180066270     libucrt:sinf.obj
 0002:0000e280       L_piby2_2                  0000000180066280     libucrt:sinf.obj
 0002:0000e290       L_piby2_2tail              0000000180066290     libucrt:sinf.obj
 0002:0000e2a0       L_inf_mask_32              00000001800662a0     libucrt:sinf.obj
 0002:0000e2b0       L_int_two                  00000001800662b0     libucrt:sinf.obj
 0002:0000e2c0       L_piby2_lead               00000001800662c0     libucrt:sinf.obj
 0002:0000e2d0       L_piby4                    00000001800662d0     libucrt:sinf.obj
 0002:0000e2e0       L_mask_3f2                 00000001800662e0     libucrt:sinf.obj
 0002:0000e2f0       L_mask_3f8                 00000001800662f0     libucrt:sinf.obj
 0002:0000e300       L_large_x_fma3             0000000180066300     libucrt:sinf.obj
 0002:0000e308       L_large_x_sse2             0000000180066308     libucrt:sinf.obj
 0002:0000e310       L_near_one                 0000000180066310     libucrt:sinf.obj
 0002:0000e318       L_two_to_32                0000000180066318     libucrt:sinf.obj
 0002:0000e320       L_signbit                  0000000180066320     libucrt:tan.obj
 0002:0000e330       L_sign_mask                0000000180066330     libucrt:tan.obj
 0002:0000e340       L_int_one                  0000000180066340     libucrt:tan.obj
 0002:0000e350       L_twobypi                  0000000180066350     libucrt:tan.obj
 0002:0000e360       L_point_333                0000000180066360     libucrt:tan.obj
 0002:0000e370       L_tan_p0                   0000000180066370     libucrt:tan.obj
 0002:0000e380       L_tan_p2                   0000000180066380     libucrt:tan.obj
 0002:0000e390       L_tan_p4                   0000000180066390     libucrt:tan.obj
 0002:0000e3a0       L_tan_q0                   00000001800663a0     libucrt:tan.obj
 0002:0000e3b0       L_tan_q2                   00000001800663b0     libucrt:tan.obj
 0002:0000e3c0       L_tan_q4                   00000001800663c0     libucrt:tan.obj
 0002:0000e3d0       L_tan_q6                   00000001800663d0     libucrt:tan.obj
 0002:0000e3e0       L_half_mask                00000001800663e0     libucrt:tan.obj
 0002:0000e3f0       L_piby4_lead               00000001800663f0     libucrt:tan.obj
 0002:0000e400       L_piby4_tail               0000000180066400     libucrt:tan.obj
 0002:0000e410       L_piby2_1                  0000000180066410     libucrt:tan.obj
 0002:0000e418       L_piby2_1tail              0000000180066418     libucrt:tan.obj
 0002:0000e420       L_piby2_2                  0000000180066420     libucrt:tan.obj
 0002:0000e428       L_piby2_2tail              0000000180066428     libucrt:tan.obj
 0002:0000e430       L_piby2_3                  0000000180066430     libucrt:tan.obj
 0002:0000e438       L_piby2_3tail              0000000180066438     libucrt:tan.obj
 0002:0000e440       L_two_to_neg_27            0000000180066440     libucrt:tan.obj
 0002:0000e448       L_two_to_neg_13            0000000180066448     libucrt:tan.obj
 0002:0000e450       L_inf_mask_64              0000000180066450     libucrt:tan.obj
 0002:0000e458       L_point_five               0000000180066458     libucrt:tan.obj
 0002:0000e460       L_point_68                 0000000180066460     libucrt:tan.obj
 0002:0000e468       L_n_point_68               0000000180066468     libucrt:tan.obj
 0002:0000e470       L_zero                     0000000180066470     libucrt:tan.obj
 0002:0000e478       L_one                      0000000180066478     libucrt:tan.obj
 0002:0000e480       L_n_one                    0000000180066480     libucrt:tan.obj
 0002:0000e488       L_two                      0000000180066488     libucrt:tan.obj
 0002:0000e490       L_near_one                 0000000180066490     libucrt:tan.obj
 0002:0000e498       L_moderate_arg_cw          0000000180066498     libucrt:tan.obj
 0002:0000e4a0       L_moderate_arg_bdl         00000001800664a0     libucrt:tan.obj
 0002:0000e4b0       L_sign_mask                00000001800664b0     libucrt:tanf.obj
 0002:0000e4c0       L_twobypi                  00000001800664c0     libucrt:tanf.obj
 0002:0000e4d0       L_int_three                00000001800664d0     libucrt:tanf.obj
 0002:0000e4e0       L_int_one                  00000001800664e0     libucrt:tanf.obj
 0002:0000e4f0       L_signbit                  00000001800664f0     libucrt:tanf.obj
 0002:0000e500       L_tanf                     0000000180066500     libucrt:tanf.obj
 0002:0000e528       L_large_x_sse2             0000000180066528     libucrt:tanf.obj
 0002:0000e530       L_large_x_fma3             0000000180066530     libucrt:tanf.obj
 0002:0000e538       L_point_333                0000000180066538     libucrt:tanf.obj
 0002:0000e540       L_mask_3e4                 0000000180066540     libucrt:tanf.obj
 0002:0000e548       L_mask_3f2                 0000000180066548     libucrt:tanf.obj
 0002:0000e550       L_point_five               0000000180066550     libucrt:tanf.obj
 0002:0000e558       L_piby2_1                  0000000180066558     libucrt:tanf.obj
 0002:0000e560       L_piby2_1tail              0000000180066560     libucrt:tanf.obj
 0002:0000e568       L_piby2_lead               0000000180066568     libucrt:tanf.obj
 0002:0000e570       L_n_one                    0000000180066570     libucrt:tanf.obj
 0002:0000e578       L_piby4                    0000000180066578     libucrt:tanf.obj
 0002:0000e580       L_min_norm                 0000000180066580     libucrt:tanf.obj
 0002:0000e588       L_near_one_f               0000000180066588     libucrt:tanf.obj
 0002:0000e590       L_inf_mask_32              0000000180066590     libucrt:tanf.obj
 0002:0000e598       L_two_to_32                0000000180066598     libucrt:tanf.obj
 0002:0000e660       L__piby2_part3_piby2_lead  0000000180066660     libucrt:remainder_piby2_forasm.obj
 0002:0000e670       L__piby2_part1             0000000180066670     libucrt:remainder_piby2_forasm.obj
 0002:0000e680       L__piby2_part2             0000000180066680     libucrt:remainder_piby2_forasm.obj
 0002:0000e690       L_piby2_1                  0000000180066690     libucrt:remainder_piby2_forasm.obj
 0002:0000e6a0       L_piby2_2                  00000001800666a0     libucrt:remainder_piby2_forasm.obj
 0002:0000e6b0       L_piby2_3                  00000001800666b0     libucrt:remainder_piby2_forasm.obj
 0002:0000e6c0       L_piby2_1tail              00000001800666c0     libucrt:remainder_piby2_forasm.obj
 0002:0000e6d0       L_piby2_2tail              00000001800666d0     libucrt:remainder_piby2_forasm.obj
 0002:0000e6e0       L_piby2_3tail              00000001800666e0     libucrt:remainder_piby2_forasm.obj
 0002:0000e6f0       L_twobypi                  00000001800666f0     libucrt:remainder_piby2_forasm.obj
 0002:0000e700       L_point_five               0000000180066700     libucrt:remainder_piby2_forasm.obj
 0002:0000e710       L_int_three                0000000180066710     libucrt:remainder_piby2_forasm.obj
 0002:0000e720       L_inf_mask_64              0000000180066720     libucrt:remainder_piby2_forasm.obj
 0002:0000e730       L_signbit                  0000000180066730     libucrt:remainder_piby2_forasm.obj
 0002:0000e740       L_int_1                    0000000180066740     libucrt:remainder_piby2_forasm.obj
 0002:0000e750       L_int_15                   0000000180066750     libucrt:remainder_piby2_forasm.obj
 0002:0000e758       L_int_48                   0000000180066758     libucrt:remainder_piby2_forasm.obj
 0002:0000e760       L_3pio4                    0000000180066760     libucrt:remainder_piby2_forasm.obj
 0002:0000e768       L_5pio4                    0000000180066768     libucrt:remainder_piby2_forasm.obj
 0002:0000e770       L_7pio4                    0000000180066770     libucrt:remainder_piby2_forasm.obj
 0002:0000e778       L_9pio4                    0000000180066778     libucrt:remainder_piby2_forasm.obj
 0002:0000e780       L__2_by_pi_bits            0000000180066780     libucrt:remainder_piby2_forasm.obj
 0002:0000e820       L_piby2_lead               0000000180066820     libucrt:remainder_piby2_forfma3.obj
 0002:0000e830       L_fff800                   0000000180066830     libucrt:remainder_piby2_forfma3.obj
 0002:0000e840       L_piby2_part1              0000000180066840     libucrt:remainder_piby2_forfma3.obj
 0002:0000e850       L_piby2_part2              0000000180066850     libucrt:remainder_piby2_forfma3.obj
 0002:0000e860       L_piby2_part3              0000000180066860     libucrt:remainder_piby2_forfma3.obj
 0002:0000e870       L_piby2_1                  0000000180066870     libucrt:remainder_piby2_forfma3.obj
 0002:0000e880       L_piby2_2                  0000000180066880     libucrt:remainder_piby2_forfma3.obj
 0002:0000e890       L_piby2_3                  0000000180066890     libucrt:remainder_piby2_forfma3.obj
 0002:0000e8a0       L_piby2_1tail              00000001800668a0     libucrt:remainder_piby2_forfma3.obj
 0002:0000e8b0       L_piby2_2tail              00000001800668b0     libucrt:remainder_piby2_forfma3.obj
 0002:0000e8c0       L_piby2_3tail              00000001800668c0     libucrt:remainder_piby2_forfma3.obj
 0002:0000e8d0       L_sign_mask                00000001800668d0     libucrt:remainder_piby2_forfma3.obj
 0002:0000e8e0       L_twobypi                  00000001800668e0     libucrt:remainder_piby2_forfma3.obj
 0002:0000e8f0       L_point_five               00000001800668f0     libucrt:remainder_piby2_forfma3.obj
 0002:0000e900       L_int_three                0000000180066900     libucrt:remainder_piby2_forfma3.obj
 0002:0000e910       L_inf_mask_64              0000000180066910     libucrt:remainder_piby2_forfma3.obj
 0002:0000e920       L_signbit                  0000000180066920     libucrt:remainder_piby2_forfma3.obj
 0002:0000e930       L_r                        0000000180066930     libucrt:remainder_piby2_forfma3.obj
 0002:0000e940       L_xc1                      0000000180066940     libucrt:remainder_piby2_forfma3.obj
 0002:0000e950       L_xc2                      0000000180066950     libucrt:remainder_piby2_forfma3.obj
 0002:0000e960       L_xc3                      0000000180066960     libucrt:remainder_piby2_forfma3.obj
 0002:0000e970       L_sigma                    0000000180066970     libucrt:remainder_piby2_forfma3.obj
 0002:0000e9a0       L__piby2                   00000001800669a0     libucrt:remainder_piby2f_forasm.obj
 0002:00010700       L__piby2                   0000000180068700     libucrt:remainder_piby2f_forc.obj
 0002:00010710       L__2_by_pi_bits            0000000180068710     libucrt:remainder_piby2f_forc.obj
 0002:00012428       $unwind$??1?$basic_string@_WU?$char_traits@_W@std@@V?$allocator@_W@2@@std@@QEAA@XZ 000000018006a428     api-far3.cpp.obj
 0002:00012428       $unwind$??1?$vector@UFarMenuItem@@V?$allocator@UFarMenuItem@@@std@@@std@@QEAA@XZ 000000018006a428     api-far3.cpp.obj
 0002:00012428       $unwind$?GetDlgFuncs@CalcApiFar3@@UEAAPEAVCalcDialogFuncs@@XZ 000000018006a428     api-far3.cpp.obj
 0002:00012428       $unwind$?GetMessageTable@CalcDialogFuncsFar3@@UEAAPEAP8CalcDialog@@EAA_JHPEAX@ZXZ 000000018006a428     api-far3.cpp.obj
 0002:00012428       $unwind$??0CalcDialog@@QEAA@XZ 000000018006a428     api.cpp.obj
 0002:00012428       $unwind$??0bad_alloc@std@@QEAA@AEBV01@@Z 000000018006a428     api.cpp.obj
 0002:00012428       $unwind$??0bad_array_new_length@std@@QEAA@AEBV01@@Z 000000018006a428     api.cpp.obj
 0002:00012428       $unwind$??0exception@std@@QEAA@AEBV01@@Z 000000018006a428     api.cpp.obj
 0002:00012428       $unwind$??1?$vector@PEAUListEntry@?$hash_map@PEAXPEAVCalcDialog@@UDlgHashFunc@@U?$equal_to@PEAX@std@@V?$allocator@U?$pair@PEAXPEAVCalcDialog@@@std@@@4@@ag@@V?$allocator@PEAUListEntry@?$hash_map@PEAXPEAVCalcDialog@@UDlgHashFunc@@U?$equal_to@PEAX@std@@V?$allocator@U?$pair@PEAXPEAVCalcDialog@@@std@@@4@@ag@@@std@@@std@@QEAA@XZ 000000018006a428     api.cpp.obj
 0002:00012428       $unwind$??0?$basic_string@_WU?$char_traits@_W@std@@V?$allocator@_W@2@@std@@QEAA@QEB_W@Z 000000018006a428     calc.cpp.obj
 0002:00012428       $unwind$??1?$vector@VCalcMenuItem@@V?$allocator@VCalcMenuItem@@@std@@@std@@QEAA@XZ 000000018006a428     calc.cpp.obj
 0002:00012428       $unwind$?Add@?$UInt@$0DF@@ttmath@@QEAA_KAEBV12@_K@Z 000000018006a428     calc.cpp.obj
 0002:00012428       $unwind$?AddInt@?$UInt@$0DF@@ttmath@@QEAA_K_K0@Z 000000018006a428     calc.cpp.obj
 0002:00012428       $unwind$?FromUInt@?$Big@$00$0BK@@ttmath@@QEAA_K_K@Z 000000018006a428     calc.cpp.obj
 0002:00012428       $unwind$?Rcl@?$UInt@$0BK@@ttmath@@QEAA_K_K0@Z 000000018006a428     calc.cpp.obj
 0002:00012428       $unwind$?Rcr@?$UInt@$0BK@@ttmath@@QEAA_K_K0@Z 000000018006a428     calc.cpp.obj
 0002:00012428       $unwind$?SetCalcDialogDims@@YAXPEAUCalcDialogItem@@@Z 000000018006a428     calc.cpp.obj
 0002:00012428       $unwind$?Standardizing@?$Big@$00$0BK@@ttmath@@QEAA_KXZ 000000018006a428     calc.cpp.obj
 0002:00012428       $unwind$?Sub@?$UInt@$0DF@@ttmath@@QEAA_KAEBV12@_K@Z 000000018006a428     calc.cpp.obj
 0002:00012428       $unwind$??$_Resize_reallocate@U_Value_init_tag@std@@@?$vector@PEAVPriorityLevel@BinaryOperationTable@?$MathExpressionBase@USArg@@@@V?$allocator@PEAVPriorityLevel@BinaryOperationTable@?$MathExpressionBase@USArg@@@@@std@@@std@@AEAAX_KAEBU_Value_init_tag@1@@Z 000000018006a428     newparse.cpp.obj
 0002:00012428       $unwind$??$_Resize_reallocate@U_Value_init_tag@std@@@?$vector@V?$Int@$0BI@@ttmath@@V?$allocator@V?$Int@$0BI@@ttmath@@@std@@@std@@AEAAX_KAEBU_Value_init_tag@1@@Z 000000018006a428     newparse.cpp.obj
 0002:00012428       $unwind$??$_Resize_reallocate@U_Value_init_tag@std@@@?$vector@VCalcAddon@@V?$allocator@VCalcAddon@@@std@@@std@@AEAAX_KAEBU_Value_init_tag@1@@Z 000000018006a428     newparse.cpp.obj
 0002:00012428       $unwind$??$_Uninitialized_copy@PEAUSArg@@V?$allocator@USArg@@@std@@@std@@YAPEAUSArg@@QEAU1@0PEAU1@AEAV?$allocator@USArg@@@0@@Z 000000018006a428     newparse.cpp.obj
 0002:00012428       $unwind$??$_Uninitialized_move@PEAVCalcAddon@@V?$allocator@VCalcAddon@@@std@@@std@@YAPEAVCalcAddon@@QEAV1@0PEAV1@AEAV?$allocator@VCalcAddon@@@0@@Z 000000018006a428     newparse.cpp.obj
 0002:00012428       $unwind$??$_Uninitialized_value_construct_n@V?$allocator@PEAVPriorityLevel@BinaryOperationTable@?$MathExpressionBase@USArg@@@@@std@@@std@@YAPEAPEAVPriorityLevel@BinaryOperationTable@?$MathExpressionBase@USArg@@@@PEAPEAV123@_KAEAV?$allocator@PEAVPriorityLevel@BinaryOperationTable@?$MathExpressionBase@USArg@@@@@0@@Z 000000018006a428     newparse.cpp.obj
 0002:00012428       $unwind$??$_Uninitialized_value_construct_n@V?$allocator@VCalcAddon@@@std@@@std@@YAPEAVCalcAddon@@PEAV1@_KAEAV?$allocator@VCalcAddon@@@0@@Z 000000018006a428     newparse.cpp.obj
 0002:00012428       $unwind$??$_Uninitialized_value_construct_n@V?$allocator@VCalcAddonPart@@@std@@@std@@YAPEAVCalcAddonPart@@PEAV1@_KAEAV?$allocator@VCalcAddonPart@@@0@@Z 000000018006a428     newparse.cpp.obj
 0002:00012428       $unwind$??$_Zero_range@PEAPEAVPriorityLevel@BinaryOperationTable@?$MathExpressionBase@USArg@@@@@std@@YAPEAPEAVPriorityLevel@BinaryOperationTable@?$MathExpressionBase@USArg@@@@QEAPEAV123@0@Z 000000018006a428     newparse.cpp.obj
 0002:00012428       $unwind$??1<unnamed-type-builtin_ops>@?1??AddAll@CalcParser@@SA_N_N@Z@QEAA@XZ 000000018006a428     newparse.cpp.obj
 0002:00012428       $unwind$??1?$pair@V?$basic_string@_WU?$char_traits@_W@std@@V?$allocator@_W@2@@std@@PEAVCalcParser@@@std@@QEAA@XZ 000000018006a428     newparse.cpp.obj
 0002:00012428       $unwind$??1?$vector@PEAUListEntry@?$hash_map@V?$basic_string@_WU?$char_traits@_W@std@@V?$allocator@_W@2@@std@@PEAVCalcParser@@UStrHashFunc@@U?$equal_to@V?$basic_string@_WU?$char_traits@_W@std@@V?$allocator@_W@2@@std@@@2@V?$allocator@U?$pair@V?$basic_string@_WU?$char_traits@_W@std@@V?$allocator@_W@2@@std@@PEAVCalcParser@@@std@@@2@@ag@@V?$allocator@PEAUListEntry@?$hash_map@V?$basic_string@_WU?$char_traits@_W@std@@V?$allocator@_W@2@@std@@PEAVCalcParser@@UStrHashFunc@@U?$equal_to@V?$basic_string@_WU?$char_traits@_W@std@@V?$allocator@_W@2@@std@@@2@V?$allocator@U?$pair@V?$basic_string@_WU?$char_traits@_W@std@@V?$allocator@_W@2@@std@@PEAVCalcParser@@@std@@@2@@ag@@@std@@@std@@QEAA@XZ 000000018006a428     newparse.cpp.obj
 0002:00012428       $unwind$??1?$vector@PEAVNode@?$MathExpressionBase@USArg@@@@V?$allocator@PEAVNode@?$MathExpressionBase@USArg@@@@@std@@@std@@QEAA@XZ 000000018006a428     newparse.cpp.obj
 0002:00012428       $unwind$??1?$vector@USArg@@V?$allocator@USArg@@@std@@@std@@QEAA@XZ 000000018006a428     newparse.cpp.obj
 0002:00012428       $unwind$??1?$vector@V?$Big@$00$0BK@@ttmath@@V?$allocator@V?$Big@$00$0BK@@ttmath@@@std@@@std@@QEAA@XZ 000000018006a428     newparse.cpp.obj
 0002:00012428       $unwind$??1CalcAddonPart@@QEAA@XZ 000000018006a428     newparse.cpp.obj
 0002:00012428       $unwind$??1CalcParser@@UEAA@XZ 000000018006a428     newparse.cpp.obj
 0002:00012428       $unwind$??1NodeList@?$MathExpressionBase@USArg@@@@QEAA@XZ 000000018006a428     newparse.cpp.obj
 0002:00012428       $unwind$??_GArgNode@?$MathExpressionBase@USArg@@@@UEAAPEAXI@Z 000000018006a428     newparse.cpp.obj
 0002:00012428       $unwind$??_GConstValueNode@?$MathExpressionBase@USArg@@@@UEAAPEAXI@Z 000000018006a428     newparse.cpp.obj
 0002:00012428       $unwind$??_GNode@?$MathExpressionBase@USArg@@@@UEAAPEAXI@Z 000000018006a428     newparse.cpp.obj
 0002:00012428       $unwind$??_GUserFunctionList@CalcParser@@QEAAPEAXI@Z 000000018006a428     newparse.cpp.obj
 0002:00012428       $unwind$??__F?allBinaryOpTable@CalcParser@@1VBinaryOperationTable@?$MathExpressionBase@USArg@@@@A@@YAXXZ 000000018006a428     newparse.cpp.obj
 0002:00012428       $unwind$??__F?allFunctions@CalcParser@@1VFunctionList@?$MathExpressionBase@USArg@@@@A@@YAXXZ 000000018006a428     newparse.cpp.obj
 0002:00012428       $unwind$??__F?allNamedConstants@CalcParser@@1VNamedConstantList@?$MathExpressionBase@USArg@@@@A@@YAXXZ 000000018006a428     newparse.cpp.obj
 0002:00012428       $unwind$??__F?allUnaryOpTable@CalcParser@@1VUnaryOperationTable@?$MathExpressionBase@USArg@@@@A@@YAXXZ 000000018006a428     newparse.cpp.obj
 0002:00012428       $unwind$?Add@?$UInt@$01@ttmath@@QEAA_KAEBV12@_K@Z 000000018006a428     newparse.cpp.obj
 0002:00012428       $unwind$?Add@?$UInt@$0BI@@ttmath@@QEAA_KAEBV12@_K@Z 000000018006a428     newparse.cpp.obj
 0002:00012428       $unwind$?Add@?$UInt@$0BJ@@ttmath@@QEAA_KAEBV12@_K@Z 000000018006a428     newparse.cpp.obj
 0002:00012428       $unwind$?Add@?$UInt@$0BK@@ttmath@@QEAA_KAEBV12@_K@Z 000000018006a428     newparse.cpp.obj
 0002:00012428       $unwind$?AddInt@?$UInt@$0BJ@@ttmath@@QEAA_K_K0@Z 000000018006a428     newparse.cpp.obj
 0002:00012428       $unwind$?Rcl@?$UInt@$01@ttmath@@QEAA_K_K0@Z 000000018006a428     newparse.cpp.obj
 0002:00012428       $unwind$?Sub@?$UInt@$01@ttmath@@QEAA_KAEBV12@_K@Z 000000018006a428     newparse.cpp.obj
 0002:00012428       $unwind$?Sub@?$UInt@$0BI@@ttmath@@QEAA_KAEBV12@_K@Z 000000018006a428     newparse.cpp.obj
 0002:00012428       $unwind$?Sub@?$UInt@$0BJ@@ttmath@@QEAA_KAEBV12@_K@Z 000000018006a428     newparse.cpp.obj
 0002:00012428       $unwind$?Sub@?$UInt@$0BK@@ttmath@@QEAA_KAEBV12@_K@Z 000000018006a428     newparse.cpp.obj
 0002:00012428       $unwind$?builtin_unary_not@CalcParser@@KA?AUSArg@@AEBU2@@Z 000000018006a428     newparse.cpp.obj
 0002:00012428       $unwind$?can_be_part_of_identifier@?$MathExpressionBase@USArg@@@@MEAA_N_W@Z 000000018006a428     newparse.cpp.obj
 0002:00012428       $unwind$?create_node@ArgNodeFactoryImpl@ArgList@?$MathExpressionBase@USArg@@@@UEBAPEAVNode@3@XZ 000000018006a428     newparse.cpp.obj
 0002:00012428       $unwind$?create_node@ConstValueNodeFactoryImpl@NamedConstantList@?$MathExpressionBase@USArg@@@@UEBAPEAVNode@3@XZ 000000018006a428     newparse.cpp.obj
 0002:00012428       $unwind$?destroy_tree@?$MathExpressionBase@USArg@@@@UEAAXXZ 000000018006a428     newparse.cpp.obj
 0002:00012428       $unwind$?erase@?$basic_string@_WU?$char_traits@_W@std@@V?$allocator@_W@2@@std@@QEAAAEAV12@_K0@Z 000000018006a428     newparse.cpp.obj
 0002:00012428       $unwind$?eval@?$MathExpressionBase@USArg@@@@UEBA?AUSArg@@QEBU2@@Z 000000018006a428     newparse.cpp.obj
 0002:00012428       $unwind$?operator_logical_not@?$MathExpressionBase@USArg@@@@SA?AUSArg@@U2@@Z 000000018006a428     newparse.cpp.obj
 0002:00012428       $unwind$?operator_unary_minus@?$MathExpressionBase@USArg@@@@SA?AUSArg@@U2@@Z 000000018006a428     newparse.cpp.obj
 0002:00012428       $unwind$?skip_white_spaces@?$MathExpressionBase@USArg@@@@MEAAPEB_WAEAPEB_W@Z 000000018006a428     newparse.cpp.obj
 0002:00012428       $unwind$??$GammaPlusLowInteger@V?$Big@$00$0BK@@ttmath@@@auxiliaryfunctions@ttmath@@YA?AV?$Big@$00$0BK@@1@AEBV21@AEAU?$CGamma@V?$Big@$00$0BK@@ttmath@@@1@@Z 000000018006a428     sarg.cpp.obj
 0002:00012428       $unwind$??$SkipFraction@V?$Big@$00$0BK@@ttmath@@@ttmath@@YA?AV?$Big@$00$0BK@@0@AEBV10@@Z 000000018006a428     sarg.cpp.obj
 0002:00012428       $unwind$??0SArg@@QEAA@XZ   000000018006a428     sarg.cpp.obj
 0002:00012428       $unwind$?_b2d@SArg@@SA?AU1@AEBU1@@Z 000000018006a428     sarg.cpp.obj
 0002:00012428       $unwind$?_b2f@SArg@@SA?AU1@AEBU1@@Z 000000018006a428     sarg.cpp.obj
 0002:00012428       $unwind$?_d2b@SArg@@SA?AU1@AEBU1@@Z 000000018006a428     sarg.cpp.obj
 0002:00012428       $unwind$?_f2b@SArg@@SA?AU1@AEBU1@@Z 000000018006a428     sarg.cpp.obj
 0002:00012428       $unwind$?to_byte@SArg@@SA?AU1@AEBU1@@Z 000000018006a428     sarg.cpp.obj
 0002:00012428       $unwind$?to_char@SArg@@SA?AU1@AEBU1@@Z 000000018006a428     sarg.cpp.obj
 0002:00012428       $unwind$?to_double@SArg@@SA?AU1@AEBU1@@Z 000000018006a428     sarg.cpp.obj
 0002:00012428       $unwind$?to_float@SArg@@SA?AU1@AEBU1@@Z 000000018006a428     sarg.cpp.obj
 0002:00012428       $unwind$?to_int64@SArg@@SA?AU1@AEBU1@@Z 000000018006a428     sarg.cpp.obj
 0002:00012428       $unwind$?to_int@SArg@@SA?AU1@AEBU1@@Z 000000018006a428     sarg.cpp.obj
 0002:00012428       $unwind$?to_short@SArg@@SA?AU1@AEBU1@@Z 000000018006a428     sarg.cpp.obj
 0002:00012428       $unwind$?to_uint64@SArg@@SA?AU1@AEBU1@@Z 000000018006a428     sarg.cpp.obj
 0002:00012428       $unwind$?to_uint@SArg@@SA?AU1@AEBU1@@Z 000000018006a428     sarg.cpp.obj
 0002:00012428       $unwind$?to_ushort@SArg@@SA?AU1@AEBU1@@Z 000000018006a428     sarg.cpp.obj
 0002:00012428       $unwind$?destroylevel@CSgmlEl@@AEAAXXZ 000000018006a428     sgml.cpp.obj
 0002:00012428       $unwind$trex_matchcclass   000000018006a428     trex.c.obj
 0002:00012428       $unwind$__raise_securityfailure 000000018006a428     LIBCMT:gs_report.obj
 0002:00012428       $unwind$??2@YAPEAX_K@Z     000000018006a428     LIBCMT:new_scalar.obj
 0002:00012428       $unwind$??_Gtype_info@@UEAAPEAXI@Z 000000018006a428     LIBCMT:std_type_info_static.obj
 0002:00012428       $unwind$__scrt_initialize_crt 000000018006a428     LIBCMT:utility.obj
 0002:00012428       $unwind$__scrt_initialize_onexit_tables 000000018006a428     LIBCMT:utility.obj
 0002:00012428       $unwind$__scrt_release_startup_lock 000000018006a428     LIBCMT:utility.obj
 0002:00012428       $unwind$__scrt_uninitialize_crt 000000018006a428     LIBCMT:utility.obj
 0002:00012428       $unwind$_onexit            000000018006a428     LIBCMT:utility.obj
 0002:00012428       $unwind$??0length_error@std@@QEAA@AEBV01@@Z 000000018006a428     libcpmt:xthrow.obj
 0002:00012428       $unwind$??0logic_error@std@@QEAA@AEBV01@@Z 000000018006a428     libcpmt:xthrow.obj
 0002:00012428       $unwind$??0out_of_range@std@@QEAA@AEBV01@@Z 000000018006a428     libcpmt:xthrow.obj
 0002:00012428       $unwind$_IsExceptionObjectToBeDestroyed 000000018006a428     libvcruntime:ehhelpers.obj
 0002:00012428       $unwind$??0HandlerMap4@FH4@@QEAA@PEBUTryBlockMapEntry4@1@_KH@Z 000000018006a428     libvcruntime:frame.obj
 0002:00012428       $unwind$??0bad_exception@std@@QEAA@AEBV01@@Z 000000018006a428     libvcruntime:frame.obj
 0002:00012428       $unwind$?ExFilterRethrow@@YAHPEAU_EXCEPTION_POINTERS@@PEAUEHExceptionRecord@@PEAH@Z 000000018006a428     libvcruntime:frame.obj
 0002:00012428       $unwind$__vcrt_uninitialize_locks 000000018006a428     libvcruntime:locks.obj
 0002:00012428       $unwind$__vcrt_freeptd     000000018006a428     libvcruntime:per_thread_data.obj
 0002:00012428       $unwind$_CreateFrameInfo   000000018006a428     libvcruntime:risctrnsctrl.obj
 0002:00012428       $unwind$_SetImageBase      000000018006a428     libvcruntime:risctrnsctrl.obj
 0002:00012428       $unwind$_SetThrowImageBase 000000018006a428     libvcruntime:risctrnsctrl.obj
 0002:00012428       $unwind$??0__non_rtti_object@std@@QEAA@AEBV01@@Z 000000018006a428     libvcruntime:rtti.obj
 0002:00012428       $unwind$??0bad_cast@std@@QEAA@AEBV01@@Z 000000018006a428     libvcruntime:rtti.obj
 0002:00012428       $unwind$??0bad_typeid@std@@QEAA@AEBV01@@Z 000000018006a428     libvcruntime:rtti.obj
 0002:00012428       $unwind$__std_exception_destroy 000000018006a428     libvcruntime:std_exception.obj
 0002:00012428       $unwind$__std_type_info_destroy_list 000000018006a428     libvcruntime:std_type_info.obj
 0002:00012428       $unwind$__vcrt_FlsAlloc    000000018006a428     libvcruntime:winapi_downlevel.obj
 0002:00012428       $unwind$__vcrt_FlsFree     000000018006a428     libvcruntime:winapi_downlevel.obj
 0002:00012428       $unwind$__vcrt_FlsGetValue 000000018006a428     libvcruntime:winapi_downlevel.obj
 0002:00012428       $unwind$_calloc_base       000000018006a428     libucrt:calloc_base.obj
 0002:00012428       $unwind$_malloc_base       000000018006a428     libucrt:malloc_base.obj
 0002:00012428       $unwind$_callnewh          000000018006a428     libucrt:new_handler.obj
 0002:00012428       $unwind$initialize_pointers 000000018006a428     libucrt:initialization.obj
 0002:00012428       $unwind$uninitialize_allocated_memory 000000018006a428     libucrt:initialization.obj
 0002:00012428       $unwind$__acrt_initialize_locks 000000018006a428     libucrt:locks.obj
 0002:00012428       $unwind$__acrt_uninitialize_locks 000000018006a428     libucrt:locks.obj
 0002:00012428       $unwind$__acrt_freeptd     000000018006a428     libucrt:per_thread_data.obj
 0002:00012428       $unwind$__acrt_getptd_head 000000018006a428     libucrt:per_thread_data.obj
 0002:00012428       $unwind$__acrt_get_process_end_policy 000000018006a428     libucrt:win_policies.obj
 0002:00012428       $unwind$__acrt_AppPolicyGetProcessTerminationMethodInternal 000000018006a428     libucrt:winapi_thunks.obj
 0002:00012428       $unwind$__acrt_FlsAlloc    000000018006a428     libucrt:winapi_thunks.obj
 0002:00012428       $unwind$__acrt_FlsFree     000000018006a428     libucrt:winapi_thunks.obj
 0002:00012428       $unwind$__acrt_FlsGetValue 000000018006a428     libucrt:winapi_thunks.obj
 0002:00012428       $unwind$__acrt_uninitialize_winapi_thunks 000000018006a428     libucrt:winapi_thunks.obj
 0002:00012428       $unwind$__acrt_update_locale_info 000000018006a428     libucrt:locale_update.obj
 0002:00012428       $unwind$__acrt_update_multibyte_info 000000018006a428     libucrt:locale_update.obj
 0002:00012428       $unwind$__acrt_allocate_buffer_for_argv 000000018006a428     libucrt:argv_parsing.obj
 0002:00012428       $unwind$?exit_or_terminate_process@@YAXI@Z 000000018006a428     libucrt:exit.obj
 0002:00012428       $unwind$?try_cor_exit_process@@YAXI@Z 000000018006a428     libucrt:exit.obj
 0002:00012428       $unwind$__acrt_uninitialize_stdio 000000018006a428     libucrt:_file.obj
 0002:00012428       $unwind$__acrt_stdio_free_buffer_nolock 000000018006a428     libucrt:_freebuf.obj
 0002:00012428       $unwind$_fflush_nolock     000000018006a428     libucrt:fflush.obj
 0002:00012428       $unwind$srand              000000018006a428     libucrt:rand.obj
 0002:00012428       $unwind$strcpy_s           000000018006a428     libucrt:strcpy_s.obj
 0002:00012428       $unwind$wcscpy_s           000000018006a428     libucrt:wcscpy_s.obj
 0002:00012428       $unwind$_wcslwr            000000018006a428     libucrt:wcslwr.obj
 0002:00012428       $unwind$_time64            000000018006a428     libucrt:time.obj
 0002:00012428       $unwind$_clrfp             000000018006a428     libucrt:fpctrl.obj
 0002:00012428       $unwind$_set_statfp        000000018006a428     libucrt:fpctrl.obj
 0002:00012428       $unwind$_clearfp           000000018006a428     libucrt:ieee.obj
 0002:00012428       $unwind$_controlfp_s       000000018006a428     libucrt:contrlfp.obj
 0002:00012428       $unwind$fegetenv           000000018006a428     libucrt:fegetenv.obj
 0002:00012428       $unwind$feholdexcept       000000018006a428     libucrt:feholdexcept.obj
 0002:00012428       $unwind$fesetenv           000000018006a428     libucrt:fesetenv.obj
 0002:00012430       $unwind$?EditorGet@CalcApiFar3@@UEAAXPEAUCalcEditorGetString@@PEAUCalcEditorInfo@@@Z 000000018006a430     api-far3.cpp.obj
 0002:00012430       $unwind$??$_Copy_memmove@PEAPEAUListEntry@?$hash_map@PEAXPEAVCalcDialog@@UDlgHashFunc@@U?$equal_to@PEAX@std@@V?$allocator@U?$pair@PEAXPEAVCalcDialog@@@std@@@4@@ag@@PEAPEAU123@@std@@YAPEAPEAUListEntry@?$hash_map@PEAXPEAVCalcDialog@@UDlgHashFunc@@U?$equal_to@PEAX@std@@V?$allocator@U?$pair@PEAXPEAVCalcDialog@@@std@@@4@@ag@@PEAPEAU123@00@Z 000000018006a430     api.cpp.obj
 0002:00012430       $unwind$??$_Uninitialized_fill_n@V?$allocator@PEAUListEntry@?$hash_map@PEAXPEAVCalcDialog@@UDlgHashFunc@@U?$equal_to@PEAX@std@@V?$allocator@U?$pair@PEAXPEAVCalcDialog@@@std@@@4@@ag@@@std@@@std@@YAPEAPEAUListEntry@?$hash_map@PEAXPEAVCalcDialog@@UDlgHashFunc@@U?$equal_to@PEAX@std@@V?$allocator@U?$pair@PEAXPEAVCalcDialog@@@std@@@4@@ag@@PEAPEAU123@_KAEBQEAU123@AEAV?$allocator@PEAUListEntry@?$hash_map@PEAXPEAVCalcDialog@@UDlgHashFunc@@U?$equal_to@PEAX@std@@V?$allocator@U?$pair@PEAXPEAVCalcDialog@@@std@@@4@@ag@@@0@@Z 000000018006a430     api.cpp.obj
 0002:00012430       $unwind$??_GCalcDialog@@UEAAPEAXI@Z 000000018006a430     api.cpp.obj
 0002:00012430       $unwind$??_Gbad_alloc@std@@UEAAPEAXI@Z 000000018006a430     api.cpp.obj
 0002:00012430       $unwind$??_Gbad_array_new_length@std@@UEAAPEAXI@Z 000000018006a430     api.cpp.obj
 0002:00012430       $unwind$??_Gexception@std@@UEAAPEAXI@Z 000000018006a430     api.cpp.obj
 0002:00012430       $unwind$GetPluginInfoW     000000018006a430     api.cpp.obj
 0002:00012430       $unwind$??1SDialogData@@QEAA@XZ 000000018006a430     calc.cpp.obj
 0002:00012430       $unwind$??1SDialogElem@@QEAA@XZ 000000018006a430     calc.cpp.obj
 0002:00012430       $unwind$??_GDlgCalc@@UEAAPEAXI@Z 000000018006a430     calc.cpp.obj
 0002:00012430       $unwind$??_GDlgUnits@@UEAAPEAXI@Z 000000018006a430     calc.cpp.obj
 0002:00012430       $unwind$?AddTwoInts@?$UInt@$05@ttmath@@QEAA_K_K00@Z 000000018006a430     calc.cpp.obj
 0002:00012430       $unwind$?AddTwoInts@?$UInt@$07@ttmath@@QEAA_K_K00@Z 000000018006a430     calc.cpp.obj
 0002:00012430       $unwind$?AddTwoInts@?$UInt@$0DE@@ttmath@@QEAA_K_K00@Z 000000018006a430     calc.cpp.obj
 0002:00012430       $unwind$?AddTwoInts@?$UInt@$0DF@@ttmath@@QEAA_K_K00@Z 000000018006a430     calc.cpp.obj
 0002:00012430       $unwind$?Rcl@?$UInt@$0DE@@ttmath@@QEAA_K_K0@Z 000000018006a430     calc.cpp.obj
 0002:00012430       $unwind$??_GDlgConfig@@UEAAPEAXI@Z 000000018006a430     config.cpp.obj
 0002:00012430       $unwind$??$?0PEA_WPEAVCalcParser@@$0A@@?$pair@V?$basic_string@_WU?$char_traits@_W@std@@V?$allocator@_W@2@@std@@PEAVCalcParser@@@std@@QEAA@$$QEAU?$pair@PEA_WPEAVCalcParser@@@1@@Z 000000018006a430     newparse.cpp.obj
 0002:00012430       $unwind$??$FromInt@$0BI@@?$Big@$00$0BK@@ttmath@@QEAA_KV?$Int@$0BI@@1@@Z 000000018006a430     newparse.cpp.obj
 0002:00012430       $unwind$??$_Copy_memmove@PEAPEAUListEntry@?$hash_map@V?$basic_string@_WU?$char_traits@_W@std@@V?$allocator@_W@2@@std@@PEAVCalcParser@@UStrHashFunc@@U?$equal_to@V?$basic_string@_WU?$char_traits@_W@std@@V?$allocator@_W@2@@std@@@2@V?$allocator@U?$pair@V?$basic_string@_WU?$char_traits@_W@std@@V?$allocator@_W@2@@std@@PEAVCalcParser@@@std@@@2@@ag@@PEAPEAU123@@std@@YAPEAPEAUListEntry@?$hash_map@V?$basic_string@_WU?$char_traits@_W@std@@V?$allocator@_W@2@@std@@PEAVCalcParser@@UStrHashFunc@@U?$equal_to@V?$basic_string@_WU?$char_traits@_W@std@@V?$allocator@_W@2@@std@@@2@V?$allocator@U?$pair@V?$basic_string@_WU?$char_traits@_W@std@@V?$allocator@_W@2@@std@@PEAVCalcParser@@@std@@@2@@ag@@PEAPEAU123@00@Z 000000018006a430     newparse.cpp.obj
 0002:00012430       $unwind$??$_Copy_memmove@PEAPEAVArgNodeFactory@?$MathExpressionBase@USArg@@@@PEAPEAV12@@std@@YAPEAPEAVArgNodeFactory@?$MathExpressionBase@USArg@@@@PEAPEAV12@00@Z 000000018006a430     newparse.cpp.obj
 0002:00012430       $unwind$??$_Copy_memmove@PEAPEAVBinaryOperationNodeFactory@?$MathExpressionBase@USArg@@@@PEAPEAV12@@std@@YAPEAPEAVBinaryOperationNodeFactory@?$MathExpressionBase@USArg@@@@PEAPEAV12@00@Z 000000018006a430     newparse.cpp.obj
 0002:00012430       $unwind$??$_Copy_memmove@PEAPEAVCalcParser@@PEAPEAV1@@std@@YAPEAPEAVCalcParser@@PEAPEAV1@00@Z 000000018006a430     newparse.cpp.obj
 0002:00012430       $unwind$??$_Copy_memmove@PEAPEAVConstValueNodeFactory@?$MathExpressionBase@USArg@@@@PEAPEAV12@@std@@YAPEAPEAVConstValueNodeFactory@?$MathExpressionBase@USArg@@@@PEAPEAV12@00@Z 000000018006a430     newparse.cpp.obj
 0002:00012430       $unwind$??$_Copy_memmove@PEAPEAVFunctionalNodeFactory@?$MathExpressionBase@USArg@@@@PEAPEAV12@@std@@YAPEAPEAVFunctionalNodeFactory@?$MathExpressionBase@USArg@@@@PEAPEAV12@00@Z 000000018006a430     newparse.cpp.obj
 0002:00012430       $unwind$??$_Copy_memmove@PEAPEAVNode@?$MathExpressionBase@USArg@@@@PEAPEAV12@@std@@YAPEAPEAVNode@?$MathExpressionBase@USArg@@@@PEAPEAV12@00@Z 000000018006a430     newparse.cpp.obj
 0002:00012430       $unwind$??$_Copy_memmove@PEAPEAVPriorityLevel@BinaryOperationTable@?$MathExpressionBase@USArg@@@@PEAPEAV123@@std@@YAPEAPEAVPriorityLevel@BinaryOperationTable@?$MathExpressionBase@USArg@@@@PEAPEAV123@00@Z 000000018006a430     newparse.cpp.obj
 0002:00012430       $unwind$??$_Copy_memmove@PEAPEAVUnaryOperationNodeFactory@?$MathExpressionBase@USArg@@@@PEAPEAV12@@std@@YAPEAPEAVUnaryOperationNodeFactory@?$MathExpressionBase@USArg@@@@PEAPEAV12@00@Z 000000018006a430     newparse.cpp.obj
 0002:00012430       $unwind$??$_Uninitialized_fill_n@V?$allocator@PEAUListEntry@?$hash_map@V?$basic_string@_WU?$char_traits@_W@std@@V?$allocator@_W@2@@std@@PEAVCalcParser@@UStrHashFunc@@U?$equal_to@V?$basic_string@_WU?$char_traits@_W@std@@V?$allocator@_W@2@@std@@@2@V?$allocator@U?$pair@V?$basic_string@_WU?$char_traits@_W@std@@V?$allocator@_W@2@@std@@PEAVCalcParser@@@std@@@2@@ag@@@std@@@std@@YAPEAPEAUListEntry@?$hash_map@V?$basic_string@_WU?$char_traits@_W@std@@V?$allocator@_W@2@@std@@PEAVCalcParser@@UStrHashFunc@@U?$equal_to@V?$basic_string@_WU?$char_traits@_W@std@@V?$allocator@_W@2@@std@@@2@V?$allocator@U?$pair@V?$basic_string@_WU?$char_traits@_W@std@@V?$allocator@_W@2@@std@@PEAVCalcParser@@@std@@@2@@ag@@PEAPEAU123@_KAEBQEAU123@AEAV?$allocator@PEAUListEntry@?$hash_map@V?$basic_string@_WU?$char_traits@_W@std@@V?$allocator@_W@2@@std@@PEAVCalcParser@@UStrHashFunc@@U?$equal_to@V?$basic_string@_WU?$char_traits@_W@std@@V?$allocator@_W@2@@std@@@2@V?$allocator@U?$pair@V?$basic_string@_WU?$char_traits@_W@std@@V?$allocator@_W@2@@std@@PEAVCalcParser@@@std@@@2@@ag@@@0@@Z 000000018006a430     newparse.cpp.obj
 0002:00012430       $unwind$??$_Uninitialized_fill_n@V?$allocator@PEAVPriorityLevel@BinaryOperationTable@?$MathExpressionBase@USArg@@@@@std@@@std@@YAPEAPEAVPriorityLevel@BinaryOperationTable@?$MathExpressionBase@USArg@@@@PEAPEAV123@_KAEBQEAV123@AEAV?$allocator@PEAVPriorityLevel@BinaryOperationTable@?$MathExpressionBase@USArg@@@@@0@@Z 000000018006a430     newparse.cpp.obj
 0002:00012430       $unwind$??$_Uninitialized_value_construct_n@V?$allocator@USArg@@@std@@@std@@YAPEAUSArg@@PEAU1@_KAEAV?$allocator@USArg@@@0@@Z 000000018006a430     newparse.cpp.obj
 0002:00012430       $unwind$??1ArgNodeFactory@?$MathExpressionBase@USArg@@@@QEAA@XZ 000000018006a430     newparse.cpp.obj
 0002:00012430       $unwind$??1BinaryOperationNodeFactory@?$MathExpressionBase@USArg@@@@QEAA@XZ 000000018006a430     newparse.cpp.obj
 0002:00012430       $unwind$??1ConstValueNodeFactory@?$MathExpressionBase@USArg@@@@QEAA@XZ 000000018006a430     newparse.cpp.obj
 0002:00012430       $unwind$??1FunctionalNode@?$MathExpressionBase@USArg@@@@MEAA@XZ 000000018006a430     newparse.cpp.obj
 0002:00012430       $unwind$??1FunctionalNodeFactory@?$MathExpressionBase@USArg@@@@QEAA@XZ 000000018006a430     newparse.cpp.obj
 0002:00012430       $unwind$??1UnaryOperationNodeFactory@?$MathExpressionBase@USArg@@@@QEAA@XZ 000000018006a430     newparse.cpp.obj
 0002:00012430       $unwind$??1UserFunctionList@CalcParser@@QEAA@XZ 000000018006a430     newparse.cpp.obj
 0002:00012430       $unwind$??_G?$FunctionPointerNode@P6A?AUSArg@@AEBU1@00@Z@?$MathExpressionBase@USArg@@@@UEAAPEAXI@Z 000000018006a430     newparse.cpp.obj
 0002:00012430       $unwind$??_G?$FunctionPointerNode@P6A?AUSArg@@AEBU1@0@Z@?$MathExpressionBase@USArg@@@@UEAAPEAXI@Z 000000018006a430     newparse.cpp.obj
 0002:00012430       $unwind$??_G?$FunctionPointerNode@P6A?AUSArg@@AEBU1@@Z@?$MathExpressionBase@USArg@@@@UEAAPEAXI@Z 000000018006a430     newparse.cpp.obj
 0002:00012430       $unwind$??_G?$FunctionPointerNode@P6A?AUSArg@@U1@@Z@?$MathExpressionBase@USArg@@@@UEAAPEAXI@Z 000000018006a430     newparse.cpp.obj
 0002:00012430       $unwind$??_G?$FunctionPointerNode@P6A?AUSArg@@XZ@?$MathExpressionBase@USArg@@@@UEAAPEAXI@Z 000000018006a430     newparse.cpp.obj
 0002:00012430       $unwind$??_G?$MathExpressionBase@USArg@@@@UEAAPEAXI@Z 000000018006a430     newparse.cpp.obj
 0002:00012430       $unwind$??_G?$MathExpressionNode@USArg@@@?$MathExpressionBase@USArg@@@@UEAAPEAXI@Z 000000018006a430     newparse.cpp.obj
 0002:00012430       $unwind$??_GCalcParser@@UEAAPEAXI@Z 000000018006a430     newparse.cpp.obj
 0002:00012430       $unwind$??_GFunctionalNode@?$MathExpressionBase@USArg@@@@MEAAPEAXI@Z 000000018006a430     newparse.cpp.obj
 0002:00012430       $unwind$?AddTwoInts@?$UInt@$0BJ@@ttmath@@QEAA_K_K00@Z 000000018006a430     newparse.cpp.obj
 0002:00012430       $unwind$?AddTwoInts@?$UInt@$0DA@@ttmath@@QEAA_K_K00@Z 000000018006a430     newparse.cpp.obj
 0002:00012430       $unwind$?Rcl@?$UInt@$0BI@@ttmath@@QEAA_K_K0@Z 000000018006a430     newparse.cpp.obj
 0002:00012430       $unwind$??$Sqrt@V?$Big@$00$0BK@@ttmath@@@ttmath@@YA?AV?$Big@$00$0BK@@0@V10@PEAW4ErrorCode@0@@Z 000000018006a430     sarg.cpp.obj
 0002:00012430       $unwind$??__Fcgamma@?1???$Gamma@V?$Big@$00$0BK@@ttmath@@@ttmath@@YA?AV?$Big@$00$0BK@@0@AEBV10@PEAW4ErrorCode@0@@Z@YAXXZ 000000018006a430     sarg.cpp.obj
 0002:00012430       $unwind$?AddTwoInts@?$UInt@$0BL@@ttmath@@QEAA_K_K00@Z 000000018006a430     sarg.cpp.obj
 0002:00012430       $unwind$??1SSyntax@@QEAA@XZ 000000018006a430     syntax.cpp.obj
 0002:00012430       $unwind$_RTC_Initialize    000000018006a430     LIBCMT:initsect.obj
 0002:00012430       $unwind$_RTC_Terminate     000000018006a430     LIBCMT:initsect.obj
 0002:00012430       $unwind$??_Glength_error@std@@UEAAPEAXI@Z 000000018006a430     libcpmt:xthrow.obj
 0002:00012430       $unwind$??_Glogic_error@std@@UEAAPEAXI@Z 000000018006a430     libcpmt:xthrow.obj
 0002:00012430       $unwind$??_Gout_of_range@std@@UEAAPEAXI@Z 000000018006a430     libcpmt:xthrow.obj
 0002:00012430       $unwind$__FrameUnwindFilter 000000018006a430     libvcruntime:ehhelpers.obj
 0002:00012430       $unwind$??_Gbad_exception@std@@UEAAPEAXI@Z 000000018006a430     libvcruntime:frame.obj
 0002:00012430       $unwind$?ExFilterRethrowFH4@@YAHPEAU_EXCEPTION_POINTERS@@PEAUEHExceptionRecord@@HPEAH@Z 000000018006a430     libvcruntime:frame.obj
 0002:00012430       $unwind$longjmp            000000018006a430     libvcruntime:longjmpc.obj
 0002:00012430       $unwind$_FindAndUnlinkFrame 000000018006a430     libvcruntime:risctrnsctrl.obj
 0002:00012430       $unwind$??_G__non_rtti_object@std@@UEAAPEAXI@Z 000000018006a430     libvcruntime:rtti.obj
