 ProcList

 Timestamp is 61aaeb86 (Sat Dec  4 04:16:06 2021)

 Preferred load address is 0000000180000000

 Start         Length     Name                   Class
 0001:00000000 00000090H .text$di                CODE
 0001:00000090 00049f70H .text$mn                CODE
 0001:0004a000 00000020H .text$mn$00             CODE
 0001:0004a020 00001570H .text$x                 CODE
 0001:0004b590 00000210H .text$yd                CODE
 0002:00000000 000004a0H .idata$5                DATA
 0002:000004a0 00000010H .00cfg                  DATA
 0002:000004b0 00000008H .CRT$XCA                DATA
 0002:000004b8 00000018H .CRT$XCC                DATA
 0002:000004d0 00000010H .CRT$XCL                DATA
 0002:000004e0 00000018H .CRT$XCU                DATA
 0002:000004f8 00000008H .CRT$XCZ                DATA
 0002:00000500 00000008H .CRT$XIA                DATA
 0002:00000508 00000030H .CRT$XIC                DATA
 0002:00000538 00000008H .CRT$XIZ                DATA
 0002:00000540 00000008H .CRT$XPA                DATA
 0002:00000548 00000010H .CRT$XPX                DATA
 0002:00000558 00000008H .CRT$XPXA               DATA
 0002:00000560 00000008H .CRT$XPZ                DATA
 0002:00000568 00000008H .CRT$XTA                DATA
 0002:00000570 00000010H .CRT$XTZ                DATA
 0002:00000578 00000000H .gfids$y                DATA
 0002:00000580 00012c58H .rdata                  DATA
 0002:000131d8 00000facH .rdata$r                DATA
 0002:00014184 0000038cH .rdata$zzzdbg           DATA
 0002:00014510 00000008H .rtc$IAA                DATA
 0002:00014518 00000008H .rtc$IZZ                DATA
 0002:00014520 00000008H .rtc$TAA                DATA
 0002:00014528 00000008H .rtc$TZZ                DATA
 0002:00014530 000050d0H .xdata                  DATA
 0002:00019600 000003d0H .xdata$x                DATA
 0002:000199d0 000001a0H .edata                  DATA
 0002:00019b70 000000a0H .idata$2                DATA
 0002:00019c10 00000018H .idata$3                DATA
 0002:00019c28 000004a0H .idata$4                DATA
 0002:0001a0c8 00000a6eH .idata$6                DATA
 0003:00000000 00000b70H .data                   DATA
 0003:00000b70 000009e0H .data$r                 DATA
 0003:00001550 00003124H .bss                    DATA
 0004:00000000 000037ecH .pdata                  DATA
 0005:00000000 00000094H _RDATA                  DATA
 0006:00000000 00000060H .rsrc$01                DATA
 0006:00000060 00000340H .rsrc$02                DATA

  Address         Publics by Value              Rva+Base               Lib:Object

 0000:00000000       __hybrid_code_map          0000000000000000     <absolute>
 0000:00000000       __hybrid_code_map_count    0000000000000000     <absolute>
 0000:00000000       __guard_fids_count         0000000000000000     <absolute>
 0000:00000000       __volatile_metadata        0000000000000000     <absolute>
 0000:00000000       __guard_longjmp_count      0000000000000000     <absolute>
 0000:00000000       __guard_longjmp_table      0000000000000000     <absolute>
 0000:00000000       __guard_iat_table          0000000000000000     <absolute>
 0000:00000000       __guard_iat_count          0000000000000000     <absolute>
 0000:00000000       ___safe_se_handler_count   0000000000000000     <absolute>
 0000:00000000       __enclave_config           0000000000000000     <absolute>
 0000:00000000       __AbsoluteZero             0000000000000000     <absolute>
 0000:00000000       ___safe_se_handler_table   0000000000000000     <absolute>
 0000:00000000       __guard_fids_table         0000000000000000     <absolute>
 0000:00000000       __hybrid_auxiliary_iat     0000000000000000     <absolute>
 0000:00000000       __dynamic_value_reloc_table 0000000000000000     <absolute>
 0000:00000100       __guard_flags              0000000000000100     <absolute>
 0000:00000000       __ImageBase                0000000180000000     <linker-defined>
 0001:00000090       ?WriteToFile@@YA_KPEAX_W@Z 0000000180001090 f   fileio.obj
 0001:000000d0       ??1?$vector@Umode@@V?$allocator@Umode@@@std@@@std@@QEAA@XZ 00000001800010d0 f i fileio.obj
 0001:00000190       ??1PerfLib@@QEAA@XZ        0000000180001190 f i perfthread.obj
 0001:00000190       ??1?$basic_string@_WU?$char_traits@_W@std@@V?$allocator@_W@2@@std@@QEAA@XZ 0000000180001190 f i fileio.obj
 0001:00000190       ?_Tidy_deallocate@?$basic_string@_WU?$char_traits@_W@std@@V?$allocator@_W@2@@std@@AEAAXXZ 0000000180001190 f i fileio.obj
 0001:00000200       ?deallocate@?$allocator@_W@std@@QEAAXQEA_W_K@Z 0000000180001200 f i fileio.obj
 0001:00000240       ??1mode@@QEAA@XZ           0000000180001240 f i fileio.obj
 0001:00000260       ??1columns@@QEAA@XZ        0000000180001260 f i fileio.obj
 0001:00000370       __local_stdio_printf_options 0000000180001370 f i format.obj
 0001:00000380       ??0exception@std@@QEAA@AEBV01@@Z 0000000180001380 f i format.obj
 0001:000003c0       ?what@exception@std@@UEBAPEBDXZ 00000001800013c0 f i format.obj
 0001:000003e0       ??_Gbad_function_call@std@@UEAAPEAXI@Z 00000001800013e0 f i libcpmt:xthrow.obj
 0001:000003e0       ??_Eruntime_error@std@@UEAAPEAXI@Z 00000001800013e0 f i * CIL library *:* CIL module *
 0001:000003e0       ??_Gruntime_error@std@@UEAAPEAXI@Z 00000001800013e0 f i format.obj
 0001:000003e0       ??_Ebad_cast@std@@UEAAPEAXI@Z 00000001800013e0 f i * CIL library *:* CIL module *
 0001:000003e0       ??_Eexception@std@@UEAAPEAXI@Z 00000001800013e0 f i * CIL library *:* CIL module *
 0001:000003e0       ??_Eformat_error@v8@fmt@@UEAAPEAXI@Z 00000001800013e0 f i * CIL library *:* CIL module *
 0001:000003e0       ??_Elogic_error@std@@UEAAPEAXI@Z 00000001800013e0 f i libcpmt:xthrow.obj
 0001:000003e0       ??_Gbad_alloc@std@@UEAAPEAXI@Z 00000001800013e0 f i format.obj
 0001:000003e0       ??_Elength_error@std@@UEAAPEAXI@Z 00000001800013e0 f i libcpmt:xthrow.obj
 0001:000003e0       ??_Glength_error@std@@UEAAPEAXI@Z 00000001800013e0 f i libcpmt:xthrow.obj
 0001:000003e0       ??_Gout_of_range@std@@UEAAPEAXI@Z 00000001800013e0 f i libcpmt:xthrow.obj
 0001:000003e0       ??_Eout_of_range@std@@UEAAPEAXI@Z 00000001800013e0 f i libcpmt:xthrow.obj
 0001:000003e0       ??_Gexception@std@@UEAAPEAXI@Z 00000001800013e0 f i format.obj
 0001:000003e0       ??_Ebad_alloc@std@@UEAAPEAXI@Z 00000001800013e0 f i * CIL library *:* CIL module *
 0001:000003e0       ??_Glogic_error@std@@UEAAPEAXI@Z 00000001800013e0 f i libcpmt:xthrow.obj
 0001:000003e0       ??_Gbad_exception@std@@UEAAPEAXI@Z 00000001800013e0 f i libvcruntime:frame.obj
 0001:000003e0       ??_Ebad_array_new_length@std@@UEAAPEAXI@Z 00000001800013e0 f i * CIL library *:* CIL module *
 0001:000003e0       ??_Gformat_error@v8@fmt@@UEAAPEAXI@Z 00000001800013e0 f i format.obj
 0001:000003e0       ??_Gbad_cast@std@@UEAAPEAXI@Z 00000001800013e0 f i format.obj
 0001:000003e0       ??_Ebad_exception@std@@UEAAPEAXI@Z 00000001800013e0 f i libvcruntime:frame.obj
 0001:000003e0       ??_Gbad_array_new_length@std@@UEAAPEAXI@Z 00000001800013e0 f i format.obj
 0001:000003e0       ??_Ebad_function_call@std@@UEAAPEAXI@Z 00000001800013e0 f i libcpmt:xthrow.obj
 0001:00000430       ??1runtime_error@std@@UEAA@XZ 0000000180001430 f i format.obj
 0001:00000430       ??1out_of_range@std@@UEAA@XZ 0000000180001430 f i libcpmt:xthrow.obj
 0001:00000430       ??1bad_exception@std@@UEAA@XZ 0000000180001430 f i libvcruntime:frame.obj
 0001:00000430       ??1bad_cast@std@@UEAA@XZ   0000000180001430 f i format.obj
 0001:00000430       ??1length_error@std@@UEAA@XZ 0000000180001430 f i libcpmt:xthrow.obj
 0001:00000430       ??1bad_alloc@std@@UEAA@XZ  0000000180001430 f i format.obj
 0001:00000430       ??1format_error@v8@fmt@@UEAA@XZ 0000000180001430 f i format.obj
 0001:00000430       ??1bad_array_new_length@std@@UEAA@XZ 0000000180001430 f i format.obj
 0001:00000430       ??1bad_function_call@std@@UEAA@XZ 0000000180001430 f i libcpmt:xthrow.obj
 0001:00000450       ??0bad_array_new_length@std@@QEAA@XZ 0000000180001450 f i format.obj
 0001:00000480       ?__scrt_throw_std_bad_array_new_length@@YAXXZ 0000000180001480 f i LIBCMT:throw_bad_alloc.obj
 0001:00000480       ?_Throw_bad_array_new_length@std@@YAXXZ 0000000180001480 f i format.obj
 0001:000004a0       ??0bad_array_new_length@std@@QEAA@AEBV01@@Z 00000001800014a0 f i format.obj
 0001:000004e0       ??0bad_alloc@std@@QEAA@AEBV01@@Z 00000001800014e0 f i format.obj
 0001:00000520       ??0bad_cast@std@@QEAA@XZ   0000000180001520 f i format.obj
 0001:00000550       ?_Throw_bad_cast@std@@YAXXZ 0000000180001550 f i format.obj
 0001:00000570       ??0bad_cast@std@@QEAA@AEBV01@@Z 0000000180001570 f i format.obj
 0001:000005b0       ??0runtime_error@std@@QEAA@PEBD@Z 00000001800015b0 f i format.obj
 0001:00000600       ??0runtime_error@std@@QEAA@AEBV01@@Z 0000000180001600 f i format.obj
 0001:00000640       ??_G_Facet_base@std@@UEAAPEAXI@Z 0000000180001640 f i format.obj
 0001:00000640       ??_E_Facet_base@std@@UEAAPEAXI@Z 0000000180001640 f i * CIL library *:* CIL module *
 0001:00000670       ??1_Locinfo@std@@QEAA@XZ   0000000180001670 f i format.obj
 0001:00000710       ?_Incref@facet@locale@std@@UEAAXXZ 0000000180001710 f i format.obj
 0001:00000720       ?_Decref@facet@locale@std@@UEAAPEAV_Facet_base@3@XZ 0000000180001720 f i format.obj
 0001:00000730       ??1facet@locale@std@@MEAA@XZ 0000000180001730 f i format.obj
 0001:00000740       ??1locale@std@@QEAA@XZ     0000000180001740 f i format.obj
 0001:00000770       ??1?$thousands_sep_result@_W@detail@v8@fmt@@QEAA@XZ 0000000180001770 f i format.obj
 0001:00000770       ??1?$basic_string@DU?$char_traits@D@std@@V?$allocator@D@2@@std@@QEAA@XZ 0000000180001770 f i format.obj
 0001:00000770       ??1?$digit_grouping@_W@detail@v8@fmt@@QEAA@XZ 0000000180001770 f i handles.obj
 0001:000007d0       ?throw_format_error@detail@v8@fmt@@YAXPEBD@Z 00000001800017d0 f   format.obj
 0001:00000840       ?fmt_snprintf@detail@v8@fmt@@YAHPEAD_KPEBDZZ 0000000180001840 f i format.obj
 0001:000008b0       ??1bigint@detail@v8@fmt@@QEAA@XZ 00000001800018b0 f i format.obj
 0001:000008b0       ??1?$basic_memory_buffer@I$0CA@V?$allocator@I@std@@@v8@fmt@@QEAA@XZ 00000001800018b0 f i format.obj
 0001:00000910       ??_3bigint@detail@v8@fmt@@QEAAAEAV0123@H@Z 0000000180001910 f i format.obj
 0001:000009d0       ?compare@detail@v8@fmt@@YAHAEBVbigint@123@0@Z 00000001800019d0 f i format.obj
 0001:00000a70       ?add_compare@detail@v8@fmt@@YAHAEBVbigint@123@00@Z 0000000180001a70 f i format.obj
 0001:00000bb0       ?assign_pow10@bigint@detail@v8@fmt@@QEAAXH@Z 0000000180001bb0 f i format.obj
 0001:00000cd0       ?square@bigint@detail@v8@fmt@@QEAAXXZ 0000000180001cd0 f i format.obj
 0001:00000f50       ?divmod_assign@bigint@detail@v8@fmt@@QEAAHAEBV1234@@Z 0000000180001f50 f i format.obj
 0001:00001100       ?grisu_gen_digits@detail@v8@fmt@@YA?AW4result@digits@123@Ufp@123@_KAEAHAEAUgen_digits_handler@123@@Z 0000000180002100 f i format.obj
 0001:00001600       ?get_cached_power@?$cache_accessor@N@dragonbox@detail@v8@fmt@@SA?AUuint128_wrapper@345@H@Z 0000000180002600 f i format.obj
 0001:00001730       ?remove_trailing_zeros@dragonbox@detail@v8@fmt@@YAHAEA_K@Z 0000000180002730 f i format.obj
 0001:00001950       ?format_dragon@detail@v8@fmt@@YAXUfp@123@_NHAEAV?$buffer@D@123@AEAH@Z 0000000180002950 f i format.obj
 0001:00002f80       ??1?$basic_memory_buffer@D$0BPE@V?$allocator@D@std@@@v8@fmt@@QEAA@XZ 0000000180003f80 f i format.obj
 0001:00002fe0       ??1?$basic_memory_buffer@_W$0BPE@V?$allocator@_W@std@@@v8@fmt@@QEAA@XZ 0000000180003fe0 f i format.obj
 0001:00003040       ?try_resize@?$buffer@D@detail@v8@fmt@@QEAAX_K@Z 0000000180004040 f i format.obj
 0001:00003080       ??1?$_Yarn@_W@std@@QEAA@XZ 0000000180004080 f i format.obj
 0001:00003080       ??1?$_Yarn@D@std@@QEAA@XZ  0000000180004080 f i format.obj
 0001:000030b0       ?try_reserve@?$buffer@I@detail@v8@fmt@@QEAAX_K@Z 00000001800040b0 f i format.obj
 0001:000031e0       ?try_reserve@?$buffer@_W@detail@v8@fmt@@QEAAX_K@Z 00000001800041e0 f i format.obj
 0001:00003310       ?assign@?$basic_string@_WU?$char_traits@_W@std@@V?$allocator@_W@2@@std@@QEAAAEAV12@QEB_W_K@Z 0000000180004310 f i format.obj
 0001:00003440       ?assign@?$basic_string@DU?$char_traits@D@std@@V?$allocator@D@2@@std@@QEAAAEAV12@QEBD_K@Z 0000000180004440 f i format.obj
 0001:000035a0       ?deallocate@?$allocator@I@std@@QEAAXQEAI_K@Z 00000001800045a0 f i format.obj
 0001:000035f0       ?grow@?$basic_memory_buffer@D$0BPE@V?$allocator@D@std@@@v8@fmt@@MEAAX_K@Z 00000001800045f0 f i format.obj
 0001:000036e0       ?grow@?$basic_memory_buffer@_W$0BPE@V?$allocator@_W@std@@@v8@fmt@@MEAAX_K@Z 00000001800046e0 f i format.obj
 0001:00003800       ?grow@?$basic_memory_buffer@I$0CA@V?$allocator@I@std@@@v8@fmt@@MEAAX_K@Z 0000000180004800 f i format.obj
 0001:00003800       ?grow@?$basic_memory_buffer@H$0BPE@V?$allocator@H@std@@@v8@fmt@@MEAAX_K@Z 0000000180004800 f i format.obj
 0001:00003930       ??$format_float@N@detail@v8@fmt@@YAHNHUfloat_specs@012@AEAV?$buffer@D@012@@Z 0000000180004930 f i format.obj
 0001:00003d70       ??$format_float@O@detail@v8@fmt@@YAHOHUfloat_specs@012@AEAV?$buffer@D@012@@Z 0000000180004d70 f i format.obj
 0001:000041b0       ??$snprintf_float@N@detail@v8@fmt@@YAHNHUfloat_specs@012@AEAV?$buffer@D@012@@Z 00000001800051b0 f i format.obj
 0001:00004440       ??$snprintf_float@O@detail@v8@fmt@@YAHOHUfloat_specs@012@AEAV?$buffer@D@012@@Z 0000000180005440 f i format.obj
 0001:000046e0       ??$?XH@bigint@detail@v8@fmt@@QEAAAEAV0123@H@Z 00000001800056e0 f i format.obj
 0001:00004760       ??$to_decimal@M@dragonbox@detail@v8@fmt@@YA?AU?$decimal_fp@M@0123@M@Z 0000000180005760 f i format.obj
 0001:00004a90       ??$to_decimal@N@dragonbox@detail@v8@fmt@@YA?AU?$decimal_fp@N@0123@N@Z 0000000180005a90 f i format.obj
 0001:00004e80       ??$get@Vlocale@std@@@locale_ref@detail@v8@fmt@@QEBA?AVlocale@std@@XZ 0000000180005e80 f i format.obj
 0001:00004f50       ??$append@D@?$buffer@D@detail@v8@fmt@@QEAAXPEBD0@Z 0000000180005f50 f i format.obj
 0001:00005000       ??0format_error@v8@fmt@@QEAA@AEBV012@@Z 0000000180006000 f i format.obj
 0001:00005040       ?do_truename@?$numpunct@_W@std@@MEBA?AV?$basic_string@_WU?$char_traits@_W@std@@V?$allocator@_W@2@@2@XZ 0000000180006040 f i format.obj
 0001:00005080       ?do_falsename@?$numpunct@_W@std@@MEBA?AV?$basic_string@_WU?$char_traits@_W@std@@V?$allocator@_W@2@@2@XZ 0000000180006080 f i format.obj
 0001:000050c0       ?do_grouping@?$numpunct@_W@std@@MEBA?AV?$basic_string@DU?$char_traits@D@std@@V?$allocator@D@2@@2@XZ 00000001800060c0 f i format.obj
 0001:00005110       ?do_thousands_sep@?$numpunct@_W@std@@MEBA_WXZ 0000000180006110 f i format.obj
 0001:00005120       ?do_decimal_point@?$numpunct@_W@std@@MEBA_WXZ 0000000180006120 f i format.obj
 0001:00005130       ??1?$unique_ptr@V_Facet_base@std@@U?$default_delete@V_Facet_base@std@@@2@@std@@QEAA@XZ 0000000180006130 f i format.obj
 0001:00005150       ?_Xlen@?$basic_string@_WU?$char_traits@_W@std@@V?$allocator@_W@2@@std@@CAXXZ 0000000180006150 f i format.obj
 0001:00005150       ?_Xlen@?$basic_string@DU?$char_traits@D@std@@V?$allocator@D@2@@std@@CAXXZ 0000000180006150 f i format.obj
 0001:00005170       ?allocate@?$allocator@_W@std@@QEAAPEA_W_K@Z 0000000180006170 f i format.obj
 0001:000051e0       ??_E?$numpunct@_W@std@@MEAAPEAXI@Z 00000001800061e0 f i * CIL library *:* CIL module *
 0001:000051e0       ??_G?$numpunct@_W@std@@MEAAPEAXI@Z 00000001800061e0 f i format.obj
 0001:00005240       ??0?$basic_string@_WU?$char_traits@_W@std@@V?$allocator@_W@2@@std@@QEAA@QEB_W@Z 0000000180006240 f i format.obj
 0001:00005280       ??$use_facet@V?$numpunct@_W@std@@@std@@YAAEBV?$numpunct@_W@0@AEBVlocale@0@@Z 0000000180006280 f i format.obj
 0001:000053a0       ??$write@DVappender@v8@fmt@@I$0A@@detail@v8@fmt@@YA?AVappender@12@V312@I@Z 00000001800063a0 f i format.obj
 0001:000054c0       ??$write@DVappender@v8@fmt@@_K$0A@@detail@v8@fmt@@YA?AVappender@12@V312@_K@Z 00000001800064c0 f i format.obj
 0001:00005600       ??$shorter_interval_case@M@dragonbox@detail@v8@fmt@@YA?AU?$decimal_fp@M@0123@H@Z 0000000180006600 f i format.obj
 0001:00005770       ?_Getcat@?$numpunct@_W@std@@SA_KPEAPEBVfacet@locale@2@PEBV42@@Z 0000000180006770 f i format.obj
 0001:00005900       ?_Init@?$numpunct@_W@std@@IEAAXAEBV_Locinfo@2@_N@Z 0000000180006900 f i format.obj
 0001:00005bd0       ??1?$_Tidy_guard@V?$numpunct@_W@std@@@std@@QEAA@XZ 0000000180006bd0 f i format.obj
 0001:00005c10       ??$_Maklocstr@D@std@@YAPEADPEBDPEADAEBU_Cvtvec@@@Z 0000000180006c10 f i format.obj
 0001:00005c80       ??$format_decimal@DIVappender@v8@fmt@@$0A@@detail@v8@fmt@@YA?AU?$format_decimal_result@Vappender@v8@fmt@@@012@Vappender@12@IH@Z 0000000180006c80 f i format.obj
 0001:00005da0       ??$format_decimal@D_KVappender@v8@fmt@@$0A@@detail@v8@fmt@@YA?AU?$format_decimal_result@Vappender@v8@fmt@@@012@Vappender@12@_KH@Z 0000000180006da0 f i format.obj
 0001:00005ee0       ??$?RH$0A@@?$width_checker@Uerror_handler@detail@v8@fmt@@@detail@v8@fmt@@QEAA_KH@Z 0000000180006ee0 f i format.obj
 0001:00005f70       ??$?RH$0A@@?$precision_checker@Uerror_handler@detail@v8@fmt@@@detail@v8@fmt@@QEAA_KH@Z 0000000180006f70 f i format.obj
 0001:00006000       ??$?R_J$0A@@?$width_checker@Uerror_handler@detail@v8@fmt@@@detail@v8@fmt@@QEAA_K_J@Z 0000000180007000 f i format.obj
 0001:00006090       ??$?R_N$0A@@?$width_checker@Uerror_handler@detail@v8@fmt@@@detail@v8@fmt@@QEAA_K_N@Z 0000000180007090 f i format.obj
 0001:00006090       ??$?RUmonostate@v8@fmt@@$0A@@?$width_checker@Uerror_handler@detail@v8@fmt@@@detail@v8@fmt@@QEAA_KUmonostate@23@@Z 0000000180007090 f i format.obj
 0001:00006110       ??$?RM$0A@@?$width_checker@Uerror_handler@detail@v8@fmt@@@detail@v8@fmt@@QEAA_KM@Z 0000000180007110 f i format.obj
 0001:00006190       ??$?RN$0A@@?$width_checker@Uerror_handler@detail@v8@fmt@@@detail@v8@fmt@@QEAA_KN@Z 0000000180007190 f i format.obj
 0001:00006190       ??$?RO$0A@@?$width_checker@Uerror_handler@detail@v8@fmt@@@detail@v8@fmt@@QEAA_KO@Z 0000000180007190 f i format.obj
 0001:00006210       ??$?RPEBX$0A@@?$width_checker@Uerror_handler@detail@v8@fmt@@@detail@v8@fmt@@QEAA_KPEBX@Z 0000000180007210 f i format.obj
 0001:00006290       ??$?R_J$0A@@?$precision_checker@Uerror_handler@detail@v8@fmt@@@detail@v8@fmt@@QEAA_K_J@Z 0000000180007290 f i format.obj
 0001:00006320       ??$?RUmonostate@v8@fmt@@$0A@@?$precision_checker@Uerror_handler@detail@v8@fmt@@@detail@v8@fmt@@QEAA_KUmonostate@23@@Z 0000000180007320 f i format.obj
 0001:00006320       ??$?R_N$0A@@?$precision_checker@Uerror_handler@detail@v8@fmt@@@detail@v8@fmt@@QEAA_K_N@Z 0000000180007320 f i format.obj
 0001:000063a0       ??$?RM$0A@@?$precision_checker@Uerror_handler@detail@v8@fmt@@@detail@v8@fmt@@QEAA_KM@Z 00000001800073a0 f i format.obj
 0001:00006420       ??$?RN$0A@@?$precision_checker@Uerror_handler@detail@v8@fmt@@@detail@v8@fmt@@QEAA_KN@Z 0000000180007420 f i format.obj
 0001:00006420       ??$?RO$0A@@?$precision_checker@Uerror_handler@detail@v8@fmt@@@detail@v8@fmt@@QEAA_KO@Z 0000000180007420 f i format.obj
 0001:000064a0       ??$?RPEBX$0A@@?$precision_checker@Uerror_handler@detail@v8@fmt@@@detail@v8@fmt@@QEAA_KPEBX@Z 00000001800074a0 f i format.obj
 0001:00006520       ??1?$basic_memory_buffer@H$0BPE@V?$allocator@H@std@@@v8@fmt@@QEAA@XZ 0000000180007520 f i format.obj
 0001:00006580       ?push_back@?$buffer@H@detail@v8@fmt@@QEAAXAEBH@Z 0000000180007580 f i format.obj
 0001:000066d0       ??$decimal_point@_W@detail@v8@fmt@@YA_WVlocale_ref@012@@Z 00000001800076d0 f i handles.obj
 0001:00006750       ??1DebugToken@@QEAA@XZ     0000000180007750 f i handles.obj
 0001:00007450       ?PrintHandleInfo@@YA_NKPEAX_NPEAVPerfThread@@@Z 0000000180008450 f   handles.obj
 0001:00007b30       ??1?$unique_ptr@UPROCLIST_SYSTEM_HANDLE_INFORMATION@@Uvirtual_deleter@@@std@@QEAA@XZ 0000000180008b30 f i handles.obj
 0001:00007b50       ??1?$scoped_lock@VPerfThread@@@std@@QEAA@XZ 0000000180008b50 f i handles.obj
 0001:00007b70       ??1?$unique_ptr@_WUlocal_deleter@@@std@@QEAA@XZ 0000000180008b70 f i handles.obj
 0001:00007b80       ??1?$unique_ptr@$$BY0A@_WU?$default_delete@$$BY0A@_W@std@@@std@@QEAA@XZ 0000000180008b80 f i handles.obj
 0001:00007b80       ??1?$unique_ptr@$$BY0A@DU?$default_delete@$$BY0A@D@std@@@std@@QEAA@XZ 0000000180008b80 f i handles.obj
 0001:00007b90       ??1?$unique_ptr@XUfree_deleter@@@std@@QEAA@XZ 0000000180008b90 f i handles.obj
 0001:00007b90       ??1?$unique_ptr@UPluginPanelItem@@Ufree_deleter@@@std@@QEAA@XZ 0000000180008b90 f i Pclass.obj
 0001:00007ba0       ??1?$unique_ptr@XUhandle_closer@@@std@@QEAA@XZ 0000000180008ba0 f i handles.obj
 0001:00007bb0       ??0?$basic_string@_WU?$char_traits@_W@std@@V?$allocator@_W@2@@std@@QEAA@AEBV01@@Z 0000000180008bb0 f i handles.obj
 0001:00007d20       ??$make_unique@$$BY0A@_W$0A@@std@@YA?AV?$unique_ptr@$$BY0A@_WU?$default_delete@$$BY0A@_W@std@@@0@_K@Z 0000000180008d20 f i handles.obj
 0001:00007da0       ?check_arg_id@?$basic_format_parse_context@_WUerror_handler@detail@v8@fmt@@@v8@fmt@@QEAAXH@Z 0000000180008da0 f i handles.obj
 0001:00007e30       ?next_arg_id@?$basic_format_parse_context@_WUerror_handler@detail@v8@fmt@@@v8@fmt@@QEAAHXZ 0000000180008e30 f i handles.obj
 0001:00007ec0       ?append@?$basic_string@_WU?$char_traits@_W@std@@V?$allocator@_W@2@@std@@QEAAAEAV12@QEB_W_K@Z 0000000180008ec0 f i handles.obj
 0001:00008040       ??$visit_format_arg@U?$default_arg_formatter@_W@detail@v8@fmt@@V?$basic_format_context@V?$back_insert_iterator@V?$buffer@_W@detail@v8@fmt@@@std@@_W@34@@v8@fmt@@YA?AV?$back_insert_iterator@V?$buffer@_W@detail@v8@fmt@@@std@@$$QEAU?$default_arg_formatter@_W@detail@01@AEBV?$basic_format_arg@V?$basic_format_context@V?$back_insert_iterator@V?$buffer@_W@detail@v8@fmt@@@std@@_W@v8@fmt@@@01@@Z 0000000180009040 f i handles.obj
 0001:00008660       ??$get_arg@V?$basic_format_context@V?$back_insert_iterator@V?$buffer@_W@detail@v8@fmt@@@std@@_W@v8@fmt@@H@detail@v8@fmt@@YA?AV?$basic_format_arg@V?$basic_format_context@V?$back_insert_iterator@V?$buffer@_W@detail@v8@fmt@@@std@@_W@v8@fmt@@@12@AEAV?$basic_format_context@V?$back_insert_iterator@V?$buffer@_W@detail@v8@fmt@@@std@@_W@12@H@Z 0000000180009660 f i handles.obj
 0001:00008760       ??$parse_format_specs@_WAEAV?$specs_checker@V?$specs_handler@_W@detail@v8@fmt@@@detail@v8@fmt@@@detail@v8@fmt@@YAPEB_WPEB_W0AEAV?$specs_checker@V?$specs_handler@_W@detail@v8@fmt@@@012@@Z 0000000180009760 f i handles.obj
 0001:000089c0       ??$visit_format_arg@AEAU?$arg_formatter@_W@detail@v8@fmt@@V?$basic_format_context@V?$back_insert_iterator@V?$buffer@_W@detail@v8@fmt@@@std@@_W@34@@v8@fmt@@YA?AV?$back_insert_iterator@V?$buffer@_W@detail@v8@fmt@@@std@@AEAU?$arg_formatter@_W@detail@01@AEBV?$basic_format_arg@V?$basic_format_context@V?$back_insert_iterator@V?$buffer@_W@detail@v8@fmt@@@std@@_W@v8@fmt@@@01@@Z 00000001800099c0 f i handles.obj
 0001:00009170       ??$parse_nonnegative_int@_W@detail@v8@fmt@@YAHAEAPEB_WPEB_WH@Z 000000018000a170 f i handles.obj
 0001:00009200       ??$parse_presentation_type@_W@detail@v8@fmt@@YA?AW4presentation_type@12@_W@Z 000000018000a200 f i handles.obj
 0001:000092e0       ??$vformat@_W$0A@@v8@fmt@@YA?AV?$basic_string@_WU?$char_traits@_W@std@@V?$allocator@_W@2@@std@@V?$basic_string_view@_W@01@V?$basic_format_args@V?$basic_format_context@V?$back_insert_iterator@V?$buffer@_W@detail@v8@fmt@@@std@@_W@v8@fmt@@@01@@Z 000000018000a2e0 f i handles.obj
 0001:00009530       ??$get_id@_W@?$basic_format_args@V?$basic_format_context@V?$back_insert_iterator@V?$buffer@_W@detail@v8@fmt@@@std@@_W@v8@fmt@@@v8@fmt@@QEBAHV?$basic_string_view@_W@12@@Z 000000018000a530 f i handles.obj
 0001:00009640       ?on_sign@?$specs_checker@V?$specs_handler@_W@detail@v8@fmt@@@detail@v8@fmt@@QEAAXW4type@sign@34@@Z 000000018000a640 f i handles.obj
 0001:00009700       ?require_numeric_argument@?$specs_checker@V?$specs_handler@_W@detail@v8@fmt@@@detail@v8@fmt@@AEAAXXZ 000000018000a700 f i handles.obj
 0001:00009790       ??$parse_align@_WAEAV?$specs_checker@V?$specs_handler@_W@detail@v8@fmt@@@detail@v8@fmt@@@detail@v8@fmt@@YAPEB_WPEB_W0AEAV?$specs_checker@V?$specs_handler@_W@detail@v8@fmt@@@012@@Z 000000018000a790 f i handles.obj
 0001:00009940       ??$parse_width@_WAEAV?$specs_checker@V?$specs_handler@_W@detail@v8@fmt@@@detail@v8@fmt@@@detail@v8@fmt@@YAPEB_WPEB_W0AEAV?$specs_checker@V?$specs_handler@_W@detail@v8@fmt@@@012@@Z 000000018000a940 f i handles.obj
 0001:00009bc0       ??$parse_precision@_WAEAV?$specs_checker@V?$specs_handler@_W@detail@v8@fmt@@@detail@v8@fmt@@@detail@v8@fmt@@YAPEB_WPEB_W0AEAV?$specs_checker@V?$specs_handler@_W@detail@v8@fmt@@@012@@Z 000000018000abc0 f i handles.obj
 0001:0000a260       ??$write@_WV?$back_insert_iterator@V?$buffer@_W@detail@v8@fmt@@@std@@H$0A@@detail@v8@fmt@@YA?AV?$back_insert_iterator@V?$buffer@_W@detail@v8@fmt@@@std@@V34@H@Z 000000018000b260 f i handles.obj
 0001:0000a400       ??$write@_WV?$back_insert_iterator@V?$buffer@_W@detail@v8@fmt@@@std@@@detail@v8@fmt@@YA?AV?$back_insert_iterator@V?$buffer@_W@detail@v8@fmt@@@std@@V34@V?$basic_string_view@_W@12@AEBU?$basic_format_specs@_W@12@Vlocale_ref@012@@Z 000000018000b400 f i handles.obj
 0001:0000a500       ??$write@_WV?$back_insert_iterator@V?$buffer@_W@detail@v8@fmt@@@std@@H$0A@@detail@v8@fmt@@YA?AV?$back_insert_iterator@V?$buffer@_W@detail@v8@fmt@@@std@@V34@HAEBU?$basic_format_specs@_W@12@Vlocale_ref@012@@Z 000000018000b500 f i handles.obj
 0001:0000a5a0       ??$write@_WV?$back_insert_iterator@V?$buffer@_W@detail@v8@fmt@@@std@@_N$0A@@detail@v8@fmt@@YA?AV?$back_insert_iterator@V?$buffer@_W@detail@v8@fmt@@@std@@V34@_NAEBU?$basic_format_specs@_W@12@Vlocale_ref@012@@Z 000000018000b5a0 f i handles.obj
 0001:0000a690       ??$write@_WV?$back_insert_iterator@V?$buffer@_W@detail@v8@fmt@@@std@@M$0A@@detail@v8@fmt@@YA?AV?$back_insert_iterator@V?$buffer@_W@detail@v8@fmt@@@std@@V34@M@Z 000000018000b690 f i handles.obj
 0001:0000a840       ??$write@_WV?$back_insert_iterator@V?$buffer@_W@detail@v8@fmt@@@std@@N$0A@@detail@v8@fmt@@YA?AV?$back_insert_iterator@V?$buffer@_W@detail@v8@fmt@@@std@@V34@N@Z 000000018000b840 f i handles.obj
 0001:0000aa00       ??$write@_WV?$back_insert_iterator@V?$buffer@_W@detail@v8@fmt@@@std@@O$0A@@detail@v8@fmt@@YA?AV?$back_insert_iterator@V?$buffer@_W@detail@v8@fmt@@@std@@V34@O@Z 000000018000ba00 f i handles.obj
 0001:0000abc0       ??$write@_WV?$back_insert_iterator@V?$buffer@_W@detail@v8@fmt@@@std@@X$0A@@detail@v8@fmt@@YA?AV?$back_insert_iterator@V?$buffer@_W@detail@v8@fmt@@@std@@V34@PEBXAEBU?$basic_format_specs@_W@12@Vlocale_ref@012@@Z 000000018000bbc0 f i handles.obj
 0001:0000acc0       ??$write@_WV?$back_insert_iterator@V?$buffer@_W@detail@v8@fmt@@@std@@@detail@v8@fmt@@YA?AV?$back_insert_iterator@V?$buffer@_W@detail@v8@fmt@@@std@@V34@_WAEBU?$basic_format_specs@_W@12@Vlocale_ref@012@@Z 000000018000bcc0 f i handles.obj
 0001:0000ae60       ??$write@_WV?$back_insert_iterator@V?$buffer@_W@detail@v8@fmt@@@std@@M$0A@@detail@v8@fmt@@YA?AV?$back_insert_iterator@V?$buffer@_W@detail@v8@fmt@@@std@@V34@MU?$basic_format_specs@_W@12@Vlocale_ref@012@@Z 000000018000be60 f i handles.obj
 0001:0000b220       ??$write@_WV?$back_insert_iterator@V?$buffer@_W@detail@v8@fmt@@@std@@N$0A@@detail@v8@fmt@@YA?AV?$back_insert_iterator@V?$buffer@_W@detail@v8@fmt@@@std@@V34@NU?$basic_format_specs@_W@12@Vlocale_ref@012@@Z 000000018000c220 f i handles.obj
 0001:0000b5d0       ??$write@_WV?$back_insert_iterator@V?$buffer@_W@detail@v8@fmt@@@std@@O$0A@@detail@v8@fmt@@YA?AV?$back_insert_iterator@V?$buffer@_W@detail@v8@fmt@@@std@@V34@OU?$basic_format_specs@_W@12@Vlocale_ref@012@@Z 000000018000c5d0 f i handles.obj
 0001:0000b980       ?get_arg@?$specs_handler@_W@detail@v8@fmt@@AEAA?AV?$basic_format_arg@V?$basic_format_context@V?$back_insert_iterator@V?$buffer@_W@detail@v8@fmt@@@std@@_W@v8@fmt@@@34@V?$basic_string_view@_W@34@@Z 000000018000c980 f i handles.obj
 0001:0000bab0       ??$format_decimal@_WIV?$back_insert_iterator@V?$buffer@_W@detail@v8@fmt@@@std@@$0A@@detail@v8@fmt@@YA?AU?$format_decimal_result@V?$back_insert_iterator@V?$buffer@_W@detail@v8@fmt@@@std@@@012@V?$back_insert_iterator@V?$buffer@_W@detail@v8@fmt@@@std@@IH@Z 000000018000cab0 f i handles.obj
 0001:0000bbd0       ??$format_decimal@_W_K@detail@v8@fmt@@YA?AU?$format_decimal_result@PEA_W@012@PEA_W_KH@Z 000000018000cbd0 f i handles.obj
 0001:0000bc90       ??$format_decimal@_W_KV?$back_insert_iterator@V?$buffer@_W@detail@v8@fmt@@@std@@$0A@@detail@v8@fmt@@YA?AU?$format_decimal_result@V?$back_insert_iterator@V?$buffer@_W@detail@v8@fmt@@@std@@@012@V?$back_insert_iterator@V?$buffer@_W@detail@v8@fmt@@@std@@_KH@Z 000000018000cc90 f i handles.obj
 0001:0000bdc0       ??$do_parse_arg_id@_WAEAUwidth_adapter@?1???$parse_width@_WAEAV?$specs_checker@V?$specs_handler@_W@detail@v8@fmt@@@detail@v8@fmt@@@detail@v8@fmt@@YAPEB_WPEB_W0AEAV?$specs_checker@V?$specs_handler@_W@detail@v8@fmt@@@234@@Z@@detail@v8@fmt@@YAPEB_WPEB_W0AEAUwidth_adapter@?1???$parse_width@_WAEAV?$specs_checker@V?$specs_handler@_W@detail@v8@fmt@@@detail@v8@fmt@@@012@YAPEB_W00AEAV?$specs_checker@V?$specs_handler@_W@detail@v8@fmt@@@012@@Z@@Z 000000018000cdc0 f i handles.obj
 0001:0000c090       ??$do_parse_arg_id@_WAEAUprecision_adapter@?1???$parse_precision@_WAEAV?$specs_checker@V?$specs_handler@_W@detail@v8@fmt@@@detail@v8@fmt@@@detail@v8@fmt@@YAPEB_WPEB_W0AEAV?$specs_checker@V?$specs_handler@_W@detail@v8@fmt@@@234@@Z@@detail@v8@fmt@@YAPEB_WPEB_W0AEAUprecision_adapter@?1???$parse_precision@_WAEAV?$specs_checker@V?$specs_handler@_W@detail@v8@fmt@@@detail@v8@fmt@@@012@YAPEB_W00AEAV?$specs_checker@V?$specs_handler@_W@detail@v8@fmt@@@012@@Z@@Z 000000018000d090 f i handles.obj
 0001:0000c360       ??$write_char@_WV?$back_insert_iterator@V?$buffer@_W@detail@v8@fmt@@@std@@@detail@v8@fmt@@YA?AV?$back_insert_iterator@V?$buffer@_W@detail@v8@fmt@@@std@@V34@_WAEBU?$basic_format_specs@_W@12@@Z 000000018000d360 f i handles.obj
 0001:0000c4e0       ??$parse_float_type_spec@Uerror_handler@detail@v8@fmt@@_W@detail@v8@fmt@@YA?AUfloat_specs@012@AEBU?$basic_format_specs@_W@12@$$QEAUerror_handler@012@@Z 000000018000d4e0 f i handles.obj
 0001:0000c850       ??$copy_str_noinline@_WPEA_WV?$back_insert_iterator@V?$buffer@_W@detail@v8@fmt@@@std@@@detail@v8@fmt@@YA?AV?$back_insert_iterator@V?$buffer@_W@detail@v8@fmt@@@std@@PEA_W0V34@@Z 000000018000d850 f i handles.obj
 0001:0000c8e0       ??$write_padded@$00V?$back_insert_iterator@V?$buffer@_W@detail@v8@fmt@@@std@@_WV<lambda_1>@?1???$write@_WV?$back_insert_iterator@V?$buffer@_W@detail@v8@fmt@@@std@@@detail@v8@fmt@@YA?AV12@V12@V?$basic_string_view@_W@56@AEBU?$basic_format_specs@_W@56@@Z@@detail@v8@fmt@@YA?AV?$back_insert_iterator@V?$buffer@_W@detail@v8@fmt@@@std@@V34@AEBU?$basic_format_specs@_W@12@_K2$$QEAV<lambda_1>@?1???$write@_WV?$back_insert_iterator@V?$buffer@_W@detail@v8@fmt@@@std@@@012@YA?AV34@0V?$basic_string_view@_W@12@1@Z@@Z 000000018000d8e0 f i handles.obj
 0001:0000ca70       ??$write_int@_WV?$back_insert_iterator@V?$buffer@_W@detail@v8@fmt@@@std@@I@detail@v8@fmt@@YA?AV?$back_insert_iterator@V?$buffer@_W@detail@v8@fmt@@@std@@V34@U?$write_int_arg@I@012@AEBU?$basic_format_specs@_W@12@Vlocale_ref@012@@Z 000000018000da70 f i handles.obj
 0001:0000d0c0       ??R<lambda_2>@?8???$write_int@_WV?$back_insert_iterator@V?$buffer@_W@detail@v8@fmt@@@std@@I@detail@v8@fmt@@YA?AV?$back_insert_iterator@V?$buffer@_W@detail@v8@fmt@@@std@@V45@U?$write_int_arg@I@123@AEBU?$basic_format_specs@_W@23@Vlocale_ref@123@@Z@QEBA?AV45@0@Z 000000018000e0c0 f i handles.obj
 0001:0000d220       ??R<lambda_3>@?M@???$write_int@_WV?$back_insert_iterator@V?$buffer@_W@detail@v8@fmt@@@std@@I@detail@v8@fmt@@YA?AV?$back_insert_iterator@V?$buffer@_W@detail@v8@fmt@@@std@@V45@U?$write_int_arg@I@123@AEBU?$basic_format_specs@_W@23@Vlocale_ref@123@@Z@QEBA?AV45@0@Z 000000018000e220 f i handles.obj
 0001:0000d340       ??R<lambda_4>@?P@???$write_int@_WV?$back_insert_iterator@V?$buffer@_W@detail@v8@fmt@@@std@@I@detail@v8@fmt@@YA?AV?$back_insert_iterator@V?$buffer@_W@detail@v8@fmt@@@std@@V45@U?$write_int_arg@I@123@AEBU?$basic_format_specs@_W@23@Vlocale_ref@123@@Z@QEBA?AV45@0@Z 000000018000e340 f i handles.obj
 0001:0000d470       ??$copy_str@_WPEBDV?$back_insert_iterator@V?$buffer@_W@detail@v8@fmt@@@std@@@detail@v8@fmt@@YA?AV?$back_insert_iterator@V?$buffer@_W@detail@v8@fmt@@@std@@PEBD0V34@@Z 000000018000e470 f i handles.obj
 0001:0000d4f0       ??$do_write_float@V?$back_insert_iterator@V?$buffer@_W@detail@v8@fmt@@@std@@U?$decimal_fp@M@dragonbox@detail@v8@fmt@@_WV?$digit_grouping@_W@567@@detail@v8@fmt@@YA?AV?$back_insert_iterator@V?$buffer@_W@detail@v8@fmt@@@std@@V34@AEBU?$decimal_fp@M@dragonbox@012@AEBU?$basic_format_specs@_W@12@Ufloat_specs@012@Vlocale_ref@012@@Z 000000018000e4f0 f i handles.obj
 0001:0000dc80       ??$do_write_float@V?$back_insert_iterator@V?$buffer@_W@detail@v8@fmt@@@std@@U?$decimal_fp@N@dragonbox@detail@v8@fmt@@_WV?$digit_grouping@_W@567@@detail@v8@fmt@@YA?AV?$back_insert_iterator@V?$buffer@_W@detail@v8@fmt@@@std@@V34@AEBU?$decimal_fp@N@dragonbox@012@AEBU?$basic_format_specs@_W@12@Ufloat_specs@012@Vlocale_ref@012@@Z 000000018000ec80 f i handles.obj
 0001:0000e420       ??$format_uint@$03_WV?$back_insert_iterator@V?$buffer@_W@detail@v8@fmt@@@std@@_K@detail@v8@fmt@@YA?AV?$back_insert_iterator@V?$buffer@_W@detail@v8@fmt@@@std@@V34@_KH_N@Z 000000018000f420 f i handles.obj
 0001:0000e580       ??$visit_format_arg@V?$width_checker@Uerror_handler@detail@v8@fmt@@@detail@v8@fmt@@V?$basic_format_context@V?$back_insert_iterator@V?$buffer@_W@detail@v8@fmt@@@std@@_W@34@@v8@fmt@@YA_K$$QEAV?$width_checker@Uerror_handler@detail@v8@fmt@@@detail@01@AEBV?$basic_format_arg@V?$basic_format_context@V?$back_insert_iterator@V?$buffer@_W@detail@v8@fmt@@@std@@_W@v8@fmt@@@01@@Z 000000018000f580 f i handles.obj
 0001:0000e810       ??$visit_format_arg@V?$precision_checker@Uerror_handler@detail@v8@fmt@@@detail@v8@fmt@@V?$basic_format_context@V?$back_insert_iterator@V?$buffer@_W@detail@v8@fmt@@@std@@_W@34@@v8@fmt@@YA_K$$QEAV?$precision_checker@Uerror_handler@detail@v8@fmt@@@detail@01@AEBV?$basic_format_arg@V?$basic_format_context@V?$back_insert_iterator@V?$buffer@_W@detail@v8@fmt@@@std@@_W@v8@fmt@@@01@@Z 000000018000f810 f i handles.obj
 0001:0000eaa0       ??$write_int@_WV?$back_insert_iterator@V?$buffer@_W@detail@v8@fmt@@@std@@_K@detail@v8@fmt@@YA?AV?$back_insert_iterator@V?$buffer@_W@detail@v8@fmt@@@std@@V34@U?$write_int_arg@_K@012@AEBU?$basic_format_specs@_W@12@Vlocale_ref@012@@Z 000000018000faa0 f i handles.obj
 0001:0000f0c0       ??R<lambda_3>@?M@???$write_int@_WV?$back_insert_iterator@V?$buffer@_W@detail@v8@fmt@@@std@@_K@detail@v8@fmt@@YA?AV?$back_insert_iterator@V?$buffer@_W@detail@v8@fmt@@@std@@V45@U?$write_int_arg@_K@123@AEBU?$basic_format_specs@_W@23@Vlocale_ref@123@@Z@QEBA?AV45@0@Z 00000001800100c0 f i handles.obj
 0001:0000f1e0       ??R<lambda_4>@?P@???$write_int@_WV?$back_insert_iterator@V?$buffer@_W@detail@v8@fmt@@@std@@_K@detail@v8@fmt@@YA?AV?$back_insert_iterator@V?$buffer@_W@detail@v8@fmt@@@std@@V45@U?$write_int_arg@_K@123@AEBU?$basic_format_specs@_W@23@Vlocale_ref@123@@Z@QEBA?AV45@0@Z 00000001800101e0 f i handles.obj
 0001:0000f310       ??$do_write_float@V?$back_insert_iterator@V?$buffer@_W@detail@v8@fmt@@@std@@Ubig_decimal_fp@detail@v8@fmt@@_WV?$digit_grouping@_W@456@@detail@v8@fmt@@YA?AV?$back_insert_iterator@V?$buffer@_W@detail@v8@fmt@@@std@@V34@AEBUbig_decimal_fp@012@AEBU?$basic_format_specs@_W@12@Ufloat_specs@012@Vlocale_ref@012@@Z 0000000180010310 f i handles.obj
 0001:0000fa20       ?count_separators@?$digit_grouping@_W@detail@v8@fmt@@QEBAHH@Z 0000000180010a20 f i handles.obj
 0001:0000fab0       ??0?$digit_grouping@_W@detail@v8@fmt@@QEAA@Vlocale_ref@123@_N@Z 0000000180010ab0 f i handles.obj
 0001:0000fc70       ??$fill@V?$back_insert_iterator@V?$buffer@_W@detail@v8@fmt@@@std@@_W@detail@v8@fmt@@YA?AV?$back_insert_iterator@V?$buffer@_W@detail@v8@fmt@@@std@@V34@_KAEBU?$fill_t@_W@012@@Z 0000000180010c70 f i handles.obj
 0001:0000fd30       ??$write_int_localized@V?$back_insert_iterator@V?$buffer@_W@detail@v8@fmt@@@std@@_K_W@detail@v8@fmt@@YA_NAEAV?$back_insert_iterator@V?$buffer@_W@detail@v8@fmt@@@std@@_KIAEBU?$basic_format_specs@_W@12@Vlocale_ref@012@@Z 0000000180010d30 f i handles.obj
 0001:0000ff70       ??$write_padded@$00V?$back_insert_iterator@V?$buffer@_W@detail@v8@fmt@@@std@@_WAEAV<lambda_1>@?1???$write_bytes@$00_WV?$back_insert_iterator@V?$buffer@_W@detail@v8@fmt@@@std@@@detail@v8@fmt@@YA?AV12@V12@V?$basic_string_view@D@56@AEBU?$basic_format_specs@_W@56@@Z@@detail@v8@fmt@@YA?AV?$back_insert_iterator@V?$buffer@_W@detail@v8@fmt@@@std@@V34@AEBU?$basic_format_specs@_W@12@_K2AEAV<lambda_1>@?1???$write_bytes@$00_WV?$back_insert_iterator@V?$buffer@_W@detail@v8@fmt@@@std@@@012@YA?AV34@0V?$basic_string_view@D@12@1@Z@@Z 0000000180010f70 f i handles.obj
 0001:000102c0       ??$write_significand@V?$back_insert_iterator@V?$buffer@_W@detail@v8@fmt@@@std@@_W@detail@v8@fmt@@YA?AV?$back_insert_iterator@V?$buffer@_W@detail@v8@fmt@@@std@@V34@PEBDHH_W@Z 00000001800112c0 f i handles.obj
 0001:00010390       ??$write_significand@V?$back_insert_iterator@V?$buffer@_W@detail@v8@fmt@@@std@@I_W$0A@@detail@v8@fmt@@YA?AV?$back_insert_iterator@V?$buffer@_W@detail@v8@fmt@@@std@@V34@IHH_W@Z 0000000180011390 f i handles.obj
 0001:00010440       ??$write_exponent@_WV?$back_insert_iterator@V?$buffer@_W@detail@v8@fmt@@@std@@@detail@v8@fmt@@YA?AV?$back_insert_iterator@V?$buffer@_W@detail@v8@fmt@@@std@@HV34@@Z 0000000180011440 f i handles.obj
 0001:00010590       ??$write_significand@_WV?$back_insert_iterator@V?$buffer@_W@detail@v8@fmt@@@std@@IV?$digit_grouping@_W@detail@v8@fmt@@@detail@v8@fmt@@YA?AV?$back_insert_iterator@V?$buffer@_W@detail@v8@fmt@@@std@@V34@IHHAEBV?$digit_grouping@_W@012@@Z 0000000180011590 f i handles.obj
 0001:00010750       ??$write_significand@V?$back_insert_iterator@V?$buffer@_W@detail@v8@fmt@@@std@@_WIV?$digit_grouping@_W@detail@v8@fmt@@@detail@v8@fmt@@YA?AV?$back_insert_iterator@V?$buffer@_W@detail@v8@fmt@@@std@@V34@IHH_WAEBV?$digit_grouping@_W@012@@Z 0000000180011750 f i handles.obj
 0001:00010930       ??$write_significand@V?$back_insert_iterator@V?$buffer@_W@detail@v8@fmt@@@std@@_K_W$0A@@detail@v8@fmt@@YA?AV?$back_insert_iterator@V?$buffer@_W@detail@v8@fmt@@@std@@V34@_KHH_W@Z 0000000180011930 f i handles.obj
 0001:000109e0       ??$write_significand@_WV?$back_insert_iterator@V?$buffer@_W@detail@v8@fmt@@@std@@_KV?$digit_grouping@_W@detail@v8@fmt@@@detail@v8@fmt@@YA?AV?$back_insert_iterator@V?$buffer@_W@detail@v8@fmt@@@std@@V34@_KHHAEBV?$digit_grouping@_W@012@@Z 00000001800119e0 f i handles.obj
 0001:00010ba0       ??$write_significand@V?$back_insert_iterator@V?$buffer@_W@detail@v8@fmt@@@std@@_W_KV?$digit_grouping@_W@detail@v8@fmt@@@detail@v8@fmt@@YA?AV?$back_insert_iterator@V?$buffer@_W@detail@v8@fmt@@@std@@V34@_KHH_WAEBV?$digit_grouping@_W@012@@Z 0000000180011ba0 f i handles.obj
 0001:00010f40       ??$write_padded@$01V?$back_insert_iterator@V?$buffer@_W@detail@v8@fmt@@@std@@_WAEAV<lambda_1>@?1???$write_bytes@$01_WV?$back_insert_iterator@V?$buffer@_W@detail@v8@fmt@@@std@@@detail@v8@fmt@@YA?AV12@V12@V?$basic_string_view@D@56@AEBU?$basic_format_specs@_W@56@@Z@@detail@v8@fmt@@YA?AV?$back_insert_iterator@V?$buffer@_W@detail@v8@fmt@@@std@@V34@AEBU?$basic_format_specs@_W@12@_K2AEAV<lambda_1>@?1???$write_bytes@$01_WV?$back_insert_iterator@V?$buffer@_W@detail@v8@fmt@@@std@@@012@YA?AV34@0V?$basic_string_view@D@12@1@Z@@Z 0000000180011f40 f i handles.obj
 0001:000110d0       ??$write_significand@_WV?$back_insert_iterator@V?$buffer@_W@detail@v8@fmt@@@std@@PEBDV?$digit_grouping@_W@detail@v8@fmt@@@detail@v8@fmt@@YA?AV?$back_insert_iterator@V?$buffer@_W@detail@v8@fmt@@@std@@V34@PEBDHHAEBV?$digit_grouping@_W@012@@Z 00000001800120d0 f i handles.obj
 0001:000112d0       ??$write_significand@V?$back_insert_iterator@V?$buffer@_W@detail@v8@fmt@@@std@@_WPEBDV?$digit_grouping@_W@detail@v8@fmt@@@detail@v8@fmt@@YA?AV?$back_insert_iterator@V?$buffer@_W@detail@v8@fmt@@@std@@V34@PEBDHH_WAEBV?$digit_grouping@_W@012@@Z 00000001800122d0 f i handles.obj
 0001:00011430       ??$write_significand@_WI$0A@@detail@v8@fmt@@YAPEA_WPEA_WIHH_W@Z 0000000180012430 f i handles.obj
 0001:00011600       ??$write_significand@_W_K$0A@@detail@v8@fmt@@YAPEA_WPEA_W_KHH_W@Z 0000000180012600 f i handles.obj
 0001:000117a0       ??$fill_n@V?$back_insert_iterator@V?$buffer@_W@detail@v8@fmt@@@std@@_K_W@detail@v8@fmt@@YA?AV?$back_insert_iterator@V?$buffer@_W@detail@v8@fmt@@@std@@V34@_KAEB_W@Z 00000001800127a0 f i handles.obj
 0001:00011820       ??$apply@V?$back_insert_iterator@V?$buffer@_W@detail@v8@fmt@@@std@@D@?$digit_grouping@_W@detail@v8@fmt@@QEBA?AV?$back_insert_iterator@V?$buffer@_W@detail@v8@fmt@@@std@@V45@V?$basic_string_view@D@23@@Z 0000000180012820 f i handles.obj
 0001:00011df0       ??$apply@V?$back_insert_iterator@V?$buffer@_W@detail@v8@fmt@@@std@@_W@?$digit_grouping@_W@detail@v8@fmt@@QEBA?AV?$back_insert_iterator@V?$buffer@_W@detail@v8@fmt@@@std@@V45@V?$basic_string_view@_W@23@@Z 0000000180012df0 f i handles.obj
 0001:00013540       ??$write_padded@$01V?$back_insert_iterator@V?$buffer@_W@detail@v8@fmt@@@std@@_WAEAV<lambda_1>@?1???$write_int@V?$back_insert_iterator@V?$buffer@_W@detail@v8@fmt@@@std@@_WV<lambda_1>@?4???$write_int@_WV?$back_insert_iterator@V?$buffer@_W@detail@v8@fmt@@@std@@I@detail@v8@fmt@@YA?AV12@V12@U?$write_int_arg@I@456@AEBU?$basic_format_specs@_W@56@Vlocale_ref@456@@Z@@detail@v8@fmt@@YA?AV12@V12@HIAEBU?$basic_format_specs@_W@56@V3?4???$write_int@_WV?$back_insert_iterator@V?$buffer@_W@detail@v8@fmt@@@std@@I@456@YA?AV12@0U?$write_int_arg@I@456@1Vlocale_ref@456@@Z@@Z@@detail@v8@fmt@@YA?AV?$back_insert_iterator@V?$buffer@_W@detail@v8@fmt@@@std@@V34@AEBU?$basic_format_specs@_W@12@_K2AEAV<lambda_1>@?1???$write_int@V?$back_insert_iterator@V?$buffer@_W@detail@v8@fmt@@@std@@_WV<lambda_1>@?4???$write_int@_WV?$back_insert_iterator@V?$buffer@_W@detail@v8@fmt@@@std@@I@detail@v8@fmt@@YA?AV12@V12@U?$write_int_arg@I@456@AEBU?$basic_format_specs@_W@56@Vlocale_ref@456@@Z@@012@YA?AV34@0HI1V6?4???$write_int@_WV?$back_insert_iterator@V?$buffer@_W@detail@v8@fmt@@@std@@I@012@YA?AV34@0U?$write_int_arg@I@012@1Vlocale_ref@012@@Z@@Z@@Z 0000000180014540 f i handles.obj
 0001:00013720       ??$write_padded@$01V?$back_insert_iterator@V?$buffer@_W@detail@v8@fmt@@@std@@_WAEAV<lambda_1>@?1???$write_int@V?$back_insert_iterator@V?$buffer@_W@detail@v8@fmt@@@std@@_WV<lambda_2>@?8???$write_int@_WV?$back_insert_iterator@V?$buffer@_W@detail@v8@fmt@@@std@@I@detail@v8@fmt@@YA?AV12@V12@U?$write_int_arg@I@456@AEBU?$basic_format_specs@_W@56@Vlocale_ref@456@@Z@@detail@v8@fmt@@YA?AV12@V12@HIAEBU?$basic_format_specs@_W@56@V<lambda_2>@?8???$write_int@_WV?$back_insert_iterator@V?$buffer@_W@detail@v8@fmt@@@std@@I@456@YA?AV12@0U?$write_int_arg@I@456@1Vlocale_ref@456@@Z@@Z@@detail@v8@fmt@@YA?AV?$back_insert_iterator@V?$buffer@_W@detail@v8@fmt@@@std@@V34@AEBU?$basic_format_specs@_W@12@_K2AEAV<lambda_1>@?1???$write_int@V?$back_insert_iterator@V?$buffer@_W@detail@v8@fmt@@@std@@_WV<lambda_2>@?8???$write_int@_WV?$back_insert_iterator@V?$buffer@_W@detail@v8@fmt@@@std@@I@detail@v8@fmt@@YA?AV12@V12@U?$write_int_arg@I@456@AEBU?$basic_format_specs@_W@56@Vlocale_ref@456@@Z@@012@YA?AV34@0HI1V<lambda_2>@?8???$write_int@_WV?$back_insert_iterator@V?$buffer@_W@detail@v8@fmt@@@std@@I@012@YA?AV34@0U?$write_int_arg@I@012@1Vlocale_ref@012@@Z@@Z@@Z 0000000180014720 f i handles.obj
 0001:000138f0       ??$write_padded@$01V?$back_insert_iterator@V?$buffer@_W@detail@v8@fmt@@@std@@_WAEAV<lambda_1>@?1???$write_int@V?$back_insert_iterator@V?$buffer@_W@detail@v8@fmt@@@std@@_WV<lambda_3>@?M@???$write_int@_WV?$back_insert_iterator@V?$buffer@_W@detail@v8@fmt@@@std@@I@detail@v8@fmt@@YA?AV12@V12@U?$write_int_arg@I@456@AEBU?$basic_format_specs@_W@56@Vlocale_ref@456@@Z@@detail@v8@fmt@@YA?AV12@V12@HIAEBU?$basic_format_specs@_W@56@V<lambda_3>@?M@???$write_int@_WV?$back_insert_iterator@V?$buffer@_W@detail@v8@fmt@@@std@@I@456@YA?AV12@0U?$write_int_arg@I@456@1Vlocale_ref@456@@Z@@Z@@detail@v8@fmt@@YA?AV?$back_insert_iterator@V?$buffer@_W@detail@v8@fmt@@@std@@V34@AEBU?$basic_format_specs@_W@12@_K2AEAV<lambda_1>@?1???$write_int@V?$back_insert_iterator@V?$buffer@_W@detail@v8@fmt@@@std@@_WV<lambda_3>@?M@???$write_int@_WV?$back_insert_iterator@V?$buffer@_W@detail@v8@fmt@@@std@@I@detail@v8@fmt@@YA?AV12@V12@U?$write_int_arg@I@456@AEBU?$basic_format_specs@_W@56@Vlocale_ref@456@@Z@@012@YA?AV34@0HI1V<lambda_3>@?M@???$write_int@_WV?$back_insert_iterator@V?$buffer@_W@detail@v8@fmt@@@std@@I@012@YA?AV34@0U?$write_int_arg@I@012@1Vlocale_ref@012@@Z@@Z@@Z 00000001800148f0 f i handles.obj
 0001:00013ac0       ??$write_padded@$01V?$back_insert_iterator@V?$buffer@_W@detail@v8@fmt@@@std@@_WAEAV<lambda_1>@?1???$write_int@V?$back_insert_iterator@V?$buffer@_W@detail@v8@fmt@@@std@@_WV<lambda_4>@?P@???$write_int@_WV?$back_insert_iterator@V?$buffer@_W@detail@v8@fmt@@@std@@I@detail@v8@fmt@@YA?AV12@V12@U?$write_int_arg@I@456@AEBU?$basic_format_specs@_W@56@Vlocale_ref@456@@Z@@detail@v8@fmt@@YA?AV12@V12@HIAEBU?$basic_format_specs@_W@56@V<lambda_4>@?P@???$write_int@_WV?$back_insert_iterator@V?$buffer@_W@detail@v8@fmt@@@std@@I@456@YA?AV12@0U?$write_int_arg@I@456@1Vlocale_ref@456@@Z@@Z@@detail@v8@fmt@@YA?AV?$back_insert_iterator@V?$buffer@_W@detail@v8@fmt@@@std@@V34@AEBU?$basic_format_specs@_W@12@_K2AEAV<lambda_1>@?1???$write_int@V?$back_insert_iterator@V?$buffer@_W@detail@v8@fmt@@@std@@_WV<lambda_4>@?P@???$write_int@_WV?$back_insert_iterator@V?$buffer@_W@detail@v8@fmt@@@std@@I@detail@v8@fmt@@YA?AV12@V12@U?$write_int_arg@I@456@AEBU?$basic_format_specs@_W@56@Vlocale_ref@456@@Z@@012@YA?AV34@0HI1V<lambda_4>@?P@???$write_int@_WV?$back_insert_iterator@V?$buffer@_W@detail@v8@fmt@@@std@@I@012@YA?AV34@0U?$write_int_arg@I@012@1Vlocale_ref@012@@Z@@Z@@Z 0000000180014ac0 f i handles.obj
 0001:00013c90       ??$write_padded@$01V?$back_insert_iterator@V?$buffer@_W@detail@v8@fmt@@@std@@_WAEAV<lambda_1>@?1???$write_int@V?$back_insert_iterator@V?$buffer@_W@detail@v8@fmt@@@std@@_WV<lambda_1>@?4???$write_int@_WV?$back_insert_iterator@V?$buffer@_W@detail@v8@fmt@@@std@@_K@detail@v8@fmt@@YA?AV12@V12@U?$write_int_arg@_K@456@AEBU?$basic_format_specs@_W@56@Vlocale_ref@456@@Z@@detail@v8@fmt@@YA?AV12@V12@HIAEBU?$basic_format_specs@_W@56@V3?4???$write_int@_WV?$back_insert_iterator@V?$buffer@_W@detail@v8@fmt@@@std@@_K@456@YA?AV12@0U?$write_int_arg@_K@456@1Vlocale_ref@456@@Z@@Z@@detail@v8@fmt@@YA?AV?$back_insert_iterator@V?$buffer@_W@detail@v8@fmt@@@std@@V34@AEBU?$basic_format_specs@_W@12@_K2AEAV<lambda_1>@?1???$write_int@V?$back_insert_iterator@V?$buffer@_W@detail@v8@fmt@@@std@@_WV<lambda_1>@?4???$write_int@_WV?$back_insert_iterator@V?$buffer@_W@detail@v8@fmt@@@std@@_K@detail@v8@fmt@@YA?AV12@V12@U?$write_int_arg@_K@456@AEBU?$basic_format_specs@_W@56@Vlocale_ref@456@@Z@@012@YA?AV34@0HI1V6?4???$write_int@_WV?$back_insert_iterator@V?$buffer@_W@detail@v8@fmt@@@std@@_K@012@YA?AV34@0U?$write_int_arg@_K@012@1Vlocale_ref@012@@Z@@Z@@Z 0000000180014c90 f i handles.obj
 0001:00013e70       ??$write_padded@$01V?$back_insert_iterator@V?$buffer@_W@detail@v8@fmt@@@std@@_WAEAV<lambda_1>@?1???$write_int@V?$back_insert_iterator@V?$buffer@_W@detail@v8@fmt@@@std@@_WV<lambda_2>@?8???$write_int@_WV?$back_insert_iterator@V?$buffer@_W@detail@v8@fmt@@@std@@_K@detail@v8@fmt@@YA?AV12@V12@U?$write_int_arg@_K@456@AEBU?$basic_format_specs@_W@56@Vlocale_ref@456@@Z@@detail@v8@fmt@@YA?AV12@V12@HIAEBU?$basic_format_specs@_W@56@V<lambda_2>@?8???$write_int@_WV?$back_insert_iterator@V?$buffer@_W@detail@v8@fmt@@@std@@_K@456@YA?AV12@0U?$write_int_arg@_K@456@1Vlocale_ref@456@@Z@@Z@@detail@v8@fmt@@YA?AV?$back_insert_iterator@V?$buffer@_W@detail@v8@fmt@@@std@@V34@AEBU?$basic_format_specs@_W@12@_K2AEAV<lambda_1>@?1???$write_int@V?$back_insert_iterator@V?$buffer@_W@detail@v8@fmt@@@std@@_WV<lambda_2>@?8???$write_int@_WV?$back_insert_iterator@V?$buffer@_W@detail@v8@fmt@@@std@@_K@detail@v8@fmt@@YA?AV12@V12@U?$write_int_arg@_K@456@AEBU?$basic_format_specs@_W@56@Vlocale_ref@456@@Z@@012@YA?AV34@0HI1V<lambda_2>@?8???$write_int@_WV?$back_insert_iterator@V?$buffer@_W@detail@v8@fmt@@@std@@_K@012@YA?AV34@0U?$write_int_arg@_K@012@1Vlocale_ref@012@@Z@@Z@@Z 0000000180014e70 f i handles.obj
 0001:00014060       ??$write_padded@$01V?$back_insert_iterator@V?$buffer@_W@detail@v8@fmt@@@std@@_WAEAV<lambda_1>@?1???$write_int@V?$back_insert_iterator@V?$buffer@_W@detail@v8@fmt@@@std@@_WV<lambda_3>@?M@???$write_int@_WV?$back_insert_iterator@V?$buffer@_W@detail@v8@fmt@@@std@@_K@detail@v8@fmt@@YA?AV12@V12@U?$write_int_arg@_K@456@AEBU?$basic_format_specs@_W@56@Vlocale_ref@456@@Z@@detail@v8@fmt@@YA?AV12@V12@HIAEBU?$basic_format_specs@_W@56@V<lambda_3>@?M@???$write_int@_WV?$back_insert_iterator@V?$buffer@_W@detail@v8@fmt@@@std@@_K@456@YA?AV12@0U?$write_int_arg@_K@456@1Vlocale_ref@456@@Z@@Z@@detail@v8@fmt@@YA?AV?$back_insert_iterator@V?$buffer@_W@detail@v8@fmt@@@std@@V34@AEBU?$basic_format_specs@_W@12@_K2AEAV<lambda_1>@?1???$write_int@V?$back_insert_iterator@V?$buffer@_W@detail@v8@fmt@@@std@@_WV<lambda_3>@?M@???$write_int@_WV?$back_insert_iterator@V?$buffer@_W@detail@v8@fmt@@@std@@_K@detail@v8@fmt@@YA?AV12@V12@U?$write_int_arg@_K@456@AEBU?$basic_format_specs@_W@56@Vlocale_ref@456@@Z@@012@YA?AV34@0HI1V<lambda_3>@?M@???$write_int@_WV?$back_insert_iterator@V?$buffer@_W@detail@v8@fmt@@@std@@_K@012@YA?AV34@0U?$write_int_arg@_K@012@1Vlocale_ref@012@@Z@@Z@@Z 0000000180015060 f i handles.obj
 0001:00014230       ??$write_padded@$01V?$back_insert_iterator@V?$buffer@_W@detail@v8@fmt@@@std@@_WAEAV<lambda_1>@?1???$write_int@V?$back_insert_iterator@V?$buffer@_W@detail@v8@fmt@@@std@@_WV<lambda_4>@?P@???$write_int@_WV?$back_insert_iterator@V?$buffer@_W@detail@v8@fmt@@@std@@_K@detail@v8@fmt@@YA?AV12@V12@U?$write_int_arg@_K@456@AEBU?$basic_format_specs@_W@56@Vlocale_ref@456@@Z@@detail@v8@fmt@@YA?AV12@V12@HIAEBU?$basic_format_specs@_W@56@V<lambda_4>@?P@???$write_int@_WV?$back_insert_iterator@V?$buffer@_W@detail@v8@fmt@@@std@@_K@456@YA?AV12@0U?$write_int_arg@_K@456@1Vlocale_ref@456@@Z@@Z@@detail@v8@fmt@@YA?AV?$back_insert_iterator@V?$buffer@_W@detail@v8@fmt@@@std@@V34@AEBU?$basic_format_specs@_W@12@_K2AEAV<lambda_1>@?1???$write_int@V?$back_insert_iterator@V?$buffer@_W@detail@v8@fmt@@@std@@_WV<lambda_4>@?P@???$write_int@_WV?$back_insert_iterator@V?$buffer@_W@detail@v8@fmt@@@std@@_K@detail@v8@fmt@@YA?AV12@V12@U?$write_int_arg@_K@456@AEBU?$basic_format_specs@_W@56@Vlocale_ref@456@@Z@@012@YA?AV34@0HI1V<lambda_4>@?P@???$write_int@_WV?$back_insert_iterator@V?$buffer@_W@detail@v8@fmt@@@std@@_K@012@YA?AV34@0U?$write_int_arg@_K@012@1Vlocale_ref@012@@Z@@Z@@Z 0000000180015230 f i handles.obj
 0001:00014400       ??1PluginSettings@@QEAA@XZ 0000000180015400 f i Pcfg.obj
 0001:00014420       ?SaveValue@PluginCheckBoxBinding@@UEAAXPEBUFarDialogItem@@H@Z 0000000180015420 f i Pcfg.obj
 0001:00014480       ??_GPluginCheckBoxBinding@@UEAAPEAXI@Z 0000000180015480 f i Pcfg.obj
 0001:00014480       ??_GPluginEditFieldBinding@@UEAAPEAXI@Z 0000000180015480 f i Pclass.obj
 0001:00014480       ??_EPluginCheckBoxBinding@@UEAAPEAXI@Z 0000000180015480 f i * CIL library *:* CIL module *
 0001:00014480       ??_EPluginEditFieldBinding@@UEAAPEAXI@Z 0000000180015480 f i * CIL library *:* CIL module *
 0001:000144b0       ??0PluginDialogBuilder@@QEAA@AEBUPluginStartupInfo@@AEBU_GUID@@1HPEB_WP6A_JPEAX_J43@Z3_K@Z 00000001800154b0 f i Pcfg.obj
 0001:00014570       ??1PluginDialogBuilder@@QEAA@XZ 0000000180015570 f i Pcfg.obj
 0001:000145f0       ?AddText@PluginDialogBuilder@@QEAAPEAUFarDialogItem@@H@Z 00000001800155f0 f i Pcfg.obj
 0001:00014640       ?AddCheckbox@PluginDialogBuilder@@QEAAPEAUFarDialogItem@@HPEAHH_N@Z 0000000180015640 f i Pcfg.obj
 0001:00014720       ?AddOKCancel@PluginDialogBuilder@@QEAAXHHH_N@Z 0000000180015720 f i Pcfg.obj
 0001:000147b0       ?AddButtons@PluginDialogBuilder@@QEAAXHPEBHHH@Z 00000001800157b0 f i Pcfg.obj
 0001:00014ad0       ?ShowDialogEx@PluginDialogBuilder@@QEAA_JXZ 0000000180015ad0 f i Pcfg.obj
 0001:00014e20       ?AddDialogItem@PluginDialogBuilder@@AEAAPEAUFarDialogItem@@W4FARDIALOGITEMTYPES@@PEB_W@Z 0000000180015e20 f i Pcfg.obj
 0001:00014fd0       ?ItemWidth@PluginDialogBuilder@@CA_JAEBUFarDialogItem@@@Z 0000000180015fd0 f i Pcfg.obj
 0001:00015060       ?Config@@YAHXZ             0000000180016060 f   Pcfg.obj
 0001:000158d0       ?Write@options@@QEBAXXZ    00000001800168d0 f   Pcfg.obj
 0001:00015b60       ?Read@options@@QEAAXXZ     0000000180016b60 f   Pcfg.obj
 0001:00015e80       ?SmartReread@PerfThread@@QEAAXXZ 0000000180016e80 f i Pclass.obj
 0001:00015ed0       ?SaveValue@PluginEditFieldBinding@@UEAAXPEBUFarDialogItem@@H@Z 0000000180016ed0 f i Pclass.obj
 0001:00015f10       ?AddEditField@PluginDialogBuilder@@QEAAPEAUFarDialogItem@@PEA_WHHPEB_W_N@Z 0000000180016f10 f i Pclass.obj
 0001:00016690       ??0Plist@@QEAA@XZ          0000000180017690 f   Pclass.obj
 0001:000171e0       ?InitializePanelModes@Plist@@SAXXZ 00000001800181e0 f   Pclass.obj
 0001:00018720       ?SavePanelModes@Plist@@SAXXZ 0000000180019720 f   Pclass.obj
 0001:00018d40       ??1StrTok@@QEAA@XZ         0000000180019d40 f i Pclass.obj
 0001:00018d50       ?PanelModes@Plist@@QEAAPEAUPanelMode@@AEA_K@Z 0000000180019d50 f   Pclass.obj
 0001:00018f90       ?GetOpenPanelInfo@Plist@@QEAAXPEAUOpenPanelInfo@@@Z 0000000180019f90 f   Pclass.obj
 0001:000193f0       ?GetFindData@Plist@@QEAAHAEAPEAUPluginPanelItem@@AEA_K_K@Z 000000018001a3f0 f   Pclass.obj
 0001:0001a200       ??1?$unordered_map@KPEAUHWND__@@U?$hash@K@std@@U?$equal_to@K@3@V?$allocator@U?$pair@$$CBKPEAUHWND__@@@std@@@3@@std@@QEAA@XZ 000000018001b200 f i Pclass.obj
 0001:0001a210       ??1?$_Hash@V?$_Umap_traits@KPEAUHWND__@@V?$_Uhash_compare@KU?$hash@K@std@@U?$equal_to@K@2@@std@@V?$allocator@U?$pair@$$CBKPEAUHWND__@@@std@@@3@$0A@@std@@@std@@QEAA@XZ 000000018001b210 f i Pclass.obj
 0001:0001a780       ??1?$pair@_JV?$basic_string@_WU?$char_traits@_W@std@@V?$allocator@_W@2@@std@@@std@@QEAA@XZ 000000018001b780 f i Pclass.obj
 0001:0001a780       ??1?$pair@KV?$basic_string@_WU?$char_traits@_W@std@@V?$allocator@_W@2@@std@@@std@@QEAA@XZ 000000018001b780 f i Pclass.obj
 0001:0001b270       ?GetFiles@Plist@@QEAAHPEAUPluginPanelItem@@_KHPEAPEB_W1AEAUoptions@@@Z 000000018001c270 f   Pclass.obj
 0001:0001d9d0       ??1ProcessData@@QEAA@XZ    000000018001e9d0 f i Pclass.obj
 0001:0001da90       ?DeleteFiles@Plist@@QEAAHPEAUPluginPanelItem@@_K1@Z 000000018001ea90 f   Pclass.obj
 0001:0001e1e0       ?Reread@Plist@@AEAAXXZ     000000018001f1e0 f   Pclass.obj
 0001:0001e2b0       ?Connect@Plist@@QEAA_NPEB_W00@Z 000000018001f2b0 f   Pclass.obj
 0001:0001e600       ?ProcessKey@Plist@@QEAAHPEBU_INPUT_RECORD@@@Z 000000018001f600 f   Pclass.obj
 0001:00020550       ?DurationToText@@YA?AV?$basic_string@_WU?$char_traits@_W@std@@V?$allocator@_W@2@@std@@_K@Z 0000000180021550 f   Pclass.obj
 0001:00020700       ?GetVersionInfo@Plist@@SA_NPEB_WAEAV?$unique_ptr@$$BY0A@DU?$default_delete@$$BY0A@D@std@@@std@@AEAPEB_W2@Z 0000000180021700 f   Pclass.obj
 0001:00020be0       ?PrintVersionInfo@Plist@@CAXPEAXPEB_W@Z 0000000180021be0 f   Pclass.obj
 0001:00020f80       ?ConnectWMI@Plist@@AEAA_NXZ 0000000180021f80 f   Pclass.obj
 0001:00021080       ?PrintOwnerInfo@Plist@@AEAAXPEAXK@Z 0000000180022080 f   Pclass.obj
 0001:000216e0       ?Compare@Plist@@QEBAHPEBUPluginPanelItem@@0I@Z 00000001800226e0 f   Pclass.obj
 0001:00021870       ??1?$vector@_KV?$allocator@_K@std@@@std@@QEAA@XZ 0000000180022870 f i Pclass.obj
 0001:00021870       ??1?$vector@PEAUHINSTANCE__@@V?$allocator@PEAUHINSTANCE__@@@std@@@std@@QEAA@XZ 0000000180022870 f i Plist.obj
 0001:000218d0       ??1?$vector@UFarMenuItem@@V?$allocator@UFarMenuItem@@@std@@@std@@QEAA@XZ 00000001800228d0 f i Pclass.obj
 0001:00021950       ??1?$vector@V?$basic_string@_WU?$char_traits@_W@std@@V?$allocator@_W@2@@std@@V?$allocator@V?$basic_string@_WU?$char_traits@_W@std@@V?$allocator@_W@2@@std@@@2@@std@@QEAA@XZ 0000000180022950 f i Pclass.obj
 0001:00021960       ??1?$_Hash_vec@V?$allocator@V?$_List_unchecked_iterator@V?$_List_val@U?$_List_simple_types@U?$pair@$$CBKPEAUHWND__@@@std@@@std@@@std@@@std@@@std@@@std@@QEAA@XZ 0000000180022960 f i Pclass.obj
 0001:00021960       ??1?$_Hash_vec@V?$allocator@V?$_List_unchecked_iterator@V?$_List_val@U?$_List_simple_types@U?$pair@$$CBKUProcessPerfData@@@std@@@std@@@std@@@std@@@std@@@std@@QEAA@XZ 0000000180022960 f i perfthread.obj
 0001:000219c0       ??1?$list@U?$pair@$$CBKPEAUHWND__@@@std@@V?$allocator@U?$pair@$$CBKPEAUHWND__@@@std@@@2@@std@@QEAA@XZ 00000001800229c0 f i Pclass.obj
 0001:00021a20       ??1?$scoped_lock@Vrefresh_lock@Plist@@@std@@QEAA@XZ 0000000180022a20 f i Pclass.obj
 0001:00021a30       ??1?$unique_ptr@VWMIConnection@@U?$default_delete@VWMIConnection@@@std@@@std@@QEAA@XZ 0000000180022a30 f i Pclass.obj
 0001:00021a60       ??1?$unique_ptr@VPerfThread@@U?$default_delete@VPerfThread@@@std@@@std@@QEAA@XZ 0000000180022a60 f i Pclass.obj
 0001:00021a90       ??4?$unique_ptr@VPerfThread@@U?$default_delete@VPerfThread@@@std@@@std@@QEAAAEAV01@$$QEAV01@@Z 0000000180022a90 f i Pclass.obj
 0001:00021af0       ??4?$unique_ptr@VPerfThread@@U?$default_delete@VPerfThread@@@std@@@std@@QEAAAEAV01@$$T@Z 0000000180022af0 f i Pclass.obj
 0001:00021b30       ?append@?$basic_string@_WU?$char_traits@_W@std@@V?$allocator@_W@2@@std@@QEAAAEAV12@_K_W@Z 0000000180022b30 f i Pclass.obj
 0001:00021cb0       ??4?$basic_string@_WU?$char_traits@_W@std@@V?$allocator@_W@2@@std@@QEAAAEAV01@$$QEAV01@@Z 0000000180022cb0 f i Pclass.obj
 0001:00021d50       ?_Xlength@?$vector@UFarMenuItem@@V?$allocator@UFarMenuItem@@@std@@@std@@CAXXZ 0000000180022d50 f i Pclass.obj
 0001:00021d50       ?_Xlength@?$vector@Umode@@V?$allocator@Umode@@@std@@@std@@CAXXZ 0000000180022d50 f i Pclass.obj
 0001:00021d50       ?_Xlength@?$vector@_KV?$allocator@_K@std@@@std@@CAXXZ 0000000180022d50 f i Pclass.obj
 0001:00021d50       ?_Xlength@?$vector@PEB_WV?$allocator@PEB_W@std@@@std@@CAXXZ 0000000180022d50 f i Pclass.obj
 0001:00021d50       ?_Xlength@?$vector@PEAUHINSTANCE__@@V?$allocator@PEAUHINSTANCE__@@@std@@@std@@CAXXZ 0000000180022d50 f i Plist.obj
 0001:00021d50       ?_Xlength@?$vector@UProcessPerfData@@V?$allocator@UProcessPerfData@@@std@@@std@@CAXXZ 0000000180022d50 f i perfthread.obj
 0001:00021d50       ?_Xlength@?$vector@EV?$allocator@E@std@@@std@@CAXXZ 0000000180022d50 f i perfthread.obj
 0001:00021d50       ?_Xlength@?$vector@V?$basic_string@_WU?$char_traits@_W@std@@V?$allocator@_W@2@@std@@V?$allocator@V?$basic_string@_WU?$char_traits@_W@std@@V?$allocator@_W@2@@std@@@2@@std@@CAXXZ 0000000180022d50 f i Pclass.obj
 0001:00021d70       ?_Reallocate_exactly@?$vector@_KV?$allocator@_K@std@@@std@@AEAAX_K@Z 0000000180022d70 f i Pclass.obj
 0001:00021de0       ?_Reallocate_exactly@?$vector@UFarMenuItem@@V?$allocator@UFarMenuItem@@@std@@@std@@AEAAX_K@Z 0000000180022de0 f i Pclass.obj
 0001:00021e60       ?_Tidy@?$vector@V?$basic_string@_WU?$char_traits@_W@std@@V?$allocator@_W@2@@std@@V?$allocator@V?$basic_string@_WU?$char_traits@_W@std@@V?$allocator@_W@2@@std@@@2@@std@@AEAAXXZ 0000000180022e60 f i Pclass.obj
 0001:00021ed0       ?_Reallocate_exactly@?$vector@V?$basic_string@_WU?$char_traits@_W@std@@V?$allocator@_W@2@@std@@V?$allocator@V?$basic_string@_WU?$char_traits@_W@std@@V?$allocator@_W@2@@std@@@2@@std@@AEAAX_K@Z 0000000180022ed0 f i Pclass.obj
 0001:00021fd0       ?insert@?$basic_string@_WU?$char_traits@_W@std@@V?$allocator@_W@2@@std@@QEAAAEAV12@_KQEB_W0@Z 0000000180022fd0 f i Pclass.obj
 0001:000221a0       ?_Change_array@?$vector@_KV?$allocator@_K@std@@@std@@AEAAXQEA_K_K1@Z 00000001800231a0 f i Pclass.obj
 0001:00022230       ?allocate@?$allocator@_K@std@@QEAAPEA_K_K@Z 0000000180023230 f i Pclass.obj
 0001:00022230       ?allocate@?$allocator@PEAUHINSTANCE__@@@std@@QEAAPEAPEAUHINSTANCE__@@_K@Z 0000000180023230 f i Plist.obj
 0001:000222a0       ?deallocate@?$allocator@_K@std@@QEAAXQEA_K_K@Z 00000001800232a0 f i Pclass.obj
 0001:000222f0       ?_Change_array@?$vector@UFarMenuItem@@V?$allocator@UFarMenuItem@@@std@@@std@@AEAAXQEAUFarMenuItem@@_K1@Z 00000001800232f0 f i Pclass.obj
 0001:000223a0       ?allocate@?$allocator@UFarMenuItem@@@std@@QEAAPEAUFarMenuItem@@_K@Z 00000001800233a0 f i Pclass.obj
 0001:00022410       ?deallocate@?$allocator@UFarMenuItem@@@std@@QEAAXQEAUFarMenuItem@@_K@Z 0000000180023410 f i Pclass.obj
 0001:00022460       ?_Change_array@?$vector@V?$basic_string@_WU?$char_traits@_W@std@@V?$allocator@_W@2@@std@@V?$allocator@V?$basic_string@_WU?$char_traits@_W@std@@V?$allocator@_W@2@@std@@@2@@std@@AEAAXQEAV?$basic_string@_WU?$char_traits@_W@std@@V?$allocator@_W@2@@2@_K1@Z 0000000180023460 f i Pclass.obj
 0001:00022500       ?allocate@?$allocator@V?$basic_string@_WU?$char_traits@_W@std@@V?$allocator@_W@2@@std@@@std@@QEAAPEAV?$basic_string@_WU?$char_traits@_W@std@@V?$allocator@_W@2@@2@_K@Z 0000000180023500 f i Pclass.obj
 0001:00022570       ?deallocate@?$allocator@V?$basic_string@_WU?$char_traits@_W@std@@V?$allocator@_W@2@@std@@@std@@QEAAXQEAV?$basic_string@_WU?$char_traits@_W@std@@V?$allocator@_W@2@@2@_K@Z 0000000180023570 f i Pclass.obj
 0001:000225c0       ?_Assign_grow@?$_Hash_vec@V?$allocator@V?$_List_unchecked_iterator@V?$_List_val@U?$_List_simple_types@U?$pair@$$CBKUProcessPerfData@@@std@@@std@@@std@@@std@@@std@@@std@@QEAAX_KV?$_List_unchecked_iterator@V?$_List_val@U?$_List_simple_types@U?$pair@$$CBKUProcessPerfData@@@std@@@std@@@std@@@2@@Z 00000001800235c0 f i perfthread.obj
 0001:000225c0       ?_Assign_grow@?$_Hash_vec@V?$allocator@V?$_List_unchecked_iterator@V?$_List_val@U?$_List_simple_types@U?$pair@$$CBKPEAUHWND__@@@std@@@std@@@std@@@std@@@std@@@std@@QEAAX_KV?$_List_unchecked_iterator@V?$_List_val@U?$_List_simple_types@U?$pair@$$CBKPEAUHWND__@@@std@@@std@@@std@@@2@@Z 00000001800235c0 f i Pclass.obj
 0001:000226f0       ?_Xran@?$_String_val@U?$_Simple_types@_W@std@@@std@@SAXXZ 00000001800236f0 f i Pclass.obj
 0001:00022710       ??$_Emplace_reallocate@V?$basic_string@_WU?$char_traits@_W@std@@V?$allocator@_W@2@@std@@@?$vector@V?$basic_string@_WU?$char_traits@_W@std@@V?$allocator@_W@2@@std@@V?$allocator@V?$basic_string@_WU?$char_traits@_W@std@@V?$allocator@_W@2@@std@@@2@@std@@QEAAPEAV?$basic_string@_WU?$char_traits@_W@std@@V?$allocator@_W@2@@1@QEAV21@$$QEAV21@@Z 0000000180023710 f i Pclass.obj
 0001:000228d0       ??$format@AEAV?$basic_string@_WU?$char_traits@_W@std@@V?$allocator@_W@2@@std@@AEAV12@@v8@fmt@@YA?AV?$basic_string@_WU?$char_traits@_W@std@@V?$allocator@_W@2@@std@@V?$basic_format_string@_WAEAV?$basic_string@_WU?$char_traits@_W@std@@V?$allocator@_W@2@@std@@AEAV12@@01@AEAV23@1@Z 00000001800238d0 f i Pclass.obj
 0001:00022990       ??$format@AEAV?$basic_string@_WU?$char_traits@_W@std@@V?$allocator@_W@2@@std@@AEAK@v8@fmt@@YA?AV?$basic_string@_WU?$char_traits@_W@std@@V?$allocator@_W@2@@std@@V?$basic_format_string@_WAEAV?$basic_string@_WU?$char_traits@_W@std@@V?$allocator@_W@2@@std@@AEAK@01@AEAV23@AEAK@Z 0000000180023990 f i Pclass.obj
 0001:00022a40       ??$_Emplace_reallocate@AEB_K@?$vector@_KV?$allocator@_K@std@@@std@@QEAAPEA_KQEA_KAEB_K@Z 0000000180023a40 f i Pclass.obj
 0001:00022a40       ??$_Emplace_reallocate@_K@?$vector@_KV?$allocator@_K@std@@@std@@QEAAPEA_KQEA_K$$QEA_K@Z 0000000180023a40 f i Pclass.obj
 0001:00022b40       ??$_Emplace_reallocate@UFarMenuItem@@@?$vector@UFarMenuItem@@V?$allocator@UFarMenuItem@@@std@@@std@@QEAAPEAUFarMenuItem@@QEAU2@$$QEAU2@@Z 0000000180023b40 f i Pclass.obj
 0001:00022c90       ??$_Try_emplace@AEBK$$V@?$_Hash@V?$_Umap_traits@KPEAUHWND__@@V?$_Uhash_compare@KU?$hash@K@std@@U?$equal_to@K@2@@std@@V?$allocator@U?$pair@$$CBKPEAUHWND__@@@std@@@3@$0A@@std@@@std@@IEAA?AU?$pair@PEAU?$_List_node@U?$pair@$$CBKPEAUHWND__@@@std@@PEAX@std@@_N@1@AEBK@Z 0000000180023c90 f i Pclass.obj
 0001:00022f50       ??$_Assign_range@PEBUmode@@@?$vector@Umode@@V?$allocator@Umode@@@std@@@std@@AEAAXPEBUmode@@0Uforward_iterator_tag@1@@Z 0000000180023f50 f i Pclass.obj
 0001:00023100       ??$_Reallocate_grow_by@V<lambda_1>@?1??insert@?$basic_string@_WU?$char_traits@_W@std@@V?$allocator@_W@2@@std@@QEAAAEAV34@_K0_W@Z@_K_K_W@?$basic_string@_WU?$char_traits@_W@std@@V?$allocator@_W@2@@std@@AEAAAEAV01@_KV<lambda_1>@?1??insert@01@QEAAAEAV01@00_W@Z@_K3_W@Z 0000000180024100 f i Pclass.obj
 0001:00023280       ??$_Destroy_range@V?$allocator@V?$basic_string@_WU?$char_traits@_W@std@@V?$allocator@_W@2@@std@@@std@@@std@@YAXPEAV?$basic_string@_WU?$char_traits@_W@std@@V?$allocator@_W@2@@0@QEAV10@AEAV?$allocator@V?$basic_string@_WU?$char_traits@_W@std@@V?$allocator@_W@2@@std@@@0@@Z 0000000180024280 f i Pclass.obj
 0001:00023310       ??$fill@PEAV?$_List_unchecked_iterator@V?$_List_val@U?$_List_simple_types@U?$pair@$$CBKUProcessPerfData@@@std@@@std@@@std@@@std@@V12@@std@@YAXQEAV?$_List_unchecked_iterator@V?$_List_val@U?$_List_simple_types@U?$pair@$$CBKUProcessPerfData@@@std@@@std@@@std@@@0@0AEBV10@@Z 0000000180024310 f i perfthread.obj
 0001:00023310       ??$fill@PEAV?$_List_unchecked_iterator@V?$_List_val@U?$_List_simple_types@U?$pair@$$CBKPEAUHWND__@@@std@@@std@@@std@@@std@@V12@@std@@YAXQEAV?$_List_unchecked_iterator@V?$_List_val@U?$_List_simple_types@U?$pair@$$CBKPEAUHWND__@@@std@@@std@@@std@@@0@0AEBV10@@Z 0000000180024310 f i Pclass.obj
 0001:000233a0       ??1?$_Alloc_construct_ptr@V?$allocator@U?$_List_node@U?$pair@$$CBKPEAUHWND__@@@std@@PEAX@std@@@std@@@std@@QEAA@XZ 00000001800243a0 f i Pclass.obj
 0001:000233a0       ??1?$_List_node_emplace_op2@V?$allocator@U?$_List_node@U?$pair@$$CBKPEAUHWND__@@@std@@PEAX@std@@@std@@@std@@QEAA@XZ 00000001800243a0 f i Pclass.obj
 0001:000233c0       ?_Clear_and_reserve_geometric@?$vector@Umode@@V?$allocator@Umode@@@std@@@std@@AEAAX_K@Z 00000001800243c0 f i Pclass.obj
 0001:00023550       ?_Forced_rehash@?$_Hash@V?$_Umap_traits@KUProcessPerfData@@V?$_Uhash_compare@KU?$hash@K@std@@U?$equal_to@K@2@@std@@V?$allocator@U?$pair@$$CBKUProcessPerfData@@@std@@@3@$00@std@@@std@@IEAAX_K@Z 0000000180024550 f i perfthread.obj
 0001:00023550       ?_Forced_rehash@?$_Hash@V?$_Umap_traits@KPEAUHWND__@@V?$_Uhash_compare@KU?$hash@K@std@@U?$equal_to@K@2@@std@@V?$allocator@U?$pair@$$CBKPEAUHWND__@@@std@@@3@$0A@@std@@@std@@IEAAX_K@Z 0000000180024550 f i Pclass.obj
 0001:00023710       ??$_Resize_reallocate@U_Value_init_tag@std@@@?$vector@PEB_WV?$allocator@PEB_W@std@@@std@@AEAAX_KAEBU_Value_init_tag@1@@Z 0000000180024710 f i Pclass.obj
 0001:00023870       ??$_Copy_unchecked@PEBUmode@@PEAU1@@std@@YAPEAUmode@@PEBU1@0PEAU1@@Z 0000000180024870 f i Pclass.obj
 0001:000238e0       ??4columns@@QEAAAEAU0@AEBU0@@Z 00000001800248e0 f i Pclass.obj
 0001:00023960       ??1?$_Uninitialized_backout_al@V?$allocator@Umode@@@std@@@std@@QEAA@XZ 0000000180024960 f i Pclass.obj
 0001:000239a0       ??0PerfThread@@QEAA@PEAVPlist@@PEB_W11@Z 00000001800249a0 f   perfthread.obj
 0001:00024240       ??1?$unordered_multimap@KUProcessPerfData@@U?$hash@K@std@@U?$equal_to@K@3@V?$allocator@U?$pair@$$CBKUProcessPerfData@@@std@@@3@@std@@QEAA@XZ 0000000180025240 f i perfthread.obj
 0001:000242a0       ??1PerfThread@@QEAA@XZ     00000001800252a0 f   perfthread.obj
 0001:00024540       ?GetProcessData@PerfThread@@QEAAPEAUProcessPerfData@@KK@Z 0000000180025540 f   perfthread.obj
 0001:00024670       ?Refresh@PerfThread@@AEAAXXZ 0000000180025670 f   perfthread.obj
 0001:00025e10       ??1ProcessPerfData@@QEAA@XZ 0000000180026e10 f i perfthread.obj
 0001:00025fb0       ??4ProcessPerfData@@QEAAAEAU0@AEBU0@@Z 0000000180026fb0 f i perfthread.obj
 0001:00026300       ?RefreshWMIData@PerfThread@@AEAAXXZ 0000000180027300 f   perfthread.obj
 0001:000269e0       ?ThreadProc@PerfThread@@CAKPEAX@Z 00000001800279e0 f   perfthread.obj
 0001:00026a70       ?WmiThreadProc@PerfThread@@CAKPEAX@Z 0000000180027a70 f   perfthread.obj
 0001:00026b90       ??1?$vector@UProcessPerfData@@V?$allocator@UProcessPerfData@@@std@@@std@@QEAA@XZ 0000000180027b90 f i perfthread.obj
 0001:00026c40       ??1?$vector@EV?$allocator@E@std@@@std@@QEAA@XZ 0000000180027c40 f i perfthread.obj
 0001:00026ca0       ??1?$vector@_WV?$allocator@_W@std@@@std@@QEAA@XZ 0000000180027ca0 f i perfthread.obj
 0001:00026d00       ??0?$unordered_multimap@KUProcessPerfData@@U?$hash@K@std@@U?$equal_to@K@3@V?$allocator@U?$pair@$$CBKUProcessPerfData@@@std@@@3@@std@@QEAA@XZ 0000000180027d00 f i perfthread.obj
 0001:00026d80       ??1?$list@U?$pair@$$CBKUProcessPerfData@@@std@@V?$allocator@U?$pair@$$CBKUProcessPerfData@@@std@@@2@@std@@QEAA@XZ 0000000180027d80 f i perfthread.obj
 0001:00026df0       ?_Reallocate_exactly@?$vector@UProcessPerfData@@V?$allocator@UProcessPerfData@@@std@@@std@@AEAAX_K@Z 0000000180027df0 f i perfthread.obj
 0001:00026e80       ?_Change_array@?$vector@UProcessPerfData@@V?$allocator@UProcessPerfData@@@std@@@std@@AEAAXQEAUProcessPerfData@@_K1@Z 0000000180027e80 f i perfthread.obj
 0001:00026f60       ?allocate@?$allocator@UProcessPerfData@@@std@@QEAAPEAUProcessPerfData@@_K@Z 0000000180027f60 f i perfthread.obj
 0001:00026fd0       ?clear@?$_Hash@V?$_Umap_traits@KUProcessPerfData@@V?$_Uhash_compare@KU?$hash@K@std@@U?$equal_to@K@2@@std@@V?$allocator@U?$pair@$$CBKUProcessPerfData@@@std@@@3@$00@std@@@std@@QEAAXXZ 0000000180027fd0 f i perfthread.obj
 0001:000270a0       ?_Unchecked_erase@?$_Hash@V?$_Umap_traits@KUProcessPerfData@@V?$_Uhash_compare@KU?$hash@K@std@@U?$equal_to@K@2@@std@@V?$allocator@U?$pair@$$CBKUProcessPerfData@@@std@@@3@$00@std@@@std@@AEAAPEAU?$_List_node@U?$pair@$$CBKUProcessPerfData@@@std@@PEAX@2@PEAU32@QEAU32@@Z 00000001800280a0 f i perfthread.obj
 0001:00027500       ??0ProcessPerfData@@QEAA@AEBU0@@Z 0000000180028500 f i perfthread.obj
 0001:000276d0       ??1?$_List_node_emplace_op2@V?$allocator@U?$_List_node@U?$pair@$$CBKUProcessPerfData@@@std@@PEAX@std@@@std@@@std@@QEAA@XZ 00000001800286d0 f i perfthread.obj
 0001:00027710       ?_Rehash_for_1@?$_Hash@V?$_Umap_traits@KUProcessPerfData@@V?$_Uhash_compare@KU?$hash@K@std@@U?$equal_to@K@2@@std@@V?$allocator@U?$pair@$$CBKUProcessPerfData@@@std@@@3@$00@std@@@std@@IEAAXXZ 0000000180028710 f i perfthread.obj
 0001:000277c0       ??1?$_Alloc_construct_ptr@V?$allocator@U?$_List_node@U?$pair@$$CBKUProcessPerfData@@@std@@PEAX@std@@@std@@@std@@QEAA@XZ 00000001800287c0 f i perfthread.obj
 0001:000277e0       ??$_Resize_reallocate@U_Value_init_tag@std@@@?$vector@EV?$allocator@E@std@@@std@@AEAAX_KAEBU_Value_init_tag@1@@Z 00000001800287e0 f i perfthread.obj
 0001:00027920       ??$_Emplace_reallocate@UProcessPerfData@@@?$vector@UProcessPerfData@@V?$allocator@UProcessPerfData@@@std@@@std@@QEAAPEAUProcessPerfData@@QEAU2@$$QEAU2@@Z 0000000180028920 f i perfthread.obj
 0001:00027ab0       ??0ProcessPerfData@@QEAA@$$QEAU0@@Z 0000000180028ab0 f i perfthread.obj
 0001:00027d30       ?GetPData@@YA_NAEAUProcessData@@AEBUProcessPerfData@@@Z 0000000180028d30 f   Plist.obj
 0001:00027f60       ?GetList@@YA_NAEAPEAUPluginPanelItem@@AEA_KAEAVPerfThread@@@Z 0000000180028f60 f   Plist.obj
 0001:00028380       ?KillProcess@@YA_NKPEAUHWND__@@@Z 0000000180029380 f   Plist.obj
 0001:000285b0       ?PrintNTCurDirAndEnv@@YAXPEAX0H@Z 00000001800295b0 f   Plist.obj
 0001:00028e50       ?PrintModules@@YAXPEAXKAEAUoptions@@@Z 0000000180029e50 f   Plist.obj
 0001:000294d0       ??1?$function@$$A6AXAEBUtagVARIANT@@@Z@std@@QEAA@XZ 000000018002a4d0 f i wmi.obj
 0001:000294d0       ??1?$function@$$A6A_NPEA_W_K@Z@std@@QEAA@XZ 000000018002a4d0 f i Plist.obj
 0001:00029500       ?GetOpenProcessData@?$ipc_functions@$0A@@@SAXPEAXPEAV?$basic_string@_WU?$char_traits@_W@std@@V?$allocator@_W@2@@std@@1111@Z 000000018002a500 f i Plist.obj
 0001:000299a0       ?read_string@?$ipc_functions@$0A@@@SA?AV?$basic_string@_WU?$char_traits@_W@std@@V?$allocator@_W@2@@std@@PEAXAEBUUNICODE_STRING_SAME@detail@@@Z 000000018002a9a0 f i Plist.obj
 0001:00029cb0       ??$_Resize_reallocate@U_Value_init_tag@std@@@?$vector@PEAUHINSTANCE__@@V?$allocator@PEAUHINSTANCE__@@@std@@@std@@AEAAX_KAEBU_Value_init_tag@1@@Z 000000018002acb0 f i Plist.obj
 0001:00029dc0       ??$insert@V?$_List_unchecked_const_iterator@V?$_List_val@U?$_List_simple_types@U?$pair@$$CBKUProcessPerfData@@@std@@@std@@@std@@U_Iterator_base0@2@@std@@@?$_Hash@V?$_Umap_traits@KUProcessPerfData@@V?$_Uhash_compare@KU?$hash@K@std@@U?$equal_to@K@2@@std@@V?$allocator@U?$pair@$$CBKUProcessPerfData@@@std@@@3@$00@std@@@std@@QEAAXV?$_List_unchecked_const_iterator@V?$_List_val@U?$_List_simple_types@U?$pair@$$CBKUProcessPerfData@@@std@@@std@@@std@@U_Iterator_base0@2@@1@0@Z 000000018002adc0 f i Plist.obj
 0001:00029fb0       ?_Delete_this@?$_Func_impl_no_alloc@V<lambda_1>@?6??PrintModules@?$ipc_functions@$0A@@@SAXPEAX0AEAUoptions@@@Z@_NPEA_W_K@std@@EEAAX_N@Z 000000018002afb0 f i Plist.obj
 0001:00029fc0       ?_Get@?$_Func_impl_no_alloc@V<lambda_1>@?6??PrintModules@?$ipc_functions@$0A@@@SAXPEAX0AEAUoptions@@@Z@_NPEA_W_K@std@@EEBAPEBXXZ 000000018002afc0 f i Plist.obj
 0001:00029fd0       ?_Target_type@?$_Func_impl_no_alloc@V<lambda_1>@?6??PrintModules@?$ipc_functions@$0A@@@SAXPEAX0AEAUoptions@@@Z@_NPEA_W_K@std@@EEBAAEBVtype_info@@XZ 000000018002afd0 f i Plist.obj
 0001:00029fe0       ?_Do_call@?$_Func_impl_no_alloc@V<lambda_1>@?6??PrintModules@?$ipc_functions@$0A@@@SAXPEAX0AEAUoptions@@@Z@_NPEA_W_K@std@@EEAA_N$$QEAPEA_W$$QEA_K@Z 000000018002afe0 f i Plist.obj
 0001:0002a020       ?_Copy@?$_Func_impl_no_alloc@V<lambda_1>@?6??PrintModules@?$ipc_functions@$0A@@@SAXPEAX0AEAUoptions@@@Z@_NPEA_W_K@std@@EEBAPEAV?$_Func_base@_NPEA_W_K@2@PEAX@Z 000000018002b020 f i Plist.obj
 0001:0002a020       ?_Move@?$_Func_impl_no_alloc@V<lambda_1>@?6??PrintModules@?$ipc_functions@$0A@@@SAXPEAX0AEAUoptions@@@Z@_NPEA_W_K@std@@EEAAPEAV?$_Func_base@_NPEA_W_K@2@PEAX@Z 000000018002b020 f i Plist.obj
 0001:0002a0a0       ?WinError@@YAHPEB_W@Z      000000018002b0a0 f   Pmix.obj
 0001:0002a4d0       ??1bstr@@QEAA@XZ           000000018002b4d0 f i wmi.obj
 0001:0002a5e0       ??0WMIConnection@@QEAA@XZ  000000018002b5e0 f   wmi.obj
 0001:0002a690       ??1WMIConnection@@QEAA@XZ  000000018002b690 f   wmi.obj
 0001:0002a700       ?GetProcessOwner@WMIConnection@@QEAA?AV?$basic_string@_WU?$char_traits@_W@std@@V?$allocator@_W@2@@std@@KPEAV23@@Z 000000018002b700 f   wmi.obj
 0001:0002a930       ?GetProcessUserSid@WMIConnection@@QEAA?AV?$basic_string@_WU?$char_traits@_W@std@@V?$allocator@_W@2@@std@@K@Z 000000018002b930 f   wmi.obj
 0001:0002ab00       ?GetProcessSessionId@WMIConnection@@QEAAKK@Z 000000018002bb00 f   wmi.obj
 0001:0002ab90       ?ExecMethod@WMIConnection@@AEAAHKPEB_W0K@Z 000000018002bb90 f   wmi.obj
 0001:0002aeb0       ?GetProcessProperty@WMIConnection@@AEAA_NKPEB_WAEBV?$function@$$A6AXAEBUtagVARIANT@@@Z@std@@@Z 000000018002beb0 f   wmi.obj
 0001:0002afe0       ?GetProcessInt@WMIConnection@@AEAAKKPEB_W@Z 000000018002bfe0 f   wmi.obj
 0001:0002b060       ?Connect@WMIConnection@@QEAA_NPEB_W00@Z 000000018002c060 f   wmi.obj
 0001:0002b300       ??1?$unique_ptr@UIWbemClassObject@@Ucom_closer@@@std@@QEAA@XZ 000000018002c300 f i wmi.obj
 0001:0002b300       ??1?$unique_ptr@UIWbemLocator@@Ucom_closer@@@std@@QEAA@XZ 000000018002c300 f i wmi.obj
 0001:0002b320       ??1?$ptr_setter@V?$unique_ptr@UIWbemClassObject@@Ucom_closer@@@std@@@@QEAA@XZ 000000018002c320 f i wmi.obj
 0001:0002b680       GetGlobalInfoW             000000018002c680 f   Proclist.obj
 0001:0002b700       SetStartupInfoW            000000018002c700 f   Proclist.obj
 0001:0002b940       OpenW                      000000018002c940 f   Proclist.obj
 0001:0002b9d0       ClosePanelW                000000018002c9d0 f   Proclist.obj
 0001:0002b9e0       GetFindDataW               000000018002c9e0 f   Proclist.obj
 0001:0002ba00       FreeFindDataW              000000018002ca00 f   Proclist.obj
 0001:0002bb00       GetPluginInfoW             000000018002cb00 f   Proclist.obj
 0001:0002bbf0       GetOpenPanelInfoW          000000018002cbf0 f   Proclist.obj
 0001:0002bc00       GetFilesW                  000000018002cc00 f   Proclist.obj
 0001:0002bc40       DeleteFilesW               000000018002cc40 f   Proclist.obj
 0001:0002bc60       ProcessPanelEventW         000000018002cc60 f   Proclist.obj
 0001:0002be10       ProcessPanelInputW         000000018002ce10 f   Proclist.obj
 0001:0002be30       ConfigureW                 000000018002ce30 f   Proclist.obj
 0001:0002be40       CompareW                   000000018002ce40 f   Proclist.obj
 0001:0002be60       ProcessSynchroEventW       000000018002ce60 f   Proclist.obj
 0001:0002be90       ??_GPlist@@QEAAPEAXI@Z     000000018002ce90 f i Proclist.obj
 0001:0002bfe8       _Mbrtowc                   000000018002cfe8 f   libcpmt:xmbtowc.obj
 0001:0002c184       ??0_Init_locks@std@@QEAA@XZ 000000018002d184 f   libcpmt:xlock.obj
 0001:0002c1c8       ??0_Lockit@std@@QEAA@H@Z   000000018002d1c8 f   libcpmt:xlock.obj
 0001:0002c204       ??1_Init_locks@std@@QEAA@XZ 000000018002d204 f   libcpmt:xlock.obj
 0001:0002c240       ??1_Lockit@std@@QEAA@XZ    000000018002d240 f   libcpmt:xlock.obj
 0001:0002c274       ??0bad_alloc@std@@QEAA@XZ  000000018002d274 f i libcpmt:xthrow.obj
 0001:0002c294       ??0bad_function_call@std@@QEAA@AEBV01@@Z 000000018002d294 f i libcpmt:xthrow.obj
 0001:0002c2d0       ??0bad_function_call@std@@QEAA@XZ 000000018002d2d0 f i libcpmt:xthrow.obj
 0001:0002c2e8       ??0length_error@std@@QEAA@AEBV01@@Z 000000018002d2e8 f i libcpmt:xthrow.obj
 0001:0002c324       ??0length_error@std@@QEAA@PEBD@Z 000000018002d324 f i libcpmt:xthrow.obj
 0001:0002c36c       ??0logic_error@std@@QEAA@AEBV01@@Z 000000018002d36c f i libcpmt:xthrow.obj
 0001:0002c3a8       ??0out_of_range@std@@QEAA@AEBV01@@Z 000000018002d3a8 f i libcpmt:xthrow.obj
 0001:0002c3e4       ??0out_of_range@std@@QEAA@PEBD@Z 000000018002d3e4 f i libcpmt:xthrow.obj
 0001:0002c42c       ?_Xbad_alloc@std@@YAXXZ    000000018002d42c f   libcpmt:xthrow.obj
 0001:0002c42c       ?__scrt_throw_std_bad_alloc@@YAXXZ 000000018002d42c f   LIBCMT:throw_bad_alloc.obj
 0001:0002c44c       ?_Xbad_function_call@std@@YAXXZ 000000018002d44c f   libcpmt:xthrow.obj
 0001:0002c46c       ?_Xlength_error@std@@YAXPEBD@Z 000000018002d46c f   libcpmt:xthrow.obj
 0001:0002c490       ?_Xout_of_range@std@@YAXPEBD@Z 000000018002d490 f   libcpmt:xthrow.obj
 0001:0002c4b4       ?_Xruntime_error@std@@YAXPEBD@Z 000000018002d4b4 f   libcpmt:xthrow.obj
 0001:0002c4d8       ?what@bad_function_call@std@@UEBAPEBDXZ 000000018002d4d8 f i libcpmt:xthrow.obj
 0001:0002c4e0       ??4?$_Yarn@D@std@@QEAAAEAV01@PEBD@Z 000000018002d4e0 f i libcpmt:locale0.obj
 0001:0002c558       ??_E_Locimp@locale@std@@MEAAPEAXI@Z 000000018002d558 f i libcpmt:locale0.obj
 0001:0002c558       ??_G_Locimp@locale@std@@MEAAPEAXI@Z 000000018002d558 f i libcpmt:locale0.obj
 0001:0002c5b4       ?_Facet_Register@std@@YAXPEAV_Facet_base@1@@Z 000000018002d5b4 f   libcpmt:locale0.obj
 0001:0002c5ec       ?_Getgloballocale@locale@std@@CAPEAV_Locimp@12@XZ 000000018002d5ec f   libcpmt:locale0.obj
 0001:0002c5f4       ?_Init@locale@std@@CAPEAV_Locimp@12@_N@Z 000000018002d5f4 f   libcpmt:locale0.obj
 0001:0002c6a0       ?_Locimp_dtor@_Locimp@locale@std@@CAXPEAV123@@Z 000000018002d6a0 f   libcpmt:locale0.obj
 0001:0002c71c       ?_Locinfo_ctor@_Locinfo@std@@SAXPEAV12@PEBD@Z 000000018002d71c f   libcpmt:locale0.obj
 0001:0002c788       ?_Locinfo_dtor@_Locinfo@std@@SAXPEAV12@@Z 000000018002d788 f   libcpmt:locale0.obj
 0001:0002c7a4       ?_New_Locimp@_Locimp@locale@std@@CAPEAV123@_N@Z 000000018002d7a4 f   libcpmt:locale0.obj
 0001:0002c814       ?_Setgloballocale@locale@std@@CAXPEAX@Z 000000018002d814 f   libcpmt:locale0.obj
 0001:0002c848       _Deletegloballocale        000000018002d848 f   libcpmt:locale0.obj
 0001:0002c8b8       _Getcvt                    000000018002d8b8 f   libcpmt:xwctomb.obj
 0001:0002c950       _Mtxdst                    000000018002d950 f   libcpmt:xmtx.obj
 0001:0002c958       _Mtxinit                   000000018002d958 f   libcpmt:xmtx.obj
 0001:0002c968       _Mtxlock                   000000018002d968 f   libcpmt:xmtx.obj
 0001:0002c970       _Mtxunlock                 000000018002d970 f   libcpmt:xmtx.obj
 0001:0002cd30       __crtInitializeCriticalSectionEx 000000018002dd30 f   libcpmt:winapisupp.obj
 0001:0002cd5c       ?_Atexit@@YAXP6AXXZ@Z      000000018002dd5c f   libcpmt:iosptrs.obj
 0001:0002cdb0       __security_check_cookie    000000018002ddb0 f   LIBCMT:amdsecgs.obj
 0001:0002cdd4       __scrt_acquire_startup_lock 000000018002ddd4 f   LIBCMT:utility.obj
 0001:0002ce10       __scrt_dllmain_after_initialize_c 000000018002de10 f   LIBCMT:utility.obj
 0001:0002ce44       __scrt_dllmain_before_initialize_c 000000018002de44 f   LIBCMT:utility.obj
 0001:0002ce5c       __scrt_dllmain_crt_thread_attach 000000018002de5c f   LIBCMT:utility.obj
 0001:0002ce84       __scrt_dllmain_crt_thread_detach 000000018002de84 f   LIBCMT:utility.obj
 0001:0002ce9c       __scrt_dllmain_exception_filter 000000018002de9c f   LIBCMT:utility.obj
 0001:0002cefc       __scrt_dllmain_uninitialize_c 000000018002defc f   LIBCMT:utility.obj
 0001:0002cf2c       __scrt_dllmain_uninitialize_critical 000000018002df2c f   LIBCMT:utility.obj
 0001:0002cf40       __scrt_initialize_crt      000000018002df40 f   LIBCMT:utility.obj
 0001:0002cf8c       __scrt_initialize_onexit_tables 000000018002df8c f   LIBCMT:utility.obj
 0001:0002d018       __scrt_is_nonwritable_in_current_image 000000018002e018 f   LIBCMT:utility.obj
 0001:0002d0b0       __scrt_release_startup_lock 000000018002e0b0 f   LIBCMT:utility.obj
 0001:0002d0d4       __scrt_uninitialize_crt    000000018002e0d4 f   LIBCMT:utility.obj
 0001:0002d100       _onexit                    000000018002e100 f   LIBCMT:utility.obj
 0001:0002d13c       atexit                     000000018002e13c f   LIBCMT:utility.obj
 0001:0002d154       ??_V@YAXPEAX@Z             000000018002e154 f   LIBCMT:delete_array.obj
 0001:0002d154       ??3@YAXPEAX_K@Z            000000018002e154 f   LIBCMT:delete_scalar_size.obj
 0001:0002d15c       ??2@YAPEAX_K@Z             000000018002e15c f   LIBCMT:new_scalar.obj
 0001:0002d198       ??_Etype_info@@UEAAPEAXI@Z 000000018002e198 f i LIBCMT:std_type_info_static.obj
 0001:0002d198       ??_Gtype_info@@UEAAPEAXI@Z 000000018002e198 f i LIBCMT:std_type_info_static.obj
 0001:0002d1c4       ??_U@YAPEAX_K@Z            000000018002e1c4 f   LIBCMT:new_array.obj
 0001:0002d1cc       __raise_securityfailure    000000018002e1cc f   LIBCMT:gs_report.obj
 0001:0002d200       __report_gsfailure         000000018002e200 f   LIBCMT:gs_report.obj
 0001:0002d2d4       __report_rangecheckfailure 000000018002e2d4 f   LIBCMT:gs_report.obj
 0001:0002d2e8       __report_securityfailure   000000018002e2e8 f   LIBCMT:gs_report.obj
 0001:0002d468       ??_M@YAXPEAX_K1P6AX0@Z@Z   000000018002e468 f   LIBCMT:ehvecdtr.obj
 0001:0002d4d4       ?__ArrayUnwind@@YAXPEAX_K1P6AX0@Z@Z 000000018002e4d4 f   LIBCMT:ehvecdtr.obj
 0001:0002d858       _DllMainCRTStartup         000000018002e858 f   LIBCMT:dll_dllmain.obj
 0001:0002d898       __GSHandlerCheck           000000018002e898 f   LIBCMT:gshandler.obj
 0001:0002d8b8       __GSHandlerCheckCommon     000000018002e8b8 f   LIBCMT:gshandler.obj
 0001:0002d914       __GSHandlerCheck_EH        000000018002e914 f   LIBCMT:gshandlereh.obj
 0001:0002d994       _guard_check_icall_nop     000000018002e994 f i LIBCMT:guard_support.obj
 0001:0002d9b0       __chkstk                   000000018002e9b0 f   LIBCMT:chkstk.obj
 0001:0002d9b0       _alloca_probe              000000018002e9b0 f   LIBCMT:chkstk.obj
 0001:0002da04       __isa_available_init       000000018002ea04 f   LIBCMT:cpu_disp.obj
 0001:0002dba8       DllMain                    000000018002eba8 f   LIBCMT:dll_dllmain_stub.obj
 0001:0002dba8       _get_startup_argv_mode     000000018002eba8 f   LIBCMT:argv_mode.obj
 0001:0002dbb0       __scrt_is_ucrt_dll_in_use  000000018002ebb0 f   LIBCMT:ucrt_detection.obj
 0001:0002dbbc       __crt_debugger_hook        000000018002ebbc f   LIBCMT:utility_desktop.obj
 0001:0002dbc4       __scrt_fastfail            000000018002ebc4 f   LIBCMT:utility_desktop.obj
 0001:0002dd10       ??3@YAXPEAX@Z              000000018002ed10 f   LIBCMT:delete_scalar.obj
 0001:0002dd18       __security_init_cookie     000000018002ed18 f   LIBCMT:gs_support.obj
 0001:0002ddc4       ?__scrt_initialize_type_info@@YAXXZ 000000018002edc4 f   LIBCMT:tncleanup.obj
 0001:0002ddd4       ?__scrt_uninitialize_type_info@@YAXXZ 000000018002edd4 f   LIBCMT:tncleanup.obj
 0001:0002dde0       __local_stdio_scanf_options 000000018002ede0 f i LIBCMT:default_local_stdio_options.obj
 0001:0002dde8       __scrt_initialize_default_local_stdio_options 000000018002ede8 f   LIBCMT:default_local_stdio_options.obj
 0001:0002de04       __scrt_get_dyn_tls_init_callback 000000018002ee04 f   LIBCMT:dyn_tls_init.obj
 0001:0002de0c       _RTC_Initialize            000000018002ee0c f   LIBCMT:initsect.obj
 0001:0002de48       _RTC_Terminate             000000018002ee48 f   LIBCMT:initsect.obj
 0001:0002de90       ??$_CallSETranslator@V__FrameHandler3@@@@YAHPEAUEHExceptionRecord@@PEA_KPEAU_CONTEXT@@PEAU_xDISPATCHER_CONTEXT@@PEBU_s_FuncInfo@@K1@Z 000000018002ee90 f i libvcruntime:risctrnsctrl.obj
 0001:0002dee4       ??$_CallSETranslator@V__FrameHandler4@@@@YAHPEAUEHExceptionRecord@@PEA_KPEAU_CONTEXT@@PEAU_xDISPATCHER_CONTEXT@@PEAUFuncInfo4@FH4@@K1@Z 000000018002eee4 f i libvcruntime:risctrnsctrl.obj
 0001:0002df38       ?CatchTryBlock@__FrameHandler3@@SAPEBU_s_TryBlockMapEntry@@PEBU_s_FuncInfo@@H@Z 000000018002ef38 f   libvcruntime:risctrnsctrl.obj
 0001:0002df8c       ?DecompFuncInfo@FH4@@YA_JPEAEAEAUFuncInfo4@1@_KH_N@Z 000000018002ef8c f i libvcruntime:risctrnsctrl.obj
 0001:0002e0b0       ?ExecutionInCatch@__FrameHandler3@@SA_NPEAU_xDISPATCHER_CONTEXT@@PEBU_s_FuncInfo@@@Z 000000018002f0b0 f   libvcruntime:risctrnsctrl.obj
 0001:0002e0dc       ?ExecutionInCatch@__FrameHandler4@@SA_NPEAU_xDISPATCHER_CONTEXT@@PEAUFuncInfo4@FH4@@@Z 000000018002f0dc f   libvcruntime:risctrnsctrl.obj
 0001:0002e0e4       ?FrameUnwindToEmptyState@__FrameHandler3@@SAXPEA_KPEAU_xDISPATCHER_CONTEXT@@PEBU_s_FuncInfo@@@Z 000000018002f0e4 f   libvcruntime:risctrnsctrl.obj
 0001:0002e148       ?FrameUnwindToEmptyState@__FrameHandler4@@SAXPEA_KPEAU_xDISPATCHER_CONTEXT@@PEAUFuncInfo4@FH4@@@Z 000000018002f148 f   libvcruntime:risctrnsctrl.obj
 0001:0002e17c       ?GetEstablisherFrame@__FrameHandler3@@SAPEA_KPEA_KPEAU_xDISPATCHER_CONTEXT@@PEBU_s_FuncInfo@@0@Z 000000018002f17c f   libvcruntime:risctrnsctrl.obj
 0001:0002e248       ?GetEstablisherFrame@__FrameHandler4@@SAPEA_KPEA_KPEAU_xDISPATCHER_CONTEXT@@PEAUFuncInfo4@FH4@@0@Z 000000018002f248 f   libvcruntime:risctrnsctrl.obj
 0001:0002e26c       ?GetRangeOfTrysToCheck@__FrameHandler3@@SA?AU?$pair@Viterator@TryBlockMap@__FrameHandler3@@V123@@std@@AEAVTryBlockMap@1@HPEAU_xDISPATCHER_CONTEXT@@PEBU_s_FuncInfo@@H@Z 000000018002f26c f   libvcruntime:risctrnsctrl.obj
 0001:0002e3ac       ?GetRangeOfTrysToCheck@__FrameHandler4@@SA?AU?$pair@Viterator@TryBlockMap4@FH4@@V123@@std@@AEAVTryBlockMap4@FH4@@HPEAU_xDISPATCHER_CONTEXT@@PEAUFuncInfo4@5@H@Z 000000018002f3ac f   libvcruntime:risctrnsctrl.obj
 0001:0002e504       ?UnwindNestedFrames@__FrameHandler3@@SAXPEA_KPEAUEHExceptionRecord@@PEAU_CONTEXT@@0PEAXPEBU_s_FuncInfo@@HHPEBU_s_HandlerType@@PEAU_xDISPATCHER_CONTEXT@@E@Z 000000018002f504 f   libvcruntime:risctrnsctrl.obj
 0001:0002e608       ?UnwindNestedFrames@__FrameHandler4@@SAXPEA_KPEAUEHExceptionRecord@@PEAU_CONTEXT@@0PEAXPEAUFuncInfo4@FH4@@HHPEAUHandlerType4@5@PEAU_xDISPATCHER_CONTEXT@@E@Z 000000018002f608 f   libvcruntime:risctrnsctrl.obj
 0001:0002e748       ?setBuffer@TryBlockMap4@FH4@@QEAAXViterator@12@@Z 000000018002f748 f i libvcruntime:risctrnsctrl.obj
 0001:0002e90c       _CreateFrameInfo           000000018002f90c f   libvcruntime:risctrnsctrl.obj
 0001:0002e948       _FindAndUnlinkFrame        000000018002f948 f   libvcruntime:risctrnsctrl.obj
 0001:0002e99c       _GetImageBase              000000018002f99c f   libvcruntime:risctrnsctrl.obj
 0001:0002e9b0       _GetThrowImageBase         000000018002f9b0 f   libvcruntime:risctrnsctrl.obj
 0001:0002e9c4       _SetImageBase              000000018002f9c4 f   libvcruntime:risctrnsctrl.obj
 0001:0002e9dc       _SetThrowImageBase         000000018002f9dc f   libvcruntime:risctrnsctrl.obj
 0001:0002e9f4       __CxxFrameHandler3         000000018002f9f4 f   libvcruntime:risctrnsctrl.obj
 0001:0002ea7c       __CxxFrameHandler4         000000018002fa7c f   libvcruntime:risctrnsctrl.obj
 0001:0002eb3c       __DestructExceptionObject  000000018002fb3c f   libvcruntime:ehhelpers.obj
 0001:0002ebac       ?_CallMemberFunction0@@YAXQEAX0@Z 000000018002fbac f i libvcruntime:ehhelpers.obj
 0001:0002ebb0       _IsExceptionObjectToBeDestroyed 000000018002fbb0 f   libvcruntime:ehhelpers.obj
 0001:0002ebe0       __AdjustPointer            000000018002fbe0 f   libvcruntime:ehhelpers.obj
 0001:0002ec04       __FrameUnwindFilter        000000018002fc04 f   libvcruntime:ehhelpers.obj
 0001:0002ec6c       __current_exception        000000018002fc6c f   libvcruntime:ehhelpers.obj
 0001:0002ec80       __current_exception_context 000000018002fc80 f   libvcruntime:ehhelpers.obj
 0001:0002ec94       __std_terminate            000000018002fc94 f   libvcruntime:ehhelpers.obj
 0001:0002eca0       __std_exception_copy       000000018002fca0 f   libvcruntime:std_exception.obj
 0001:0002ed30       __std_exception_destroy    000000018002fd30 f   libvcruntime:std_exception.obj
 0001:0002ed58       _get_purecall_handler      000000018002fd58 f   libvcruntime:purevirt.obj
 0001:0002ed60       _purecall                  000000018002fd60 f   libvcruntime:purevirt.obj
 0001:0002ed7c       wcschr                     000000018002fd7c f   libvcruntime:wcschr.obj
 0001:0002edf8       _CxxThrowException         000000018002fdf8 f   libvcruntime:throw.obj
 0001:0002eeb0       memcpy_repmovs             000000018002feb0 f   libvcruntime:memcpy.obj
 0001:0002eed0       memcpy                     000000018002fed0 f   libvcruntime:memcpy.obj
 0001:0002eed0       memmove                    000000018002fed0 f   libvcruntime:memcpy.obj
 0001:0002f2c0       memset_repmovs             00000001800302c0 f   libvcruntime:memset.obj
 0001:0002f2e0       memset                     00000001800302e0 f   libvcruntime:memset.obj
 0001:0002f480       memchr                     0000000180030480 f   libvcruntime:memchr.obj
 0001:0002f500       memcmp                     0000000180030500 f   libvcruntime:memcmp.obj
 0001:0002f5c8       __vcrt_initialize          00000001800305c8 f   libvcruntime:initialization.obj
 0001:0002f5f0       __vcrt_thread_attach       00000001800305f0 f   libvcruntime:initialization.obj
 0001:0002f604       __vcrt_thread_detach       0000000180030604 f   libvcruntime:initialization.obj
 0001:0002f618       __vcrt_uninitialize        0000000180030618 f   libvcruntime:initialization.obj
 0001:0002f634       __vcrt_uninitialize_critical 0000000180030634 f   libvcruntime:initialization.obj
 0001:0002f644       __C_specific_handler       0000000180030644 f   libvcruntime:riscchandler.obj
 0001:0002f850       __std_type_info_compare    0000000180030850 f   libvcruntime:std_type_info.obj
 0001:0002f878       __std_type_info_destroy_list 0000000180030878 f   libvcruntime:std_type_info.obj
 0001:0002f8a4       __vcrt_freefls             00000001800308a4 f   libvcruntime:per_thread_data.obj
 0001:0002f8c4       __vcrt_freeptd             00000001800308c4 f   libvcruntime:per_thread_data.obj
 0001:0002f914       __vcrt_getptd              0000000180030914 f   libvcruntime:per_thread_data.obj
 0001:0002f930       __vcrt_getptd_noexit       0000000180030930 f   libvcruntime:per_thread_data.obj
 0001:0002f9f0       __vcrt_initialize_ptd      00000001800309f0 f   libvcruntime:per_thread_data.obj
 0001:0002fa38       __vcrt_uninitialize_ptd    0000000180030a38 f   libvcruntime:per_thread_data.obj
 0001:0002fa5c       ?GetCurrentState@__FrameHandler3@@SAHPEA_KPEAU_xDISPATCHER_CONTEXT@@PEBU_s_FuncInfo@@@Z 0000000180030a5c f   libvcruntime:ehstate.obj
 0001:0002fa84       ?GetUnwindTryBlock@__FrameHandler3@@SAHPEA_KPEAU_xDISPATCHER_CONTEXT@@PEBU_s_FuncInfo@@@Z 0000000180030a84 f   libvcruntime:ehstate.obj
 0001:0002fab0       ?SetState@__FrameHandler3@@SAXPEA_KPEBU_s_FuncInfo@@H@Z 0000000180030ab0 f   libvcruntime:ehstate.obj
 0001:0002fabc       ?SetUnwindTryBlock@__FrameHandler3@@SAXPEA_KPEAU_xDISPATCHER_CONTEXT@@PEBU_s_FuncInfo@@H@Z 0000000180030abc f   libvcruntime:ehstate.obj
 0001:0002faf8       ?StateFromControlPc@__FrameHandler3@@SAHPEBU_s_FuncInfo@@PEAU_xDISPATCHER_CONTEXT@@@Z 0000000180030af8 f   libvcruntime:ehstate.obj
 0001:0002fb00       ?StateFromControlPc@__FrameHandler4@@SAHPEAUFuncInfo4@FH4@@PEAU_xDISPATCHER_CONTEXT@@@Z 0000000180030b00 f   libvcruntime:ehstate.obj
 0001:0002fb08       ?StateFromIp@__FrameHandler3@@SAHPEBU_s_FuncInfo@@PEAU_xDISPATCHER_CONTEXT@@_K@Z 0000000180030b08 f   libvcruntime:ehstate.obj
 0001:0002fb70       ?StateFromIp@__FrameHandler4@@SAHPEAUFuncInfo4@FH4@@PEAU_xDISPATCHER_CONTEXT@@_K@Z 0000000180030b70 f   libvcruntime:ehstate.obj
 0001:0003129c       ??$TypeMatchHelper@V__FrameHandler3@@@@YAHPEBU_s_HandlerType@@PEBU_s_CatchableType@@PEBU_s_ThrowInfo@@@Z 000000018003229c f i libvcruntime:frame.obj
 0001:000313e0       ??$TypeMatchHelper@V__FrameHandler4@@@@YAHPEAUHandlerType4@FH4@@PEBU_s_CatchableType@@PEBU_s_ThrowInfo@@@Z 00000001800323e0 f i libvcruntime:frame.obj
 0001:00031528       ??$__InternalCxxFrameHandler@V__FrameHandler3@@@@YA?AW4_EXCEPTION_DISPOSITION@@PEAUEHExceptionRecord@@PEA_KPEAU_CONTEXT@@PEAU_xDISPATCHER_CONTEXT@@PEBU_s_FuncInfo@@H1E@Z 0000000180032528 f i libvcruntime:frame.obj
 0001:00031770       ??$__InternalCxxFrameHandler@V__FrameHandler4@@@@YA?AW4_EXCEPTION_DISPOSITION@@PEAUEHExceptionRecord@@PEA_KPEAU_CONTEXT@@PEAU_xDISPATCHER_CONTEXT@@PEAUFuncInfo4@FH4@@H1E@Z 0000000180032770 f i libvcruntime:frame.obj
 0001:00031a10       ??0HandlerMap4@FH4@@QEAA@PEBUTryBlockMapEntry4@1@_KH@Z 0000000180032a10 f i libvcruntime:frame.obj
 0001:00031a8c       ??0TryBlockMap4@FH4@@QEAA@PEBUFuncInfo4@1@_K@Z 0000000180032a8c f i libvcruntime:frame.obj
 0001:00031b64       ??0bad_exception@std@@QEAA@AEBV01@@Z 0000000180032b64 f i libvcruntime:frame.obj
 0001:00031ba0       ??0bad_exception@std@@QEAA@XZ 0000000180032ba0 f i libvcruntime:frame.obj
 0001:00031bc0       ?CxxCallCatchBlock@__FrameHandler3@@SAPEAXPEAU_EXCEPTION_RECORD@@@Z 0000000180032bc0 f   libvcruntime:frame.obj
 0001:00031dac       ?CxxCallCatchBlock@__FrameHandler4@@SAPEAXPEAU_EXCEPTION_RECORD@@@Z 0000000180032dac f   libvcruntime:frame.obj
 0001:00031ffc       ?DecompHandler@HandlerMap4@FH4@@AEAAXXZ 0000000180032ffc f i libvcruntime:frame.obj
 0001:0003223c       ?FrameUnwindToState@__FrameHandler3@@SAXPEA_KPEAU_xDISPATCHER_CONTEXT@@PEBU_s_FuncInfo@@H@Z 000000018003323c f   libvcruntime:frame.obj
 0001:000323c8       ?FrameUnwindToState@__FrameHandler4@@SAXPEA_KPEAU_xDISPATCHER_CONTEXT@@PEAUFuncInfo4@FH4@@H@Z 00000001800333c8 f   libvcruntime:frame.obj
 0001:0003269c       ?GetHandlerSearchState@__FrameHandler3@@SAHPEA_KPEAU_xDISPATCHER_CONTEXT@@PEBU_s_FuncInfo@@@Z 000000018003369c f i libvcruntime:frame.obj
 0001:000328ac       ?ReadEntry@UWMap4@FH4@@AEAAXPEAPEAE@Z 00000001800338ac f i libvcruntime:frame.obj
 0001:0003294c       ?_CallMemberFunction1@@YAXQEAX00@Z 000000018003394c f i libvcruntime:frame.obj
 0001:00032958       ?_CallMemberFunction2@@YAXQEAX00H@Z 0000000180033958 f i libvcruntime:frame.obj
 0001:00032968       ?getStartStop@UWMap4@FH4@@QEAAXHHAEAViterator@12@0@Z 0000000180033968 f i libvcruntime:frame.obj
 0001:00032a38       ?getStateFromIterators@UWMap4@FH4@@SAHAEBViterator@12@H0H0@Z 0000000180033a38 f i libvcruntime:frame.obj
 0001:00032b00       __vcrt_initialize_locks    0000000180033b00 f   libvcruntime:locks.obj
 0001:00032b34       __vcrt_uninitialize_locks  0000000180033b34 f   libvcruntime:locks.obj
 0001:00032b80       _NLG_Notify                0000000180033b80 f   libvcruntime:notify.obj
 0001:00032ba0       __NLG_Dispatch2            0000000180033ba0 f   libvcruntime:notify.obj
 0001:00032bb0       __NLG_Return2              0000000180033bb0 f   libvcruntime:notify.obj
 0001:00032bb4       __except_validate_context_record 0000000180033bb4 f   libvcruntime:jbcxrval.obj
 0001:00032d48       __vcrt_FlsAlloc            0000000180033d48 f   libvcruntime:winapi_downlevel.obj
 0001:00032d90       __vcrt_FlsFree             0000000180033d90 f   libvcruntime:winapi_downlevel.obj
 0001:00032dd8       __vcrt_FlsGetValue         0000000180033dd8 f   libvcruntime:winapi_downlevel.obj
 0001:00032e20       __vcrt_FlsSetValue         0000000180033e20 f   libvcruntime:winapi_downlevel.obj
 0001:00032e74       __vcrt_InitializeCriticalSectionEx 0000000180033e74 f   libvcruntime:winapi_downlevel.obj
 0001:00032ef0       _CallSettingFrame          0000000180033ef0 f   libvcruntime:handlers.obj
 0001:00032f40       _CallSettingFrame_LookupContinuationIndex 0000000180033f40 f   libvcruntime:handlers.obj
 0001:00032f70       _CallSettingFrame_NotifyContinuationAddr 0000000180033f70 f   libvcruntime:handlers.obj
 0001:00032fa0       _CallSettingFrameEncoded   0000000180033fa0 f   libvcruntime:handlers.obj
 0001:00032fe8       __acrt_call_reportfault    0000000180033fe8 f   libucrt:invalid_parameter.obj
 0001:00033144       __acrt_initialize_invalid_parameter_handler 0000000180034144 f   libucrt:invalid_parameter.obj
 0001:0003314c       _invalid_parameter         000000018003414c f   libucrt:invalid_parameter.obj
 0001:000331fc       _invalid_parameter_noinfo  00000001800341fc f   libucrt:invalid_parameter.obj
 0001:0003321c       _invalid_parameter_noinfo_noreturn 000000018003421c f   libucrt:invalid_parameter.obj
 0001:0003324c       _invoke_watson             000000018003424c f   libucrt:invalid_parameter.obj
 0001:00033294       calloc                     0000000180034294 f   libucrt:calloc.obj
 0001:0003329c       __acrt_lowio_create_handle_array 000000018003429c f   libucrt:osfinfo.obj
 0001:00033344       __acrt_lowio_destroy_handle_array 0000000180034344 f   libucrt:osfinfo.obj
 0001:00033394       __acrt_lowio_ensure_fh_exists 0000000180034394 f   libucrt:osfinfo.obj
 0001:0003343c       __acrt_lowio_lock_fh       000000018003443c f   libucrt:osfinfo.obj
 0001:00033464       __acrt_lowio_unlock_fh     0000000180034464 f   libucrt:osfinfo.obj
 0001:0003348c       _free_osfhnd               000000018003448c f   libucrt:osfinfo.obj
 0001:00033548       _get_osfhandle             0000000180034548 f   libucrt:osfinfo.obj
 0001:000335c0       __acrt_initialize_stdio    00000001800345c0 f   libucrt:_file.obj
 0001:000336e0       __acrt_uninitialize_stdio  00000001800346e0 f   libucrt:_file.obj
 0001:0003373c       _lock_file                 000000018003473c f   libucrt:_file.obj
 0001:00033748       _unlock_file               0000000180034748 f   libucrt:_file.obj
 0001:00033754       _dclass                    0000000180034754 f   libucrt:nan.obj
 0001:00033770       _ldsign                    0000000180034770 f   libucrt:nanl.obj
 0001:00033770       _dsign                     0000000180034770 f   libucrt:nan.obj
 0001:00033954       ??$ensure_buffer_is_big_enough@D@formatting_buffer@__crt_stdio_output@@QEAA_N_K@Z 0000000180034954 f i libucrt:output.obj
 0001:000339fc       ??$type_case_integer_parse_into_buffer@I@?$output_processor@DV?$string_output_adapter@D@__crt_stdio_output@@V?$format_validation_base@DV?$string_output_adapter@D@__crt_stdio_output@@@2@@__crt_stdio_output@@AEAAXII_N@Z 00000001800349fc f i libucrt:output.obj
 0001:00033a84       ??$type_case_integer_parse_into_buffer@_K@?$output_processor@DV?$string_output_adapter@D@__crt_stdio_output@@V?$format_validation_base@DV?$string_output_adapter@D@__crt_stdio_output@@@2@@__crt_stdio_output@@AEAAX_KI_N@Z 0000000180034a84 f i libucrt:output.obj
 0001:00033b14       ??$write_multiple_characters@V?$string_output_adapter@D@__crt_stdio_output@@D@__crt_stdio_output@@YAXAEBV?$string_output_adapter@D@0@DHQEAH@Z 0000000180034b14 f i libucrt:output.obj
 0001:00033b8c       ??0_LocaleUpdate@@QEAA@QEAU__crt_locale_pointers@@@Z 0000000180034b8c f i libucrt:output.obj
 0001:00033c28       ??1_LocaleUpdate@@QEAA@XZ  0000000180034c28 f i libucrt:output.obj
 0001:00033c3c       ?crop_zeroes@__crt_stdio_output@@YAXPEADQEAU__crt_locale_pointers@@@Z 0000000180034c3c f i libucrt:output.obj
 0001:00033ca8       ?parse_int_from_format_string@?$output_processor@DV?$string_output_adapter@D@__crt_stdio_output@@V?$format_validation_base@DV?$string_output_adapter@D@__crt_stdio_output@@@2@@__crt_stdio_output@@AEAA_NQEAH@Z 0000000180034ca8 f i libucrt:output.obj
 0001:00033d4c       ?process@?$output_processor@DV?$string_output_adapter@D@__crt_stdio_output@@V?$format_validation_base@DV?$string_output_adapter@D@__crt_stdio_output@@@2@@__crt_stdio_output@@QEAAHXZ 0000000180034d4c f i libucrt:output.obj
 0001:00033f64       ?state_case_normal@?$output_processor@DV?$string_output_adapter@D@__crt_stdio_output@@V?$format_validation_base@DV?$string_output_adapter@D@__crt_stdio_output@@@2@@__crt_stdio_output@@AEAA_NXZ 0000000180034f64 f i libucrt:output.obj
 0001:00033fd8       ?state_case_normal_tchar@?$output_processor@DV?$string_output_adapter@D@__crt_stdio_output@@V?$format_validation_base@DV?$string_output_adapter@D@__crt_stdio_output@@@2@@__crt_stdio_output@@AEAA_ND@Z 0000000180034fd8 f i libucrt:output.obj
 0001:00034080       ?state_case_size@?$output_processor@DV?$string_output_adapter@D@__crt_stdio_output@@V?$format_validation_base@DV?$string_output_adapter@D@__crt_stdio_output@@@2@@__crt_stdio_output@@AEAA_NXZ 0000000180035080 f i libucrt:output.obj
 0001:000341f4       ?state_case_type@?$output_processor@DV?$string_output_adapter@D@__crt_stdio_output@@V?$format_validation_base@DV?$string_output_adapter@D@__crt_stdio_output@@@2@@__crt_stdio_output@@AEAA_NXZ 00000001800351f4 f i libucrt:output.obj
 0001:0003445c       ?type_case_Z@?$output_processor@DV?$string_output_adapter@D@__crt_stdio_output@@V?$format_validation_base@DV?$string_output_adapter@D@__crt_stdio_output@@@2@@__crt_stdio_output@@AEAA_NXZ 000000018003545c f i libucrt:output.obj
 0001:000344d0       ?type_case_a@?$output_processor@DV?$string_output_adapter@D@__crt_stdio_output@@V?$format_validation_base@DV?$string_output_adapter@D@__crt_stdio_output@@@2@@__crt_stdio_output@@AEAA_NXZ 00000001800354d0 f i libucrt:output.obj
 0001:000346e8       ?type_case_c_tchar@?$output_processor@DV?$string_output_adapter@D@__crt_stdio_output@@V?$format_validation_base@DV?$string_output_adapter@D@__crt_stdio_output@@@2@@__crt_stdio_output@@AEAA_ND@Z 00000001800356e8 f i libucrt:output.obj
 0001:000347a4       ?type_case_integer@?$output_processor@DV?$string_output_adapter@D@__crt_stdio_output@@V?$format_validation_base@DV?$string_output_adapter@D@__crt_stdio_output@@@2@@__crt_stdio_output@@AEAA_NI_N@Z 00000001800357a4 f i libucrt:output.obj
 0001:0003496c       ?type_case_n@?$output_processor@DV?$string_output_adapter@D@__crt_stdio_output@@V?$format_validation_base@DV?$string_output_adapter@D@__crt_stdio_output@@@2@@__crt_stdio_output@@AEAA_NXZ 000000018003596c f i libucrt:output.obj
 0001:00034a48       ?type_case_s@?$output_processor@DV?$string_output_adapter@D@__crt_stdio_output@@V?$format_validation_base@DV?$string_output_adapter@D@__crt_stdio_output@@@2@@__crt_stdio_output@@AEAA_NXZ 0000000180035a48 f i libucrt:output.obj
 0001:00034ae0       ?write_stored_string_tchar@?$output_processor@DV?$string_output_adapter@D@__crt_stdio_output@@V?$format_validation_base@DV?$string_output_adapter@D@__crt_stdio_output@@@2@@__crt_stdio_output@@AEAA_ND@Z 0000000180035ae0 f i libucrt:output.obj
 0001:00034bb8       ?write_string@?$string_output_adapter@D@__crt_stdio_output@@QEBAXQEBDHQEAHAEAV__crt_deferred_errno_cache@@@Z 0000000180035bb8 f i libucrt:output.obj
 0001:00034c5c       __stdio_common_vsnprintf_s 0000000180035c5c f   libucrt:output.obj
 0001:00034d90       _isatty                    0000000180035d90 f   libucrt:isatty.obj
 0001:00034df0       terminate                  0000000180035df0 f   libucrt:terminate.obj
 0001:00034e10       localeconv                 0000000180035e10 f   libucrt:localeconv.obj
 0001:00034e44       _fileno                    0000000180035e44 f   libucrt:fileno.obj
 0001:00034e6c       __acrt_errno_from_os_error 0000000180035e6c f   libucrt:errno.obj
 0001:00034eb4       __acrt_errno_map_os_error  0000000180035eb4 f   libucrt:errno.obj
 0001:00034f04       __doserrno                 0000000180035f04 f   libucrt:errno.obj
 0001:00034f24       _errno                     0000000180035f24 f   libucrt:errno.obj
 0001:00034f44       _fdclass                   0000000180035f44 f   libucrt:nanf.obj
 0001:00034f60       _fdsign                    0000000180035f60 f   libucrt:nanf.obj
 0001:00034f74       _ldclass                   0000000180035f74 f   libucrt:nanl.obj
 0001:00034f90       free                       0000000180035f90 f   libucrt:free.obj
 0001:00034fa4       malloc                     0000000180035fa4 f   libucrt:malloc.obj
 0001:00034fac       modf                       0000000180035fac f   libucrt:modf.obj
 0001:0003508c       log2                       000000018003608c f   libucrt:log2.obj
 0001:000353b4       _isleadbyte_l              00000001800363b4 f i libucrt:_wctype.obj
 0001:00035400       iswdigit                   0000000180036400 f i libucrt:_wctype.obj
 0001:0003540c       wcspbrk                    000000018003640c f   libucrt:wcspbrk.obj
 0001:00035440       wcstok                     0000000180036440 f   libucrt:wcstok.obj
 0001:0003547c       round                      000000018003647c f   libucrt:round.obj
 0001:000354e4       wcsncpy_s                  00000001800364e4 f   libucrt:wcsncpy_s.obj
 0001:000355c8       wcscspn                    00000001800365c8 f   libucrt:wcscspn.obj
 0001:00035608       __acrt_initialize_locks    0000000180036608 f   libucrt:locks.obj
 0001:00035650       __acrt_lock                0000000180036650 f   libucrt:locks.obj
 0001:0003566c       __acrt_uninitialize_locks  000000018003666c f   libucrt:locks.obj
 0001:000356a4       __acrt_unlock              00000001800366a4 f   libucrt:locks.obj
 0001:000356c0       _lock_locales              00000001800366c0 f   libucrt:locks.obj
 0001:000356dc       _unlock_locales            00000001800366dc f   libucrt:locks.obj
 0001:000359cc       setlocale                  00000001800369cc f   libucrt:setlocale.obj
 0001:00035a18       ___lc_codepage_func        0000000180036a18 f   libucrt:initctype.obj
 0001:00035a48       ___lc_locale_name_func     0000000180036a48 f   libucrt:initctype.obj
 0001:00035a7c       ___mb_cur_max_func         0000000180036a7c f   libucrt:initctype.obj
 0001:00035aac       __acrt_locale_initialize_ctype 0000000180036aac f   libucrt:initctype.obj
 0001:00036110       __pctype_func              0000000180037110 f   libucrt:ctype.obj
 0001:00036140       ?divide@__crt_strtox@@YA_KAEAUbig_integer@1@AEBU21@@Z 0000000180037140 f i libucrt:strtod.obj
 0001:0003656c       _ischartype_l              000000018003756c f i libucrt:strtod.obj
 0001:00036670       pow                        0000000180037670 f   libucrt:pow.obj
 0001:00037d10       powf                       0000000180038d10 f   libucrt:powf.obj
 0001:00038bd8       abort                      0000000180039bd8 f   libucrt:abort.obj
 0001:00038c30       _wcsdup                    0000000180039c30 f   libucrt:wcsdup.obj
 0001:00038c30       wcsdup                     0000000180039c30 f   libucrt:wcsdup.obj
 0001:00038cb4       ??$__acrt_mbs_to_wcs_cp@U__crt_win32_buffer_internal_dynamic_resizing@@@@YAHQEBDAEAV?$__crt_win32_buffer@_WU__crt_win32_buffer_internal_dynamic_resizing@@@@I@Z 0000000180039cb4 f i libucrt:strftime.obj
 0001:00038e2c       ??$__acrt_wcs_to_mbs_cp@U__crt_win32_buffer_no_resizing@@@@YAHQEB_WAEAV?$__crt_win32_buffer@DU__crt_win32_buffer_no_resizing@@@@I@Z 0000000180039e2c f i libucrt:strftime.obj
 0001:00038f40       __strncnt                  0000000180039f40 f   libucrt:strncnt.obj
 0001:00038f58       wcscpy_s                   0000000180039f58 f   libucrt:wcscpy_s.obj
 0001:00038fc0       strnlen                    0000000180039fc0 f   libucrt:strnlen.obj
 0001:00039110       wcsnlen                    000000018003a110 f   libucrt:strnlen.obj
 0001:000392e8       __initialize_lconv_for_unsigned_char 000000018003a2e8 f   libucrt:lconv_unsigned_char_initialization.obj
 0001:000392f4       _seh_filter_dll            000000018003a2f4 f   libucrt:exception_filter.obj
 0001:00039308       _seh_filter_exe            000000018003a308 f   libucrt:exception_filter.obj
 0001:000396f8       __acrt_initialize_thread_local_exit_callback 000000018003a6f8 f   libucrt:exit.obj
 0001:00039700       _cexit                     000000018003a700 f   libucrt:exit.obj
 0001:00039710       _exit                      000000018003a710 f   libucrt:exit.obj
 0001:0003971c       _is_c_termination_complete 000000018003a71c f   libucrt:exit.obj
 0001:000398e8       __acrt_allocate_buffer_for_argv 000000018003a8e8 f   libucrt:argv_parsing.obj
 0001:00039948       _configure_narrow_argv     000000018003a948 f   libucrt:argv_parsing.obj
 0001:00039cc0       __dcrt_uninitialize_environments_nolock 000000018003acc0 f   libucrt:environment_initialization.obj
 0001:00039cf8       _initialize_narrow_environment 000000018003acf8 f   libucrt:environment_initialization.obj
 0001:0003a040       _crt_atexit                000000018003b040 f   libucrt:onexit.obj
 0001:0003a050       _execute_onexit_table      000000018003b050 f   libucrt:onexit.obj
 0001:0003a08c       _initialize_onexit_table   000000018003b08c f   libucrt:onexit.obj
 0001:0003a0b4       _register_onexit_function  000000018003b0b4 f   libucrt:onexit.obj
 0001:0003a134       __acrt_uninitialize_command_line 000000018003b134 f   libucrt:argv_data.obj
 0001:0003a22c       __acrt_initialize          000000018003b22c f   libucrt:initialization.obj
 0001:0003a240       __acrt_thread_attach       000000018003b240 f   libucrt:initialization.obj
 0001:0003a254       __acrt_thread_detach       000000018003b254 f   libucrt:initialization.obj
 0001:0003a264       __acrt_uninitialize        000000018003b264 f   libucrt:initialization.obj
 0001:0003a29c       __acrt_uninitialize_critical 000000018003b29c f   libucrt:initialization.obj
 0001:0003a2ac       __acrt_initialize_new_handler 000000018003b2ac f   libucrt:new_handler.obj
 0001:0003a2b4       _callnewh                  000000018003b2b4 f   libucrt:new_handler.obj
 0001:0003a2e4       _query_new_handler         000000018003b2e4 f   libucrt:new_handler.obj
 0001:0003a318       _initterm                  000000018003b318 f   libucrt:initterm.obj
 0001:0003a37c       _initterm_e                000000018003b37c f   libucrt:initterm.obj
 0001:0003a3bc       strcpy_s                   000000018003b3bc f   libucrt:strcpy_s.obj
 0001:0003a41c       ??$parse_integer@KV?$c_string_character_source@D@__crt_strtox@@@__crt_strtox@@YAKQEAU__crt_locale_pointers@@V?$c_string_character_source@D@0@H_N@Z 000000018003b41c f i libucrt:atox.obj
 0001:0003a724       ??$parse_integer@KV?$c_string_character_source@_W@__crt_strtox@@@__crt_strtox@@YAKQEAU__crt_locale_pointers@@V?$c_string_character_source@_W@0@H_N@Z 000000018003b724 f i libucrt:atox.obj
 0001:0003adcc       _wtol                      000000018003bdcc f   libucrt:atox.obj
 0001:0003ae10       strncmp                    000000018003be10 f   libucrt:strncmp.obj
 0001:0003ae90       wcsncmp                    000000018003be90 f   libucrt:wcsncmp.obj
 0001:0003b234       __acrt_freeptd             000000018003c234 f   libucrt:per_thread_data.obj
 0001:0003b278       __acrt_getptd              000000018003c278 f   libucrt:per_thread_data.obj
 0001:0003b34c       __acrt_getptd_head         000000018003c34c f   libucrt:per_thread_data.obj
 0001:0003b3f4       __acrt_getptd_noexit       000000018003c3f4 f   libucrt:per_thread_data.obj
 0001:0003b4c0       __acrt_initialize_ptd      000000018003c4c0 f   libucrt:per_thread_data.obj
 0001:0003b4fc       __acrt_uninitialize_ptd    000000018003c4fc f   libucrt:per_thread_data.obj
 0001:0003b71c       __acrt_initialize_lowio    000000018003c71c f   libucrt:ioinit.obj
 0001:0003b758       __acrt_uninitialize_lowio  000000018003c758 f   libucrt:ioinit.obj
 0001:0003b798       _calloc_base               000000018003c798 f   libucrt:calloc_base.obj
 0001:0003b810       _query_app_type            000000018003c810 f   libucrt:report_runtime_error.obj
 0001:0003b818       _free_base                 000000018003c818 f   libucrt:free_base.obj
 0001:0003bad4       __acrt_AppPolicyGetProcessTerminationMethodInternal 000000018003cad4 f   libucrt:winapi_thunks.obj
 0001:0003bb24       __acrt_AreFileApisANSI     000000018003cb24 f   libucrt:winapi_thunks.obj
 0001:0003bb60       __acrt_EnumSystemLocalesEx 000000018003cb60 f   libucrt:winapi_thunks.obj
 0001:0003bbf8       __acrt_FlsAlloc            000000018003cbf8 f   libucrt:winapi_thunks.obj
 0001:0003bc40       __acrt_FlsFree             000000018003cc40 f   libucrt:winapi_thunks.obj
 0001:0003bc88       __acrt_FlsGetValue         000000018003cc88 f   libucrt:winapi_thunks.obj
 0001:0003bcd0       __acrt_FlsSetValue         000000018003ccd0 f   libucrt:winapi_thunks.obj
 0001:0003bd24       __acrt_GetLocaleInfoEx     000000018003cd24 f   libucrt:winapi_thunks.obj
 0001:0003bda8       __acrt_GetUserDefaultLocaleName 000000018003cda8 f   libucrt:winapi_thunks.obj
 0001:0003be0c       __acrt_InitializeCriticalSectionEx 000000018003ce0c f   libucrt:winapi_thunks.obj
 0001:0003be70       __acrt_IsValidLocaleName   000000018003ce70 f   libucrt:winapi_thunks.obj
 0001:0003bec8       __acrt_LCIDToLocaleName    000000018003cec8 f   libucrt:winapi_thunks.obj
 0001:0003bf38       __acrt_LCMapStringEx       000000018003cf38 f   libucrt:winapi_thunks.obj
 0001:0003c014       __acrt_LocaleNameToLCID    000000018003d014 f   libucrt:winapi_thunks.obj
 0001:0003c064       __acrt_can_use_vista_locale_apis 000000018003d064 f   libucrt:winapi_thunks.obj
 0001:0003c094       __acrt_eagerly_load_locale_apis 000000018003d094 f   libucrt:winapi_thunks.obj
 0001:0003c1f0       __acrt_initialize_winapi_thunks 000000018003d1f0 f   libucrt:winapi_thunks.obj
 0001:0003c224       __acrt_uninitialize_winapi_thunks 000000018003d224 f   libucrt:winapi_thunks.obj
 0001:0003c268       _fcloseall                 000000018003d268 f   libucrt:closeall.obj
 0001:0003c4f8       __acrt_stdio_flush_nolock  000000018003d4f8 f   libucrt:fflush.obj
 0001:0003c574       _fflush_nolock             000000018003d574 f   libucrt:fflush.obj
 0001:0003c5c0       _flushall                  000000018003d5c0 f   libucrt:fflush.obj
 0001:0003c5c8       __acrt_stdio_free_buffer_nolock 000000018003d5c8 f   libucrt:_freebuf.obj
 0001:0003c608       _d_int                     000000018003d608 f   libucrt:_test.obj
 0001:0003c720       _dtest                     000000018003d720 f   libucrt:_test.obj
 0001:0003c784       _fdtest                    000000018003d784 f   libucrt:_test.obj
 0001:0003c7d0       _ldtest                    000000018003d7d0 f   libucrt:_test.obj
 0001:0003c7d8       _malloc_base               000000018003d7d8 f   libucrt:malloc_base.obj
 0001:0003c838       strtol                     000000018003d838 f   libucrt:strtox.obj
 0001:0003c864       _mbtowc_l                  000000018003d864 f   libucrt:mbtowc.obj
 0001:0003c9e4       mbtowc                     000000018003d9e4 f   libucrt:mbtowc.obj
 0001:0003c9ec       _wctomb_s_l                000000018003d9ec f   libucrt:wctomb.obj
 0001:0003cb88       wctomb_s                   000000018003db88 f   libucrt:wctomb.obj
 0001:0003cb9c       __acrt_update_locale_info  000000018003db9c f   libucrt:locale_update.obj
 0001:0003cbd0       __acrt_update_multibyte_info 000000018003dbd0 f   libucrt:locale_update.obj
 0001:0003d49c       __acrt_fp_format           000000018003e49c f   libucrt:cvt.obj
 0001:0003d7a0       _get_printf_count_output   000000018003e7a0 f   libucrt:printf_count_output.obj
 0001:0003da20       ?commit_locale_name@_expandlocale_locale_name_cache@@QEAAXQEB_W_K@Z 000000018003ea20 f i libucrt:wsetlocale.obj
 0001:0003da98       __acrt_copy_locale_name    000000018003ea98 f   libucrt:wsetlocale.obj
 0001:0003db1c       __acrt_set_locale_changed  000000018003eb1c f   libucrt:wsetlocale.obj
 0001:0003db28       __acrt_uninitialize_locale 000000018003eb28 f   libucrt:wsetlocale.obj
 0001:0003db58       __lc_lctowcs               000000018003eb58 f   libucrt:wsetlocale.obj
 0001:0003dbfc       __lc_wcstolc               000000018003ebfc f   libucrt:wsetlocale.obj
 0001:0003e2a4       _wcscats                   000000018003f2a4 f   libucrt:wsetlocale.obj
 0001:0003e30c       _wsetlocale                000000018003f30c f   libucrt:wsetlocale.obj
 0001:0003f8cc       _write                     00000001800408cc f   libucrt:write.obj
 0001:0003f9b8       _write_nolock              00000001800409b8 f   libucrt:write.obj
 0001:0003fdb8       _handle_error              0000000180040db8 f   libucrt:libm_error.obj
 0001:0003fee0       _handle_errorf             0000000180040ee0 f   libucrt:libm_error.obj
 0001:00040014       _handle_nan                0000000180041014 f   libucrt:libm_error.obj
 0001:00040030       _handle_nanf               0000000180041030 f   libucrt:libm_error.obj
 0001:00040040       iswctype                   0000000180041040 f   libucrt:iswctype.obj
 0001:000400b0       __acrt_wcstok_s_novalidation 00000001800410b0 f   libucrt:wcstok_s.obj
 0001:00040364       _mbstowcs_s_l              0000000180041364 f   libucrt:mbstowcs.obj
 0001:00040498       mbstowcs_s                 0000000180041498 f   libucrt:mbstowcs.obj
 0001:00040820       _wcstombs_s_l              0000000180041820 f   libucrt:wcstombs.obj
 0001:00040a88       __acrt_GetLocaleInfoA      0000000180041a88 f   libucrt:getlocaleinfoa.obj
 0001:00040c50       __acrt_GetStringTypeA      0000000180041c50 f   libucrt:getstringtypea.obj
 0001:000410f8       __acrt_LCMapStringA        00000001800420f8 f   libucrt:lcmapstringa.obj
 0001:00041190       _raise_exc                 0000000180042190 f   libucrt:fpexcept.obj
 0001:000411b8       _raise_exc_ex              00000001800421b8 f   libucrt:fpexcept.obj
 0001:000414c8       _raise_excf                00000001800424c8 f   libucrt:fpexcept.obj
 0001:000414f4       _set_errno_from_matherr    00000001800424f4 f   libucrt:fpexcept.obj
 0001:00041524       _clrfp                     0000000180042524 f   libucrt:fpctrl.obj
 0001:00041544       _ctrlfp                    0000000180042544 f   libucrt:fpctrl.obj
 0001:000415c0       _set_statfp                00000001800425c0 f   libucrt:fpctrl.obj
 0001:000415e0       _statfp                    00000001800425e0 f   libucrt:fpctrl.obj
 0001:000415f4       _realloc_base              00000001800425f4 f   libucrt:realloc_base.obj
 0001:00041670       _isctype_l                 0000000180042670 f   libucrt:isctype.obj
 0001:00041780       __acrt_initialize_fma3     0000000180042780 f   libucrt:fma3_available.obj
 0001:000417f0       _pow_special               00000001800427f0 f   libucrt:pow_special.obj
 0001:00041914       _powf_special              0000000180042914 f   libucrt:pow_special.obj
 0001:00041ae8       __acrt_get_sigabrt_handler 0000000180042ae8 f   libucrt:signal.obj
 0001:00041b18       __acrt_initialize_signal_handlers 0000000180042b18 f   libucrt:signal.obj
 0001:00041b38       raise                      0000000180042b38 f   libucrt:signal.obj
 0001:00041da4       __acrt_MultiByteToWideChar 0000000180042da4 f   libucrt:multibytetowidechar.obj
 0001:00041e00       __acrt_WideCharToMultiByte 0000000180042e00 f   libucrt:widechartomultibyte.obj
 0001:00041e98       __ascii_wcsicmp            0000000180042e98 f   libucrt:wcsicmp.obj
 0001:00041ed8       _wcsicmp                   0000000180042ed8 f   libucrt:wcsicmp.obj
 0001:00041f20       _wcsicmp_l                 0000000180042f20 f   libucrt:wcsicmp.obj
 0001:00042048       __acrt_initialize_timeset  0000000180043048 f   libucrt:timeset.obj
 0001:0004208c       __acrt_get_process_end_policy 000000018004308c f   libucrt:win_policies.obj
 0001:000420dc       ??$__acrt_wcs_to_mbs_cp@U__crt_win32_buffer_internal_dynamic_resizing@@@@YAHQEB_WAEAV?$__crt_win32_buffer@DU__crt_win32_buffer_internal_dynamic_resizing@@@@I@Z 00000001800430dc f i libucrt:argv_wildcards.obj
 0001:0004290c       __acrt_expand_narrow_argv_wildcards 000000018004390c f   libucrt:argv_wildcards.obj
 0001:00042914       __acrt_GetModuleFileNameA  0000000180043914 f   libucrt:getmodulefilenamea.obj
 0001:00043160       __acrt_initialize_multibyte 0000000180044160 f   libucrt:mbctype.obj
 0001:000431c0       __acrt_update_thread_multibyte_data 00000001800441c0 f   libucrt:mbctype.obj
 0001:000431dc       _setmbcp_nolock            00000001800441dc f   libucrt:mbctype.obj
 0001:00043510       _ismbblead                 0000000180044510 f   libucrt:ismbbyte.obj
 0001:00043524       __acrt_initialize_command_line 0000000180044524 f   libucrt:argv_data.obj
 0001:0004354c       __dcrt_get_narrow_environment_from_os 000000018004454c f   libucrt:get_environment_from_os.obj
 0001:00043650       _recalloc_base             0000000180044650 f   libucrt:recalloc.obj
 0001:000436e8       __acrt_initialize_heap     00000001800446e8 f   libucrt:heap_handle.obj
 0001:00043704       __acrt_uninitialize_heap   0000000180044704 f   libucrt:heap_handle.obj
 0001:00043710       __acrt_execute_initializers 0000000180044710 f   libucrt:shared_initialization.obj
 0001:00043790       __acrt_execute_uninitializers 0000000180044790 f   libucrt:shared_initialization.obj
 0001:000437cc       __acrt_has_user_matherr    00000001800447cc f   libucrt:matherr.obj
 0001:000437ec       __acrt_initialize_user_matherr 00000001800447ec f   libucrt:matherr.obj
 0001:000437f4       __acrt_invoke_user_matherr 00000001800447f4 f   libucrt:matherr.obj
 0001:00043824       __acrt_add_locale_ref      0000000180044824 f   libucrt:locale_refcounting.obj
 0001:000438b0       __acrt_free_locale         00000001800448b0 f   libucrt:locale_refcounting.obj
 0001:00043a28       __acrt_locale_add_lc_time_reference 0000000180044a28 f   libucrt:locale_refcounting.obj
 0001:00043a50       __acrt_locale_free_lc_time_if_unreferenced 0000000180044a50 f   libucrt:locale_refcounting.obj
 0001:00043a88       __acrt_locale_release_lc_time_reference 0000000180044a88 f   libucrt:locale_refcounting.obj
 0001:00043ab0       __acrt_release_locale_ref  0000000180044ab0 f   libucrt:locale_refcounting.obj
 0001:00043b58       __acrt_update_thread_locale_data 0000000180044b58 f   libucrt:locale_refcounting.obj
 0001:00043bc4       _updatetlocinfoEx_nolock   0000000180044bc4 f   libucrt:locale_refcounting.obj
 0001:00043cc8       _lseeki64_nolock           0000000180044cc8 f   libucrt:lseek.obj
 0001:00043cd0       _query_new_mode            0000000180044cd0 f   libucrt:new_mode.obj
 0001:00043cd8       wcscat_s                   0000000180044cd8 f   libucrt:wcscat_s.obj
 0001:00043d58       __acrt_DownlevelLCIDToLocaleName 0000000180044d58 f   libucrt:lcidtoname_downlevel.obj
 0001:00043e4c       __acrt_DownlevelLocaleNameToLCID 0000000180044e4c f   libucrt:lcidtoname_downlevel.obj
 0001:00043efc       _fclose_nolock             0000000180044efc f   libucrt:fclose.obj
 0001:00043f80       fclose                     0000000180044f80 f   libucrt:fclose.obj
 0001:00044070       _commit                    0000000180045070 f   libucrt:commit.obj
 0001:00044104       __acrt_fenv_get_control    0000000180045104 f   libucrt:_fenvutils.obj
 0001:000441f8       __acrt_fenv_get_status     00000001800451f8 f   libucrt:_fenvutils.obj
 0001:0004424c       __acrt_fenv_set_control    000000018004524c f   libucrt:_fenvutils.obj
 0001:00044394       __acrt_fenv_set_status     0000000180045394 f   libucrt:_fenvutils.obj
 0001:00044418       ?__mbrtowc_utf8@__crt_mbstring@@YA_KPEA_WPEBD_KPEAU_Mbstatet@@@Z 0000000180045418 f   libucrt:mbrtowc.obj
 0001:00044454       ?__mbsrtowcs_utf8@__crt_mbstring@@YA_KPEA_WPEAPEBD_KPEAU_Mbstatet@@@Z 0000000180045454 f   libucrt:mbrtowc.obj
 0001:000445cc       ?__c32rtomb_utf8@__crt_mbstring@@YA_KPEAD_UPEAU_Mbstatet@@@Z 00000001800455cc f   libucrt:c32rtomb.obj
 0001:00044680       c32rtomb                   0000000180045680 f   libucrt:c32rtomb.obj
 0001:00044688       __acrt_fp_strflt_to_string 0000000180045688 f   libucrt:_fptostr.obj
 0001:0004476c       __acrt_fltout              000000018004576c f   libucrt:cfout.obj
 0001:000459a0       __acrt_locale_free_monetary 00000001800469a0 f   libucrt:initmon.obj
 0001:00045aac       __acrt_locale_initialize_monetary 0000000180046aac f   libucrt:initmon.obj
 0001:00045fe0       __acrt_locale_free_numeric 0000000180046fe0 f   libucrt:initnum.obj
 0001:0004604c       __acrt_locale_initialize_numeric 000000018004704c f   libucrt:initnum.obj
 0001:000466cc       __acrt_locale_free_time    00000001800476cc f   libucrt:inittime.obj
 0001:000467d4       __acrt_locale_initialize_time 00000001800477d4 f   libucrt:inittime.obj
 0001:00046870       wcsncat_s                  0000000180047870 f   libucrt:wcsncat_s.obj
 0001:00047124       __acrt_get_qualified_locale 0000000180048124 f   libucrt:get_qualified_locale.obj
 0001:00047b58       __acrt_get_qualified_locale_downlevel 0000000180048b58 f   libucrt:getqloc_downlevel.obj
 0001:00047dd8       _putwch_nolock             0000000180048dd8 f   libucrt:putwch.obj
 0001:00047e14       __acrt_GetStringTypeW      0000000180048e14 f   libucrt:getstringtypew.obj
 0001:00047e1c       ?__wcsrtombs_utf8@__crt_mbstring@@YA_KPEADPEAPEB_W_KPEAU_Mbstatet@@@Z 0000000180048e1c f   libucrt:wcrtomb.obj
 0001:00047f38       strncpy_s                  0000000180048f38 f   libucrt:strncpy_s.obj
 0001:00048020       _get_fpsr                  0000000180049020 f   libucrt:fpsr.obj
 0001:00048030       _set_fpsr                  0000000180049030 f   libucrt:fpsr.obj
 0001:0004803a       _fclrf                     000000018004903a f   libucrt:fpsr.obj
 0001:0004804e       _frnd                      000000018004904e f   libucrt:fpsr.obj
 0001:00048070       _towlower_l                0000000180049070 f   libucrt:towlower.obj
 0001:00048130       qsort                      0000000180049130 f   libucrt:qsort.obj
 0001:00048580       strpbrk                    0000000180049580 f   libucrt:strpbrk.obj
 0001:00048960       _mbsdec                    0000000180049960 f   libucrt:mbsdec.obj
 0001:00048968       _mbsdec_l                  0000000180049968 f   libucrt:mbsdec.obj
 0001:00048a14       _msize_base                0000000180049a14 f   libucrt:msize.obj
 0001:00048a50       __ascii_wcsnicmp           0000000180049a50 f   libucrt:wcsnicmp.obj
 0001:00048a9c       _wcsnicmp                  0000000180049a9c f   libucrt:wcsnicmp.obj
 0001:00048ae4       _wcsnicmp_l                0000000180049ae4 f   libucrt:wcsnicmp.obj
 0001:00048ca8       _close                     0000000180049ca8 f   libucrt:close.obj
 0001:00048d4c       _close_nolock              0000000180049d4c f   libucrt:close.obj
 0001:00048e0c       ?__acrt_stdio_free_stream@@YAXV__crt_stdio_stream@@@Z 0000000180049e0c f   libucrt:stream.obj
 0001:00048e28       ?__mbrtoc32_utf8@__crt_mbstring@@YA_KPEA_UPEBD_KPEAU_Mbstatet@@@Z 0000000180049e28 f   libucrt:mbrtoc32.obj
 0001:00049004       fegetenv                   000000018004a004 f   libucrt:fegetenv.obj
 0001:00049024       fesetenv                   000000018004a024 f   libucrt:fesetenv.obj
 0001:00049070       feholdexcept               000000018004a070 f   libucrt:feholdexcept.obj
 0001:000490c0       ceil                       000000018004a0c0 f   libucrt:ceil.obj
 0001:00049190       log10                      000000018004a190 f   libucrt:log10.obj
 0001:0004987c       _itow_s                    000000018004a87c f   libucrt:xtoa.obj
 0001:0004989c       wcscmp                     000000018004a89c f   libucrt:wcscmp.obj
 0001:000498d4       __dcrt_lowio_ensure_console_output_initialized 000000018004a8d4 f   libucrt:initcon.obj
 0001:00049928       __dcrt_terminate_console_output 000000018004a928 f   libucrt:initcon.obj
 0001:00049944       __dcrt_write_console       000000018004a944 f   libucrt:initcon.obj
 0001:00049a04       ?__c16rtomb_utf8@__crt_mbstring@@YA_KPEAD_SPEAU_Mbstatet@@@Z 000000018004aa04 f   libucrt:c16rtomb.obj
 0001:00049aac       __acrt_LCMapStringW        000000018004aaac f   libucrt:lcmapstringw.obj
 0001:00049b34       _clearfp                   000000018004ab34 f   libucrt:ieee.obj
 0001:00049bb0       _log10_special             000000018004abb0 f   libucrt:log_special.obj
 0001:00049c66       IsProcessorFeaturePresent  000000018004ac66 f   kernel32:KERNEL32.dll
 0001:00049c70       _FindPESection             000000018004ac70 f   LIBCMT:pesect.obj
 0001:00049cc0       _IsNonwritableInCurrentImage 000000018004acc0 f   LIBCMT:pesect.obj
 0001:00049d10       _ValidateImageBase         000000018004ad10 f   LIBCMT:pesect.obj
 0001:00049d40       __GSHandlerCheck_SEH       000000018004ad40 f   LIBCMT:gshandlerseh.obj
 0001:00049dc8       strrchr                    000000018004adc8 f   libvcruntime:strrchr.obj
 0001:00049ef8       __GSHandlerCheck_EH4       000000018004aef8 f   LIBCMT:gshandlereh4.obj
 0001:00049f78       ceilf                      000000018004af78 f   libucrt:ceilf.obj
 0001:0004a010       _guard_dispatch_icall_nop  000000018004b010 f   LIBCMT:guard_dispatch.obj
 0002:00000000       __imp_LookupPrivilegeValueW 000000018004d000     advapi32:ADVAPI32.dll
 0002:00000008       __imp_AdjustTokenPrivileges 000000018004d008     advapi32:ADVAPI32.dll
 0002:00000010       __imp_OpenProcessToken     000000018004d010     advapi32:ADVAPI32.dll
 0002:00000018       __imp_SetThreadToken       000000018004d018     advapi32:ADVAPI32.dll
 0002:00000020       __imp_DuplicateTokenEx     000000018004d020     advapi32:ADVAPI32.dll
 0002:00000028       __imp_OpenThreadToken      000000018004d028     advapi32:ADVAPI32.dll
 0002:00000030       __imp_RegCloseKey          000000018004d030     advapi32:ADVAPI32.dll
 0002:00000038       __imp_RegConnectRegistryW  000000018004d038     advapi32:ADVAPI32.dll
 0002:00000040       __imp_RegQueryValueExW     000000018004d040     advapi32:ADVAPI32.dll
 0002:00000048       __imp_ConvertSidToStringSidW 000000018004d048     advapi32:ADVAPI32.dll
 0002:00000050       __imp_GetUserNameW         000000018004d050     advapi32:ADVAPI32.dll
 0002:00000058       __imp_LookupAccountNameW   000000018004d058     advapi32:ADVAPI32.dll
 0002:00000060       \177ADVAPI32_NULL_THUNK_DATA 000000018004d060     advapi32:ADVAPI32.dll
 0002:00000068       __imp_lstrlenW             000000018004d068     kernel32:KERNEL32.dll
 0002:00000070       __imp_SetLastError         000000018004d070     kernel32:KERNEL32.dll
 0002:00000078       __imp_SetPriorityClass     000000018004d078     kernel32:KERNEL32.dll
 0002:00000080       __imp_lstrcpynW            000000018004d080     kernel32:KERNEL32.dll
 0002:00000088       __imp_CreateFileW          000000018004d088     kernel32:KERNEL32.dll
 0002:00000090       __imp_GetCurrentThreadId   000000018004d090     kernel32:KERNEL32.dll
 0002:00000098       __imp_SetEvent             000000018004d098     kernel32:KERNEL32.dll
 0002:000000a0       __imp_FileTimeToSystemTime 000000018004d0a0     kernel32:KERNEL32.dll
 0002:000000a8       __imp_GetLocalTime         000000018004d0a8     kernel32:KERNEL32.dll
 0002:000000b0       __imp_GetPriorityClass     000000018004d0b0     kernel32:KERNEL32.dll
 0002:000000b8       __imp_SystemTimeToTzSpecificLocalTime 000000018004d0b8     kernel32:KERNEL32.dll
 0002:000000c0       __imp_GetSystemTimeAsFileTime 000000018004d0c0     kernel32:KERNEL32.dll
 0002:000000c8       __imp_GetTickCount         000000018004d0c8     kernel32:KERNEL32.dll
 0002:000000d0       __imp_lstrcmpW             000000018004d0d0     kernel32:KERNEL32.dll
 0002:000000d8       __imp_WaitForMultipleObjects 000000018004d0d8     kernel32:KERNEL32.dll
 0002:000000e0       __imp_GetFileType          000000018004d0e0     kernel32:KERNEL32.dll
 0002:000000e8       __imp_ReleaseMutex         000000018004d0e8     kernel32:KERNEL32.dll
 0002:000000f0       __imp_CreateEventW         000000018004d0f0     kernel32:KERNEL32.dll
 0002:000000f8       __imp_ResetEvent           000000018004d0f8     kernel32:KERNEL32.dll
 0002:00000100       __imp_GetProcessTimes      000000018004d100     kernel32:KERNEL32.dll
 0002:00000108       __imp_TerminateProcess     000000018004d108     kernel32:KERNEL32.dll
 0002:00000110       __imp_OpenProcess          000000018004d110     kernel32:KERNEL32.dll
 0002:00000118       __imp_GetLastError         000000018004d118     kernel32:KERNEL32.dll
 0002:00000120       __imp_GetCurrentThread     000000018004d120     kernel32:KERNEL32.dll
 0002:00000128       __imp_ReadProcessMemory    000000018004d128     kernel32:KERNEL32.dll
 0002:00000130       __imp_FormatMessageW       000000018004d130     kernel32:KERNEL32.dll
 0002:00000138       __imp_FileTimeToLocalFileTime 000000018004d138     kernel32:KERNEL32.dll
 0002:00000140       __imp_GetTimeFormatW       000000018004d140     kernel32:KERNEL32.dll
 0002:00000148       __imp_GetModuleHandleW     000000018004d148     kernel32:KERNEL32.dll
 0002:00000150       __imp_GetDateFormatW       000000018004d150     kernel32:KERNEL32.dll
 0002:00000158       __imp_GetProcAddress       000000018004d158     kernel32:KERNEL32.dll
 0002:00000160       __imp_HeapSize             000000018004d160     kernel32:KERNEL32.dll
 0002:00000168       __imp_GetCurrentProcessId  000000018004d168     kernel32:KERNEL32.dll
 0002:00000170       __imp_LocalFree            000000018004d170     kernel32:KERNEL32.dll
 0002:00000178       __imp_CreateThread         000000018004d178     kernel32:KERNEL32.dll
 0002:00000180       __imp_CloseHandle          000000018004d180     kernel32:KERNEL32.dll
 0002:00000188       __imp_TerminateThread      000000018004d188     kernel32:KERNEL32.dll
 0002:00000190       __imp_DuplicateHandle      000000018004d190     kernel32:KERNEL32.dll
 0002:00000198       __imp_WaitForSingleObject  000000018004d198     kernel32:KERNEL32.dll
 0002:000001a0       __imp_VirtualAlloc         000000018004d1a0     kernel32:KERNEL32.dll
 0002:000001a8       __imp_GetCurrentProcess    000000018004d1a8     kernel32:KERNEL32.dll
 0002:000001b0       __imp_VirtualFree          000000018004d1b0     kernel32:KERNEL32.dll
 0002:000001b8       __imp_WriteConsoleW        000000018004d1b8     kernel32:KERNEL32.dll
 0002:000001c0       __imp_CreateMutexW         000000018004d1c0     kernel32:KERNEL32.dll
 0002:000001c8       __imp_WriteFile            000000018004d1c8     kernel32:KERNEL32.dll
 0002:000001d0       __imp_FlushFileBuffers     000000018004d1d0     kernel32:KERNEL32.dll
 0002:000001d8       __imp_GetProcessHeap       000000018004d1d8     kernel32:KERNEL32.dll
 0002:000001e0       __imp_FreeEnvironmentStringsW 000000018004d1e0     kernel32:KERNEL32.dll
 0002:000001e8       __imp_GetEnvironmentStringsW 000000018004d1e8     kernel32:KERNEL32.dll
 0002:000001f0       __imp_GetCommandLineW      000000018004d1f0     kernel32:KERNEL32.dll
 0002:000001f8       __imp_GetCommandLineA      000000018004d1f8     kernel32:KERNEL32.dll
 0002:00000200       __imp_GetOEMCP             000000018004d200     kernel32:KERNEL32.dll
 0002:00000208       __imp_GetACP               000000018004d208     kernel32:KERNEL32.dll
 0002:00000210       __imp_IsValidCodePage      000000018004d210     kernel32:KERNEL32.dll
 0002:00000218       __imp_FindNextFileW        000000018004d218     kernel32:KERNEL32.dll
 0002:00000220       __imp_FindFirstFileExW     000000018004d220     kernel32:KERNEL32.dll
 0002:00000228       __imp_FindClose            000000018004d228     kernel32:KERNEL32.dll
 0002:00000230       __imp_HeapReAlloc          000000018004d230     kernel32:KERNEL32.dll
 0002:00000238       __imp_GetConsoleMode       000000018004d238     kernel32:KERNEL32.dll
 0002:00000240       __imp_GetConsoleCP         000000018004d240     kernel32:KERNEL32.dll
 0002:00000248       __imp_EnumSystemLocalesW   000000018004d248     kernel32:KERNEL32.dll
 0002:00000250       __imp_GetUserDefaultLCID   000000018004d250     kernel32:KERNEL32.dll
 0002:00000258       __imp_IsValidLocale        000000018004d258     kernel32:KERNEL32.dll
 0002:00000260       __imp_HeapFree             000000018004d260     kernel32:KERNEL32.dll
 0002:00000268       __imp_HeapAlloc            000000018004d268     kernel32:KERNEL32.dll
 0002:00000270       __imp_GetStdHandle         000000018004d270     kernel32:KERNEL32.dll
 0002:00000278       __imp_SetFilePointerEx     000000018004d278     kernel32:KERNEL32.dll
 0002:00000280       __imp_GetModuleFileNameW   000000018004d280     kernel32:KERNEL32.dll
 0002:00000288       __imp_MultiByteToWideChar  000000018004d288     kernel32:KERNEL32.dll
 0002:00000290       __imp_WideCharToMultiByte  000000018004d290     kernel32:KERNEL32.dll
 0002:00000298       __imp_EnterCriticalSection 000000018004d298     kernel32:KERNEL32.dll
 0002:000002a0       __imp_LeaveCriticalSection 000000018004d2a0     kernel32:KERNEL32.dll
 0002:000002a8       __imp_DeleteCriticalSection 000000018004d2a8     kernel32:KERNEL32.dll
 0002:000002b0       __imp_InitializeCriticalSectionAndSpinCount 000000018004d2b0     kernel32:KERNEL32.dll
 0002:000002b8       __imp_TlsAlloc             000000018004d2b8     kernel32:KERNEL32.dll
 0002:000002c0       __imp_TlsGetValue          000000018004d2c0     kernel32:KERNEL32.dll
 0002:000002c8       __imp_TlsSetValue          000000018004d2c8     kernel32:KERNEL32.dll
 0002:000002d0       __imp_TlsFree              000000018004d2d0     kernel32:KERNEL32.dll
 0002:000002d8       __imp_EncodePointer        000000018004d2d8     kernel32:KERNEL32.dll
 0002:000002e0       __imp_DecodePointer        000000018004d2e0     kernel32:KERNEL32.dll
 0002:000002e8       __imp_GetStringTypeW       000000018004d2e8     kernel32:KERNEL32.dll
 0002:000002f0       __imp_LCMapStringW         000000018004d2f0     kernel32:KERNEL32.dll
 0002:000002f8       __imp_GetLocaleInfoW       000000018004d2f8     kernel32:KERNEL32.dll
 0002:00000300       __imp_GetCPInfo            000000018004d300     kernel32:KERNEL32.dll
 0002:00000308       __imp_RtlCaptureContext    000000018004d308     kernel32:KERNEL32.dll
 0002:00000310       __imp_RtlLookupFunctionEntry 000000018004d310     kernel32:KERNEL32.dll
 0002:00000318       __imp_RtlVirtualUnwind     000000018004d318     kernel32:KERNEL32.dll
 0002:00000320       __imp_UnhandledExceptionFilter 000000018004d320     kernel32:KERNEL32.dll
 0002:00000328       __imp_SetUnhandledExceptionFilter 000000018004d328     kernel32:KERNEL32.dll
 0002:00000330       __imp_IsProcessorFeaturePresent 000000018004d330     kernel32:KERNEL32.dll
 0002:00000338       __imp_IsDebuggerPresent    000000018004d338     kernel32:KERNEL32.dll
 0002:00000340       __imp_GetStartupInfoW      000000018004d340     kernel32:KERNEL32.dll
 0002:00000348       __imp_QueryPerformanceCounter 000000018004d348     kernel32:KERNEL32.dll
 0002:00000350       __imp_InitializeSListHead  000000018004d350     kernel32:KERNEL32.dll
 0002:00000358       __imp_RtlUnwindEx          000000018004d358     kernel32:KERNEL32.dll
 0002:00000360       __imp_RtlPcToFileHeader    000000018004d360     kernel32:KERNEL32.dll
 0002:00000368       __imp_RaiseException       000000018004d368     kernel32:KERNEL32.dll
 0002:00000370       __imp_InterlockedFlushSList 000000018004d370     kernel32:KERNEL32.dll
 0002:00000378       __imp_FreeLibrary          000000018004d378     kernel32:KERNEL32.dll
 0002:00000380       __imp_LoadLibraryExW       000000018004d380     kernel32:KERNEL32.dll
 0002:00000388       __imp_SetStdHandle         000000018004d388     kernel32:KERNEL32.dll
 0002:00000390       __imp_ExitProcess          000000018004d390     kernel32:KERNEL32.dll
 0002:00000398       __imp_GetModuleHandleExW   000000018004d398     kernel32:KERNEL32.dll
 0002:000003a0       \177KERNEL32_NULL_THUNK_DATA 000000018004d3a0     kernel32:KERNEL32.dll
 0002:000003a8       __imp_WNetCancelConnection2W 000000018004d3a8     mpr:MPR.dll
 0002:000003b0       __imp_WNetAddConnection2W  000000018004d3b0     mpr:MPR.dll
 0002:000003b8       \177MPR_NULL_THUNK_DATA    000000018004d3b8     mpr:MPR.dll
 0002:000003c0       __imp_SysAllocString       000000018004d3c0     oleaut32:OLEAUT32.dll
 0002:000003c8       __imp_VariantClear         000000018004d3c8     oleaut32:OLEAUT32.dll
 0002:000003d0       __imp_SysFreeString        000000018004d3d0     oleaut32:OLEAUT32.dll
 0002:000003d8       \177OLEAUT32_NULL_THUNK_DATA 000000018004d3d8     oleaut32:OLEAUT32.dll
 0002:000003e0       __imp_GetModuleInformation 000000018004d3e0     psapi:PSAPI.DLL
 0002:000003e8       __imp_GetModuleFileNameExW 000000018004d3e8     psapi:PSAPI.DLL
 0002:000003f0       \177PSAPI_NULL_THUNK_DATA  000000018004d3f0     psapi:PSAPI.DLL
 0002:000003f8       __imp_GetAncestor          000000018004d3f8     user32:USER32.dll
 0002:00000400       __imp_SetForegroundWindow  000000018004d400     user32:USER32.dll
 0002:00000408       __imp_IsIconic             000000018004d408     user32:USER32.dll
 0002:00000410       __imp_GetWindowTextW       000000018004d410     user32:USER32.dll
 0002:00000418       __imp_GetParent            000000018004d418     user32:USER32.dll
 0002:00000420       __imp_CharUpperBuffW       000000018004d420     user32:USER32.dll
 0002:00000428       __imp_EnumWindows          000000018004d428     user32:USER32.dll
 0002:00000430       __imp_GetWindowThreadProcessId 000000018004d430     user32:USER32.dll
 0002:00000438       __imp_GetLastActivePopup   000000018004d438     user32:USER32.dll
 0002:00000440       __imp_ShowWindowAsync      000000018004d440     user32:USER32.dll
 0002:00000448       __imp_IsWindowVisible      000000018004d448     user32:USER32.dll
 0002:00000450       __imp_GetWindowLongPtrW    000000018004d450     user32:USER32.dll
 0002:00000458       \177USER32_NULL_THUNK_DATA 000000018004d458     user32:USER32.dll
 0002:00000460       __imp_GetFileVersionInfoSizeW 000000018004d460     version:VERSION.dll
 0002:00000468       __imp_GetFileVersionInfoW  000000018004d468     version:VERSION.dll
 0002:00000470       __imp_VerQueryValueW       000000018004d470     version:VERSION.dll
 0002:00000478       \177VERSION_NULL_THUNK_DATA 000000018004d478     version:VERSION.dll
 0002:00000480       __imp_CoUninitialize       000000018004d480     ole32:ole32.dll
 0002:00000488       __imp_CoInitialize         000000018004d488     ole32:ole32.dll
 0002:00000490       __imp_CoCreateInstance     000000018004d490     ole32:ole32.dll
 0002:00000498       \177ole32_NULL_THUNK_DATA  000000018004d498     ole32:ole32.dll
 0002:000004a0       __guard_check_icall_fptr   000000018004d4a0     LIBCMT:guard_support.obj
 0002:000004a8       __guard_dispatch_icall_fptr 000000018004d4a8     LIBCMT:guard_support.obj
 0002:000004b0       __xc_a                     000000018004d4b0     LIBCMT:initializers.obj
 0002:000004f8       __xc_z                     000000018004d4f8     LIBCMT:initializers.obj
 0002:00000500       __xi_a                     000000018004d500     LIBCMT:initializers.obj
 0002:00000518       __acrt_stdio_initializer   000000018004d518     libucrt:stdio_initializer.obj
 0002:00000520       __acrt_tran_fma3_initializer 000000018004d520     libucrt:fma3_initializer.obj
 0002:00000528       __acrt_timeset_initializer 000000018004d528     libucrt:timeset_initializer.obj
 0002:00000530       __acrt_multibyte_initializer 000000018004d530     libucrt:multibyte_initializer.obj
 0002:00000538       __xi_z                     000000018004d538     LIBCMT:initializers.obj
 0002:00000540       __xp_a                     000000018004d540     LIBCMT:initializers.obj
 0002:00000548       __acrt_locale_terminator   000000018004d548     libucrt:locale_initializer.obj
 0002:00000550       __dcrt_console_output_terminator 000000018004d550     libucrt:console_output_initializer.obj
 0002:00000558       __acrt_stdio_terminator    000000018004d558     libucrt:stdio_initializer.obj
 0002:00000560       __xp_z                     000000018004d560     LIBCMT:initializers.obj
 0002:00000568       __xt_a                     000000018004d568     LIBCMT:initializers.obj
 0002:00000570       __xt_z                     000000018004d570     LIBCMT:initializers.obj
 0002:00000580       CLSID_WbemLocator          000000018004d580     wbemuuid:wbemcli_i.obj
 0002:00000590       IID_IWbemLocator           000000018004d590     wbemuuid:wbemcli_i.obj
 0002:000005a8       ??_7exception@std@@6B@     000000018004d5a8     libcpmt:xonce.obj
 0002:000005c0       ??_7bad_alloc@std@@6B@     000000018004d5c0     libcpmt:xonce.obj
 0002:000005d8       ??_7bad_array_new_length@std@@6B@ 000000018004d5d8     libcpmt:xonce.obj
 0002:000005f0       ??_7runtime_error@std@@6B@ 000000018004d5f0     libcpmt:xonce.obj
 0002:00000600       ??_C@_0P@GHFPNOJB@bad?5allocation@ 000000018004d600     libcpmt:xthrow.obj
 0002:00000618       ??_7logic_error@std@@6B@   000000018004d618     libcpmt:xthrow.obj
 0002:00000630       ??_7length_error@std@@6B@  000000018004d630     libcpmt:xthrow.obj
 0002:00000648       ??_7out_of_range@std@@6B@  000000018004d648     libcpmt:xthrow.obj
 0002:00000660       ??_7bad_function_call@std@@6B@ 000000018004d660     libcpmt:xthrow.obj
 0002:00000670       ??_C@_0BC@DPJNKNAF@bad?5function?5call@ 000000018004d670     libcpmt:xthrow.obj
 0002:000006b8       ??_7_Facet_base@std@@6B@   000000018004d6b8     libcpmt:locale0.obj
 0002:000006d8       ??_7_Locimp@locale@std@@6B@ 000000018004d6d8     libcpmt:locale0.obj
 0002:000006f0       ??_C@_01NBENCBCI@?$CK@     000000018004d6f0     libcpmt:locale0.obj
 0002:000006f4       ??_C@_01GFHCPBMG@C@        000000018004d6f4     libcpmt:locale0.obj
 0002:00000e50       ??_C@_0BN@LKKBCCDB@address?5family?5not?5supported@ 000000018004de50     libcpmt:syserror.obj
 0002:00000e70       ??_C@_0P@LDMLAFHI@address?5in?5use@ 000000018004de70     libcpmt:syserror.obj
 0002:00000e80       ??_C@_0BG@DHPCNBJB@address?5not?5available@ 000000018004de80     libcpmt:syserror.obj
 0002:00000e98       ??_C@_0BC@DFIBIBIL@already?5connected@ 000000018004de98     libcpmt:syserror.obj
 0002:00000eb0       ??_C@_0BH@CAKOHOMI@argument?5list?5too?5long@ 000000018004deb0     libcpmt:syserror.obj
 0002:00000ec8       ??_C@_0BH@CGIMPKIM@argument?5out?5of?5domain@ 000000018004dec8     libcpmt:syserror.obj
 0002:00000ee0       ??_C@_0M@KGHGGJGL@bad?5address@ 000000018004dee0     libcpmt:syserror.obj
 0002:00000ef0       ??_C@_0BE@MPJPGCEO@bad?5file?5descriptor@ 000000018004def0     libcpmt:syserror.obj
 0002:00000f08       ??_C@_0M@PMMIEFCP@bad?5message@ 000000018004df08     libcpmt:syserror.obj
 0002:00000f18       ??_C@_0M@KPHOFDBE@broken?5pipe@ 000000018004df18     libcpmt:syserror.obj
 0002:00000f28       ??_C@_0BD@MGNDDEGM@connection?5aborted@ 000000018004df28     libcpmt:syserror.obj
 0002:00000f40       ??_C@_0BP@KAIHPOGN@connection?5already?5in?5progress@ 000000018004df40     libcpmt:syserror.obj
 0002:00000f60       ??_C@_0BD@PJLIIJEL@connection?5refused@ 000000018004df60     libcpmt:syserror.obj
 0002:00000f78       ??_C@_0BB@IECNJNOI@connection?5reset@ 000000018004df78     libcpmt:syserror.obj
 0002:00000f90       ??_C@_0BC@PPHBOELF@cross?5device?5link@ 000000018004df90     libcpmt:syserror.obj
 0002:00000fa8       ??_C@_0BN@KDMIFEIP@destination?5address?5required@ 000000018004dfa8     libcpmt:syserror.obj
 0002:00000fc8       ??_C@_0BI@NGCEHDD@device?5or?5resource?5busy@ 000000018004dfc8     libcpmt:syserror.obj
 0002:00000fe0       ??_C@_0BE@JIDOCPHM@directory?5not?5empty@ 000000018004dfe0     libcpmt:syserror.obj
 0002:00000ff8       ??_C@_0BI@BNCLIGPB@executable?5format?5error@ 000000018004dff8     libcpmt:syserror.obj
 0002:00001010       ??_C@_0M@MIDIAGJP@file?5exists@ 000000018004e010     libcpmt:syserror.obj
 0002:00001020       ??_C@_0P@DNAJLBJK@file?5too?5large@ 000000018004e020     libcpmt:syserror.obj
 0002:00001030       ??_C@_0BC@EJHOMAAK@filename?5too?5long@ 000000018004e030     libcpmt:syserror.obj
 0002:00001048       ??_C@_0BH@KEFGLDAF@function?5not?5supported@ 000000018004e048     libcpmt:syserror.obj
 0002:00001060       ??_C@_0BB@DHFDFGDM@host?5unreachable@ 000000018004e060     libcpmt:syserror.obj
 0002:00001078       ??_C@_0BD@JPHBMONG@identifier?5removed@ 000000018004e078     libcpmt:syserror.obj
 0002:00001090       ??_C@_0BG@CDNPAGJK@illegal?5byte?5sequence@ 000000018004e090     libcpmt:syserror.obj
 0002:000010a8       ??_C@_0CD@BNPLBMNA@inappropriate?5io?5control?5operat@ 000000018004e0a8     libcpmt:syserror.obj
 0002:000010d0       ??_C@_0M@EGEKIIMP@interrupted@ 000000018004e0d0     libcpmt:syserror.obj
 0002:000010e0       ??_C@_0BB@FCMFBGOM@invalid?5argument@ 000000018004e0e0     libcpmt:syserror.obj
 0002:000010f8       ??_C@_0N@OHAFKDEK@invalid?5seek@ 000000018004e0f8     libcpmt:syserror.obj
 0002:00001108       ??_C@_08GLNPIFBN@io?5error@ 000000018004e108     libcpmt:syserror.obj
 0002:00001118       ??_C@_0P@FLLDBIDK@is?5a?5directory@ 000000018004e118     libcpmt:syserror.obj
 0002:00001128       ??_C@_0N@IFLPBIOP@message?5size@ 000000018004e128     libcpmt:syserror.obj
 0002:00001138       ??_C@_0N@KIIEAAIO@network?5down@ 000000018004e138     libcpmt:syserror.obj
 0002:00001148       ??_C@_0O@FNPDBHEE@network?5reset@ 000000018004e148     libcpmt:syserror.obj
 0002:00001158       ??_C@_0BE@IFNCKGE@network?5unreachable@ 000000018004e158     libcpmt:syserror.obj
 0002:00001170       ??_C@_0BA@PFFCAOFK@no?5buffer?5space@ 000000018004e170     libcpmt:syserror.obj
 0002:00001180       ??_C@_0BB@IEPBLJHK@no?5child?5process@ 000000018004e180     libcpmt:syserror.obj
 0002:00001198       ??_C@_07PLECNNKG@no?5link@ 000000018004e198     libcpmt:syserror.obj
 0002:000011a0       ??_C@_0BC@NJECKMKE@no?5lock?5available@ 000000018004e1a0     libcpmt:syserror.obj
 0002:000011b8       ??_C@_0BF@PBGGPKKE@no?5message?5available@ 000000018004e1b8     libcpmt:syserror.obj
 0002:000011d0       ??_C@_0L@EDOLMPAK@no?5message@ 000000018004e1d0     libcpmt:syserror.obj
 0002:000011e0       ??_C@_0BD@EAMBFIDF@no?5protocol?5option@ 000000018004e1e0     libcpmt:syserror.obj
 0002:000011f8       ??_C@_0BD@IJDJKDEA@no?5space?5on?5device@ 000000018004e1f8     libcpmt:syserror.obj
 0002:00001210       ??_C@_0BE@MKFDAFMP@no?5stream?5resources@ 000000018004e210     libcpmt:syserror.obj
 0002:00001228       ??_C@_0BK@IMCPHCBI@no?5such?5device?5or?5address@ 000000018004e228     libcpmt:syserror.obj
 0002:00001248       ??_C@_0P@FDINDDOK@no?5such?5device@ 000000018004e248     libcpmt:syserror.obj
 0002:00001258       ??_C@_0BK@NDOCBPGE@no?5such?5file?5or?5directory@ 000000018004e258     libcpmt:syserror.obj
 0002:00001278       ??_C@_0BA@ENLPPKBN@no?5such?5process@ 000000018004e278     libcpmt:syserror.obj
 0002:00001288       ??_C@_0BA@DOCPFFJG@not?5a?5directory@ 000000018004e288     libcpmt:syserror.obj
 0002:00001298       ??_C@_0N@POEIPGGF@not?5a?5socket@ 000000018004e298     libcpmt:syserror.obj
 0002:000012a8       ??_C@_0N@LGAPMMPI@not?5a?5stream@ 000000018004e2a8     libcpmt:syserror.obj
 0002:000012b8       ??_C@_0O@GLMIBBEG@not?5connected@ 000000018004e2b8     libcpmt:syserror.obj
 0002:000012c8       ??_C@_0BC@ENOOLCNF@not?5enough?5memory@ 000000018004e2c8     libcpmt:syserror.obj
 0002:000012e0       ??_C@_0O@NHEDABJP@not?5supported@ 000000018004e2e0     libcpmt:syserror.obj
 0002:000012f0       ??_C@_0BD@MOLBPMEA@operation?5canceled@ 000000018004e2f0     libcpmt:syserror.obj
 0002:00001308       ??_C@_0BG@KDKHOPCO@operation?5in?5progress@ 000000018004e308     libcpmt:syserror.obj
 0002:00001320       ??_C@_0BI@OHIEJAAB@operation?5not?5permitted@ 000000018004e320     libcpmt:syserror.obj
 0002:00001338       ??_C@_0BI@LNEGIFLN@operation?5not?5supported@ 000000018004e338     libcpmt:syserror.obj
 0002:00001350       ??_C@_0BG@OEMDKMEE@operation?5would?5block@ 000000018004e350     libcpmt:syserror.obj
 0002:00001368       ??_C@_0L@BLPOFLNJ@owner?5dead@ 000000018004e368     libcpmt:syserror.obj
 0002:00001378       ??_C@_0BC@CIJDGCDI@permission?5denied@ 000000018004e378     libcpmt:syserror.obj
 0002:00001390       ??_C@_0P@FNPOCJBE@protocol?5error@ 000000018004e390     libcpmt:syserror.obj
 0002:000013a0       ??_C@_0BH@JPPPLHJB@protocol?5not?5supported@ 000000018004e3a0     libcpmt:syserror.obj
 0002:000013b8       ??_C@_0BG@EICBIHDP@read?5only?5file?5system@ 000000018004e3b8     libcpmt:syserror.obj
 0002:000013d0       ??_C@_0BO@BJBOMOEJ@resource?5deadlock?5would?5occur@ 000000018004e3d0     libcpmt:syserror.obj
 0002:000013f0       ??_C@_0BP@LKNGHENJ@resource?5unavailable?5try?5again@ 000000018004e3f0     libcpmt:syserror.obj
 0002:00001410       ??_C@_0BE@GOIPJJHG@result?5out?5of?5range@ 000000018004e410     libcpmt:syserror.obj
 0002:00001428       ??_C@_0BG@MPLKFPAE@state?5not?5recoverable@ 000000018004e428     libcpmt:syserror.obj
 0002:00001440       ??_C@_0P@DIIFGFCG@stream?5timeout@ 000000018004e440     libcpmt:syserror.obj
 0002:00001450       ??_C@_0P@IPFDMIFL@text?5file?5busy@ 000000018004e450     libcpmt:syserror.obj
 0002:00001460       ??_C@_09KJPPMAOI@timed?5out@ 000000018004e460     libcpmt:syserror.obj
 0002:00001470       ??_C@_0BO@HACHBEKI@too?5many?5files?5open?5in?5system@ 000000018004e470     libcpmt:syserror.obj
 0002:00001490       ??_C@_0BE@GHAFMPAH@too?5many?5files?5open@ 000000018004e490     libcpmt:syserror.obj
 0002:000014a8       ??_C@_0P@HCOMKFCC@too?5many?5links@ 000000018004e4a8     libcpmt:syserror.obj
 0002:000014b8       ??_C@_0BO@EFGOJEF@too?5many?5symbolic?5link?5levels@ 000000018004e4b8     libcpmt:syserror.obj
 0002:000014d8       ??_C@_0BA@KGKGOOJA@value?5too?5large@ 000000018004e4d8     libcpmt:syserror.obj
 0002:000014e8       ??_C@_0BE@MIEJDDNH@wrong?5protocol?5type@ 000000018004e4e8     libcpmt:syserror.obj
 0002:00001500       ??_C@_1BK@MGMFAEKH@?$AAk?$AAe?$AAr?$AAn?$AAe?$AAl?$AA3?$AA2?$AA?4?$AAd?$AAl?$AAl@ 000000018004e500     libcpmt:winapisupp.obj
 0002:00001520       ??_C@_08KNHFBNJ@FlsAlloc@  000000018004e520     libcpmt:winapisupp.obj
 0002:00001530       ??_C@_07PEJMOBNF@FlsFree@  000000018004e530     libcpmt:winapisupp.obj
 0002:00001538       ??_C@_0M@GDNOONDI@FlsGetValue@ 000000018004e538     libcpmt:winapisupp.obj
 0002:00001548       ??_C@_0M@JCPCPOEF@FlsSetValue@ 000000018004e548     libcpmt:winapisupp.obj
 0002:00001558       ??_C@_0BM@HCFOFFN@InitializeCriticalSectionEx@ 000000018004e558     libcpmt:winapisupp.obj
 0002:00001578       ??_C@_0BE@GPLMMCMH@InitOnceExecuteOnce@ 000000018004e578     libcpmt:winapisupp.obj
 0002:00001590       ??_C@_0P@DLHPPCNH@CreateEventExW@ 000000018004e590     libcpmt:winapisupp.obj
 0002:000015a0       ??_C@_0BB@MEFPJLHN@CreateSemaphoreW@ 000000018004e5a0     libcpmt:winapisupp.obj
 0002:000015b8       ??_C@_0BD@KIEEOEEH@CreateSemaphoreExW@ 000000018004e5b8     libcpmt:winapisupp.obj
 0002:000015d0       ??_C@_0BG@OGFAJCKC@CreateThreadpoolTimer@ 000000018004e5d0     libcpmt:winapisupp.obj
 0002:000015e8       ??_C@_0BD@LPLEMMDI@SetThreadpoolTimer@ 000000018004e5e8     libcpmt:winapisupp.obj
 0002:00001600       ??_C@_0CA@FMNJENH@WaitForThreadpoolTimerCallbacks@ 000000018004e600     libcpmt:winapisupp.obj
 0002:00001620       ??_C@_0BF@DCFCCNOC@CloseThreadpoolTimer@ 000000018004e620     libcpmt:winapisupp.obj
 0002:00001638       ??_C@_0BF@FLABGKKM@CreateThreadpoolWait@ 000000018004e638     libcpmt:winapisupp.obj
 0002:00001650       ??_C@_0BC@MGCOHNA@SetThreadpoolWait@ 000000018004e650     libcpmt:winapisupp.obj
 0002:00001668       ??_C@_0BE@OCIOMIMP@CloseThreadpoolWait@ 000000018004e668     libcpmt:winapisupp.obj
 0002:00001680       ??_C@_0BJ@LKGHFHBO@FlushProcessWriteBuffers@ 000000018004e680     libcpmt:winapisupp.obj
 0002:000016a0       ??_C@_0BP@KALKKPMO@FreeLibraryWhenCallbackReturns@ 000000018004e6a0     libcpmt:winapisupp.obj
 0002:000016c0       ??_C@_0BK@DFNBACLA@GetCurrentProcessorNumber@ 000000018004e6c0     libcpmt:winapisupp.obj
 0002:000016e0       ??_C@_0BE@FKKLLFLM@CreateSymbolicLinkW@ 000000018004e6e0     libcpmt:winapisupp.obj
 0002:000016f8       ??_C@_0BE@JOGNEJCI@GetCurrentPackageId@ 000000018004e6f8     libcpmt:winapisupp.obj
 0002:00001710       ??_C@_0P@CDHHOHKP@GetTickCount64@ 000000018004e710     libcpmt:winapisupp.obj
 0002:00001720       ??_C@_0BN@NEEHBBPO@GetFileInformationByHandleEx@ 000000018004e720     libcpmt:winapisupp.obj
 0002:00001740       ??_C@_0BL@KBBHGKCM@SetFileInformationByHandle@ 000000018004e740     libcpmt:winapisupp.obj
 0002:00001760       ??_C@_0BP@FPNJPEJC@GetSystemTimePreciseAsFileTime@ 000000018004e760     libcpmt:winapisupp.obj
 0002:00001780       ??_C@_0BM@HLJJNPAH@InitializeConditionVariable@ 000000018004e780     libcpmt:winapisupp.obj
 0002:000017a0       ??_C@_0BG@BFNILBLN@WakeConditionVariable@ 000000018004e7a0     libcpmt:winapisupp.obj
 0002:000017b8       ??_C@_0BJ@PGPPEPCC@WakeAllConditionVariable@ 000000018004e7b8     libcpmt:winapisupp.obj
 0002:000017d8       ??_C@_0BJ@JEBJOJFJ@SleepConditionVariableCS@ 000000018004e7d8     libcpmt:winapisupp.obj
 0002:000017f8       ??_C@_0BC@MMLHEBPB@InitializeSRWLock@ 000000018004e7f8     libcpmt:winapisupp.obj
 0002:00001810       ??_C@_0BI@OMNLIJDB@AcquireSRWLockExclusive@ 000000018004e810     libcpmt:winapisupp.obj
 0002:00001828       ??_C@_0BL@OGHFEMNA@TryAcquireSRWLockExclusive@ 000000018004e828     libcpmt:winapisupp.obj
 0002:00001848       ??_C@_0BI@HMIEPCNJ@ReleaseSRWLockExclusive@ 000000018004e848     libcpmt:winapisupp.obj
 0002:00001860       ??_C@_0BK@LGACAGIC@SleepConditionVariableSRW@ 000000018004e860     libcpmt:winapisupp.obj
 0002:00001880       ??_C@_0BF@GGPHFPJA@CreateThreadpoolWork@ 000000018004e880     libcpmt:winapisupp.obj
 0002:00001898       ??_C@_0BF@NHDAIMMO@SubmitThreadpoolWork@ 000000018004e898     libcpmt:winapisupp.obj
 0002:000018b0       ??_C@_0BE@NPHIPNPD@CloseThreadpoolWork@ 000000018004e8b0     libcpmt:winapisupp.obj
 0002:000018c8       ??_C@_0BA@IHGNDAEB@CompareStringEx@ 000000018004e8c8     libcpmt:winapisupp.obj
 0002:000018d8       ??_C@_0BA@ONOKGCMP@GetLocaleInfoEx@ 000000018004e8d8     libcpmt:winapisupp.obj
 0002:000018e8       ??_C@_0O@KKBNKAPF@LCMapStringEx@ 000000018004e8e8     libcpmt:winapisupp.obj
 0002:00001900       ??_7bad_cast@std@@6B@      000000018004e900     libcpmt:locale.obj
 0002:00001940       ??_7?$numpunct@_W@std@@6B@ 000000018004e940     libcpmt:wlocale.obj
 0002:00001980       ??_C@_13IMODFHAA@?$AA?9@   000000018004e980     libcpmt:wlocale.obj
 0002:00001984       ??_C@_01JOAMLHOP@?9@       000000018004e984     libcpmt:wlocale.obj
 0002:000036b0       ??_C@_15EMKDOKLE@?$AAa?$AAr@ 00000001800506b0     libcpmt:winapinls.obj
 0002:000036b8       ??_C@_15KNPADPLH@?$AAb?$AAg@ 00000001800506b8     libcpmt:winapinls.obj
 0002:000036c0       ??_C@_15EDMHLDMO@?$AAc?$AAa@ 00000001800506c0     libcpmt:winapinls.obj
 0002:000036c8       ??_C@_1O@BPEAJADD@?$AAz?$AAh?$AA?9?$AAC?$AAH?$AAS@ 00000001800506c8     libcpmt:winapinls.obj
 0002:000036d8       ??_C@_15LJNHCMNK@?$AAc?$AAs@ 00000001800506d8     libcpmt:winapinls.obj
 0002:000036e0       ??_C@_15FOMCIDHG@?$AAd?$AAa@ 00000001800506e0     libcpmt:winapinls.obj
 0002:000036e8       ??_C@_15NBKABECB@?$AAd?$AAe@ 00000001800506e8     libcpmt:winapinls.obj
 0002:000036f0       ??_C@_15GHPEIIAO@?$AAe?$AAl@ 00000001800506f0     libcpmt:winapinls.obj
 0002:000036f8       ??_C@_15MNPNEAIF@?$AAe?$AAn@ 00000001800506f8     libcpmt:winapinls.obj
 0002:00003700       ??_C@_15GPIOMPMH@?$AAe?$AAs@ 0000000180050700     libcpmt:winapinls.obj
 0002:00003708       ??_C@_15NGLOAKJC@?$AAf?$AAi@ 0000000180050708     libcpmt:winapinls.obj
 0002:00003710       ??_C@_15FBKGNKAM@?$AAf?$AAr@ 0000000180050710     libcpmt:winapinls.obj
 0002:00003718       ??_C@_15KGGCNEFK@?$AAh?$AAe@ 0000000180050718     libcpmt:winapinls.obj
 0002:00003720       ??_C@_15PGHLIDMF@?$AAh?$AAu@ 0000000180050720     libcpmt:winapinls.obj
 0002:00003728       ??_C@_15BIEMAPLM@?$AAi?$AAs@ 0000000180050728     libcpmt:winapinls.obj
 0002:00003730       ??_C@_15IFJLDHAF@?$AAi?$AAt@ 0000000180050730     libcpmt:winapinls.obj
 0002:00003738       ??_C@_15GEMIOCAG@?$AAj?$AAa@ 0000000180050738     libcpmt:winapinls.obj
 0002:00003740       ??_C@_15EPELEGJA@?$AAk?$AAo@ 0000000180050740     libcpmt:winapinls.obj
 0002:00003748       ??_C@_15NDDHIMN@?$AAn?$AAl@ 0000000180050748     libcpmt:winapinls.obj
 0002:00003750       ??_C@_15BPIGNHCD@?$AAn?$AAo@ 0000000180050750     libcpmt:winapinls.obj
 0002:00003758       ??_C@_15DEOPBLCG@?$AAp?$AAl@ 0000000180050758     libcpmt:winapinls.obj
 0002:00003760       ??_C@_15KBECGEFG@?$AAp?$AAt@ 0000000180050760     libcpmt:winapinls.obj
 0002:00003768       ??_C@_15GLJCBFMD@?$AAr?$AAo@ 0000000180050768     libcpmt:winapinls.obj
 0002:00003770       ??_C@_15FEDGKCDI@?$AAr?$AAu@ 0000000180050770     libcpmt:winapinls.obj
 0002:00003778       ??_C@_15GLKMLLHM@?$AAh?$AAr@ 0000000180050778     libcpmt:winapinls.obj
 0002:00003780       ??_C@_15CPKMFBDB@?$AAs?$AAk@ 0000000180050780     libcpmt:winapinls.obj
 0002:00003788       ??_C@_15BAAIOGMK@?$AAs?$AAq@ 0000000180050788     libcpmt:winapinls.obj
 0002:00003790       ??_C@_15INNPNOHD@?$AAs?$AAv@ 0000000180050790     libcpmt:winapinls.obj
 0002:00003798       ??_C@_15CABMMOGH@?$AAt?$AAh@ 0000000180050798     libcpmt:winapinls.obj
 0002:000037a0       ??_C@_15BPLIHJJM@?$AAt?$AAr@ 00000001800507a0     libcpmt:winapinls.obj
 0002:000037a8       ??_C@_15NEOEKKDJ@?$AAu?$AAr@ 00000001800507a8     libcpmt:winapinls.obj
 0002:000037b0       ??_C@_15NFICGAJK@?$AAi?$AAd@ 00000001800507b0     libcpmt:winapinls.obj
 0002:000037b8       ??_C@_15PJPFLCCM@?$AAu?$AAk@ 00000001800507b8     libcpmt:winapinls.obj
 0002:000037c0       ??_C@_15HPJPHDM@?$AAb?$AAe@ 00000001800507c0     libcpmt:winapinls.obj
 0002:000037c8       ??_C@_15LCHLGJII@?$AAs?$AAl@ 00000001800507c8     libcpmt:winapinls.obj
 0002:000037d0       ??_C@_15PCFJPHHO@?$AAe?$AAt@ 00000001800507d0     libcpmt:winapinls.obj
 0002:000037d8       ??_C@_15HPFPGODN@?$AAl?$AAv@ 00000001800507d8     libcpmt:winapinls.obj
 0002:000037e0       ??_C@_15NFFGKGLG@?$AAl?$AAt@ 00000001800507e0     libcpmt:winapinls.obj
 0002:000037e8       ??_C@_15BDAKCCHN@?$AAf?$AAa@ 00000001800507e8     libcpmt:winapinls.obj
 0002:000037f0       ??_C@_15NFGIAIAJ@?$AAv?$AAi@ 00000001800507f0     libcpmt:winapinls.obj
 0002:000037f8       ??_C@_15LMKNDMHN@?$AAh?$AAy@ 00000001800507f8     libcpmt:winapinls.obj
 0002:00003800       ??_C@_15IJBHMCFL@?$AAa?$AAz@ 0000000180050800     libcpmt:winapinls.obj
 0002:00003808       ??_C@_15EKOFJABL@?$AAe?$AAu@ 0000000180050808     libcpmt:winapinls.obj
 0002:00003810       ??_C@_15BGHADCNK@?$AAm?$AAk@ 0000000180050810     libcpmt:winapinls.obj
 0002:00003818       ??_C@_15JDNICKHM@?$AAa?$AAf@ 0000000180050818     libcpmt:winapinls.obj
 0002:00003820       ??_C@_15KPJEDBKD@?$AAk?$AAa@ 0000000180050820     libcpmt:winapinls.obj
 0002:00003828       ??_C@_15PDNFFFEO@?$AAf?$AAo@ 0000000180050828     libcpmt:winapinls.obj
 0002:00003830       ??_C@_15OMLEGLOC@?$AAh?$AAi@ 0000000180050830     libcpmt:winapinls.obj
 0002:00003838       ??_C@_15IDNNENKK@?$AAm?$AAs@ 0000000180050838     libcpmt:winapinls.obj
 0002:00003840       ??_C@_15MACJNBMH@?$AAk?$AAk@ 0000000180050840     libcpmt:winapinls.obj
 0002:00003848       ??_C@_15DKDJEOND@?$AAk?$AAy@ 0000000180050848     libcpmt:winapinls.obj
 0002:00003850       ??_C@_15DFGDLJBG@?$AAs?$AAw@ 0000000180050850     libcpmt:winapinls.obj
 0002:00003858       ??_C@_15BBFAICNG@?$AAu?$AAz@ 0000000180050858     libcpmt:winapinls.obj
 0002:00003860       ??_C@_15DKNDCGEA@?$AAt?$AAt@ 0000000180050860     libcpmt:winapinls.obj
 0002:00003868       ??_C@_15MGIFMDPL@?$AAp?$AAa@ 0000000180050868     libcpmt:winapinls.obj
 0002:00003870       ??_C@_15HCNDBBA@?$AAg?$AAu@ 0000000180050870     libcpmt:winapinls.obj
 0002:00003878       ??_C@_15FNBEIBON@?$AAt?$AAa@ 0000000180050878     libcpmt:winapinls.obj
 0002:00003880       ??_C@_15NCHGBGLK@?$AAt?$AAe@ 0000000180050880     libcpmt:winapinls.obj
 0002:00003888       ??_C@_15PHPHCBPF@?$AAk?$AAn@ 0000000180050888     libcpmt:winapinls.obj
 0002:00003890       ??_C@_15DLGBCKMP@?$AAm?$AAr@ 0000000180050890     libcpmt:winapinls.obj
 0002:00003898       ??_C@_15EABBLBFF@?$AAs?$AAa@ 0000000180050898     libcpmt:winapinls.obj
 0002:000038a0       ??_C@_15CBKOMCOI@?$AAm?$AAn@ 00000001800508a0     libcpmt:winapinls.obj
 0002:000038a8       ??_C@_15CKDMCJAF@?$AAg?$AAl@ 00000001800508a8     libcpmt:winapinls.obj
 0002:000038b0       ??_C@_17CNJFBPG@?$AAk?$AAo?$AAk@ 00000001800508b0     libcpmt:winapinls.obj
 0002:000038b8       ??_C@_17FFBJICPL@?$AAs?$AAy?$AAr@ 00000001800508b8     libcpmt:winapinls.obj
 0002:000038c0       ??_C@_17KPNDCPAF@?$AAd?$AAi?$AAv@ 00000001800508c0     libcpmt:winapinls.obj
 0002:000038c8       ??_C@_1M@OKAHONE@?$AAa?$AAr?$AA?9?$AAS?$AAA@ 00000001800508c8     libcpmt:winapinls.obj
 0002:000038d8       ??_C@_1M@FFFIGIGK@?$AAb?$AAg?$AA?9?$AAB?$AAG@ 00000001800508d8     libcpmt:winapinls.obj
 0002:000038e8       ??_C@_1M@BJNKEDC@?$AAc?$AAa?$AA?9?$AAE?$AAS@ 00000001800508e8     libcpmt:winapinls.obj
 0002:000038f8       ??_C@_1M@CLNBBOPM@?$AAz?$AAh?$AA?9?$AAT?$AAW@ 00000001800508f8     libcpmt:winapinls.obj
 0002:00003908       ??_C@_1M@IJJHFJHA@?$AAc?$AAs?$AA?9?$AAC?$AAZ@ 0000000180050908     libcpmt:winapinls.obj
 0002:00003918       ??_C@_1M@CLPEOBGI@?$AAd?$AAa?$AA?9?$AAD?$AAK@ 0000000180050918     libcpmt:winapinls.obj
 0002:00003928       ??_C@_1M@MCMADGCB@?$AAd?$AAe?$AA?9?$AAD?$AAE@ 0000000180050928     libcpmt:winapinls.obj
 0002:00003938       ??_C@_1M@OOCKEMAM@?$AAe?$AAl?$AA?9?$AAG?$AAR@ 0000000180050938     libcpmt:winapinls.obj
 0002:00003948       ??_C@_1M@BMHNFIME@?$AAe?$AAn?$AA?9?$AAU?$AAS@ 0000000180050948     libcpmt:winapinls.obj
 0002:00003958       ??_C@_1M@DDNJFGID@?$AAf?$AAi?$AA?9?$AAF?$AAI@ 0000000180050958     libcpmt:winapinls.obj
 0002:00003968       ??_C@_1M@GLIPPMAC@?$AAf?$AAr?$AA?9?$AAF?$AAR@ 0000000180050968     libcpmt:winapinls.obj
 0002:00003978       ??_C@_1M@GFMCHPE@?$AAh?$AAe?$AA?9?$AAI?$AAL@ 0000000180050978     libcpmt:winapinls.obj
 0002:00003988       ??_C@_1M@MHLPGNKM@?$AAh?$AAu?$AA?9?$AAH?$AAU@ 0000000180050988     libcpmt:winapinls.obj
 0002:00003998       ??_C@_1M@LPDDNNPN@?$AAi?$AAs?$AA?9?$AAI?$AAS@ 0000000180050998     libcpmt:winapinls.obj
 0002:000039a8       ??_C@_1M@MADIPODN@?$AAi?$AAt?$AA?9?$AAI?$AAT@ 00000001800509a8     libcpmt:winapinls.obj
 0002:000039b8       ??_C@_1M@HPNHIDJI@?$AAj?$AAa?$AA?9?$AAJ?$AAP@ 00000001800509b8     libcpmt:winapinls.obj
 0002:000039c8       ??_C@_1M@JLOOOEGK@?$AAk?$AAo?$AA?9?$AAK?$AAR@ 00000001800509c8     libcpmt:winapinls.obj
 0002:000039d8       ??_C@_1M@IHBJJGG@?$AAn?$AAl?$AA?9?$AAN?$AAL@ 00000001800509d8     libcpmt:winapinls.obj
 0002:000039e8       ??_C@_1M@EANAGDL@?$AAn?$AAb?$AA?9?$AAN?$AAO@ 00000001800509e8     libcpmt:winapinls.obj
 0002:000039f8       ??_C@_1M@NEIEMEGP@?$AAp?$AAl?$AA?9?$AAP?$AAL@ 00000001800509f8     libcpmt:winapinls.obj
 0002:00003a08       ??_C@_1M@BOCFIGEP@?$AAp?$AAt?$AA?9?$AAB?$AAR@ 0000000180050a08     libcpmt:winapinls.obj
 0002:00003a18       ??_C@_1M@IMPFOPBG@?$AAr?$AAo?$AA?9?$AAR?$AAO@ 0000000180050a18     libcpmt:winapinls.obj
 0002:00003a28       ??_C@_1M@IDNNEJMM@?$AAr?$AAu?$AA?9?$AAR?$AAU@ 0000000180050a28     libcpmt:winapinls.obj
 0002:00003a38       ??_C@_1M@LILEEOGM@?$AAh?$AAr?$AA?9?$AAH?$AAR@ 0000000180050a38     libcpmt:winapinls.obj
 0002:00003a48       ??_C@_1M@FKIFEHPB@?$AAs?$AAk?$AA?9?$AAS?$AAK@ 0000000180050a48     libcpmt:winapinls.obj
 0002:00003a58       ??_C@_1M@LJMAMNPJ@?$AAs?$AAq?$AA?9?$AAA?$AAL@ 0000000180050a58     libcpmt:winapinls.obj
 0002:00003a68       ??_C@_1M@GIAKDKJK@?$AAs?$AAv?$AA?9?$AAS?$AAE@ 0000000180050a68     libcpmt:winapinls.obj
 0002:00003a78       ??_C@_1M@MKJKIKCL@?$AAt?$AAh?$AA?9?$AAT?$AAH@ 0000000180050a78     libcpmt:winapinls.obj
 0002:00003a88       ??_C@_1M@MFLCCMPB@?$AAt?$AAr?$AA?9?$AAT?$AAR@ 0000000180050a88     libcpmt:winapinls.obj
 0002:00003a98       ??_C@_1M@OIJHDKJN@?$AAu?$AAr?$AA?9?$AAP?$AAK@ 0000000180050a98     libcpmt:winapinls.obj
 0002:00003aa8       ??_C@_1M@LHIPCIEK@?$AAi?$AAd?$AA?9?$AAI?$AAD@ 0000000180050aa8     libcpmt:winapinls.obj
 0002:00003ab8       ??_C@_1M@MFMOBGI@?$AAu?$AAk?$AA?9?$AAU?$AAA@ 0000000180050ab8     libcpmt:winapinls.obj
 0002:00003ac8       ??_C@_1M@OBGLJIPL@?$AAb?$AAe?$AA?9?$AAB?$AAY@ 0000000180050ac8     libcpmt:winapinls.obj
 0002:00003ad8       ??_C@_1M@BCFAJEAD@?$AAs?$AAl?$AA?9?$AAS?$AAI@ 0000000180050ad8     libcpmt:winapinls.obj
 0002:00003ae8       ??_C@_1M@FKFFEDDN@?$AAe?$AAt?$AA?9?$AAE?$AAE@ 0000000180050ae8     libcpmt:winapinls.obj
 0002:00003af8       ??_C@_1M@KGKKAACI@?$AAl?$AAv?$AA?9?$AAL?$AAV@ 0000000180050af8     libcpmt:winapinls.obj
 0002:00003b08       ??_C@_1M@IFGBIJO@?$AAl?$AAt?$AA?9?$AAL?$AAT@ 0000000180050b08     libcpmt:winapinls.obj
 0002:00003b18       ??_C@_1M@FGEAHEDM@?$AAf?$AAa?$AA?9?$AAI?$AAR@ 0000000180050b18     libcpmt:winapinls.obj
 0002:00003b28       ??_C@_1M@KBMAIBFN@?$AAv?$AAi?$AA?9?$AAV?$AAN@ 0000000180050b28     libcpmt:winapinls.obj
 0002:00003b38       ??_C@_1M@GPCBKDJK@?$AAh?$AAy?$AA?9?$AAA?$AAM@ 0000000180050b38     libcpmt:winapinls.obj
 0002:00003b48       ??_C@_1BG@BECMDDJB@?$AAa?$AAz?$AA?9?$AAA?$AAZ?$AA?9?$AAL?$AAa?$AAt?$AAn@ 0000000180050b48     libcpmt:winapinls.obj
 0002:00003b60       ??_C@_1M@MAOFCAEA@?$AAe?$AAu?$AA?9?$AAE?$AAS@ 0000000180050b60     libcpmt:winapinls.obj
 0002:00003b70       ??_C@_1M@IGHABKPI@?$AAm?$AAk?$AA?9?$AAM?$AAK@ 0000000180050b70     libcpmt:winapinls.obj
 0002:00003b80       ??_C@_1M@IAIGNEJG@?$AAt?$AAn?$AA?9?$AAZ?$AAA@ 0000000180050b80     libcpmt:winapinls.obj
 0002:00003b90       ??_C@_1M@IIJCOJFA@?$AAx?$AAh?$AA?9?$AAZ?$AAA@ 0000000180050b90     libcpmt:winapinls.obj
 0002:00003ba0       ??_C@_1M@LGPJHNJH@?$AAz?$AAu?$AA?9?$AAZ?$AAA@ 0000000180050ba0     libcpmt:winapinls.obj
 0002:00003bb0       ??_C@_1M@HOKAOIO@?$AAa?$AAf?$AA?9?$AAZ?$AAA@ 0000000180050bb0     libcpmt:winapinls.obj
 0002:00003bc0       ??_C@_1M@DPCLHLIE@?$AAk?$AAa?$AA?9?$AAG?$AAE@ 0000000180050bc0     libcpmt:winapinls.obj
 0002:00003bd0       ??_C@_1M@BLKMHJBI@?$AAf?$AAo?$AA?9?$AAF?$AAO@ 0000000180050bd0     libcpmt:winapinls.obj
 0002:00003be0       ??_C@_1M@LGGJAPPB@?$AAh?$AAi?$AA?9?$AAI?$AAN@ 0000000180050be0     libcpmt:winapinls.obj
 0002:00003bf0       ??_C@_1M@FIKPIHFE@?$AAm?$AAt?$AA?9?$AAM?$AAT@ 0000000180050bf0     libcpmt:winapinls.obj
 0002:00003c00       ??_C@_1M@HEGGPBFA@?$AAs?$AAe?$AA?9?$AAN?$AAO@ 0000000180050c00     libcpmt:winapinls.obj
 0002:00003c10       ??_C@_1M@EIBJEEPA@?$AAm?$AAs?$AA?9?$AAM?$AAY@ 0000000180050c10     libcpmt:winapinls.obj
 0002:00003c20       ??_C@_1M@FHLBGMPP@?$AAk?$AAk?$AA?9?$AAK?$AAZ@ 0000000180050c20     libcpmt:winapinls.obj
 0002:00003c30       ??_C@_1M@NGJJLCGI@?$AAk?$AAy?$AA?9?$AAK?$AAG@ 0000000180050c30     libcpmt:winapinls.obj
 0002:00003c40       ??_C@_1M@GIENNBFC@?$AAs?$AAw?$AA?9?$AAK?$AAE@ 0000000180050c40     libcpmt:winapinls.obj
 0002:00003c50       ??_C@_1BG@NDGMJIMJ@?$AAu?$AAz?$AA?9?$AAU?$AAZ?$AA?9?$AAL?$AAa?$AAt?$AAn@ 0000000180050c50     libcpmt:winapinls.obj
 0002:00003c68       ??_C@_1M@IDCCIHBC@?$AAt?$AAt?$AA?9?$AAR?$AAU@ 0000000180050c68     libcpmt:winapinls.obj
 0002:00003c78       ??_C@_1M@LOICPMOJ@?$AAb?$AAn?$AA?9?$AAI?$AAN@ 0000000180050c78     libcpmt:winapinls.obj
 0002:00003c88       ??_C@_1M@KPKKNEAH@?$AAp?$AAa?$AA?9?$AAI?$AAN@ 0000000180050c88     libcpmt:winapinls.obj
 0002:00003c98       ??_C@_1M@PJGPPBOG@?$AAg?$AAu?$AA?9?$AAI?$AAN@ 0000000180050c98     libcpmt:winapinls.obj
 0002:00003ca8       ??_C@_1M@KMKMOPHI@?$AAt?$AAa?$AA?9?$AAI?$AAN@ 0000000180050ca8     libcpmt:winapinls.obj
 0002:00003cb8       ??_C@_1M@KFEHEPAC@?$AAt?$AAe?$AA?9?$AAI?$AAN@ 0000000180050cb8     libcpmt:winapinls.obj
 0002:00003cc8       ??_C@_1M@CDCLMGHI@?$AAk?$AAn?$AA?9?$AAI?$AAN@ 0000000180050cc8     libcpmt:winapinls.obj
 0002:00003cd8       ??_C@_1M@MIODLDKF@?$AAm?$AAl?$AA?9?$AAI?$AAN@ 0000000180050cd8     libcpmt:winapinls.obj
 0002:00003ce8       ??_C@_1M@PBIEACPO@?$AAm?$AAr?$AA?9?$AAI?$AAN@ 0000000180050ce8     libcpmt:winapinls.obj
 0002:00003cf8       ??_C@_1M@NIDEAGPH@?$AAs?$AAa?$AA?9?$AAI?$AAN@ 0000000180050cf8     libcpmt:winapinls.obj
 0002:00003d08       ??_C@_1M@FHIHCBIO@?$AAm?$AAn?$AA?9?$AAM?$AAN@ 0000000180050d08     libcpmt:winapinls.obj
 0002:00003d18       ??_C@_1M@JAIJPENP@?$AAc?$AAy?$AA?9?$AAG?$AAB@ 0000000180050d18     libcpmt:winapinls.obj
 0002:00003d28       ??_C@_1M@PHGFBEPN@?$AAg?$AAl?$AA?9?$AAE?$AAS@ 0000000180050d28     libcpmt:winapinls.obj
 0002:00003d38       ??_C@_1O@KPIPDNCP@?$AAk?$AAo?$AAk?$AA?9?$AAI?$AAN@ 0000000180050d38     libcpmt:winapinls.obj
 0002:00003d48       ??_C@_1O@KNHJLDJA@?$AAs?$AAy?$AAr?$AA?9?$AAS?$AAY@ 0000000180050d48     libcpmt:winapinls.obj
 0002:00003d58       ??_C@_1O@MKEKBLAH@?$AAd?$AAi?$AAv?$AA?9?$AAM?$AAV@ 0000000180050d58     libcpmt:winapinls.obj
 0002:00003d68       ??_C@_1O@OHDCKDDF@?$AAq?$AAu?$AAz?$AA?9?$AAB?$AAO@ 0000000180050d68     libcpmt:winapinls.obj
 0002:00003d78       ??_C@_1M@LEPJNLFD@?$AAn?$AAs?$AA?9?$AAZ?$AAA@ 0000000180050d78     libcpmt:winapinls.obj
 0002:00003d88       ??_C@_1M@OMLEIIJB@?$AAm?$AAi?$AA?9?$AAN?$AAZ@ 0000000180050d88     libcpmt:winapinls.obj
 0002:00003d98       ??_C@_1M@PMPEAILG@?$AAa?$AAr?$AA?9?$AAI?$AAQ@ 0000000180050d98     libcpmt:winapinls.obj
 0002:00003da8       ??_C@_1M@BIBDDEMK@?$AAz?$AAh?$AA?9?$AAC?$AAN@ 0000000180050da8     libcpmt:winapinls.obj
 0002:00003db8       ??_C@_1M@CNKPNOEE@?$AAd?$AAe?$AA?9?$AAC?$AAH@ 0000000180050db8     libcpmt:winapinls.obj
 0002:00003dc8       ??_C@_1M@LKMGMLKO@?$AAe?$AAn?$AA?9?$AAG?$AAB@ 0000000180050dc8     libcpmt:winapinls.obj
 0002:00003dd8       ??_C@_1M@PGKJFFGL@?$AAe?$AAs?$AA?9?$AAM?$AAX@ 0000000180050dd8     libcpmt:winapinls.obj
 0002:00003de8       ??_C@_1M@DNNANBDC@?$AAf?$AAr?$AA?9?$AAB?$AAE@ 0000000180050de8     libcpmt:winapinls.obj
 0002:00003df8       ??_C@_1M@HLGMDFHM@?$AAi?$AAt?$AA?9?$AAC?$AAH@ 0000000180050df8     libcpmt:winapinls.obj
 0002:00003e08       ??_C@_1M@CLLBGJH@?$AAn?$AAl?$AA?9?$AAB?$AAE@ 0000000180050e08     libcpmt:winapinls.obj
 0002:00003e18       ??_C@_1M@BODBOGLF@?$AAn?$AAn?$AA?9?$AAN?$AAO@ 0000000180050e18     libcpmt:winapinls.obj
 0002:00003e28       ??_C@_1M@HFFAHKAD@?$AAp?$AAt?$AA?9?$AAP?$AAT@ 0000000180050e28     libcpmt:winapinls.obj
 0002:00003e38       ??_C@_1BG@LNOAKHIE@?$AAs?$AAr?$AA?9?$AAS?$AAP?$AA?9?$AAL?$AAa?$AAt?$AAn@ 0000000180050e38     libcpmt:winapinls.obj
 0002:00003e50       ??_C@_1M@HBMHBGAK@?$AAs?$AAv?$AA?9?$AAF?$AAI@ 0000000180050e50     libcpmt:winapinls.obj
 0002:00003e60       ??_C@_1BG@DGCJGJBE@?$AAa?$AAz?$AA?9?$AAA?$AAZ?$AA?9?$AAC?$AAy?$AAr?$AAl@ 0000000180050e60     libcpmt:winapinls.obj
 0002:00003e78       ??_C@_1M@KEJDAAHB@?$AAs?$AAe?$AA?9?$AAS?$AAE@ 0000000180050e78     libcpmt:winapinls.obj
 0002:00003e88       ??_C@_1M@HEIBJJAD@?$AAm?$AAs?$AA?9?$AAB?$AAN@ 0000000180050e88     libcpmt:winapinls.obj
 0002:00003e98       ??_C@_1BG@PBGJMCEM@?$AAu?$AAz?$AA?9?$AAU?$AAZ?$AA?9?$AAC?$AAy?$AAr?$AAl@ 0000000180050e98     libcpmt:winapinls.obj
 0002:00003eb0       ??_C@_1O@LAOBCMDF@?$AAq?$AAu?$AAz?$AA?9?$AAE?$AAC@ 0000000180050eb0     libcpmt:winapinls.obj
 0002:00003ec0       ??_C@_1M@POEEMAIO@?$AAa?$AAr?$AA?9?$AAE?$AAG@ 0000000180050ec0     libcpmt:winapinls.obj
 0002:00003ed0       ??_C@_1M@EFAKDEDL@?$AAz?$AAh?$AA?9?$AAH?$AAK@ 0000000180050ed0     libcpmt:winapinls.obj
 0002:00003ee0       ??_C@_1M@HKKIJHGI@?$AAd?$AAe?$AA?9?$AAA?$AAT@ 0000000180050ee0     libcpmt:winapinls.obj
 0002:00003ef0       ??_C@_1M@KBFBEHJF@?$AAe?$AAn?$AA?9?$AAA?$AAU@ 0000000180050ef0     libcpmt:winapinls.obj
 0002:00003f00       ??_C@_1M@MNPLFAAH@?$AAe?$AAs?$AA?9?$AAE?$AAS@ 0000000180050f00     libcpmt:winapinls.obj
 0002:00003f10       ??_C@_1M@HJOOJFMA@?$AAf?$AAr?$AA?9?$AAC?$AAA@ 0000000180050f10     libcpmt:winapinls.obj
 0002:00003f20       ??_C@_1BG@JPOFPNAB@?$AAs?$AAr?$AA?9?$AAS?$AAP?$AA?9?$AAC?$AAy?$AAr?$AAl@ 0000000180050f20     libcpmt:winapinls.obj
 0002:00003f38       ??_C@_1M@LNFOCMOB@?$AAs?$AAe?$AA?9?$AAF?$AAI@ 0000000180050f38     libcpmt:winapinls.obj
 0002:00003f48       ??_C@_1O@MGJBOAMB@?$AAq?$AAu?$AAz?$AA?9?$AAP?$AAE@ 0000000180050f48     libcpmt:winapinls.obj
 0002:00003f58       ??_C@_1M@GJINLBOK@?$AAa?$AAr?$AA?9?$AAL?$AAY@ 0000000180050f58     libcpmt:winapinls.obj
 0002:00003f68       ??_C@_1M@GGMNHJNL@?$AAz?$AAh?$AA?9?$AAS?$AAG@ 0000000180050f68     libcpmt:winapinls.obj
 0002:00003f78       ??_C@_1M@HOIKODND@?$AAd?$AAe?$AA?9?$AAL?$AAU@ 0000000180050f78     libcpmt:winapinls.obj
 0002:00003f88       ??_C@_1M@DDOCCGFG@?$AAe?$AAn?$AA?9?$AAC?$AAA@ 0000000180050f88     libcpmt:winapinls.obj
 0002:00003f98       ??_C@_1M@BNOEMJLF@?$AAe?$AAs?$AA?9?$AAG?$AAT@ 0000000180050f98     libcpmt:winapinls.obj
 0002:00003fa8       ??_C@_1M@EOGNKEK@?$AAf?$AAr?$AA?9?$AAC?$AAH@ 0000000180050fa8     libcpmt:winapinls.obj
 0002:00003fb8       ??_C@_1M@FLIDJFHL@?$AAh?$AAr?$AA?9?$AAB?$AAA@ 0000000180050fb8     libcpmt:winapinls.obj
 0002:00003fc8       ??_C@_1O@FMCELNAJ@?$AAs?$AAm?$AAj?$AA?9?$AAN?$AAO@ 0000000180050fc8     libcpmt:winapinls.obj
 0002:00003fd8       ??_C@_1M@JHGLJMGJ@?$AAa?$AAr?$AA?9?$AAD?$AAZ@ 0000000180050fd8     libcpmt:winapinls.obj
 0002:00003fe8       ??_C@_1M@JKKFDCNP@?$AAz?$AAh?$AA?9?$AAM?$AAO@ 0000000180050fe8     libcpmt:winapinls.obj
 0002:00003ff8       ??_C@_1M@GEEFALPE@?$AAd?$AAe?$AA?9?$AAL?$AAI@ 0000000180050ff8     libcpmt:winapinls.obj
 0002:00004008       ??_C@_1M@IGEOFBG@?$AAe?$AAn?$AA?9?$AAN?$AAZ@ 0000000180051008     libcpmt:winapinls.obj
 0002:00004018       ??_C@_1M@KDBONEHP@?$AAe?$AAs?$AA?9?$AAC?$AAR@ 0000000180051018     libcpmt:winapinls.obj
 0002:00004028       ??_C@_1M@FHMDOHNN@?$AAf?$AAr?$AA?9?$AAL?$AAU@ 0000000180051028     libcpmt:winapinls.obj
 0002:00004038       ??_C@_1BG@NFKKMAFG@?$AAb?$AAs?$AA?9?$AAB?$AAA?$AA?9?$AAL?$AAa?$AAt?$AAn@ 0000000180051038     libcpmt:winapinls.obj
 0002:00004050       ??_C@_1O@IMNBEMCI@?$AAs?$AAm?$AAj?$AA?9?$AAS?$AAE@ 0000000180051050     libcpmt:winapinls.obj
 0002:00004060       ??_C@_1M@DHHMBNDP@?$AAa?$AAr?$AA?9?$AAM?$AAA@ 0000000180051060     libcpmt:winapinls.obj
 0002:00004070       ??_C@_1M@BNBLJCGH@?$AAe?$AAn?$AA?9?$AAI?$AAE@ 0000000180051070     libcpmt:winapinls.obj
 0002:00004080       ??_C@_1M@GEPAFMDL@?$AAe?$AAs?$AA?9?$AAP?$AAA@ 0000000180051080     libcpmt:winapinls.obj
 0002:00004090       ??_C@_1M@OJONDMDL@?$AAf?$AAr?$AA?9?$AAM?$AAC@ 0000000180051090     libcpmt:winapinls.obj
 0002:000040a0       ??_C@_1BG@OBCNFJB@?$AAs?$AAr?$AA?9?$AAB?$AAA?$AA?9?$AAL?$AAa?$AAt?$AAn@ 00000001800510a0     libcpmt:winapinls.obj
 0002:000040b8       ??_C@_1O@KEMEEGPO@?$AAs?$AAm?$AAa?$AA?9?$AAN?$AAO@ 00000001800510b8     libcpmt:winapinls.obj
 0002:000040c8       ??_C@_1M@ELMGFODK@?$AAa?$AAr?$AA?9?$AAT?$AAN@ 00000001800510c8     libcpmt:winapinls.obj
 0002:000040d8       ??_C@_1M@BHDLHFAF@?$AAe?$AAn?$AA?9?$AAZ?$AAA@ 00000001800510d8     libcpmt:winapinls.obj
 0002:000040e8       ??_C@_1M@BMGIGLIF@?$AAe?$AAs?$AA?9?$AAD?$AAO@ 00000001800510e8     libcpmt:winapinls.obj
 0002:000040f8       ??_C@_1BG@CMBHIPBE@?$AAs?$AAr?$AA?9?$AAB?$AAA?$AA?9?$AAC?$AAy?$AAr?$AAl@ 00000001800510f8     libcpmt:winapinls.obj
 0002:00004110       ??_C@_1O@HEDBLHNP@?$AAs?$AAm?$AAa?$AA?9?$AAS?$AAE@ 0000000180051110     libcpmt:winapinls.obj
 0002:00004120       ??_C@_1M@DAGCADIM@?$AAa?$AAr?$AA?9?$AAO?$AAM@ 0000000180051120     libcpmt:winapinls.obj
 0002:00004130       ??_C@_1M@FODLMICG@?$AAe?$AAn?$AA?9?$AAJ?$AAM@ 0000000180051130     libcpmt:winapinls.obj
 0002:00004140       ??_C@_1M@DNMLCIHB@?$AAe?$AAs?$AA?9?$AAV?$AAE@ 0000000180051140     libcpmt:winapinls.obj
 0002:00004150       ??_C@_1O@EOKHMKJK@?$AAs?$AAm?$AAs?$AA?9?$AAF?$AAI@ 0000000180051150     libcpmt:winapinls.obj
 0002:00004160       ??_C@_1M@CAFJMKOF@?$AAa?$AAr?$AA?9?$AAY?$AAE@ 0000000180051160     libcpmt:winapinls.obj
 0002:00004170       ??_C@_1M@CBFHIJLI@?$AAe?$AAn?$AA?9?$AAC?$AAB@ 0000000180051170     libcpmt:winapinls.obj
 0002:00004180       ??_C@_1M@BGNFLDN@?$AAe?$AAs?$AA?9?$AAC?$AAO@ 0000000180051180     libcpmt:winapinls.obj
 0002:00004190       ??_C@_1O@JMPHMAMC@?$AAs?$AAm?$AAn?$AA?9?$AAF?$AAI@ 0000000180051190     libcpmt:winapinls.obj
 0002:000041a0       ??_C@_1M@JLANABKE@?$AAa?$AAr?$AA?9?$AAS?$AAY@ 00000001800511a0     libcpmt:winapinls.obj
 0002:000041b0       ??_C@_1M@HPKGCFGN@?$AAe?$AAn?$AA?9?$AAB?$AAZ@ 00000001800511b0     libcpmt:winapinls.obj
 0002:000041c0       ??_C@_1M@OLJCMLGM@?$AAe?$AAs?$AA?9?$AAP?$AAE@ 00000001800511c0     libcpmt:winapinls.obj
 0002:000041d0       ??_C@_1M@MKKGFKLE@?$AAa?$AAr?$AA?9?$AAJ?$AAO@ 00000001800511d0     libcpmt:winapinls.obj
 0002:000041e0       ??_C@_1M@EKPGLDNI@?$AAe?$AAn?$AA?9?$AAT?$AAT@ 00000001800511e0     libcpmt:winapinls.obj
 0002:000041f0       ??_C@_1M@OONGHFHE@?$AAe?$AAs?$AA?9?$AAA?$AAR@ 00000001800511f0     libcpmt:winapinls.obj
 0002:00004200       ??_C@_1M@OOJFGBHE@?$AAa?$AAr?$AA?9?$AAL?$AAB@ 0000000180051200     libcpmt:winapinls.obj
 0002:00004210       ??_C@_1M@GCEJHNEG@?$AAe?$AAn?$AA?9?$AAZ?$AAW@ 0000000180051210     libcpmt:winapinls.obj
 0002:00004220       ??_C@_1M@JNOCAHJI@?$AAe?$AAs?$AA?9?$AAE?$AAC@ 0000000180051220     libcpmt:winapinls.obj
 0002:00004230       ??_C@_1M@JEFHPGGB@?$AAa?$AAr?$AA?9?$AAK?$AAW@ 0000000180051230     libcpmt:winapinls.obj
 0002:00004240       ??_C@_1M@MLKIBJOJ@?$AAe?$AAn?$AA?9?$AAP?$AAH@ 0000000180051240     libcpmt:winapinls.obj
 0002:00004250       ??_C@_1M@BDNIPEND@?$AAe?$AAs?$AA?9?$AAC?$AAL@ 0000000180051250     libcpmt:winapinls.obj
 0002:00004260       ??_C@_1M@MPNMEKBD@?$AAa?$AAr?$AA?9?$AAA?$AAE@ 0000000180051260     libcpmt:winapinls.obj
 0002:00004270       ??_C@_1M@KBJALCPI@?$AAe?$AAs?$AA?9?$AAU?$AAY@ 0000000180051270     libcpmt:winapinls.obj
 0002:00004280       ??_C@_1M@LLCCOAGA@?$AAa?$AAr?$AA?9?$AAB?$AAH@ 0000000180051280     libcpmt:winapinls.obj
 0002:00004290       ??_C@_1M@PBFNCDEL@?$AAe?$AAs?$AA?9?$AAP?$AAY@ 0000000180051290     libcpmt:winapinls.obj
 0002:000042a0       ??_C@_1M@EDGINPNP@?$AAa?$AAr?$AA?9?$AAQ?$AAA@ 00000001800512a0     libcpmt:winapinls.obj
 0002:000042b0       ??_C@_1M@MKDBIIJI@?$AAe?$AAs?$AA?9?$AAB?$AAO@ 00000001800512b0     libcpmt:winapinls.obj
 0002:000042c0       ??_C@_1M@CPKKEBLD@?$AAe?$AAs?$AA?9?$AAS?$AAV@ 00000001800512c0     libcpmt:winapinls.obj
 0002:000042d0       ??_C@_1M@NDBGMMJL@?$AAe?$AAs?$AA?9?$AAH?$AAN@ 00000001800512d0     libcpmt:winapinls.obj
 0002:000042e0       ??_C@_1M@JIJIBHDP@?$AAe?$AAs?$AA?9?$AAN?$AAI@ 00000001800512e0     libcpmt:winapinls.obj
 0002:000042f0       ??_C@_1M@CGFMKEEK@?$AAe?$AAs?$AA?9?$AAP?$AAR@ 00000001800512f0     libcpmt:winapinls.obj
 0002:00004300       ??_C@_1O@ICJHKIIK@?$AAz?$AAh?$AA?9?$AAC?$AAH?$AAT@ 0000000180051300     libcpmt:winapinls.obj
 0002:00004310       ??_C@_15CLNEJCE@?$AAs?$AAr@ 0000000180051310     libcpmt:winapinls.obj
 0002:00004318       ??_C@_1M@KAHEKEIG@?$AAa?$AAf?$AA?9?$AAz?$AAa@ 0000000180051318     libcpmt:winapinls.obj
 0002:00004328       ??_C@_1M@GIECOABL@?$AAa?$AAr?$AA?9?$AAa?$AAe@ 0000000180051328     libcpmt:winapinls.obj
 0002:00004338       ??_C@_1M@BMLMEKGI@?$AAa?$AAr?$AA?9?$AAb?$AAh@ 0000000180051338     libcpmt:winapinls.obj
 0002:00004348       ??_C@_1M@DAPFDGGB@?$AAa?$AAr?$AA?9?$AAd?$AAz@ 0000000180051348     libcpmt:winapinls.obj
 0002:00004358       ??_C@_1M@FJNKGKIG@?$AAa?$AAr?$AA?9?$AAe?$AAg@ 0000000180051358     libcpmt:winapinls.obj
 0002:00004368       ??_C@_1M@FLGKKCLO@?$AAa?$AAr?$AA?9?$AAi?$AAq@ 0000000180051368     libcpmt:winapinls.obj
 0002:00004378       ??_C@_1M@GNDIPALM@?$AAa?$AAr?$AA?9?$AAj?$AAo@ 0000000180051378     libcpmt:winapinls.obj
 0002:00004388       ??_C@_1M@DDMJFMGJ@?$AAa?$AAr?$AA?9?$AAk?$AAw@ 0000000180051388     libcpmt:winapinls.obj
 0002:00004398       ??_C@_1M@EJALMLHM@?$AAa?$AAr?$AA?9?$AAl?$AAb@ 0000000180051398     libcpmt:winapinls.obj
 0002:000043a8       ??_C@_1M@MOBDBLOC@?$AAa?$AAr?$AA?9?$AAl?$AAy@ 00000001800513a8     libcpmt:winapinls.obj
 0002:000043b8       ??_C@_1M@JAOCLHDH@?$AAa?$AAr?$AA?9?$AAm?$AAa@ 00000001800513b8     libcpmt:winapinls.obj
 0002:000043c8       ??_C@_1M@JHPMKJIE@?$AAa?$AAr?$AA?9?$AAo?$AAm@ 00000001800513c8     libcpmt:winapinls.obj
 0002:000043d8       ??_C@_1M@OEPGHFNH@?$AAa?$AAr?$AA?9?$AAq?$AAa@ 00000001800513d8     libcpmt:winapinls.obj
 0002:000043e8       ??_C@_1M@KJDONENM@?$AAa?$AAr?$AA?9?$AAs?$AAa@ 00000001800513e8     libcpmt:winapinls.obj
 0002:000043f8       ??_C@_1M@DMJDKLKM@?$AAa?$AAr?$AA?9?$AAs?$AAy@ 00000001800513f8     libcpmt:winapinls.obj
 0002:00004408       ??_C@_1M@OMFIPEDC@?$AAa?$AAr?$AA?9?$AAt?$AAn@ 0000000180051408     libcpmt:winapinls.obj
 0002:00004418       ??_C@_1M@IHMHGAON@?$AAa?$AAr?$AA?9?$AAy?$AAe@ 0000000180051418     libcpmt:winapinls.obj
 0002:00004428       ??_C@_1BG@KDCPGJGB@?$AAa?$AAz?$AA?9?$AAa?$AAz?$AA?9?$AAc?$AAy?$AAr?$AAl@ 0000000180051428     libcpmt:winapinls.obj
 0002:00004440       ??_C@_1BG@IBCKDDOE@?$AAa?$AAz?$AA?9?$AAa?$AAz?$AA?9?$AAl?$AAa?$AAt?$AAn@ 0000000180051440     libcpmt:winapinls.obj
 0002:00004458       ??_C@_1M@EGPFDCPD@?$AAb?$AAe?$AA?9?$AAb?$AAy@ 0000000180051458     libcpmt:winapinls.obj
 0002:00004468       ??_C@_1M@PCMGMCGC@?$AAb?$AAg?$AA?9?$AAb?$AAg@ 0000000180051468     libcpmt:winapinls.obj
 0002:00004478       ??_C@_1M@BJBMFGOB@?$AAb?$AAn?$AA?9?$AAi?$AAn@ 0000000180051478     libcpmt:winapinls.obj
 0002:00004488       ??_C@_1BG@EAKMMACD@?$AAb?$AAs?$AA?9?$AAb?$AAa?$AA?9?$AAl?$AAa?$AAt?$AAn@ 0000000180051488     libcpmt:winapinls.obj
 0002:000044a0       ??_C@_1M@KGADAODK@?$AAc?$AAa?$AA?9?$AAe?$AAs@ 00000001800514a0     libcpmt:winapinls.obj
 0002:000044b0       ??_C@_1M@COAJPDHI@?$AAc?$AAs?$AA?9?$AAc?$AAz@ 00000001800514b0     libcpmt:winapinls.obj
 0002:000044c0       ??_C@_1M@DHBHFONH@?$AAc?$AAy?$AA?9?$AAg?$AAb@ 00000001800514c0     libcpmt:winapinls.obj
 0002:000044d0       ??_C@_1M@IMGKELGA@?$AAd?$AAa?$AA?9?$AAd?$AAk@ 00000001800514d0     libcpmt:winapinls.obj
 0002:000044e0       ??_C@_1M@NNDGDNGA@?$AAd?$AAe?$AA?9?$AAa?$AAt@ 00000001800514e0     libcpmt:winapinls.obj
 0002:000044f0       ??_C@_1M@IKDBHEEM@?$AAd?$AAe?$AA?9?$AAc?$AAh@ 00000001800514f0     libcpmt:winapinls.obj
 0002:00004500       ??_C@_1M@GFFOJMCJ@?$AAd?$AAe?$AA?9?$AAd?$AAe@ 0000000180051500     libcpmt:winapinls.obj
 0002:00004510       ??_C@_1M@MDNLKBPM@?$AAd?$AAe?$AA?9?$AAl?$AAi@ 0000000180051510     libcpmt:winapinls.obj
 0002:00004520       ??_C@_1M@NJBEEJNL@?$AAd?$AAe?$AA?9?$AAl?$AAu@ 0000000180051520     libcpmt:winapinls.obj
 0002:00004530       ??_C@_1O@GNNELBAP@?$AAd?$AAi?$AAv?$AA?9?$AAm?$AAv@ 0000000180051530     libcpmt:winapinls.obj
 0002:00004540       ??_C@_1M@EJLEOGAE@?$AAe?$AAl?$AA?9?$AAg?$AAr@ 0000000180051540     libcpmt:winapinls.obj
 0002:00004550       ??_C@_1M@GMPONJN@?$AAe?$AAn?$AA?9?$AAa?$AAu@ 0000000180051550     libcpmt:winapinls.obj
 0002:00004560       ??_C@_1M@NIDIIPGF@?$AAe?$AAn?$AA?9?$AAb?$AAz@ 0000000180051560     libcpmt:winapinls.obj
 0002:00004570       ??_C@_1M@JEHMIMFO@?$AAe?$AAn?$AA?9?$AAc?$AAa@ 0000000180051570     libcpmt:winapinls.obj
 0002:00004580       ??_C@_1M@IGMJCDLA@?$AAe?$AAn?$AA?9?$AAc?$AAb@ 0000000180051580     libcpmt:winapinls.obj
 0002:00004590       ??_C@_1M@BNFIGBKG@?$AAe?$AAn?$AA?9?$AAg?$AAb@ 0000000180051590     libcpmt:winapinls.obj
 0002:000045a0       ??_C@_1M@LKIFDIGP@?$AAe?$AAn?$AA?9?$AAi?$AAe@ 00000001800515a0     libcpmt:winapinls.obj
 0002:000045b0       ??_C@_1M@PJKFGCCO@?$AAe?$AAn?$AA?9?$AAj?$AAm@ 00000001800515b0     libcpmt:winapinls.obj
 0002:000045c0       ??_C@_1M@KPPKEPBO@?$AAe?$AAn?$AA?9?$AAn?$AAz@ 00000001800515c0     libcpmt:winapinls.obj
 0002:000045d0       ??_C@_1M@GMDGLDOB@?$AAe?$AAn?$AA?9?$AAp?$AAh@ 00000001800515d0     libcpmt:winapinls.obj
 0002:000045e0       ??_C@_1M@ONGIBJNA@?$AAe?$AAn?$AA?9?$AAt?$AAt@ 00000001800515e0     libcpmt:winapinls.obj
 0002:000045f0       ??_C@_1M@LLODPCMM@?$AAe?$AAn?$AA?9?$AAu?$AAs@ 00000001800515f0     libcpmt:winapinls.obj
 0002:00004600       ??_C@_1M@LAKFNPAN@?$AAe?$AAn?$AA?9?$AAz?$AAa@ 0000000180051600     libcpmt:winapinls.obj
 0002:00004610       ??_C@_1M@MFNHNHEO@?$AAe?$AAn?$AA?9?$AAz?$AAw@ 0000000180051610     libcpmt:winapinls.obj
 0002:00004620       ??_C@_1M@EJEINPHM@?$AAe?$AAs?$AA?9?$AAa?$AAr@ 0000000180051620     libcpmt:winapinls.obj
 0002:00004630       ??_C@_1M@GNKPCCJA@?$AAe?$AAs?$AA?9?$AAb?$AAo@ 0000000180051630     libcpmt:winapinls.obj
 0002:00004640       ??_C@_1M@LEEGFONL@?$AAe?$AAs?$AA?9?$AAc?$AAl@ 0000000180051640     libcpmt:winapinls.obj
 0002:00004650       ??_C@_1M@KGPDPBDF@?$AAe?$AAs?$AA?9?$AAc?$AAo@ 0000000180051650     libcpmt:winapinls.obj
 0002:00004660       ??_C@_1M@EIAHOHH@?$AAe?$AAs?$AA?9?$AAc?$AAr@ 0000000180051660     libcpmt:winapinls.obj
 0002:00004670       ??_C@_1M@LLPGMBIN@?$AAe?$AAs?$AA?9?$AAd?$AAo@ 0000000180051670     libcpmt:winapinls.obj
 0002:00004680       ??_C@_1M@DKHMKNJA@?$AAe?$AAs?$AA?9?$AAe?$AAc@ 0000000180051680     libcpmt:winapinls.obj
 0002:00004690       ??_C@_1M@GKGFPKAP@?$AAe?$AAs?$AA?9?$AAe?$AAs@ 0000000180051690     libcpmt:winapinls.obj
 0002:000046a0       ??_C@_1M@LKHKGDLN@?$AAe?$AAs?$AA?9?$AAg?$AAt@ 00000001800516a0     libcpmt:winapinls.obj
 0002:000046b0       ??_C@_1M@HEIIGGJD@?$AAe?$AAs?$AA?9?$AAh?$AAn@ 00000001800516b0     libcpmt:winapinls.obj
 0002:000046c0       ??_C@_1M@FBDHPPGD@?$AAe?$AAs?$AA?9?$AAm?$AAx@ 00000001800516c0     libcpmt:winapinls.obj
 0002:000046d0       ??_C@_1M@DPAGLNDH@?$AAe?$AAs?$AA?9?$AAn?$AAi@ 00000001800516d0     libcpmt:winapinls.obj
 0002:000046e0       ??_C@_1M@MDGOPGDD@?$AAe?$AAs?$AA?9?$AAp?$AAa@ 00000001800516e0     libcpmt:winapinls.obj
 0002:000046f0       ??_C@_1M@EMAMGBGE@?$AAe?$AAs?$AA?9?$AAp?$AAe@ 00000001800516f0     libcpmt:winapinls.obj
 0002:00004700       ??_C@_1M@IBMCAOEC@?$AAe?$AAs?$AA?9?$AAp?$AAr@ 0000000180051700     libcpmt:winapinls.obj
 0002:00004710       ??_C@_1M@FGMDIJED@?$AAe?$AAs?$AA?9?$AAp?$AAy@ 0000000180051710     libcpmt:winapinls.obj
 0002:00004720       ??_C@_1M@IIDEOLLL@?$AAe?$AAs?$AA?9?$AAs?$AAv@ 0000000180051720     libcpmt:winapinls.obj
 0002:00004730       ??_C@_1M@GAOBIPA@?$AAe?$AAs?$AA?9?$AAu?$AAy@ 0000000180051730     libcpmt:winapinls.obj
 0002:00004740       ??_C@_1M@JKFFICHJ@?$AAe?$AAs?$AA?9?$AAv?$AAe@ 0000000180051740     libcpmt:winapinls.obj
 0002:00004750       ??_C@_1M@PNMLOJDF@?$AAe?$AAt?$AA?9?$AAe?$AAe@ 0000000180051750     libcpmt:winapinls.obj
 0002:00004760       ??_C@_1M@GHHLIKEI@?$AAe?$AAu?$AA?9?$AAe?$AAs@ 0000000180051760     libcpmt:winapinls.obj
 0002:00004770       ??_C@_1M@PBNONODE@?$AAf?$AAa?$AA?9?$AAi?$AAr@ 0000000180051770     libcpmt:winapinls.obj
 0002:00004780       ??_C@_1M@JEEHPMIL@?$AAf?$AAi?$AA?9?$AAf?$AAi@ 0000000180051780     libcpmt:winapinls.obj
 0002:00004790       ??_C@_1M@LMDCNDBA@?$AAf?$AAo?$AA?9?$AAf?$AAo@ 0000000180051790     libcpmt:winapinls.obj
 0002:000047a0       ??_C@_1M@JKEOHLDK@?$AAf?$AAr?$AA?9?$AAb?$AAe@ 00000001800517a0     libcpmt:winapinls.obj
 0002:000047b0       ??_C@_1M@NOHADPMI@?$AAf?$AAr?$AA?9?$AAc?$AAa@ 00000001800517b0     libcpmt:winapinls.obj
 0002:000047c0       ??_C@_1M@KDHIHAEC@?$AAf?$AAr?$AA?9?$AAc?$AAh@ 00000001800517c0     libcpmt:winapinls.obj
 0002:000047d0       ??_C@_1M@MMBBFGAK@?$AAf?$AAr?$AA?9?$AAf?$AAr@ 00000001800517d0     libcpmt:winapinls.obj
 0002:000047e0       ??_C@_1M@PAFNENNF@?$AAf?$AAr?$AA?9?$AAl?$AAu@ 00000001800517e0     libcpmt:winapinls.obj
 0002:000047f0       ??_C@_1M@EOHDJGDD@?$AAf?$AAr?$AA?9?$AAm?$AAc@ 00000001800517f0     libcpmt:winapinls.obj
 0002:00004800       ??_C@_1M@FAPLLOPF@?$AAg?$AAl?$AA?9?$AAe?$AAs@ 0000000180051800     libcpmt:winapinls.obj
 0002:00004810       ??_C@_1M@FOPBFLOO@?$AAg?$AAu?$AA?9?$AAi?$AAn@ 0000000180051810     libcpmt:winapinls.obj
 0002:00004820       ??_C@_1M@KBMCINPM@?$AAh?$AAe?$AA?9?$AAi?$AAl@ 0000000180051820     libcpmt:winapinls.obj
 0002:00004830       ??_C@_1M@BBPHKFPJ@?$AAh?$AAi?$AA?9?$AAi?$AAn@ 0000000180051830     libcpmt:winapinls.obj
 0002:00004840       ??_C@_1M@PMBNDPHD@?$AAh?$AAr?$AA?9?$AAb?$AAa@ 0000000180051840     libcpmt:winapinls.obj
 0002:00004850       ??_C@_1M@BPCKOEGE@?$AAh?$AAr?$AA?9?$AAh?$AAr@ 0000000180051850     libcpmt:winapinls.obj
 0002:00004860       ??_C@_1M@GACBMHKE@?$AAh?$AAu?$AA?9?$AAh?$AAu@ 0000000180051860     libcpmt:winapinls.obj
 0002:00004870       ??_C@_1M@MILPAJJC@?$AAh?$AAy?$AA?9?$AAa?$AAm@ 0000000180051870     libcpmt:winapinls.obj
 0002:00004880       ??_C@_1M@BABBICEC@?$AAi?$AAd?$AA?9?$AAi?$AAd@ 0000000180051880     libcpmt:winapinls.obj
 0002:00004890       ??_C@_1M@BIKNHHPF@?$AAi?$AAs?$AA?9?$AAi?$AAs@ 0000000180051890     libcpmt:winapinls.obj
 0002:000048a0       ??_C@_1M@NMPCJPHE@?$AAi?$AAt?$AA?9?$AAc?$AAh@ 00000001800518a0     libcpmt:winapinls.obj
 0002:000048b0       ??_C@_1M@GHKGFEDF@?$AAi?$AAt?$AA?9?$AAi?$AAt@ 00000001800518b0     libcpmt:winapinls.obj
 0002:000048c0       ??_C@_1M@NIEJCJJA@?$AAj?$AAa?$AA?9?$AAj?$AAp@ 00000001800518c0     libcpmt:winapinls.obj
 0002:000048d0       ??_C@_1M@JILFNBIM@?$AAk?$AAa?$AA?9?$AAg?$AAe@ 00000001800518d0     libcpmt:winapinls.obj
 0002:000048e0       ??_C@_1M@PACPMGPH@?$AAk?$AAk?$AA?9?$AAk?$AAz@ 00000001800518e0     libcpmt:winapinls.obj
 0002:000048f0       ??_C@_1M@IELFGMHA@?$AAk?$AAn?$AA?9?$AAi?$AAn@ 00000001800518f0     libcpmt:winapinls.obj
 0002:00004900       ??_C@_1M@DMHAEOGC@?$AAk?$AAo?$AA?9?$AAk?$AAr@ 0000000180051900     libcpmt:winapinls.obj
 0002:00004910       ??_C@_1O@IBBJHCH@?$AAk?$AAo?$AAk?$AA?9?$AAi?$AAn@ 0000000180051910     libcpmt:winapinls.obj
 0002:00004920       ??_C@_1M@HBAHBIGA@?$AAk?$AAy?$AA?9?$AAk?$AAg@ 0000000180051920     libcpmt:winapinls.obj
 0002:00004930       ??_C@_1M@KPMILCJG@?$AAl?$AAt?$AA?9?$AAl?$AAt@ 0000000180051930     libcpmt:winapinls.obj
 0002:00004940       ??_C@_1M@BDEKKCA@?$AAl?$AAv?$AA?9?$AAl?$AAv@ 0000000180051940     libcpmt:winapinls.obj
 0002:00004950       ??_C@_1M@ELCKCCJJ@?$AAm?$AAi?$AA?9?$AAn?$AAz@ 0000000180051950     libcpmt:winapinls.obj
 0002:00004960       ??_C@_1M@CBOOLAPA@?$AAm?$AAk?$AA?9?$AAm?$AAk@ 0000000180051960     libcpmt:winapinls.obj
 0002:00004970       ??_C@_1M@GPHNBJKN@?$AAm?$AAl?$AA?9?$AAi?$AAn@ 0000000180051970     libcpmt:winapinls.obj
 0002:00004980       ??_C@_1M@PABJILIG@?$AAm?$AAn?$AA?9?$AAm?$AAn@ 0000000180051980     libcpmt:winapinls.obj
 0002:00004990       ??_C@_1M@FGBKKIPG@?$AAm?$AAr?$AA?9?$AAi?$AAn@ 0000000180051990     libcpmt:winapinls.obj
 0002:000049a0       ??_C@_1M@NDBPDDAL@?$AAm?$AAs?$AA?9?$AAb?$AAn@ 00000001800519a0     libcpmt:winapinls.obj
 0002:000049b0       ??_C@_1M@OPIHOOPI@?$AAm?$AAs?$AA?9?$AAm?$AAy@ 00000001800519b0     libcpmt:winapinls.obj
 0002:000049c0       ??_C@_1M@PPDBCNFM@?$AAm?$AAt?$AA?9?$AAm?$AAt@ 00000001800519c0     libcpmt:winapinls.obj
 0002:000049d0       ??_C@_1M@KDJDKMDD@?$AAn?$AAb?$AA?9?$AAn?$AAo@ 00000001800519d0     libcpmt:winapinls.obj
 0002:000049e0       ??_C@_1M@KFCFLMJP@?$AAn?$AAl?$AA?9?$AAb?$AAe@ 00000001800519e0     libcpmt:winapinls.obj
 0002:000049f0       ??_C@_1M@KPOPDDGO@?$AAn?$AAl?$AA?9?$AAn?$AAl@ 00000001800519f0     libcpmt:winapinls.obj
 0002:00004a00       ??_C@_1M@LJKPEMLN@?$AAn?$AAn?$AA?9?$AAn?$AAo@ 0000000180051a00     libcpmt:winapinls.obj
 0002:00004a10       ??_C@_1M@BDGHHBFL@?$AAn?$AAs?$AA?9?$AAz?$AAa@ 0000000180051a10     libcpmt:winapinls.obj
 0002:00004a20       ??_C@_1M@IDEHOAP@?$AAp?$AAa?$AA?9?$AAi?$AAn@ 0000000180051a20     libcpmt:winapinls.obj
 0002:00004a30       ??_C@_1M@HDBKGOGH@?$AAp?$AAl?$AA?9?$AAp?$AAl@ 0000000180051a30     libcpmt:winapinls.obj
 0002:00004a40       ??_C@_1M@LJLLCMEH@?$AAp?$AAt?$AA?9?$AAb?$AAr@ 0000000180051a40     libcpmt:winapinls.obj
 0002:00004a50       ??_C@_1M@NCMONAAL@?$AAp?$AAt?$AA?9?$AAp?$AAt@ 0000000180051a50     libcpmt:winapinls.obj
 0002:00004a60       ??_C@_1O@EAKMAJDN@?$AAq?$AAu?$AAz?$AA?9?$AAb?$AAo@ 0000000180051a60     libcpmt:winapinls.obj
 0002:00004a70       ??_C@_1O@BHHPIGDN@?$AAq?$AAu?$AAz?$AA?9?$AAe?$AAc@ 0000000180051a70     libcpmt:winapinls.obj
 0002:00004a80       ??_C@_1O@GBAPEKMJ@?$AAq?$AAu?$AAz?$AA?9?$AAp?$AAe@ 0000000180051a80     libcpmt:winapinls.obj
 0002:00004a90       ??_C@_1M@CLGLEFBO@?$AAr?$AAo?$AA?9?$AAr?$AAo@ 0000000180051a90     libcpmt:winapinls.obj
 0002:00004aa0       ??_C@_1M@CEEDODME@?$AAr?$AAu?$AA?9?$AAr?$AAu@ 0000000180051aa0     libcpmt:winapinls.obj
 0002:00004ab0       ??_C@_1M@HPKKKMPP@?$AAs?$AAa?$AA?9?$AAi?$AAn@ 0000000180051ab0     libcpmt:winapinls.obj
 0002:00004ac0       ??_C@_1M@BKMAIGOJ@?$AAs?$AAe?$AA?9?$AAf?$AAi@ 0000000180051ac0     libcpmt:winapinls.obj
 0002:00004ad0       ??_C@_1M@NDPIFLFI@?$AAs?$AAe?$AA?9?$AAn?$AAo@ 0000000180051ad0     libcpmt:winapinls.obj
 0002:00004ae0       ??_C@_1M@DANKKHJ@?$AAs?$AAe?$AA?9?$AAs?$AAe@ 0000000180051ae0     libcpmt:winapinls.obj
 0002:00004af0       ??_C@_1M@PNBLONPJ@?$AAs?$AAk?$AA?9?$AAs?$AAk@ 0000000180051af0     libcpmt:winapinls.obj
 0002:00004b00       ??_C@_1M@LFMODOAL@?$AAs?$AAl?$AA?9?$AAs?$AAi@ 0000000180051b00     libcpmt:winapinls.obj
 0002:00004b10       ??_C@_1O@DFKOMPG@?$AAs?$AAm?$AAa?$AA?9?$AAn?$AAo@ 0000000180051b10     libcpmt:winapinls.obj
 0002:00004b20       ??_C@_1O@NDKPBNNH@?$AAs?$AAm?$AAa?$AA?9?$AAs?$AAe@ 0000000180051b20     libcpmt:winapinls.obj
 0002:00004b30       ??_C@_1O@PLLKBHAB@?$AAs?$AAm?$AAj?$AA?9?$AAn?$AAo@ 0000000180051b30     libcpmt:winapinls.obj
 0002:00004b40       ??_C@_1O@CLEPOGCA@?$AAs?$AAm?$AAj?$AA?9?$AAs?$AAe@ 0000000180051b40     libcpmt:winapinls.obj
 0002:00004b50       ??_C@_1O@DLGJGKMK@?$AAs?$AAm?$AAn?$AA?9?$AAf?$AAi@ 0000000180051b50     libcpmt:winapinls.obj
 0002:00004b60       ??_C@_1O@OJDJGAJC@?$AAs?$AAm?$AAs?$AA?9?$AAf?$AAi@ 0000000180051b60     libcpmt:winapinls.obj
 0002:00004b70       ??_C@_1M@BOFOGHPB@?$AAs?$AAq?$AA?9?$AAa?$AAl@ 0000000180051b70     libcpmt:winapinls.obj
 0002:00004b80       ??_C@_1BG@LJBBIPGB@?$AAs?$AAr?$AA?9?$AAb?$AAa?$AA?9?$AAc?$AAy?$AAr?$AAl@ 0000000180051b80     libcpmt:winapinls.obj
 0002:00004b98       ??_C@_1BG@JLBENFOE@?$AAs?$AAr?$AA?9?$AAb?$AAa?$AA?9?$AAl?$AAa?$AAt?$AAn@ 0000000180051b98     libcpmt:winapinls.obj
 0002:00004bb0       ??_C@_1BG@KODPNHE@?$AAs?$AAr?$AA?9?$AAs?$AAp?$AA?9?$AAc?$AAy?$AAr?$AAl@ 0000000180051bb0     libcpmt:winapinls.obj
 0002:00004bc8       ??_C@_1BG@CIOGKHPB@?$AAs?$AAr?$AA?9?$AAs?$AAp?$AA?9?$AAl?$AAa?$AAt?$AAn@ 0000000180051bc8     libcpmt:winapinls.obj
 0002:00004be0       ??_C@_1M@NGFJLMAC@?$AAs?$AAv?$AA?9?$AAf?$AAi@ 0000000180051be0     libcpmt:winapinls.obj
 0002:00004bf0       ??_C@_1M@MPJEJAJC@?$AAs?$AAv?$AA?9?$AAs?$AAe@ 0000000180051bf0     libcpmt:winapinls.obj
 0002:00004c00       ??_C@_1M@MPNDHLFK@?$AAs?$AAw?$AA?9?$AAk?$AAe@ 0000000180051c00     libcpmt:winapinls.obj
 0002:00004c10       ??_C@_1O@KOHBJJI@?$AAs?$AAy?$AAr?$AA?9?$AAs?$AAy@ 0000000180051c10     libcpmt:winapinls.obj
 0002:00004c20       ??_C@_1M@LDCEFHA@?$AAt?$AAa?$AA?9?$AAi?$AAn@ 0000000180051c20     libcpmt:winapinls.obj
 0002:00004c30       ??_C@_1M@CNJOFAK@?$AAt?$AAe?$AA?9?$AAi?$AAn@ 0000000180051c30     libcpmt:winapinls.obj
 0002:00004c40       ??_C@_1M@GNAECACD@?$AAt?$AAh?$AA?9?$AAt?$AAh@ 0000000180051c40     libcpmt:winapinls.obj
 0002:00004c50       ??_C@_1M@CHBIHOJO@?$AAt?$AAn?$AA?9?$AAz?$AAa@ 0000000180051c50     libcpmt:winapinls.obj
 0002:00004c60       ??_C@_1M@GCCMIGPJ@?$AAt?$AAr?$AA?9?$AAt?$AAr@ 0000000180051c60     libcpmt:winapinls.obj
 0002:00004c70       ??_C@_1M@CELMCNBK@?$AAt?$AAt?$AA?9?$AAr?$AAu@ 0000000180051c70     libcpmt:winapinls.obj
 0002:00004c80       ??_C@_1M@KLMCELGA@?$AAu?$AAk?$AA?9?$AAu?$AAa@ 0000000180051c80     libcpmt:winapinls.obj
 0002:00004c90       ??_C@_1M@EPAJJAJF@?$AAu?$AAr?$AA?9?$AAp?$AAk@ 0000000180051c90     libcpmt:winapinls.obj
 0002:00004ca0       ??_C@_1BG@GEGPMCDJ@?$AAu?$AAz?$AA?9?$AAu?$AAz?$AA?9?$AAc?$AAy?$AAr?$AAl@ 0000000180051ca0     libcpmt:winapinls.obj
 0002:00004cb8       ??_C@_1BG@EGGKJILM@?$AAu?$AAz?$AA?9?$AAu?$AAz?$AA?9?$AAl?$AAa?$AAt?$AAn@ 0000000180051cb8     libcpmt:winapinls.obj
 0002:00004cd0       ??_C@_1M@GFOCLFF@?$AAv?$AAi?$AA?9?$AAv?$AAn@ 0000000180051cd0     libcpmt:winapinls.obj
 0002:00004ce0       ??_C@_1M@CPAMEDFI@?$AAx?$AAh?$AA?9?$AAz?$AAa@ 0000000180051ce0     libcpmt:winapinls.obj
 0002:00004cf0       ??_C@_1O@EBKIFIGN@?$AAz?$AAh?$AA?9?$AAc?$AAh?$AAs@ 0000000180051cf0     libcpmt:winapinls.obj
 0002:00004d00       ??_C@_1O@NMHPGANE@?$AAz?$AAh?$AA?9?$AAc?$AAh?$AAt@ 0000000180051d00     libcpmt:winapinls.obj
 0002:00004d10       ??_C@_1M@LPINJOMC@?$AAz?$AAh?$AA?9?$AAc?$AAn@ 0000000180051d10     libcpmt:winapinls.obj
 0002:00004d20       ??_C@_1M@OCJEJODD@?$AAz?$AAh?$AA?9?$AAh?$AAk@ 0000000180051d20     libcpmt:winapinls.obj
 0002:00004d30       ??_C@_1M@DNDLJINH@?$AAz?$AAh?$AA?9?$AAm?$AAo@ 0000000180051d30     libcpmt:winapinls.obj
 0002:00004d40       ??_C@_1M@MBFDNDND@?$AAz?$AAh?$AA?9?$AAs?$AAg@ 0000000180051d40     libcpmt:winapinls.obj
 0002:00004d50       ??_C@_1M@IMEPLEPE@?$AAz?$AAh?$AA?9?$AAt?$AAw@ 0000000180051d50     libcpmt:winapinls.obj
 0002:00004d60       ??_C@_1M@BBGHNHJP@?$AAz?$AAu?$AA?9?$AAz?$AAa@ 0000000180051d60     libcpmt:winapinls.obj
 0002:00004d78       ??_7type_info@@6B@         0000000180051d78     LIBCMT:std_type_info_static.obj
 0002:00004d90       _pRawDllMain               0000000180051d90     LIBCMT:dll_dllmain.obj
 0002:00004d90       _pDefaultRawDllMain        0000000180051d90     LIBCMT:dll_dllmain.obj
 0002:00004d98       ?s_negLengthTab@FH4@@3QBCB 0000000180051d98     libvcruntime:risctrnsctrl.obj
 0002:00004da8       ?s_shiftTab@FH4@@3QBEB     0000000180051da8     libvcruntime:risctrnsctrl.obj
 0002:00004ef8       _pDestructExceptionObject  0000000180051ef8     libvcruntime:ehhelpers.obj
 0002:00004f08       ??_7bad_exception@std@@6B@ 0000000180051f08     libvcruntime:frame.obj
 0002:00004f18       ??_C@_0O@DPKOEFFH@bad?5exception@ 0000000180051f18     libvcruntime:frame.obj
 0002:00005630       ??_C@_08EHJDFFNH@__based?$CI@ 0000000180052630     libvcruntime:undname.obj
 0002:00005640       ??_C@_07KOLFKCDI@__cdecl@  0000000180052640     libvcruntime:undname.obj
 0002:00005648       ??_C@_08GHMPAG@__pascal@   0000000180052648     libvcruntime:undname.obj
 0002:00005658       ??_C@_09IFJBGAPI@__stdcall@ 0000000180052658     libvcruntime:undname.obj
 0002:00005668       ??_C@_0L@NPHFGOKO@__thiscall@ 0000000180052668     libvcruntime:undname.obj
 0002:00005678       ??_C@_0L@JMKHOMEK@__fastcall@ 0000000180052678     libvcruntime:undname.obj
 0002:00005688       ??_C@_0N@BCKKPABJ@__vectorcall@ 0000000180052688     libvcruntime:undname.obj
 0002:00005698       ??_C@_09HIJEGCPM@__clrcall@ 0000000180052698     libvcruntime:undname.obj
 0002:000056a4       ??_C@_06GHPCKEAG@__eabi@   00000001800526a4     libvcruntime:undname.obj
 0002:000056b0       ??_C@_09IOPIDJLG@__swift_1@ 00000001800526b0     libvcruntime:undname.obj
 0002:000056c0       ??_C@_09KFNFGKHF@__swift_2@ 00000001800526c0     libvcruntime:undname.obj
 0002:000056d0       ??_C@_07JOMMBBKO@__ptr64@  00000001800526d0     libvcruntime:undname.obj
 0002:000056d8       ??_C@_0L@PILCLIHE@__restrict@ 00000001800526d8     libvcruntime:undname.obj
 0002:000056e8       ??_C@_0M@GFIIJFMG@__unaligned@ 00000001800526e8     libvcruntime:undname.obj
 0002:000056f8       ??_C@_09DHDLOLLB@restrict?$CI@ 00000001800526f8     libvcruntime:undname.obj
 0002:00005704       ??_C@_04NIHEBCM@?5new@     0000000180052704     libvcruntime:undname.obj
 0002:00005710       ??_C@_07FPCDHGMM@?5delete@ 0000000180052710     libvcruntime:undname.obj
 0002:00005718       ??_C@_01NEMOKFLO@?$DN@     0000000180052718     libvcruntime:undname.obj
 0002:0000571c       ??_C@_02GPIOPFAK@?$DO?$DO@ 000000018005271c     libvcruntime:undname.obj
 0002:00005720       ??_C@_02FODMEDOG@?$DM?$DM@ 0000000180052720     libvcruntime:undname.obj
 0002:00005724       ??_C@_01DCLJPIOD@?$CB@     0000000180052724     libvcruntime:undname.obj
 0002:00005728       ??_C@_02EGOFBIJA@?$DN?$DN@ 0000000180052728     libvcruntime:undname.obj
 0002:0000572c       ??_C@_02FDNJECIE@?$CB?$DN@ 000000018005272c     libvcruntime:undname.obj
 0002:00005730       ??_C@_02GPECMEKF@?$FL?$FN@ 0000000180052730     libvcruntime:undname.obj
 0002:00005738       ??_C@_08LHJFAFGD@operator@ 0000000180052738     libvcruntime:undname.obj
 0002:00005744       ??_C@_02HBOOOICD@?9?$DO@   0000000180052744     libvcruntime:undname.obj
 0002:00005748       ??_C@_02ECNGHCIF@?$CL?$CL@ 0000000180052748     libvcruntime:undname.obj
 0002:0000574c       ??_C@_02BAABKJLB@?9?9@     000000018005274c     libvcruntime:undname.obj
 0002:00005750       ??_C@_01MIFGBAGJ@?$CL@     0000000180052750     libvcruntime:undname.obj
 0002:00005754       ??_C@_01HNPIGOCE@?$CG@     0000000180052754     libvcruntime:undname.obj
 0002:00005758       ??_C@_03MNHNFDLC@?9?$DO?$CK@ 0000000180052758     libvcruntime:undname.obj
 0002:0000575c       ??_C@_01KMDKNFGN@?1@       000000018005275c     libvcruntime:undname.obj
 0002:00005760       ??_C@_01FGNFDNOH@?$CF@     0000000180052760     libvcruntime:undname.obj
 0002:00005764       ??_C@_01MNNFJEPP@?$DM@     0000000180052764     libvcruntime:undname.obj
 0002:00005768       ??_C@_02EHCHHCKH@?$DM?$DN@ 0000000180052768     libvcruntime:undname.obj
 0002:0000576c       ??_C@_01PPODPGHN@?$DO@     000000018005276c     libvcruntime:undname.obj
 0002:00005770       ??_C@_02EEKDKGMJ@?$DO?$DN@ 0000000180052770     libvcruntime:undname.obj
 0002:00005774       ??_C@_01IHBHIGKO@?0@       0000000180052774     libvcruntime:undname.obj
 0002:00005778       ??_C@_02HCKGKOFO@?$CI?$CJ@ 0000000180052778     libvcruntime:undname.obj
 0002:0000577c       ??_C@_01PJKLJHI@?$HO@      000000018005277c     libvcruntime:undname.obj
 0002:00005780       ??_C@_01JKBOJNNK@?$FO@     0000000180052780     libvcruntime:undname.obj
 0002:00005784       ??_C@_01DNKMNLPK@?$HM@     0000000180052784     libvcruntime:undname.obj
 0002:00005788       ??_C@_02PPKAJPJL@?$CG?$CG@ 0000000180052788     libvcruntime:undname.obj
 0002:0000578c       ??_C@_02NONPIBCD@?$HM?$HM@ 000000018005278c     libvcruntime:undname.obj
 0002:00005790       ??_C@_02FPIMKNGF@?$CK?$DN@ 0000000180052790     libvcruntime:undname.obj
 0002:00005794       ??_C@_02FOEOMHFC@?$CL?$DN@ 0000000180052794     libvcruntime:undname.obj
 0002:00005798       ??_C@_02FKMDLLOA@?9?$DN@   0000000180052798     libvcruntime:undname.obj
 0002:0000579c       ??_C@_02FJEHGPIO@?1?$DN@   000000018005279c     libvcruntime:undname.obj
 0002:000057a0       ??_C@_02FENAOKFI@?$CF?$DN@ 00000001800527a0     libvcruntime:undname.obj
 0002:000057a4       ??_C@_03IKFCCPFF@?$DO?$DO?$DN@ 00000001800527a4     libvcruntime:undname.obj
 0002:000057a8       ??_C@_03CDNPDDLA@?$DM?$DM?$DN@ 00000001800527a8     libvcruntime:undname.obj
 0002:000057ac       ??_C@_02FGJGFEAB@?$CG?$DN@ 00000001800527ac     libvcruntime:undname.obj
 0002:000057b0       ??_C@_02DHLNPPGH@?$HM?$DN@ 00000001800527b0     libvcruntime:undname.obj
 0002:000057b4       ??_C@_02MHEGNOJ@?$FO?$DN@  00000001800527b4     libvcruntime:undname.obj
 0002:000057b8       ??_C@_09IFPLHPGF@?$GAvftable?8@ 00000001800527b8     libvcruntime:undname.obj
 0002:000057c8       ??_C@_09BLBHBJP@?$GAvbtable?8@ 00000001800527c8     libvcruntime:undname.obj
 0002:000057d8       ??_C@_07FEEIOKP@?$GAvcall?8@ 00000001800527d8     libvcruntime:undname.obj
 0002:000057e0       ??_C@_08LLFFHHDJ@?$GAtypeof?8@ 00000001800527e0     libvcruntime:undname.obj
 0002:000057f0       ??_C@_0BF@KDPPACIK@?$GAlocal?5static?5guard?8@ 00000001800527f0     libvcruntime:undname.obj
 0002:00005808       ??_C@_08OBABFOLI@?$GAstring?8@ 0000000180052808     libvcruntime:undname.obj
 0002:00005818       ??_C@_0BD@JDLKDPAB@?$GAvbase?5destructor?8@ 0000000180052818     libvcruntime:undname.obj
 0002:00005830       ??_C@_0BN@DEGPLNFK@?$GAvector?5deleting?5destructor?8@ 0000000180052830     libvcruntime:undname.obj
 0002:00005850       ??_C@_0BO@OBMKPJIG@?$GAdefault?5constructor?5closure?8@ 0000000180052850     libvcruntime:undname.obj
 0002:00005870       ??_C@_0BN@IMDCHIKM@?$GAscalar?5deleting?5destructor?8@ 0000000180052870     libvcruntime:undname.obj
 0002:00005890       ??_C@_0BO@PFGOCPJJ@?$GAvector?5constructor?5iterator?8@ 0000000180052890     libvcruntime:undname.obj
 0002:000058b0       ??_C@_0BN@LFPFMEDL@?$GAvector?5destructor?5iterator?8@ 00000001800528b0     libvcruntime:undname.obj
 0002:000058d0       ??_C@_0CE@IKBNEHA@?$GAvector?5vbase?5constructor?5itera@ 00000001800528d0     libvcruntime:undname.obj
 0002:000058f8       ??_C@_0BL@NILFHHPC@?$GAvirtual?5displacement?5map?8@ 00000001800528f8     libvcruntime:undname.obj
 0002:00005918       ??_C@_0CB@JONCMFFK@?$GAeh?5vector?5constructor?5iterator@ 0000000180052918     libvcruntime:undname.obj
 0002:00005940       ??_C@_0CA@GCEOPDGL@?$GAeh?5vector?5destructor?5iterator?8@ 0000000180052940     libvcruntime:undname.obj
 0002:00005960       ??_C@_0CH@OOJPLCPH@?$GAeh?5vector?5vbase?5constructor?5it@ 0000000180052960     libvcruntime:undname.obj
 0002:00005988       ??_C@_0BL@LLKPOHJI@?$GAcopy?5constructor?5closure?8@ 0000000180052988     libvcruntime:undname.obj
 0002:000059a8       ??_C@_0BA@KBCDOMBN@?$GAudt?5returning?8@ 00000001800529a8     libvcruntime:undname.obj
 0002:000059b8       ??_C@_03KLGMFNMG@?$GAEH@   00000001800529b8     libvcruntime:undname.obj
 0002:000059bc       ??_C@_05KHLCHHI@?$GARTTI@  00000001800529bc     libvcruntime:undname.obj
 0002:000059c8       ??_C@_0BA@KKLDJDLB@?$GAlocal?5vftable?8@ 00000001800529c8     libvcruntime:undname.obj
 0002:000059d8       ??_C@_0CE@IIHCMGGL@?$GAlocal?5vftable?5constructor?5clos@ 00000001800529d8     libvcruntime:undname.obj
 0002:000059fc       ??_C@_06FHBGPFGH@?5new?$FL?$FN@ 00000001800529fc     libvcruntime:undname.obj
 0002:00005a08       ??_C@_09LBNFPBCA@?5delete?$FL?$FN@ 0000000180052a08     libvcruntime:undname.obj
 0002:00005a18       ??_C@_0P@HJKNJFNN@?$GAomni?5callsig?8@ 0000000180052a18     libvcruntime:undname.obj
 0002:00005a28       ??_C@_0BL@CNOONJFP@?$GAplacement?5delete?5closure?8@ 0000000180052a28     libvcruntime:undname.obj
 0002:00005a48       ??_C@_0BN@CKNJLHMB@?$GAplacement?5delete?$FL?$FN?5closure?8@ 0000000180052a48     libvcruntime:undname.obj
 0002:00005a68       ??_C@_0CG@CFDHKGGD@?$GAmanaged?5vector?5constructor?5ite@ 0000000180052a68     libvcruntime:undname.obj
 0002:00005a90       ??_C@_0CF@IMGKMJNO@?$GAmanaged?5vector?5destructor?5iter@ 0000000180052a90     libvcruntime:undname.obj
 0002:00005ab8       ??_C@_0CG@HLDDJMAG@?$GAeh?5vector?5copy?5constructor?5ite@ 0000000180052ab8     libvcruntime:undname.obj
 0002:00005ae0       ??_C@_0CM@FCBBDIGB@?$GAeh?5vector?5vbase?5copy?5construct@ 0000000180052ae0     libvcruntime:undname.obj
 0002:00005b10       ??_C@_0BL@CLIPGLGB@?$GAdynamic?5initializer?5for?5?8@ 0000000180052b10     libvcruntime:undname.obj
 0002:00005b30       ??_C@_0CB@PDBIFEP@?$GAdynamic?5atexit?5destructor?5for?5@ 0000000180052b30     libvcruntime:undname.obj
 0002:00005b58       ??_C@_0CD@CGAJBKEJ@?$GAvector?5copy?5constructor?5iterat@ 0000000180052b58     libvcruntime:undname.obj
 0002:00005b80       ??_C@_0CJ@GJELGAMM@?$GAvector?5vbase?5copy?5constructor?5@ 0000000180052b80     libvcruntime:undname.obj
 0002:00005bb0       ??_C@_0CL@FGIJHLCE@?$GAmanaged?5vector?5copy?5constructo@ 0000000180052bb0     libvcruntime:undname.obj
 0002:00005be0       ??_C@_0BM@PMGGMLDN@?$GAlocal?5static?5thread?5guard?8@ 0000000180052be0     libvcruntime:undname.obj
 0002:00005c00       ??_C@_0N@BDNMDMOL@operator?5?$CC?$CC?5@ 0000000180052c00     libvcruntime:undname.obj
 0002:00005c10       ??_C@_0BC@GGEBGALA@operator?5co_await@ 0000000180052c10     libvcruntime:undname.obj
 0002:00005c28       ??_C@_0M@GAAIMMOH@operator?$DM?$DN?$DO@ 0000000180052c28     libvcruntime:undname.obj
 0002:00005c38       ??_C@_0BC@DAFEJGAK@?5Type?5Descriptor?8@ 0000000180052c38     libvcruntime:undname.obj
 0002:00005c50       ??_C@_0BM@LDKODKLH@?5Base?5Class?5Descriptor?5at?5?$CI@ 0000000180052c50     libvcruntime:undname.obj
 0002:00005c70       ??_C@_0BD@LGICGFMM@?5Base?5Class?5Array?8@ 0000000180052c70     libvcruntime:undname.obj
 0002:00005c88       ??_C@_0BN@MECKDCOJ@?5Class?5Hierarchy?5Descriptor?8@ 0000000180052c88     libvcruntime:undname.obj
 0002:00005ca8       ??_C@_0BK@CFCOFLF@?5Complete?5Object?5Locator?8@ 0000000180052ca8     libvcruntime:undname.obj
 0002:00005cc8       ??_C@_0BG@JNJLAMPM@?$GAanonymous?5namespace?8@ 0000000180052cc8     libvcruntime:undname.obj
 0002:00005cf8       ??_C@_1DM@KHCHBNEB@?$AAa?$AAp?$AAi?$AA?9?$AAm?$AAs?$AA?9?$AAw?$AAi?$AAn?$AA?9?$AAc?$AAo?$AAr?$AAe@ 0000000180052cf8     libvcruntime:winapi_downlevel.obj
 0002:00005d38       ??_C@_1DK@LPPGFMPP@?$AAa?$AAp?$AAi?$AA?9?$AAm?$AAs?$AA?9?$AAw?$AAi?$AAn?$AA?9?$AAc?$AAo?$AAr?$AAe@ 0000000180052d38     libvcruntime:winapi_downlevel.obj
 0002:00005d78       ??_C@_1BA@PFFKHIOG@?$AAa?$AAp?$AAi?$AA?9?$AAm?$AAs?$AA?9@ 0000000180052d78     libvcruntime:winapi_downlevel.obj
 0002:00005db0       format_validation_lookup_table 0000000180052db0     libucrt:output.obj
 0002:00005e10       ??_C@_1O@CEDCILHN@?$AA?$CI?$AAn?$AAu?$AAl?$AAl?$AA?$CJ@ 0000000180052e10     libucrt:output.obj
 0002:00005e20       ??_C@_06OJHGLDPL@?$CInull?$CJ@ 0000000180052e20     libucrt:output.obj
 0002:00005f98       __real@8000000000000000    0000000180052f98     libucrt:modf.obj
 0002:000063b8       ??_C@_04KGLCPMCP@log2@     00000001800533b8     libucrt:log2.obj
 0002:000063c0       __real@03d0000000000000    00000001800533c0     libucrt:log2.obj
 0002:000063c8       __real@3ecb295c17f0bbbe    00000001800533c8     libucrt:log2.obj
 0002:000063d0       __real@3f3c8034c85dfff0    00000001800533d0     libucrt:log2.obj
 0002:000063d8       __real@3f62492307f1519f    00000001800533d8     libucrt:log2.obj
 0002:000063e0       __real@3f6249423bd94741    00000001800533e0     libucrt:log2.obj
 0002:000063e8       __real@3f80000000000000    00000001800533e8     libucrt:log2.obj
 0002:000063f0       __real@3f89999999865ede    00000001800533f0     libucrt:log2.obj
 0002:000063f8       __real@3f89999999bac6d4    00000001800533f8     libucrt:log2.obj
 0002:00006400       __real@3fb55555555554e6    0000000180053400     libucrt:log2.obj
 0002:00006408       __real@3fb5555555555557    0000000180053408     libucrt:log2.obj
 0002:00006410       __real@3fe0000000000000    0000000180053410     libucrt:log2.obj
 0002:00006418       __real@3ff0000000000000    0000000180053418     libucrt:log2.obj
 0002:00006420       __real@3ff7154400000000    0000000180053420     libucrt:log2.obj
 0002:00006428       __real@4000000000000000    0000000180053428     libucrt:log2.obj
 0002:00006430       __real@bff0000000000000    0000000180053430     libucrt:round.obj
 0002:00006440       __newctype                 0000000180053440     libucrt:ctype.obj
 0002:00006740       __newclmap                 0000000180053740     libucrt:ctype.obj
 0002:000068c0       __newcumap                 00000001800538c0     libucrt:ctype.obj
 0002:00006a40       _wctype                    0000000180053a40     libucrt:ctype.obj
 0002:00006c50       ?large_power_data@?1??multiply_by_power_of_ten@__crt_strtox@@YA_NAEAUbig_integer@2@I@Z@4QBIB 0000000180053c50     libucrt:strtod.obj
 0002:00007558       ?small_powers_of_ten@?1??multiply_by_power_of_ten@__crt_strtox@@YA_NAEAUbig_integer@2@I@Z@4QBIB 0000000180054558     libucrt:strtod.obj
 0002:00009230       __acrt_exception_action_table 0000000180056230     libucrt:exception_filter.obj
 0002:000092f0       __acrt_signal_action_table_count 00000001800562f0     libucrt:exception_filter.obj
 0002:000092f8       __acrt_signal_action_first_fpe_index 00000001800562f8     libucrt:exception_filter.obj
 0002:00009300       __acrt_signal_action_fpe_count 0000000180056300     libucrt:exception_filter.obj
 0002:00009308       ??_C@_1BI@BGOHAHKC@?$AAm?$AAs?$AAc?$AAo?$AAr?$AAe?$AAe?$AA?4?$AAd?$AAl?$AAl@ 0000000180056308     libucrt:exit.obj
 0002:00009320       ??_C@_0P@MIGLKIOC@CorExitProcess@ 0000000180056320     libucrt:exit.obj
 0002:000094d0       ??_C@_1EA@JGEFHKEI@?$AAa?$AAp?$AAi?$AA?9?$AAm?$AAs?$AA?9?$AAw?$AAi?$AAn?$AA?9?$AAc?$AAo?$AAr?$AAe@ 00000001800564d0     libucrt:winapi_thunks.obj
 0002:00009510       ??_C@_1DI@IJCEHOCB@?$AAa?$AAp?$AAi?$AA?9?$AAm?$AAs?$AA?9?$AAw?$AAi?$AAn?$AA?9?$AAc?$AAo?$AAr?$AAe@ 0000000180056510     libucrt:winapi_thunks.obj
 0002:00009550       ??_C@_1EI@MPIAOHOC@?$AAa?$AAp?$AAi?$AA?9?$AAm?$AAs?$AA?9?$AAw?$AAi?$AAn?$AA?9?$AAc?$AAo?$AAr?$AAe@ 0000000180056550     libucrt:winapi_thunks.obj
 0002:000095a0       ??_C@_1FK@FPHCKFIE@?$AAa?$AAp?$AAi?$AA?9?$AAm?$AAs?$AA?9?$AAw?$AAi?$AAn?$AA?9?$AAc?$AAo?$AAr?$AAe@ 00000001800565a0     libucrt:winapi_thunks.obj
 0002:00009600       ??_C@_1EM@DILCGIIO@?$AAa?$AAp?$AAi?$AA?9?$AAm?$AAs?$AA?9?$AAw?$AAi?$AAn?$AA?9?$AAc?$AAo?$AAr?$AAe@ 0000000180056600     libucrt:winapi_thunks.obj
 0002:00009650       ??_C@_1DM@LNCGDDPN@?$AAa?$AAp?$AAi?$AA?9?$AAm?$AAs?$AA?9?$AAw?$AAi?$AAn?$AA?9?$AAc?$AAo?$AAr?$AAe@ 0000000180056650     libucrt:winapi_thunks.obj
 0002:00009690       ??_C@_1DO@FPAPJEMD@?$AAa?$AAp?$AAi?$AA?9?$AAm?$AAs?$AA?9?$AAw?$AAi?$AAn?$AA?9?$AAc?$AAo?$AAr?$AAe@ 0000000180056690     libucrt:winapi_thunks.obj
 0002:000096d0       ??_C@_1DK@NDHNAHIO@?$AAa?$AAp?$AAi?$AA?9?$AAm?$AAs?$AA?9?$AAw?$AAi?$AAn?$AA?9?$AAc?$AAo?$AAr?$AAe@ 00000001800566d0     libucrt:winapi_thunks.obj
 0002:00009710       ??_C@_1DM@KGHDGBCM@?$AAa?$AAp?$AAi?$AA?9?$AAm?$AAs?$AA?9?$AAw?$AAi?$AAn?$AA?9?$AAc?$AAo?$AAr?$AAe@ 0000000180056710     libucrt:winapi_thunks.obj
 0002:00009750       ??_C@_1EO@IJIOEFOH@?$AAa?$AAp?$AAi?$AA?9?$AAm?$AAs?$AA?9?$AAw?$AAi?$AAn?$AA?9?$AAr?$AAt?$AAc?$AAo@ 0000000180056750     libucrt:winapi_thunks.obj
 0002:000097a0       ??_C@_1FG@HHGEKANL@?$AAa?$AAp?$AAi?$AA?9?$AAm?$AAs?$AA?9?$AAw?$AAi?$AAn?$AA?9?$AAs?$AAe?$AAc?$AAu@ 00000001800567a0     libucrt:winapi_thunks.obj
 0002:00009800       ??_C@_1EG@DBIOJECG@?$AAe?$AAx?$AAt?$AA?9?$AAm?$AAs?$AA?9?$AAw?$AAi?$AAn?$AA?9?$AAn?$AAt?$AAu?$AAs@ 0000000180056800     libucrt:winapi_thunks.obj
 0002:00009850       ??_C@_1EO@FIHMJCLF@?$AAe?$AAx?$AAt?$AA?9?$AAm?$AAs?$AA?9?$AAw?$AAi?$AAn?$AA?9?$AAn?$AAt?$AAu?$AAs@ 0000000180056850     libucrt:winapi_thunks.obj
 0002:000098a0       ??_C@_1EG@DPGNFKGC@?$AAa?$AAp?$AAi?$AA?9?$AAm?$AAs?$AA?9?$AAw?$AAi?$AAn?$AA?9?$AAa?$AAp?$AAp?$AAm@ 00000001800568a0     libucrt:winapi_thunks.obj
 0002:000098e8       ??_C@_1BA@IAIFMGEF@?$AAe?$AAx?$AAt?$AA?9?$AAm?$AAs?$AA?9@ 00000001800568e8     libucrt:winapi_thunks.obj
 0002:00009900       ??_C@_0BA@FHFNEAED@AreFileApisANSI@ 0000000180056900     libucrt:winapi_thunks.obj
 0002:00009920       ??_C@_0BE@LJANKFHF@EnumSystemLocalesEx@ 0000000180056920     libucrt:winapi_thunks.obj
 0002:00009960       ??_C@_0BA@EPCJIIPD@GetDateFormatEx@ 0000000180056960     libucrt:winapi_thunks.obj
 0002:00009980       ??_C@_0BA@CIJJKCJJ@GetTimeFormatEx@ 0000000180056980     libucrt:winapi_thunks.obj
 0002:00009998       ??_C@_0BJ@PBCCBIPI@GetUserDefaultLocaleName@ 0000000180056998     libucrt:winapi_thunks.obj
 0002:000099c8       ??_C@_0BC@CELBKLLA@IsValidLocaleName@ 00000001800569c8     libucrt:winapi_thunks.obj
 0002:000099f0       ??_C@_0BB@CDHDDLLP@LCIDToLocaleName@ 00000001800569f0     libucrt:winapi_thunks.obj
 0002:00009a10       ??_C@_0BB@HBDEELFH@LocaleNameToLCID@ 0000000180056a10     libucrt:winapi_thunks.obj
 0002:00009a28       ??_C@_0CF@OJOFEIGO@AppPolicyGetProcessTerminationM@ 0000000180056a28     libucrt:winapi_thunks.obj
 0002:00009b10       ??_C@_09OFJJIMPC@NAN?$CISNAN?$CJ@ 0000000180056b10     libucrt:cvt.obj
 0002:00009b20       ??_C@_09IPFBKMDL@nan?$CIsnan?$CJ@ 0000000180056b20     libucrt:cvt.obj
 0002:00009b30       ??_C@_08IKHNHAJ@NAN?$CIIND?$CJ@ 0000000180056b30     libucrt:cvt.obj
 0002:00009b40       ??_C@_08OFCDMILK@nan?$CIind?$CJ@ 0000000180056b40     libucrt:cvt.obj
 0002:00009b4c       ??_C@_05KLBDPFGC@e?$CL000@ 0000000180056b4c     libucrt:cvt.obj
 0002:00009be0       __lc_category              0000000180056be0     libucrt:wsetlocale.obj
 0002:00009c70       ??_C@_1O@GIFLHMA@?$AAL?$AAC?$AA_?$AAA?$AAL?$AAL@ 0000000180056c70     libucrt:wsetlocale.obj
 0002:00009c80       ??_C@_1BG@PPOMIBNJ@?$AAL?$AAC?$AA_?$AAC?$AAO?$AAL?$AAL?$AAA?$AAT?$AAE@ 0000000180056c80     libucrt:wsetlocale.obj
 0002:00009c98       ??_C@_1BC@FFJGAPJM@?$AAL?$AAC?$AA_?$AAC?$AAT?$AAY?$AAP?$AAE@ 0000000180056c98     libucrt:wsetlocale.obj
 0002:00009cb0       ??_C@_1BI@PCKFNJFB@?$AAL?$AAC?$AA_?$AAM?$AAO?$AAN?$AAE?$AAT?$AAA?$AAR?$AAY@ 0000000180056cb0     libucrt:wsetlocale.obj
 0002:00009cc8       ??_C@_1BG@ENIEDKID@?$AAL?$AAC?$AA_?$AAN?$AAU?$AAM?$AAE?$AAR?$AAI?$AAC@ 0000000180056cc8     libucrt:wsetlocale.obj
 0002:00009ce0       ??_C@_1BA@HAAOMIIG@?$AAL?$AAC?$AA_?$AAT?$AAI?$AAM?$AAE@ 0000000180056ce0     libucrt:wsetlocale.obj
 0002:00009cf0       ??_C@_15NBPDDFIP@?$AA?$DN?$AA?$DL@ 0000000180056cf0     libucrt:wsetlocale.obj
 0002:00009cf8       ??_C@_13PJJBFPED@?$AA?$DL@ 0000000180056cf8     libucrt:wsetlocale.obj
 0002:00009cfc       ??_C@_13NMPKAAJP@?$AA?$DN@ 0000000180056cfc     libucrt:wsetlocale.obj
 0002:00009d00       ??_C@_17EFJLDFDO@?$AA?9?$AA_?$AA?4@ 0000000180056d00     libucrt:wsetlocale.obj
 0002:00009d08       ??_C@_13FHBKNHDA@?$AAC@    0000000180056d08     libucrt:wsetlocale.obj
 0002:00009d10       ??_C@_17MBJJLFDM@?$AA_?$AA?4?$AA?0@ 0000000180056d10     libucrt:wsetlocale.obj
 0002:00009d18       ??_C@_13ENNFDPBH@?$AA_@    0000000180056d18     libucrt:wsetlocale.obj
 0002:00009d20       __lc_time_c                0000000180056d20     libucrt:nlsdata.obj
 0002:00009fe0       ??_C@_03KOEHGMDN@Sun@      0000000180056fe0     libucrt:nlsdata.obj
 0002:00009fe4       ??_C@_03PDAGKDH@Mon@       0000000180056fe4     libucrt:nlsdata.obj
 0002:00009fe8       ??_C@_03NAGEINEP@Tue@      0000000180056fe8     libucrt:nlsdata.obj
 0002:00009fec       ??_C@_03MHOMLAJA@Wed@      0000000180056fec     libucrt:nlsdata.obj
 0002:00009ff0       ??_C@_03IOFIKPDN@Thu@      0000000180056ff0     libucrt:nlsdata.obj
 0002:00009ff4       ??_C@_03IDIOELNC@Fri@      0000000180056ff4     libucrt:nlsdata.obj
 0002:00009ff8       ??_C@_03FEFJNEK@Sat@       0000000180056ff8     libucrt:nlsdata.obj
 0002:00009ffc       ??_C@_06OOPIFAJ@Sunday@    0000000180056ffc     libucrt:nlsdata.obj
 0002:0000a004       ??_C@_06JLEDEDGH@Monday@   0000000180057004     libucrt:nlsdata.obj
 0002:0000a010       ??_C@_07BAAGCFCM@Tuesday@  0000000180057010     libucrt:nlsdata.obj
 0002:0000a018       ??_C@_09DLIGFAKA@Wednesday@ 0000000180057018     libucrt:nlsdata.obj
 0002:0000a028       ??_C@_08HACCIKIA@Thursday@ 0000000180057028     libucrt:nlsdata.obj
 0002:0000a034       ??_C@_06JECMNKMI@Friday@   0000000180057034     libucrt:nlsdata.obj
 0002:0000a040       ??_C@_08INBOOONO@Saturday@ 0000000180057040     libucrt:nlsdata.obj
 0002:0000a04c       ??_C@_03JIHJHPIE@Jan@      000000018005704c     libucrt:nlsdata.obj
 0002:0000a050       ??_C@_03HJBDCHOM@Feb@      0000000180057050     libucrt:nlsdata.obj
 0002:0000a054       ??_C@_03ODNJBKGA@Mar@      0000000180057054     libucrt:nlsdata.obj
 0002:0000a058       ??_C@_03LEOLGMJP@Apr@      0000000180057058     libucrt:nlsdata.obj
 0002:0000a05c       ??_C@_03CNMDKL@May@        000000018005705c     libucrt:nlsdata.obj
 0002:0000a060       ??_C@_03IDFGHECI@Jun@      0000000180057060     libucrt:nlsdata.obj
 0002:0000a064       ??_C@_03LBGABGKK@Jul@      0000000180057064     libucrt:nlsdata.obj
 0002:0000a068       ??_C@_03IFJFEIGA@Aug@      0000000180057068     libucrt:nlsdata.obj
 0002:0000a06c       ??_C@_03GGCAPAJC@Sep@      000000018005706c     libucrt:nlsdata.obj
 0002:0000a070       ??_C@_03BMAOKBAD@Oct@      0000000180057070     libucrt:nlsdata.obj
 0002:0000a074       ??_C@_03JPJOFNIA@Nov@      0000000180057074     libucrt:nlsdata.obj
 0002:0000a078       ??_C@_03MKABNOCG@Dec@      0000000180057078     libucrt:nlsdata.obj
 0002:0000a080       ??_C@_07CGJPFGJA@January@  0000000180057080     libucrt:nlsdata.obj
 0002:0000a088       ??_C@_08GNJGEPFN@February@ 0000000180057088     libucrt:nlsdata.obj
 0002:0000a094       ??_C@_05HPCKOFNC@March@    0000000180057094     libucrt:nlsdata.obj
 0002:0000a09c       ??_C@_05DMJDNLEJ@April@    000000018005709c     libucrt:nlsdata.obj
 0002:0000a0a4       ??_C@_04CNLMGBGM@June@     00000001800570a4     libucrt:nlsdata.obj
 0002:0000a0ac       ??_C@_04MIEPOIFP@July@     00000001800570ac     libucrt:nlsdata.obj
 0002:0000a0b4       ??_C@_06LBBHFDDG@August@   00000001800570b4     libucrt:nlsdata.obj
 0002:0000a0c0       ??_C@_09BHHEALKD@September@ 00000001800570c0     libucrt:nlsdata.obj
 0002:0000a0d0       ??_C@_07JJNFCEND@October@  00000001800570d0     libucrt:nlsdata.obj
 0002:0000a0d8       ??_C@_08HCHEGEOA@November@ 00000001800570d8     libucrt:nlsdata.obj
 0002:0000a0e8       ??_C@_08EDHMEBNP@December@ 00000001800570e8     libucrt:nlsdata.obj
 0002:0000a0f4       ??_C@_02DEDBPAFC@AM@       00000001800570f4     libucrt:nlsdata.obj
 0002:0000a0f8       ??_C@_02CJNFDJBF@PM@       00000001800570f8     libucrt:nlsdata.obj
 0002:0000a100       ??_C@_08BPBNCDIB@MM?1dd?1yy@ 0000000180057100     libucrt:nlsdata.obj
 0002:0000a110       ??_C@_0BE@CKGJFCPC@dddd?0?5MMMM?5dd?0?5yyyy@ 0000000180057110     libucrt:nlsdata.obj
 0002:0000a128       ??_C@_08JCCMCCIL@HH?3mm?3ss@ 0000000180057128     libucrt:nlsdata.obj
 0002:0000a138       ??_C@_17MBGCMIPB@?$AAS?$AAu?$AAn@ 0000000180057138     libucrt:nlsdata.obj
 0002:0000a140       ??_C@_17KBOMKBF@?$AAM?$AAo?$AAn@ 0000000180057140     libucrt:nlsdata.obj
 0002:0000a148       ??_C@_17BMKGEGOJ@?$AAT?$AAu?$AAe@ 0000000180057148     libucrt:nlsdata.obj
 0002:0000a150       ??_C@_17CJEDCEPE@?$AAW?$AAe?$AAd@ 0000000180057150     libucrt:nlsdata.obj
 0002:0000a158       ??_C@_17PDPHAADD@?$AAT?$AAh?$AAu@ 0000000180057158     libucrt:nlsdata.obj
 0002:0000a160       ??_C@_17HFOLPPLP@?$AAF?$AAr?$AAi@ 0000000180057160     libucrt:nlsdata.obj
 0002:0000a168       ??_C@_17GGIBDPIH@?$AAS?$AAa?$AAt@ 0000000180057168     libucrt:nlsdata.obj
 0002:0000a170       ??_C@_1O@IHNHDHPB@?$AAS?$AAu?$AAn?$AAd?$AAa?$AAy@ 0000000180057170     libucrt:nlsdata.obj
 0002:0000a180       ??_C@_1O@MMNBFLIA@?$AAM?$AAo?$AAn?$AAd?$AAa?$AAy@ 0000000180057180     libucrt:nlsdata.obj
 0002:0000a190       ??_C@_1BA@ENFBFFEK@?$AAT?$AAu?$AAe?$AAs?$AAd?$AAa?$AAy@ 0000000180057190     libucrt:nlsdata.obj
 0002:0000a1a0       ??_C@_1BE@EBOGMDOH@?$AAW?$AAe?$AAd?$AAn?$AAe?$AAs?$AAd?$AAa?$AAy@ 00000001800571a0     libucrt:nlsdata.obj
 0002:0000a1b8       ??_C@_1BC@HHMNLIHE@?$AAT?$AAh?$AAu?$AAr?$AAs?$AAd?$AAa?$AAy@ 00000001800571b8     libucrt:nlsdata.obj
 0002:0000a1d0       ??_C@_1O@PDICJHAG@?$AAF?$AAr?$AAi?$AAd?$AAa?$AAy@ 00000001800571d0     libucrt:nlsdata.obj
 0002:0000a1e0       ??_C@_1BC@ENMNNPAJ@?$AAS?$AAa?$AAt?$AAu?$AAr?$AAd?$AAa?$AAy@ 00000001800571e0     libucrt:nlsdata.obj
 0002:0000a1f8       ??_C@_17DKNBKCHM@?$AAJ?$AAa?$AAn@ 00000001800571f8     libucrt:nlsdata.obj
 0002:0000a200       ??_C@_17LMDJEKJN@?$AAF?$AAe?$AAb@ 0000000180057200     libucrt:nlsdata.obj
 0002:0000a208       ??_C@_17CKNLEDEC@?$AAM?$AAa?$AAr@ 0000000180057208     libucrt:nlsdata.obj
 0002:0000a210       ??_C@_17LFPOIHDD@?$AAA?$AAp?$AAr@ 0000000180057210     libucrt:nlsdata.obj
 0002:0000a218       ??_C@_17PNNKMEED@?$AAM?$AAa?$AAy@ 0000000180057218     libucrt:nlsdata.obj
 0002:0000a220       ??_C@_17KCJGOCPB@?$AAJ?$AAu?$AAn@ 0000000180057220     libucrt:nlsdata.obj
 0002:0000a228       ??_C@_17IJPCKHK@?$AAJ?$AAu?$AAl@ 0000000180057228     libucrt:nlsdata.obj
 0002:0000a230       ??_C@_17ICPELBCN@?$AAA?$AAu?$AAg@ 0000000180057230     libucrt:nlsdata.obj
 0002:0000a238       ??_C@_17HCHCOKMG@?$AAS?$AAe?$AAp@ 0000000180057238     libucrt:nlsdata.obj
 0002:0000a240       ??_C@_17FNLKOI@?$AAO?$AAc?$AAt@ 0000000180057240     libucrt:nlsdata.obj
 0002:0000a248       ??_C@_17BBDMLCIG@?$AAN?$AAo?$AAv@ 0000000180057248     libucrt:nlsdata.obj
 0002:0000a250       ??_C@_17EGKACKIF@?$AAD?$AAe?$AAc@ 0000000180057250     libucrt:nlsdata.obj
 0002:0000a258       ??_C@_1BA@EFMEIEBA@?$AAJ?$AAa?$AAn?$AAu?$AAa?$AAr?$AAy@ 0000000180057258     libucrt:nlsdata.obj
 0002:0000a268       ??_C@_1BC@JGDDFFAM@?$AAF?$AAe?$AAb?$AAr?$AAu?$AAa?$AAr?$AAy@ 0000000180057268     libucrt:nlsdata.obj
 0002:0000a280       ??_C@_1M@IKEENEDF@?$AAM?$AAa?$AAr?$AAc?$AAh@ 0000000180057280     libucrt:nlsdata.obj
 0002:0000a290       ??_C@_1M@GJNLMHFD@?$AAA?$AAp?$AAr?$AAi?$AAl@ 0000000180057290     libucrt:nlsdata.obj
 0002:0000a2a0       ??_C@_19EPFLPGAP@?$AAJ?$AAu?$AAn?$AAe@ 00000001800572a0     libucrt:nlsdata.obj
 0002:0000a2b0       ??_C@_19BIFMLPCD@?$AAJ?$AAu?$AAl?$AAy@ 00000001800572b0     libucrt:nlsdata.obj
 0002:0000a2c0       ??_C@_1O@PAHLKOAC@?$AAA?$AAu?$AAg?$AAu?$AAs?$AAt@ 00000001800572c0     libucrt:nlsdata.obj
 0002:0000a2d0       ??_C@_1BE@DKAAMBJL@?$AAS?$AAe?$AAp?$AAt?$AAe?$AAm?$AAb?$AAe?$AAr@ 00000001800572d0     libucrt:nlsdata.obj
 0002:0000a2e8       ??_C@_1BA@EPANDLNG@?$AAO?$AAc?$AAt?$AAo?$AAb?$AAe?$AAr@ 00000001800572e8     libucrt:nlsdata.obj
 0002:0000a2f8       ??_C@_1BC@BGLIFPF@?$AAN?$AAo?$AAv?$AAe?$AAm?$AAb?$AAe?$AAr@ 00000001800572f8     libucrt:nlsdata.obj
 0002:0000a310       ??_C@_1BC@FEMKIFH@?$AAD?$AAe?$AAc?$AAe?$AAm?$AAb?$AAe?$AAr@ 0000000180057310     libucrt:nlsdata.obj
 0002:0000a324       ??_C@_15ODEHAHHF@?$AAA?$AAM@ 0000000180057324     libucrt:nlsdata.obj
 0002:0000a32c       ??_C@_15CLMNNGEL@?$AAP?$AAM@ 000000018005732c     libucrt:nlsdata.obj
 0002:0000a338       ??_C@_1BC@IEBCMHCM@?$AAM?$AAM?$AA?1?$AAd?$AAd?$AA?1?$AAy?$AAy@ 0000000180057338     libucrt:nlsdata.obj
 0002:0000a350       ??_C@_1CI@KNAKOEBC@?$AAd?$AAd?$AAd?$AAd?$AA?0?$AA?5?$AAM?$AAM?$AAM?$AAM?$AA?5?$AAd?$AAd?$AA?0?$AA?5@ 0000000180057350     libucrt:nlsdata.obj
 0002:0000a378       ??_C@_1BC@GDGBMEMK@?$AAH?$AAH?$AA?3?$AAm?$AAm?$AA?3?$AAs?$AAs@ 0000000180057378     libucrt:nlsdata.obj
 0002:0000a3b8       ??_C@_03JGHBODFD@pow@      00000001800573b8     libucrt:fpexcept.obj
 0002:0000a3bc       ??_C@_05HGHHAHAP@log10@    00000001800573bc     libucrt:fpexcept.obj
 0002:0000a3d0       __log_256_lead             00000001800573d0     libucrt:log_256_lead_tail_table.obj
 0002:0000abe0       __log_256_tail             0000000180057be0     libucrt:log_256_lead_tail_table.obj
 0002:0000b3f0       __two_to_jby64_head_table  00000001800583f0     libucrt:two_to_jby64_head_tail_table.obj
 0002:0000b5f0       __two_to_jby64_tail_table  00000001800585f0     libucrt:two_to_jby64_head_tail_table.obj
 0002:0000b7f0       ??_C@_04MBFDLNIM@powf@     00000001800587f0     libucrt:pow_special.obj
 0002:0000b800       __two_to_jby64_table       0000000180058800     libucrt:two_to_jby64_table.obj
 0002:0000ba00       __log_F_inv_qword          0000000180058a00     libucrt:log_f_inv_qword_table.obj
 0002:0000df48       ??_C@_01GBGANLPD@0@        000000018005af48     libucrt:cfout.obj
 0002:0000df4c       ??_C@_05DNEBIAHO@1?$CDINF@ 000000018005af4c     libucrt:cfout.obj
 0002:0000df54       ??_C@_06IMKFLFPG@1?$CDQNAN@ 000000018005af54     libucrt:cfout.obj
 0002:0000df5c       ??_C@_06PGGFOGJG@1?$CDSNAN@ 000000018005af5c     libucrt:cfout.obj
 0002:0000df64       ??_C@_05PHHOCPM@1?$CDIND@  000000018005af64     libucrt:cfout.obj
 0002:0000df70       __acrt_rg_language         000000018005af70     libucrt:get_qualified_locale.obj
 0002:0000e380       __acrt_rg_language_count   000000018005b380     libucrt:get_qualified_locale.obj
 0002:0000e390       __acrt_rg_country          000000018005b390     libucrt:get_qualified_locale.obj
 0002:0000e500       __acrt_rg_country_count    000000018005b500     libucrt:get_qualified_locale.obj
 0002:0000e508       ??_C@_1BC@LLOKLNP@?$AAa?$AAm?$AAe?$AAr?$AAi?$AAc?$AAa?$AAn@ 000000018005b508     libucrt:get_qualified_locale.obj
 0002:0000e520       ??_C@_1CC@HEIGCDGG@?$AAa?$AAm?$AAe?$AAr?$AAi?$AAc?$AAa?$AAn?$AA?5?$AAe?$AAn?$AAg?$AAl?$AAi?$AAs@ 000000018005b520     libucrt:get_qualified_locale.obj
 0002:0000e548       ??_C@_1CC@IHCNOMIN@?$AAa?$AAm?$AAe?$AAr?$AAi?$AAc?$AAa?$AAn?$AA?9?$AAe?$AAn?$AAg?$AAl?$AAi?$AAs@ 000000018005b548     libucrt:get_qualified_locale.obj
 0002:0000e570       ??_C@_1BG@GKAGPCGG@?$AAa?$AAu?$AAs?$AAt?$AAr?$AAa?$AAl?$AAi?$AAa?$AAn@ 000000018005b570     libucrt:get_qualified_locale.obj
 0002:0000e588       ??_C@_1BA@GMENCENF@?$AAb?$AAe?$AAl?$AAg?$AAi?$AAa?$AAn@ 000000018005b588     libucrt:get_qualified_locale.obj
 0002:0000e598       ??_C@_1BC@PJMIIAAN@?$AAc?$AAa?$AAn?$AAa?$AAd?$AAi?$AAa?$AAn@ 000000018005b598     libucrt:get_qualified_locale.obj
 0002:0000e5b0       ??_C@_17NOIMNFBF@?$AAc?$AAh?$AAh@ 000000018005b5b0     libucrt:get_qualified_locale.obj
 0002:0000e5b8       ??_C@_17GGDALCHA@?$AAc?$AAh?$AAi@ 000000018005b5b8     libucrt:get_qualified_locale.obj
 0002:0000e5c0       ??_C@_1BA@NPNJKIBL@?$AAc?$AAh?$AAi?$AAn?$AAe?$AAs?$AAe@ 000000018005b5c0     libucrt:get_qualified_locale.obj
 0002:0000e5d0       ??_C@_1CC@DINBAMMJ@?$AAc?$AAh?$AAi?$AAn?$AAe?$AAs?$AAe?$AA?9?$AAh?$AAo?$AAn?$AAg?$AAk?$AAo?$AAn@ 000000018005b5d0     libucrt:get_qualified_locale.obj
 0002:0000e5f8       ??_C@_1CG@IOBJPACO@?$AAc?$AAh?$AAi?$AAn?$AAe?$AAs?$AAe?$AA?9?$AAs?$AAi?$AAm?$AAp?$AAl?$AAi?$AAf@ 000000018005b5f8     libucrt:get_qualified_locale.obj
 0002:0000e620       ??_C@_1CE@GAJNDCKG@?$AAc?$AAh?$AAi?$AAn?$AAe?$AAs?$AAe?$AA?9?$AAs?$AAi?$AAn?$AAg?$AAa?$AAp?$AAo@ 000000018005b620     libucrt:get_qualified_locale.obj
 0002:0000e648       ??_C@_1CI@PAJPIOOD@?$AAc?$AAh?$AAi?$AAn?$AAe?$AAs?$AAe?$AA?9?$AAt?$AAr?$AAa?$AAd?$AAi?$AAt?$AAi@ 000000018005b648     libucrt:get_qualified_locale.obj
 0002:0000e670       ??_C@_1BM@NILJBMMD@?$AAd?$AAu?$AAt?$AAc?$AAh?$AA?9?$AAb?$AAe?$AAl?$AAg?$AAi?$AAa?$AAn@ 000000018005b670     libucrt:get_qualified_locale.obj
 0002:0000e690       ??_C@_1CC@OOJPJNEJ@?$AAe?$AAn?$AAg?$AAl?$AAi?$AAs?$AAh?$AA?9?$AAa?$AAm?$AAe?$AAr?$AAi?$AAc?$AAa@ 000000018005b690     libucrt:get_qualified_locale.obj
 0002:0000e6b8       ??_C@_1BI@IOLFEEM@?$AAe?$AAn?$AAg?$AAl?$AAi?$AAs?$AAh?$AA?9?$AAa?$AAu?$AAs@ 000000018005b6b8     libucrt:get_qualified_locale.obj
 0002:0000e6d0       ??_C@_1BO@HFFNLENJ@?$AAe?$AAn?$AAg?$AAl?$AAi?$AAs?$AAh?$AA?9?$AAb?$AAe?$AAl?$AAi?$AAz?$AAe@ 000000018005b6d0     libucrt:get_qualified_locale.obj
 0002:0000e6f0       ??_C@_1BI@HAPKJMPO@?$AAe?$AAn?$AAg?$AAl?$AAi?$AAs?$AAh?$AA?9?$AAc?$AAa?$AAn@ 000000018005b6f0     libucrt:get_qualified_locale.obj
 0002:0000e708       ??_C@_1CE@HLNDMIOJ@?$AAe?$AAn?$AAg?$AAl?$AAi?$AAs?$AAh?$AA?9?$AAc?$AAa?$AAr?$AAi?$AAb?$AAb?$AAe@ 000000018005b708     libucrt:get_qualified_locale.obj
 0002:0000e730       ??_C@_1BI@LDHJHHAC@?$AAe?$AAn?$AAg?$AAl?$AAi?$AAs?$AAh?$AA?9?$AAi?$AAr?$AAe@ 000000018005b730     libucrt:get_qualified_locale.obj
 0002:0000e748       ??_C@_1CA@NJMMCFOC@?$AAe?$AAn?$AAg?$AAl?$AAi?$AAs?$AAh?$AA?9?$AAj?$AAa?$AAm?$AAa?$AAi?$AAc?$AAa@ 000000018005b748     libucrt:get_qualified_locale.obj
 0002:0000e768       ??_C@_1BG@BHJEBBGG@?$AAe?$AAn?$AAg?$AAl?$AAi?$AAs?$AAh?$AA?9?$AAn?$AAz@ 000000018005b768     libucrt:get_qualified_locale.obj
 0002:0000e780       ??_C@_1CK@FGOEJJCO@?$AAe?$AAn?$AAg?$AAl?$AAi?$AAs?$AAh?$AA?9?$AAs?$AAo?$AAu?$AAt?$AAh?$AA?5?$AAa@ 000000018005b780     libucrt:get_qualified_locale.obj
 0002:0000e7b0       ??_C@_1DE@PDBJPCJ@?$AAe?$AAn?$AAg?$AAl?$AAi?$AAs?$AAh?$AA?9?$AAt?$AAr?$AAi?$AAn?$AAi?$AAd?$AAa@ 000000018005b7b0     libucrt:get_qualified_locale.obj
 0002:0000e7e8       ??_C@_1BG@JGCANDME@?$AAe?$AAn?$AAg?$AAl?$AAi?$AAs?$AAh?$AA?9?$AAu?$AAk@ 000000018005b7e8     libucrt:get_qualified_locale.obj
 0002:0000e800       ??_C@_1BG@DINKMLE@?$AAe?$AAn?$AAg?$AAl?$AAi?$AAs?$AAh?$AA?9?$AAu?$AAs@ 000000018005b800     libucrt:get_qualified_locale.obj
 0002:0000e818       ??_C@_1BI@NMFDBHJE@?$AAe?$AAn?$AAg?$AAl?$AAi?$AAs?$AAh?$AA?9?$AAu?$AAs?$AAa@ 000000018005b818     libucrt:get_qualified_locale.obj
 0002:0000e830       ??_C@_1BO@OIHKJKII@?$AAf?$AAr?$AAe?$AAn?$AAc?$AAh?$AA?9?$AAb?$AAe?$AAl?$AAg?$AAi?$AAa?$AAn@ 000000018005b830     libucrt:get_qualified_locale.obj
 0002:0000e850       ??_C@_1CA@NKAELJKI@?$AAf?$AAr?$AAe?$AAn?$AAc?$AAh?$AA?9?$AAc?$AAa?$AAn?$AAa?$AAd?$AAi?$AAa?$AAn@ 000000018005b850     libucrt:get_qualified_locale.obj
 0002:0000e870       ??_C@_1CE@MGKCNLGN@?$AAf?$AAr?$AAe?$AAn?$AAc?$AAh?$AA?9?$AAl?$AAu?$AAx?$AAe?$AAm?$AAb?$AAo?$AAu@ 000000018005b870     libucrt:get_qualified_locale.obj
 0002:0000e898       ??_C@_1BK@CEGEAILM@?$AAf?$AAr?$AAe?$AAn?$AAc?$AAh?$AA?9?$AAs?$AAw?$AAi?$AAs?$AAs@ 000000018005b898     libucrt:get_qualified_locale.obj
 0002:0000e8b8       ??_C@_1CA@PAFKEOCC@?$AAg?$AAe?$AAr?$AAm?$AAa?$AAn?$AA?9?$AAa?$AAu?$AAs?$AAt?$AAr?$AAi?$AAa?$AAn@ 000000018005b8b8     libucrt:get_qualified_locale.obj
 0002:0000e8d8       ??_C@_1CI@HCFHGOFD@?$AAg?$AAe?$AAr?$AAm?$AAa?$AAn?$AA?9?$AAl?$AAi?$AAc?$AAh?$AAt?$AAe?$AAn?$AAs@ 000000018005b8d8     libucrt:get_qualified_locale.obj
 0002:0000e900       ??_C@_1CE@FEDDNPDG@?$AAg?$AAe?$AAr?$AAm?$AAa?$AAn?$AA?9?$AAl?$AAu?$AAx?$AAe?$AAm?$AAb?$AAo?$AAu@ 000000018005b900     libucrt:get_qualified_locale.obj
 0002:0000e928       ??_C@_1BK@LIMINNMN@?$AAg?$AAe?$AAr?$AAm?$AAa?$AAn?$AA?9?$AAs?$AAw?$AAi?$AAs?$AAs@ 000000018005b928     libucrt:get_qualified_locale.obj
 0002:0000e948       ??_C@_1BM@LGMDBEPD@?$AAi?$AAr?$AAi?$AAs?$AAh?$AA?9?$AAe?$AAn?$AAg?$AAl?$AAi?$AAs?$AAh@ 000000018005b948     libucrt:get_qualified_locale.obj
 0002:0000e968       ??_C@_1BM@NNCFBAEE@?$AAi?$AAt?$AAa?$AAl?$AAi?$AAa?$AAn?$AA?9?$AAs?$AAw?$AAi?$AAs?$AAs@ 000000018005b968     libucrt:get_qualified_locale.obj
 0002:0000e988       ??_C@_1BE@FEDJNPIB@?$AAn?$AAo?$AAr?$AAw?$AAe?$AAg?$AAi?$AAa?$AAn@ 000000018005b988     libucrt:get_qualified_locale.obj
 0002:0000e9a0       ??_C@_1CC@CILKDEIE@?$AAn?$AAo?$AAr?$AAw?$AAe?$AAg?$AAi?$AAa?$AAn?$AA?9?$AAb?$AAo?$AAk?$AAm?$AAa@ 000000018005b9a0     libucrt:get_qualified_locale.obj
 0002:0000e9c8       ??_C@_1CE@DHMMHEPL@?$AAn?$AAo?$AAr?$AAw?$AAe?$AAg?$AAi?$AAa?$AAn?$AA?9?$AAn?$AAy?$AAn?$AAo?$AAr@ 000000018005b9c8     libucrt:get_qualified_locale.obj
 0002:0000e9f0       ??_C@_1CK@OPNMHECD@?$AAp?$AAo?$AAr?$AAt?$AAu?$AAg?$AAu?$AAe?$AAs?$AAe?$AA?9?$AAb?$AAr?$AAa?$AAz@ 000000018005b9f0     libucrt:get_qualified_locale.obj
 0002:0000ea20       ??_C@_1CE@KEEHCDB@?$AAs?$AAp?$AAa?$AAn?$AAi?$AAs?$AAh?$AA?9?$AAa?$AAr?$AAg?$AAe?$AAn?$AAt?$AAi@ 000000018005ba20     libucrt:get_qualified_locale.obj
 0002:0000ea48       ??_C@_1CA@GIAOLHJD@?$AAs?$AAp?$AAa?$AAn?$AAi?$AAs?$AAh?$AA?9?$AAb?$AAo?$AAl?$AAi?$AAv?$AAi?$AAa@ 000000018005ba48     libucrt:get_qualified_locale.obj
 0002:0000ea68       ??_C@_1BM@OJNDFNPD@?$AAs?$AAp?$AAa?$AAn?$AAi?$AAs?$AAh?$AA?9?$AAc?$AAh?$AAi?$AAl?$AAe@ 000000018005ba68     libucrt:get_qualified_locale.obj
 0002:0000ea88       ??_C@_1CC@OCOLPALL@?$AAs?$AAp?$AAa?$AAn?$AAi?$AAs?$AAh?$AA?9?$AAc?$AAo?$AAl?$AAo?$AAm?$AAb?$AAi@ 000000018005ba88     libucrt:get_qualified_locale.obj
 0002:0000eab0       ??_C@_1CG@BPOFMKBB@?$AAs?$AAp?$AAa?$AAn?$AAi?$AAs?$AAh?$AA?9?$AAc?$AAo?$AAs?$AAt?$AAa?$AA?5?$AAr@ 000000018005bab0     libucrt:get_qualified_locale.obj
 0002:0000ead8       ??_C@_1DG@IGOBAPBB@?$AAs?$AAp?$AAa?$AAn?$AAi?$AAs?$AAh?$AA?9?$AAd?$AAo?$AAm?$AAi?$AAn?$AAi?$AAc@ 000000018005bad8     libucrt:get_qualified_locale.obj
 0002:0000eb10       ??_C@_1CA@JHAPGEGI@?$AAs?$AAp?$AAa?$AAn?$AAi?$AAs?$AAh?$AA?9?$AAe?$AAc?$AAu?$AAa?$AAd?$AAo?$AAr@ 000000018005bb10     libucrt:get_qualified_locale.obj
 0002:0000eb30       ??_C@_1CI@LAPALJPP@?$AAs?$AAp?$AAa?$AAn?$AAi?$AAs?$AAh?$AA?9?$AAe?$AAl?$AA?5?$AAs?$AAa?$AAl?$AAv@ 000000018005bb30     libucrt:get_qualified_locale.obj
 0002:0000eb58       ??_C@_1CE@PDGBOFOM@?$AAs?$AAp?$AAa?$AAn?$AAi?$AAs?$AAh?$AA?9?$AAg?$AAu?$AAa?$AAt?$AAe?$AAm?$AAa@ 000000018005bb58     libucrt:get_qualified_locale.obj
 0002:0000eb80       ??_C@_1CC@NBEBAODI@?$AAs?$AAp?$AAa?$AAn?$AAi?$AAs?$AAh?$AA?9?$AAh?$AAo?$AAn?$AAd?$AAu?$AAr?$AAa@ 000000018005bb80     libucrt:get_qualified_locale.obj
 0002:0000eba8       ??_C@_1CA@LLKGHBMF@?$AAs?$AAp?$AAa?$AAn?$AAi?$AAs?$AAh?$AA?9?$AAm?$AAe?$AAx?$AAi?$AAc?$AAa?$AAn@ 000000018005bba8     libucrt:get_qualified_locale.obj
 0002:0000ebc8       ??_C@_1BO@LKNDOIGD@?$AAs?$AAp?$AAa?$AAn?$AAi?$AAs?$AAh?$AA?9?$AAm?$AAo?$AAd?$AAe?$AAr?$AAn@ 000000018005bbc8     libucrt:get_qualified_locale.obj
 0002:0000ebe8       ??_C@_1CE@NMDMOEEB@?$AAs?$AAp?$AAa?$AAn?$AAi?$AAs?$AAh?$AA?9?$AAn?$AAi?$AAc?$AAa?$AAr?$AAa?$AAg@ 000000018005bbe8     libucrt:get_qualified_locale.obj
 0002:0000ec10       ??_C@_1BO@LLCBEJGB@?$AAs?$AAp?$AAa?$AAn?$AAi?$AAs?$AAh?$AA?9?$AAp?$AAa?$AAn?$AAa?$AAm?$AAa@ 000000018005bc10     libucrt:get_qualified_locale.obj
 0002:0000ec30       ??_C@_1CC@FKPGGIHO@?$AAs?$AAp?$AAa?$AAn?$AAi?$AAs?$AAh?$AA?9?$AAp?$AAa?$AAr?$AAa?$AAg?$AAu?$AAa@ 000000018005bc30     libucrt:get_qualified_locale.obj
 0002:0000ec58       ??_C@_1BK@CDEIHOOP@?$AAs?$AAp?$AAa?$AAn?$AAi?$AAs?$AAh?$AA?9?$AAp?$AAe?$AAr?$AAu@ 000000018005bc58     libucrt:get_qualified_locale.obj
 0002:0000ec78       ??_C@_1CI@GAHAKKGP@?$AAs?$AAp?$AAa?$AAn?$AAi?$AAs?$AAh?$AA?9?$AAp?$AAu?$AAe?$AAr?$AAt?$AAo?$AA?5@ 000000018005bc78     libucrt:get_qualified_locale.obj
 0002:0000eca0       ??_C@_1CA@NKJBCAGP@?$AAs?$AAp?$AAa?$AAn?$AAi?$AAs?$AAh?$AA?9?$AAu?$AAr?$AAu?$AAg?$AAu?$AAa?$AAy@ 000000018005bca0     libucrt:get_qualified_locale.obj
 0002:0000ecc0       ??_C@_1CE@ODILCONM@?$AAs?$AAp?$AAa?$AAn?$AAi?$AAs?$AAh?$AA?9?$AAv?$AAe?$AAn?$AAe?$AAz?$AAu?$AAe@ 000000018005bcc0     libucrt:get_qualified_locale.obj
 0002:0000ece8       ??_C@_1CA@OBNMCGFO@?$AAs?$AAw?$AAe?$AAd?$AAi?$AAs?$AAh?$AA?9?$AAf?$AAi?$AAn?$AAl?$AAa?$AAn?$AAd@ 000000018005bce8     libucrt:get_qualified_locale.obj
 0002:0000ed08       ??_C@_1M@PIPDDPPI@?$AAs?$AAw?$AAi?$AAs?$AAs@ 000000018005bd08     libucrt:get_qualified_locale.obj
 0002:0000ed14       ??_C@_15GMFIMNFM@?$AAu?$AAs@ 000000018005bd14     libucrt:get_qualified_locale.obj
 0002:0000ed20       ??_C@_17HAEBFAGL@?$AAu?$AAs?$AAa@ 000000018005bd20     libucrt:get_qualified_locale.obj
 0002:0000ed28       ??_C@_1BA@DPFJEPHB@?$AAa?$AAm?$AAe?$AAr?$AAi?$AAc?$AAa@ 000000018005bd28     libucrt:get_qualified_locale.obj
 0002:0000ed38       ??_C@_1BA@ELOGGFK@?$AAb?$AAr?$AAi?$AAt?$AAa?$AAi?$AAn@ 000000018005bd38     libucrt:get_qualified_locale.obj
 0002:0000ed48       ??_C@_1M@GHBGIGDA@?$AAc?$AAh?$AAi?$AAn?$AAa@ 000000018005bd48     libucrt:get_qualified_locale.obj
 0002:0000ed58       ??_C@_1M@NCHEJOPO@?$AAc?$AAz?$AAe?$AAc?$AAh@ 000000018005bd58     libucrt:get_qualified_locale.obj
 0002:0000ed68       ??_C@_1BA@BKPAPBLA@?$AAe?$AAn?$AAg?$AAl?$AAa?$AAn?$AAd@ 000000018005bd68     libucrt:get_qualified_locale.obj
 0002:0000ed78       ??_C@_1BM@HKBCKIPC@?$AAg?$AAr?$AAe?$AAa?$AAt?$AA?5?$AAb?$AAr?$AAi?$AAt?$AAa?$AAi?$AAn@ 000000018005bd78     libucrt:get_qualified_locale.obj
 0002:0000ed98       ??_C@_1BA@PPCHPGJB@?$AAh?$AAo?$AAl?$AAl?$AAa?$AAn?$AAd@ 000000018005bd98     libucrt:get_qualified_locale.obj
 0002:0000eda8       ??_C@_1BE@JBMPEGDG@?$AAh?$AAo?$AAn?$AAg?$AA?9?$AAk?$AAo?$AAn?$AAg@ 000000018005bda8     libucrt:get_qualified_locale.obj
 0002:0000edc0       ??_C@_1BI@KOELBBPJ@?$AAn?$AAe?$AAw?$AA?9?$AAz?$AAe?$AAa?$AAl?$AAa?$AAn?$AAd@ 000000018005bdc0     libucrt:get_qualified_locale.obj
 0002:0000edd8       ??_C@_15HIEBHAIO@?$AAn?$AAz@ 000000018005bdd8     libucrt:get_qualified_locale.obj
 0002:0000ede0       ??_C@_1BC@CHBCPFPI@?$AAp?$AAr?$AA?5?$AAc?$AAh?$AAi?$AAn?$AAa@ 000000018005bde0     libucrt:get_qualified_locale.obj
 0002:0000edf8       ??_C@_1BC@JAOIIFKD@?$AAp?$AAr?$AA?9?$AAc?$AAh?$AAi?$AAn?$AAa@ 000000018005bdf8     libucrt:get_qualified_locale.obj
 0002:0000ee10       ??_C@_1BI@BEHPPHKC@?$AAp?$AAu?$AAe?$AAr?$AAt?$AAo?$AA?9?$AAr?$AAi?$AAc?$AAo@ 000000018005be10     libucrt:get_qualified_locale.obj
 0002:0000ee28       ??_C@_1O@PAEOFKDI@?$AAs?$AAl?$AAo?$AAv?$AAa?$AAk@ 000000018005be28     libucrt:get_qualified_locale.obj
 0002:0000ee38       ??_C@_1BK@FIHMCKAM@?$AAs?$AAo?$AAu?$AAt?$AAh?$AA?5?$AAa?$AAf?$AAr?$AAi?$AAc?$AAa@ 000000018005be38     libucrt:get_qualified_locale.obj
 0002:0000ee58       ??_C@_1BI@NAEOODKB@?$AAs?$AAo?$AAu?$AAt?$AAh?$AA?5?$AAk?$AAo?$AAr?$AAe?$AAa@ 000000018005be58     libucrt:get_qualified_locale.obj
 0002:0000ee70       ??_C@_1BK@FBDGGIFF@?$AAs?$AAo?$AAu?$AAt?$AAh?$AA?9?$AAa?$AAf?$AAr?$AAi?$AAc?$AAa@ 000000018005be70     libucrt:get_qualified_locale.obj
 0002:0000ee90       ??_C@_1BI@GHLEJDPK@?$AAs?$AAo?$AAu?$AAt?$AAh?$AA?9?$AAk?$AAo?$AAr?$AAe?$AAa@ 000000018005be90     libucrt:get_qualified_locale.obj
 0002:0000eea8       ??_C@_1CE@PLHLOMJF@?$AAt?$AAr?$AAi?$AAn?$AAi?$AAd?$AAa?$AAd?$AA?5?$AA?$CG?$AA?5?$AAt?$AAo?$AAb?$AAa@ 000000018005bea8     libucrt:get_qualified_locale.obj
 0002:0000eed0       ??_C@_1BO@MODIMHHI@?$AAu?$AAn?$AAi?$AAt?$AAe?$AAd?$AA?9?$AAk?$AAi?$AAn?$AAg?$AAd?$AAo?$AAm@ 000000018005bed0     libucrt:get_qualified_locale.obj
 0002:0000eef0       ??_C@_1BM@FFHJONBJ@?$AAu?$AAn?$AAi?$AAt?$AAe?$AAd?$AA?9?$AAs?$AAt?$AAa?$AAt?$AAe?$AAs@ 000000018005bef0     libucrt:get_qualified_locale.obj
 0002:0000ef10       ??_C@_19MPDNHKDG@?$AAu?$AAt?$AAf?$AA8@ 000000018005bf10     libucrt:get_qualified_locale.obj
 0002:0000ef20       ??_C@_17DNCLJFIF@?$AAA?$AAC?$AAP@ 000000018005bf20     libucrt:get_qualified_locale.obj
 0002:0000ef28       ??_C@_1M@FPEIIFAM@?$AAu?$AAt?$AAf?$AA?9?$AA8@ 000000018005bf28     libucrt:get_qualified_locale.obj
 0002:0000ef38       ??_C@_17CIKBIHLH@?$AAO?$AAC?$AAP@ 000000018005bf38     libucrt:get_qualified_locale.obj
 0002:0000ef40       __rglangidNotDefault       000000018005bf40     libucrt:getqloc_downlevel.obj
 0002:0000f1c0       ??_C@_1BA@BALFACEM@?$AAC?$AAO?$AAN?$AAO?$AAU?$AAT?$AA$@ 000000018005c1c0     libucrt:initcon.obj
 0002:0000f1d0       __log10_256_lead           000000018005c1d0     libucrt:log10_256_lead_tail_table.obj
 0002:0000f9e0       __log10_256_tail           000000018005c9e0     libucrt:log10_256_lead_tail_table.obj
 0002:000101f0       ?pow10_significands@?1??get_cached_power@?$cache_accessor@N@dragonbox@detail@v8@fmt@@SA?AUuint128_wrapper@456@H@Z@4QBU7456@B 000000018005d1f0     format.obj
 0002:00010360       ?pow10_significands@?1??get_cached_power@?$cache_accessor@M@dragonbox@detail@v8@fmt@@SA_KH@Z@4QB_KB 000000018005d360     format.obj
 0002:000105d8       ??_7?$basic_memory_buffer@_W$0BPE@V?$allocator@_W@std@@@v8@fmt@@6B@ 000000018005d5d8     format.obj
 0002:000105e0       ?divtest_table@?1??divisible_by_power_of_5@dragonbox@detail@v8@fmt@@YA_NIH@Z@4QBU?$divtest_table_entry@I@2345@B 000000018005d5e0     format.obj
 0002:00010640       ??_7?$basic_memory_buffer@H$0BPE@V?$allocator@H@std@@@v8@fmt@@6B@ 000000018005d640     format.obj
 0002:00010650       ?power_of_10_64@?$basic_impl_data@X@detail@v8@fmt@@2QB_KB 000000018005d650     format.obj
 0002:000106f0       ?pow10_significands@?$basic_impl_data@X@detail@v8@fmt@@2QB_KB 000000018005d6f0     format.obj
 0002:000109b0       ?pow10_exponents@?$basic_impl_data@X@detail@v8@fmt@@2QBFB 000000018005d9b0     format.obj
 0002:00010a60       ?powers_of_5_64@?1??get_cached_power@?$cache_accessor@N@dragonbox@detail@v8@fmt@@SA?AUuint128_wrapper@456@H@Z@4QB_KB 000000018005da60     format.obj
 0002:00010b40       ??_7format_error@v8@fmt@@6B@ 000000018005db40     format.obj
 0002:00010b50       ?bsr2log10@?1??do_count_digits@detail@v8@fmt@@YAH_K@Z@4QBEB 000000018005db50     format.obj
 0002:00010b90       ?table@?1??do_count_digits@detail@v8@fmt@@YAHI@Z@4QB_KB 000000018005db90     format.obj
 0002:00010c90       ?zero_or_powers_of_10@?1??do_count_digits@detail@v8@fmt@@YAH_K@Z@4QB_KB 000000018005dc90     format.obj
 0002:00010d40       ?pow10_recovery_errors@?1??get_cached_power@?$cache_accessor@N@dragonbox@detail@v8@fmt@@SA?AUuint128_wrapper@456@H@Z@4QBIB 000000018005dd40     format.obj
 0002:00010de8       ??_7?$basic_memory_buffer@I$0CA@V?$allocator@I@std@@@v8@fmt@@6B@ 000000018005dde8     format.obj
 0002:00010df0       ?divtest_table@?1??divisible_by_power_of_5@dragonbox@detail@v8@fmt@@YA_N_KH@Z@4QBU?$divtest_table_entry@_K@2345@B 000000018005ddf0     format.obj
 0002:00010f78       ??_7?$basic_memory_buffer@D$0BPE@V?$allocator@D@std@@@v8@fmt@@6B@ 000000018005df78     format.obj
 0002:00010f80       ??_C@_0BC@EOODALEL@Unknown?5exception@ 000000018005df80     format.obj
 0002:00010f98       ??_C@_0BF@KINCDENJ@bad?5array?5new?5length@ 000000018005df98     format.obj
 0002:00010fb0       ??_C@_08EPJLHIJG@bad?5cast@ 000000018005dfb0     format.obj
 0002:00010fb9       ??_C@_00CNPNBAHC@@         000000018005dfb9     format.obj
 0002:00010fc0       ??_C@_0BA@ELKIONDK@bad?5locale?5name@ 000000018005dfc0     format.obj
 0002:00010fd0       ??_C@_05LAPONLG@false@     000000018005dfd0     format.obj
 0002:00010fd8       ??_C@_04LOAJBDKD@true@     000000018005dfd8     format.obj
 0002:00010fe0       ??_C@_0MJ@HFBCCPGP@0001020304050607080910111213141@ 000000018005dfe0     format.obj
 0002:000110b0       ??_C@_0BD@DBEDGLNA@argument?5not?5found@ 000000018005e0b0     format.obj
 0002:000110c8       ??_C@_0BN@JNLAGDD@missing?5?8?$HN?8?5in?5format?5string@ 000000018005e0c8     format.obj
 0002:000110e8       ??_C@_0BH@IEEDMHI@string?5pointer?5is?5null@ 000000018005e0e8     format.obj
 0002:00011100       ??_C@_0DJ@LMIJFHJI@cannot?5switch?5from?5automatic?5to@ 000000018005e100     format.obj
 0002:00011140       ??_C@_0DJ@GHJONFIH@cannot?5switch?5from?5manual?5to?5au@ 000000018005e140     format.obj
 0002:00011180       ??_C@_0BA@JFNIOLAK@string?5too?5long@ 000000018005e180     format.obj
 0002:00011190       ??_C@_0BH@CIKPCHEG@invalid?5type?5specifier@ 000000018005e190     format.obj
 0002:000111a8       ??_C@_0BP@NMGMJOEM@unmatched?5?8?$HN?8?5in?5format?5string@ 000000018005e1a8     format.obj
 0002:000111c8       ??_C@_0BG@PEJKJNLA@invalid?5format?5string@ 000000018005e1c8     format.obj
 0002:000111e0       ??_C@_0BJ@JNDNOEDN@unknown?5format?5specifier@ 000000018005e1e0     format.obj
 0002:00011200       ??_C@_0BL@KNEDAEPA@invalid?5fill?5character?5?8?$HL?8@ 000000018005e200     format.obj
 0002:00011220       ??_C@_0CL@CFEEEDMP@format?5specifier?5requires?5numer@ 000000018005e220     format.obj
 0002:00011250       ??_C@_0BC@MDEIBHGE@number?5is?5too?5big@ 000000018005e250     format.obj
 0002:00011268       ??_C@_0CK@IBNNAPH@format?5specifier?5requires?5signe@ 000000018005e268     format.obj
 0002:00011298       ??_C@_0N@EFEDKJEI@invalid?5fill@ 000000018005e298     format.obj
 0002:000112a8       ??_C@_0BM@IEKLBNBK@missing?5precision?5specifier@ 000000018005e2a8     format.obj
 0002:000112c8       ??_C@_0CC@ELFJMMCC@invalid?5format?5specifier?5for?5ch@ 000000018005e2c8     format.obj
 0002:000112f0       ??_C@_0CN@KMEDLGAJ@precision?5not?5allowed?5for?5this?5@ 000000018005e2f0     format.obj
 0002:00011320       ??_C@_03OEIAHPBN@INF@      000000018005e320     format.obj
 0002:00011324       ??_C@_03OJHLLCGB@inf@      000000018005e324     format.obj
 0002:00011328       ??_C@_03LKNCIKJB@NAN@      000000018005e328     format.obj
 0002:0001132c       ??_C@_03LHCJEHON@nan@      000000018005e32c     format.obj
 0002:00011330       ??_C@_04MKBJPCKC@?$AA?9?$CL?5@ 000000018005e330     format.obj
 0002:00011338       ??_C@_04MKAMHODJ@?$BP?$BP?$AA?$AB@ 000000018005e338     format.obj
 0002:00011340       ??_C@_04CILMHOGK@?$AA?$BP?$AA?$AB@ 000000018005e340     format.obj
 0002:00011348       ??_C@_0BB@JGGOGLEG@0123456789ABCDEF@ 000000018005e348     format.obj
 0002:00011360       ??_C@_0BB@JCEFLFJE@0123456789abcdef@ 000000018005e360     format.obj
 0002:00011378       ??_C@_0P@DAPDPGEO@negative?5width@ 000000018005e378     format.obj
 0002:00011388       ??_C@_0BD@PKKFPMLC@negative?5precision@ 000000018005e388     format.obj
 0002:000113a0       ??_C@_0BF@KEAPHPPE@width?5is?5not?5integer@ 000000018005e3a0     format.obj
 0002:000113b8       ??_C@_0BJ@KKLAKOOL@precision?5is?5not?5integer@ 000000018005e3b8     format.obj
 0002:000113d8       ??_C@_1O@ECECHNAE@?$AA?$DM?$AAp?$AAi?$AAp?$AAe?$AA?$DO@ 000000018005e3d8     handles.obj
 0002:000113e8       ??_C@_11LOCGONAA@@         000000018005e3e8     handles.obj
 0002:000113f0       ??_C@_1BA@NMDNJJOO@?$AAP?$AAr?$AAo?$AAc?$AAe?$AAs?$AAs@ 000000018005e3f0     handles.obj
 0002:00011400       ??_C@_1O@CDOGJPJJ@?$AAT?$AAh?$AAr?$AAe?$AAa?$AAd@ 000000018005e400     handles.obj
 0002:00011410       ??_C@_17KACEIPNC@?$AAK?$AAe?$AAy@ 000000018005e410     handles.obj
 0002:00011418       ??_C@_19DDLLJDOO@?$AAF?$AAi?$AAl?$AAe@ 000000018005e418     handles.obj
 0002:00011428       ??_C@_1BE@FGECLHKD@?$AA?$HL?$AA0?$AA?$HN?$AA?5?$AA?$CI?$AA?$HL?$AA1?$AA?$HN?$AA?$CJ@ 000000018005e428     handles.obj
 0002:00011440       ??_C@_1BC@HBCEGEJN@?$AAT?$AAI?$AAD?$AA?3?$AA?5?$AA?$HL?$AA0?$AA?$HN@ 000000018005e440     handles.obj
 0002:00011458       ??_C@_1BE@ELICABCK@?$AA?$DM?$AAu?$AAn?$AAk?$AAn?$AAo?$AAw?$AAn?$AA?$DO@ 000000018005e458     handles.obj
 0002:00011470       ??_C@_1DC@OIDKFHBF@?$AAM?$AAA?$AAC?$AAH?$AAI?$AAN?$AAE?$AA?2?$AAS?$AAO?$AAF?$AAT?$AAW?$AAA?$AAR@ 000000018005e470     handles.obj
 0002:000114a8       ??_C@_19DIHHCHDI@?$AAH?$AAK?$AAU?$AA?2@ 000000018005e4a8     handles.obj
 0002:000114b8       ??_C@_19JAPAIJDE@?$AAH?$AAK?$AAC?$AAU@ 000000018005e4b8     handles.obj
 0002:000114c8       ??_C@_1BK@OEABCBLA@?$AAH?$AAK?$AAC?$AAU?$AA?2?$AAC?$AAl?$AAa?$AAs?$AAs?$AAe?$AAs@ 000000018005e4c8     handles.obj
 0002:000114e8       ??_C@_17PJOJPMPB@?$AAH?$AAK?$AAU@ 000000018005e4e8     handles.obj
 0002:000114f0       ??_C@_19NCHLBIN@?$AAH?$AAK?$AAC?$AAR@ 000000018005e4f0     handles.obj
 0002:00011500       ??_C@_19PEALEEJB@?$AAH?$AAK?$AAL?$AAM@ 000000018005e500     handles.obj
 0002:00011510       ??_C@_1DM@NGIMPLFP@?$AA?6?$AA?$HL?$AA0?$AA?$HN?$AA?3?$AA?6?$AA?$HL?$AA1?$AA?3?$AA6?$AA?$HN?$AA?5?$AA?$HL?$AA2?$AA?3@ 000000018005e510     handles.obj
 0002:00011550       ??_C@_1DG@HOLPNCNP@?$AA?$HL?$AA0?$AA?3?$AA6?$AAX?$AA?$HN?$AA?5?$AA?$HL?$AA1?$AA?3?$AA0?$AA8?$AAX?$AA?$HN?$AA?5@ 000000018005e550     handles.obj
 0002:000115b8       ??_7PluginCheckBoxBinding@@6B@ 000000018005e5b8     Pcfg.obj
 0002:000115c8       ??_C@_1O@BJPKKLLM@?$AAC?$AAo?$AAn?$AAf?$AAi?$AAg@ 000000018005e5c8     Pcfg.obj
 0002:000115d8       ??_C@_1BO@NGDOFANC@?$AAA?$AAd?$AAd?$AAT?$AAo?$AAD?$AAi?$AAs?$AAk?$AAs?$AAM?$AAe?$AAn?$AAu@ 000000018005e5d8     Pcfg.obj
 0002:000115f8       ??_C@_1CC@PNNAOHJC@?$AAA?$AAd?$AAd?$AAT?$AAo?$AAP?$AAl?$AAu?$AAg?$AAi?$AAn?$AAs?$AAM?$AAe?$AAn@ 000000018005e5f8     Pcfg.obj
 0002:00011620       ??_C@_1CE@JIPJNDMD@?$AAE?$AAx?$AAp?$AAo?$AAr?$AAt?$AAE?$AAn?$AAv?$AAi?$AAr?$AAo?$AAn?$AAm?$AAe@ 000000018005e620     Pcfg.obj
 0002:00011648       ??_C@_1CC@OABICAMP@?$AAE?$AAx?$AAp?$AAo?$AAr?$AAt?$AAM?$AAo?$AAd?$AAu?$AAl?$AAe?$AAI?$AAn?$AAf@ 000000018005e648     Pcfg.obj
 0002:00011670       ??_C@_1CI@OFLGHPDG@?$AAE?$AAx?$AAp?$AAo?$AAr?$AAt?$AAM?$AAo?$AAd?$AAu?$AAl?$AAe?$AAV?$AAe?$AAr@ 000000018005e670     Pcfg.obj
 0002:00011698       ??_C@_1CE@GNMOKOAL@?$AAE?$AAx?$AAp?$AAo?$AAr?$AAt?$AAP?$AAe?$AAr?$AAf?$AAo?$AAr?$AAm?$AAa?$AAn@ 000000018005e698     Pcfg.obj
 0002:000116c0       ??_C@_1BM@KMCHODLM@?$AAE?$AAx?$AAp?$AAo?$AAr?$AAt?$AAH?$AAa?$AAn?$AAd?$AAl?$AAe?$AAs@ 000000018005e6c0     Pcfg.obj
 0002:000116e0       ??_C@_1CK@CLFOOHFA@?$AAE?$AAx?$AAp?$AAo?$AAr?$AAt?$AAH?$AAa?$AAn?$AAd?$AAl?$AAe?$AAs?$AAU?$AAn@ 000000018005e6e0     Pcfg.obj
 0002:00011710       ??_C@_1BE@PKILIDFH@?$AAE?$AAn?$AAa?$AAb?$AAl?$AAe?$AAW?$AAM?$AAI@ 000000018005e710     Pcfg.obj
 0002:00011728       ??_C@_1BK@GMMKGKID@?$AA?$HL?$AA0?$AA?$HN?$AA?4?$AA?$HL?$AA1?$AA?3?$AA0?$AA?$HL?$AA2?$AA?$HN?$AA?$HN@ 000000018005e728     Pclass.obj
 0002:00011748       ??_C@_1BA@BHJJFMCM@?$AAB?$AAK?$AAM?$AAG?$AAT?$AAP?$AAE@ 000000018005e748     Pclass.obj
 0002:00011758       ??_C@_1BC@HGOMHBK@?$AA?$HL?$AA0?$AA?3?$AA?$DM?$AA2?$AA1?$AA?$HN?$AA?5@ 000000018005e758     Pclass.obj
 0002:00011770       ??_C@_19LPDLLMEB@?$AA?$HL?$AA0?$AA?$HN?$AA?3@ 000000018005e770     Pclass.obj
 0002:00011780       ??_C@_1BC@IALIJCAM@?$AAS?$AAo?$AAr?$AAt?$AAM?$AAo?$AAd?$AAe@ 000000018005e780     Pclass.obj
 0002:00011798       ??_C@_1BO@OMKAPLPJ@?$AAS?$AAt?$AAa?$AAr?$AAt?$AAP?$AAa?$AAn?$AAe?$AAl?$AAM?$AAo?$AAd?$AAe@ 000000018005e798     Pclass.obj
 0002:000117b8       ??_C@_1BA@JOLGFBLP@?$AAM?$AAo?$AAd?$AAe?$AA?$HL?$AA0?$AA?$HN@ 000000018005e7b8     Pclass.obj
 0002:000117c8       ??_C@_1CM@KGJLHHPG@?$AAN?$AA?0?$AAX?$AA1?$AA5?$AAF?$AA?0?$AAX?$AA1?$AA6?$AAF?$AA?0?$AAX?$AA1?$AA7@ 000000018005e7c8     Pclass.obj
 0002:000117f8       ??_C@_1BG@MNPGDOEP@?$AA1?$AA2?$AA?0?$AA0?$AA?0?$AA0?$AA?0?$AA0?$AA?0?$AA4@ 000000018005e7f8     Pclass.obj
 0002:00011810       ??_C@_1CG@OHFJBKLN@?$AAN?$AA?0?$AAX?$AAI?$AA?0?$AAX?$AAB?$AA?0?$AAX?$AAP?$AA?0?$AAX?$AA0?$AAS?$AA?0@ 000000018005e810     Pclass.obj
 0002:00011838       ??_C@_1BI@EFANNANC@?$AA0?$AA?0?$AA6?$AA?0?$AA2?$AA?0?$AA2?$AA?0?$AA3?$AA?0?$AA9@ 000000018005e838     Pclass.obj
 0002:00011850       ??_C@_17KNGPBKAK@?$AAN?$AA?0?$AAN@ 000000018005e850     Pclass.obj
 0002:00011858       ??_C@_17JPFFEOAH@?$AA0?$AA?0?$AA0@ 000000018005e858     Pclass.obj
 0002:00011860       ??_C@_1BO@JAFIOFIL@?$AAN?$AA?0?$AAX?$AAI?$AA?0?$AAX?$AAB?$AA?0?$AAX?$AAC?$AA?0?$AAD?$AA?0?$AAT@ 000000018005e860     Pclass.obj
 0002:00011880       ??_C@_1BI@LFIMKDME@?$AA0?$AA?0?$AA6?$AA?0?$AA2?$AA?0?$AA6?$AA?0?$AA0?$AA?0?$AA0@ 000000018005e880     Pclass.obj
 0002:00011898       ??_C@_1BK@IEHCCPMO@?$AAN?$AA?0?$AAX?$AAI?$AA?0?$AAX?$AA4?$AAF?$AA?0?$AAX?$AA6?$AAF@ 000000018005e898     Pclass.obj
 0002:000118b8       ??_C@_1BA@MMHHFCDG@?$AA0?$AA?0?$AA6?$AA?0?$AA9?$AA?0?$AA9@ 000000018005e8b8     Pclass.obj
 0002:000118d0       ??_C@_1EA@CMHCGANC@?$AAN?$AA?0?$AAX?$AAI?$AA?0?$AAX?$AA4?$AAF?$AA?0?$AAX?$AA6?$AAF?$AA?0?$AAX?$AA1@ 000000018005e8d0     Pclass.obj
 0002:00011910       ??_C@_1CE@LPFIEDMN@?$AA0?$AA?0?$AA6?$AA?0?$AA9?$AA?0?$AA9?$AA?0?$AA9?$AA?0?$AA9?$AA?0?$AA8?$AA?0?$AA8@ 000000018005e910     Pclass.obj
 0002:00011938       ??_C@_19ILLMDDHI@?$AAN?$AA?0?$AAZ?$AAD@ 000000018005e938     Pclass.obj
 0002:00011948       ??_C@_19NMOJBHGD@?$AA1?$AA2?$AA?0?$AA0@ 000000018005e948     Pclass.obj
 0002:00011960       ??_C@_1EC@OFLHMCFD@?$AAN?$AA?0?$AAX?$AAP?$AA?0?$AAX?$AA0?$AAS?$AA?0?$AAX?$AA1?$AAS?$AA?0?$AAX?$AA2@ 000000018005e960     Pclass.obj
 0002:000119a8       ??_C@_1CA@MGMNHCLL@?$AA0?$AA?0?$AA2?$AA?0?$AA3?$AA?0?$AA2?$AA?0?$AA2?$AA?0?$AA3?$AA?0?$AA4?$AA?0?$AA3@ 000000018005e9a8     Pclass.obj
 0002:000119c8       ??_C@_1O@JGFFCAGM@?$AAN?$AA?0?$AAX?$AAI?$AA?0?$AAO@ 000000018005e9c8     Pclass.obj
 0002:000119d8       ??_C@_1O@FLEOANAI@?$AA0?$AA?0?$AA6?$AA?0?$AA1?$AA5@ 000000018005e9d8     Pclass.obj
 0002:000119e8       ??_C@_1CC@FANCGEGE@?$AAN?$AA?0?$AAX?$AAI?$AA?0?$AAX?$AAT?$AA?0?$AAX?$AA3?$AA?0?$AAX?$AAG?$AA?0?$AAX@ 000000018005e9e8     Pclass.obj
 0002:00011a10       ??_C@_1BI@PMPHDFGH@?$AA0?$AA?0?$AA6?$AA?0?$AA3?$AA?0?$AA4?$AA?0?$AA4?$AA?0?$AA4@ 000000018005ea10     Pclass.obj
 0002:00011a28       ??_C@_1BG@COBJEPBB@?$AAN?$AA?0?$AAX?$AAI?$AA?0?$AAX?$AAT?$AA?0?$AAX?$AA3@ 000000018005ea28     Pclass.obj
 0002:00011a40       ??_C@_1BA@KPNNJGCD@?$AA0?$AA?0?$AA6?$AA?0?$AA3?$AA?0?$AA4@ 000000018005ea40     Pclass.obj
 0002:00011a50       ??_C@_1CA@HLBJOHGN@?$AAF?$AAu?$AAl?$AAl?$AAS?$AAc?$AAr?$AAe?$AAe?$AAn?$AAL?$AAo?$AAc?$AAa?$AAl@ 000000018005ea50     Pclass.obj
 0002:00011a70       ??_C@_1CC@EBBNDNOD@?$AAF?$AAu?$AAl?$AAl?$AAS?$AAc?$AAr?$AAe?$AAe?$AAn?$AAR?$AAe?$AAm?$AAo?$AAt@ 000000018005ea70     Pclass.obj
 0002:00011a98       ??_C@_1BK@HMOODHKK@?$AAC?$AAo?$AAl?$AAu?$AAm?$AAn?$AAs?$AAL?$AAo?$AAc?$AAa?$AAl@ 000000018005ea98     Pclass.obj
 0002:00011ab8       ??_C@_1BM@EDHFKJEJ@?$AAC?$AAo?$AAl?$AAu?$AAm?$AAn?$AAs?$AAR?$AAe?$AAm?$AAo?$AAt?$AAe@ 000000018005eab8     Pclass.obj
 0002:00011ad8       ??_C@_1BI@FOOHDOCI@?$AAW?$AAi?$AAd?$AAt?$AAh?$AAs?$AAL?$AAo?$AAc?$AAa?$AAl@ 000000018005ead8     Pclass.obj
 0002:00011af0       ??_C@_1BK@DDBMMJCN@?$AAW?$AAi?$AAd?$AAt?$AAh?$AAs?$AAR?$AAe?$AAm?$AAo?$AAt?$AAe@ 000000018005eaf0     Pclass.obj
 0002:00011b0c       ??_C@_13DEFPDAGF@?$AA?0@   000000018005eb0c     Pclass.obj
 0002:00011b10       ??_C@_15LNKNCLHH@?$AAS?$AAs@ 000000018005eb10     Pclass.obj
 0002:00011b18       ??_C@_1M@PBHOFL@?$AA?5?$AA?$HL?$AA0?$AA?$HN?$AA?5@ 000000018005eb18     Pclass.obj
 0002:00011b28       ??_C@_1BE@JJMDGICA@?$AA?$HL?$AA0?$AA?$HN?$AA?3?$AA?5?$AA?$HL?$AA1?$AA?$HN?$AA?5@ 000000018005eb28     Pclass.obj
 0002:00011b3c       ??_C@_15JOGBDECP@?$AA?0?$AA?5@ 000000018005eb3c     Pclass.obj
 0002:00011b44       ??_C@_15DNHPCDHG@?$AAT?$AAt@ 000000018005eb44     Pclass.obj
 0002:00011b4c       ??_C@_15IJHBBPPC@?$AAF?$AAf@ 000000018005eb4c     Pclass.obj
 0002:00011b58       ??_C@_1BC@OMEIHGFC@?$AAW?$AAS?$AA_?$AAP?$AAO?$AAP?$AAU?$AAP@ 000000018005eb58     Pclass.obj
 0002:00011b70       ??_C@_1BC@ONEEOLLM@?$AAW?$AAS?$AA_?$AAC?$AAH?$AAI?$AAL?$AAD@ 000000018005eb70     Pclass.obj
 0002:00011b88       ??_C@_1BI@GHDIGAD@?$AAW?$AAS?$AA_?$AAM?$AAI?$AAN?$AAI?$AAM?$AAI?$AAZ?$AAE@ 000000018005eb88     Pclass.obj
 0002:00011ba0       ??_C@_1BG@KLPFHNBP@?$AAW?$AAS?$AA_?$AAV?$AAI?$AAS?$AAI?$AAB?$AAL?$AAE@ 000000018005eba0     Pclass.obj
 0002:00011bb8       ??_C@_1BI@NKODCGOF@?$AAW?$AAS?$AA_?$AAD?$AAI?$AAS?$AAA?$AAB?$AAL?$AAE?$AAD@ 000000018005ebb8     Pclass.obj
 0002:00011bd0       ??_C@_1CA@PCFJBBHH@?$AAW?$AAS?$AA_?$AAC?$AAL?$AAI?$AAP?$AAS?$AAI?$AAB?$AAL?$AAI?$AAN?$AAG?$AAS@ 000000018005ebd0     Pclass.obj
 0002:00011bf0       ??_C@_1CA@MPLGGIO@?$AAW?$AAS?$AA_?$AAC?$AAL?$AAI?$AAP?$AAC?$AAH?$AAI?$AAL?$AAD?$AAR?$AAE?$AAN@ 000000018005ebf0     Pclass.obj
 0002:00011c10       ??_C@_1BI@OLBAGOJG@?$AAW?$AAS?$AA_?$AAM?$AAA?$AAX?$AAI?$AAM?$AAI?$AAZ?$AAE@ 000000018005ec10     Pclass.obj
 0002:00011c28       ??_C@_1BE@DAMMEKNP@?$AAW?$AAS?$AA_?$AAB?$AAO?$AAR?$AAD?$AAE?$AAR@ 000000018005ec28     Pclass.obj
 0002:00011c40       ??_C@_1BI@EDHINADK@?$AAW?$AAS?$AA_?$AAD?$AAL?$AAG?$AAF?$AAR?$AAA?$AAM?$AAE@ 000000018005ec40     Pclass.obj
 0002:00011c58       ??_C@_1BG@CKCLFGFA@?$AAW?$AAS?$AA_?$AAV?$AAS?$AAC?$AAR?$AAO?$AAL?$AAL@ 000000018005ec58     Pclass.obj
 0002:00011c70       ??_C@_1BG@OMIOJOGF@?$AAW?$AAS?$AA_?$AAH?$AAS?$AAC?$AAR?$AAO?$AAL?$AAL@ 000000018005ec70     Pclass.obj
 0002:00011c88       ??_C@_1BG@KJOBMDJC@?$AAW?$AAS?$AA_?$AAS?$AAY?$AAS?$AAM?$AAE?$AAN?$AAU@ 000000018005ec88     Pclass.obj
 0002:00011ca0       ??_C@_1BM@GPNNOPCH@?$AAW?$AAS?$AA_?$AAT?$AAH?$AAI?$AAC?$AAK?$AAF?$AAR?$AAA?$AAM?$AAE@ 000000018005eca0     Pclass.obj
 0002:00011cc0       ??_C@_1BO@FODKBODI@?$AAW?$AAS?$AA_?$AAM?$AAI?$AAN?$AAI?$AAM?$AAI?$AAZ?$AAE?$AAB?$AAO?$AAX@ 000000018005ecc0     Pclass.obj
 0002:00011ce0       ??_C@_1BO@IDJMAOMI@?$AAW?$AAS?$AA_?$AAM?$AAA?$AAX?$AAI?$AAM?$AAI?$AAZ?$AAE?$AAB?$AAO?$AAX@ 000000018005ece0     Pclass.obj
 0002:00011d00       ??_C@_1CI@PKBCIOPN@?$AAW?$AAS?$AA_?$AAE?$AAX?$AA_?$AAD?$AAL?$AAG?$AAM?$AAO?$AAD?$AAA?$AAL?$AAF@ 000000018005ed00     Pclass.obj
 0002:00011d28       ??_C@_1CK@KJECLHMG@?$AAW?$AAS?$AA_?$AAE?$AAX?$AA_?$AAN?$AAO?$AAP?$AAA?$AAR?$AAE?$AAN?$AAT?$AAN@ 000000018005ed28     Pclass.obj
 0002:00011d58       ??_C@_1BM@OCBKBALE@?$AAW?$AAS?$AA_?$AAE?$AAX?$AA_?$AAT?$AAO?$AAP?$AAM?$AAO?$AAS?$AAT@ 000000018005ed58     Pclass.obj
 0002:00011d78       ??_C@_1CE@JIDMMICL@?$AAW?$AAS?$AA_?$AAE?$AAX?$AA_?$AAA?$AAC?$AAC?$AAE?$AAP?$AAT?$AAF?$AAI?$AAL@ 000000018005ed78     Pclass.obj
 0002:00011da0       ??_C@_1CE@PFFPBMCF@?$AAW?$AAS?$AA_?$AAE?$AAX?$AA_?$AAT?$AAR?$AAA?$AAN?$AAS?$AAP?$AAA?$AAR?$AAE@ 000000018005eda0     Pclass.obj
 0002:00011dc8       ??_C@_1BO@MEOEJPLO@?$AAW?$AAS?$AA_?$AAE?$AAX?$AA_?$AAM?$AAD?$AAI?$AAC?$AAH?$AAI?$AAL?$AAD@ 000000018005edc8     Pclass.obj
 0002:00011de8       ??_C@_1CC@IEIGGJGG@?$AAW?$AAS?$AA_?$AAE?$AAX?$AA_?$AAT?$AAO?$AAO?$AAL?$AAW?$AAI?$AAN?$AAD?$AAO@ 000000018005ede8     Pclass.obj
 0002:00011e10       ??_C@_1CC@PLPNIKGL@?$AAW?$AAS?$AA_?$AAE?$AAX?$AA_?$AAW?$AAI?$AAN?$AAD?$AAO?$AAW?$AAE?$AAD?$AAG@ 000000018005ee10     Pclass.obj
 0002:00011e38       ??_C@_1CC@IAPGCLEG@?$AAW?$AAS?$AA_?$AAE?$AAX?$AA_?$AAC?$AAL?$AAI?$AAE?$AAN?$AAT?$AAE?$AAD?$AAG@ 000000018005ee38     Pclass.obj
 0002:00011e60       ??_C@_1CE@EANKNCIF@?$AAW?$AAS?$AA_?$AAE?$AAX?$AA_?$AAC?$AAO?$AAN?$AAT?$AAE?$AAX?$AAT?$AAH?$AAE@ 000000018005ee60     Pclass.obj
 0002:00011e88       ??_C@_1BI@GFIADCMK@?$AAW?$AAS?$AA_?$AAE?$AAX?$AA_?$AAR?$AAI?$AAG?$AAH?$AAT@ 000000018005ee88     Pclass.obj
 0002:00011ea0       ??_C@_1CC@JOFCJJPB@?$AAW?$AAS?$AA_?$AAE?$AAX?$AA_?$AAR?$AAT?$AAL?$AAR?$AAE?$AAA?$AAD?$AAI?$AAN@ 000000018005eea0     Pclass.obj
 0002:00011ec8       ??_C@_1CI@EFLDECAB@?$AAW?$AAS?$AA_?$AAE?$AAX?$AA_?$AAL?$AAE?$AAF?$AAT?$AAS?$AAC?$AAR?$AAO?$AAL@ 000000018005eec8     Pclass.obj
 0002:00011ef0       ??_C@_1CI@CIFGFFJB@?$AAW?$AAS?$AA_?$AAE?$AAX?$AA_?$AAC?$AAO?$AAN?$AAT?$AAR?$AAO?$AAL?$AAP?$AAA@ 000000018005eef0     Pclass.obj
 0002:00011f18       ??_C@_1CC@BGEPLDCA@?$AAW?$AAS?$AA_?$AAE?$AAX?$AA_?$AAS?$AAT?$AAA?$AAT?$AAI?$AAC?$AAE?$AAD?$AAG@ 000000018005ef18     Pclass.obj
 0002:00011f40       ??_C@_1CA@DOAIHHLO@?$AAW?$AAS?$AA_?$AAE?$AAX?$AA_?$AAA?$AAP?$AAP?$AAW?$AAI?$AAN?$AAD?$AAO?$AAW@ 000000018005ef40     Pclass.obj
 0002:00011f60       ??_C@_1BM@FAODAMGD@?$AAW?$AAS?$AA_?$AAE?$AAX?$AA_?$AAL?$AAA?$AAY?$AAE?$AAR?$AAE?$AAD@ 000000018005ef60     Pclass.obj
 0002:00011f80       ??_C@_1CM@DJKNBOGD@?$AAW?$AAS?$AA_?$AAE?$AAX?$AA_?$AAN?$AAO?$AAI?$AAN?$AAH?$AAE?$AAR?$AAI?$AAT@ 000000018005ef80     Pclass.obj
 0002:00011fb0       ??_C@_1CA@KMHLBMFI@?$AAW?$AAS?$AA_?$AAE?$AAX?$AA_?$AAL?$AAA?$AAY?$AAO?$AAU?$AAT?$AAR?$AAT?$AAL@ 000000018005efb0     Pclass.obj
 0002:00011fd0       ??_C@_1CC@LOFMDOPL@?$AAW?$AAS?$AA_?$AAE?$AAX?$AA_?$AAN?$AAO?$AAA?$AAC?$AAT?$AAI?$AAV?$AAA?$AAT@ 000000018005efd0     Pclass.obj
 0002:00011ff8       ??_C@_1BA@PCPLEJNM@?$AA?$HL?$AA0?$AA?3?$AA2?$AA0?$AA?$HN?$AA?6@ 000000018005eff8     Pclass.obj
 0002:00012008       ??_C@_1CA@PGPHFLML@?$AA?$HL?$AA0?$AA?3?$AA?$DO?$AA2?$AA0?$AA?$HN?$AA?5?$AA?$HL?$AA1?$AA?3?$AA7?$AA?$HN?$AA?$CF?$AA?6@ 000000018005f008     Pclass.obj
 0002:00012028       ??_C@_1CE@BCAPNIMO@?$AA?$HL?$AA0?$AA?3?$AA2?$AA0?$AA?$HN?$AA?5?$AA?5?$AA?$HL?$AA1?$AA?3?$AA7?$AA?$HN?$AA?$HL?$AA2@ 000000018005f028     Pclass.obj
 0002:00012050       ??_C@_1CA@CGMHBFCH@?$AA?$HL?$AA0?$AA?$HN?$AA?$HL?$AA1?$AA?$HN?$AA?0?$AA?5?$AA?$HL?$AA2?$AA?$HN?$AA?$HL?$AA3?$AA?$HN?$AA?6@ 000000018005f050     Pclass.obj
 0002:00012070       ??_C@_1BA@BIAFDLFH@?$AA?$HL?$AA0?$AA?$HN?$AA?$HL?$AA1?$AA?$HN?$AA?6@ 000000018005f070     Pclass.obj
 0002:00012080       ??_C@_1BI@DHFBAHCI@?$AA?$HL?$AA0?$AA?$HN?$AA?5?$AA?5?$AA?$CI?$AA?$HL?$AA1?$AA?$HN?$AA?$CJ?$AA?6@ 000000018005f080     Pclass.obj
 0002:00012098       ??_C@_19EPBAEEOA@?$AA?$HL?$AA0?$AA?$HN?$AA?6@ 000000018005f098     Pclass.obj
 0002:000120a8       ??_C@_1BK@FKNCLDML@?$AA?6?$AA?$HL?$AA0?$AA?$HN?$AA?$HL?$AA1?$AA?$HN?$AA?5?$AA?$HL?$AA2?$AA?$HN?$AA?6@ 000000018005f0a8     Pclass.obj
 0002:000120c8       ??_C@_1BC@IBCAHKMA@?$AA?6?$AA?$HL?$AA0?$AA?$HN?$AA?$HL?$AA1?$AA?$HN?$AA?6@ 000000018005f0c8     Pclass.obj
 0002:000120e0       ??_C@_1BG@JEKFNBAO@?$AA?6?$AA?$HL?$AA0?$AA?$HN?$AA?3?$AA?6?$AA?$HL?$AA1?$AA?$HN?$AA?6@ 000000018005f0e0     Pclass.obj
 0002:000120f8       ??_C@_1CA@MEPGLLIO@?$AA?$HL?$AA0?$AA?$HN?$AA?$HL?$AA1?$AA?3?$AA0?$AA8?$AAX?$AA?$HN?$AA?5?$AA?$HL?$AA2?$AA?$HN?$AA?6@ 000000018005f0f8     Pclass.obj
 0002:00012118       ??_C@_1DG@MNBLGAON@?$AA?6?$AA?$HL?$AA0?$AA?$HN?$AA?3?$AA?6?$AA?$HL?$AA1?$AA?3?$AA?$DM?$AA?$HL?$AA2?$AA?$HN?$AA?$HN?$AA?5@ 000000018005f118     Pclass.obj
 0002:00012150       ??_C@_19GGNHIDOH@?$AA?4?$AAt?$AAx?$AAt@ 000000018005f150     Pclass.obj
 0002:00012160       ??_C@_19OPNPIOHE@?$AAH?$AAW?$AAN?$AAD@ 000000018005f160     Pclass.obj
 0002:0001216c       ??_C@_15GKIJICBO@?$AAZ?$AAC@ 000000018005f16c     Pclass.obj
 0002:00012178       ??_C@_17JJIMNMHK@?$AA?5?$AA?$CG?$AA?$FO@ 000000018005f178     Pclass.obj
 0002:00012180       ??_C@_13HOIJIPNN@?$AA?5@   000000018005f180     Pclass.obj
 0002:00012184       ??_C@_15LEKKCGMK@?$AA?2?$AA?2@ 000000018005f184     Pclass.obj
 0002:00012190       ??_C@_1M@CHPAGEIC@?$AA?$CF?$AA?5?$AA?$HL?$AA0?$AA?$HN@ 000000018005f190     Pclass.obj
 0002:000121a0       ??_C@_1O@DLMEBHDD@?$AA?$HL?$AA0?$AA?$HN?$AA?$HL?$AA1?$AA?$HN@ 000000018005f1a0     Pclass.obj
 0002:000121b0       ??_C@_15DDHGOCBH@?$AA?4?$AA?4@ 000000018005f1b0     Pclass.obj
 0002:000121b8       ??_C@_17FJPEEFCB@?$AAp?$AAr?$AAc@ 000000018005f1b8     Pclass.obj
 0002:000121c0       ??_C@_1BC@ENICKDH@?$AAC?$AAo?$AAn?$AAt?$AAe?$AAn?$AAt?$AAs@ 000000018005f1c0     Pclass.obj
 0002:000121d8       ??_C@_1CK@DGKCELDD@?$AAP?$AAr?$AAo?$AAc?$AAe?$AAs?$AAs?$AAL?$AAi?$AAs?$AAt?$AA?4?$AAC?$AAo?$AAm@ 000000018005f1d8     Pclass.obj
 0002:00012208       ??_C@_1CK@ECJCGOEK@?$AAP?$AAr?$AAo?$AAc?$AAe?$AAs?$AAs?$AAL?$AAi?$AAs?$AAt?$AA?4?$AAU?$AAs?$AAe@ 000000018005f208     Pclass.obj
 0002:00012240       ??_C@_1EA@IELLPLEF@?$AA?$HL?$AA0?$AA?$HN?$AA?5?$AA?$HL?$AA1?$AA?3?$AA0?$AA2?$AA?$HN?$AA?3?$AA?$HL?$AA2?$AA?3?$AA0@ 000000018005f240     Pclass.obj
 0002:00012280       ??_C@_1DI@BCOMPFMM@?$AA?$HL?$AA0?$AA?3?$AA0?$AA2?$AA?$HN?$AA?3?$AA?$HL?$AA1?$AA?3?$AA0?$AA2?$AA?$HN?$AA?3?$AA?$HL@ 000000018005f280     Pclass.obj
 0002:000122c0       ??_C@_1EA@HECKBAAG@?$AA?2?$AAS?$AAt?$AAr?$AAi?$AAn?$AAg?$AAF?$AAi?$AAl?$AAe?$AAI?$AAn?$AAf?$AAo@ 000000018005f2c0     Pclass.obj
 0002:00012300       ??_C@_19JHEHLFPM@?$AA?2?$AA?$DP?$AA?$DP?$AA?2@ 000000018005f300     Pclass.obj
 0002:00012310       ??_C@_1DC@HCLBMGIA@?$AA?2?$AAV?$AAa?$AAr?$AAF?$AAi?$AAl?$AAe?$AAI?$AAn?$AAf?$AAo?$AA?2?$AAT?$AAr@ 000000018005f310     Pclass.obj
 0002:00012348       ??_C@_1BI@HCCAONKE@?$AAF?$AAi?$AAl?$AAe?$AAV?$AAe?$AAr?$AAs?$AAi?$AAo?$AAn@ 000000018005f348     Pclass.obj
 0002:00012360       ??_C@_1CA@JGBAIPOO@?$AAF?$AAi?$AAl?$AAe?$AAD?$AAe?$AAs?$AAc?$AAr?$AAi?$AAp?$AAt?$AAi?$AAo?$AAn@ 000000018005f360     Pclass.obj
 0002:00012380       ??_C@_19KBHGBEJO@?$AA?$HL?$AA0?$AA?$HN?$AA?2@ 000000018005f380     Pclass.obj
 0002:00012390       ??_C@_1O@BMPPIAFP@?$AA?5?$AA?$CI?$AA?$HL?$AA0?$AA?$HN?$AA?$CJ@ 000000018005f390     Pclass.obj
 0002:000123a0       ??_C@_1BC@OMEIBLAI@?$AAw?$AAb?$AAe?$AAm?$AAc?$AAo?$AAm?$AAn@ 000000018005f3a0     Pclass.obj
 0002:000123b8       ??_C@_0BA@FOIKENOD@vector?5too?5long@ 000000018005f3b8     Pclass.obj
 0002:000123c8       ??_C@_0BI@CFPLBAOH@invalid?5string?5position@ 000000018005f3c8     Pclass.obj
 0002:000123e0       ??_C@_15LGINNLBP@?$AA?$HL?$AA?$HN@ 000000018005f3e0     Pclass.obj
 0002:000123e8       ??_C@_0BL@GOIGLPKN@unordered_map?1set?5too?5long@ 000000018005f3e8     Pclass.obj
 0002:00012408       ??_C@_0BK@OGNNAFAB@invalid?5hash?5bucket?5count@ 000000018005f408     Pclass.obj
 0002:00012458       ??_7PluginEditFieldBinding@@6B@ 000000018005f458     Pclass.obj
 0002:00012490       ?Counters@@3QBUcounters@@B 000000018005f490     perfthread.obj
 0002:000125f0       ??_C@_1CC@DNHMJIKH@?$AA?$CF?$AA?5?$AAP?$AAr?$AAo?$AAc?$AAe?$AAs?$AAs?$AAo?$AAr?$AA?5?$AAT?$AAi?$AAm@ 000000018005f5f0     perfthread.obj
 0002:00012618       ??_C@_1CE@FNEMIHOD@?$AA?$CF?$AA?5?$AAP?$AAr?$AAi?$AAv?$AAi?$AAl?$AAe?$AAg?$AAe?$AAd?$AA?5?$AAT?$AAi@ 000000018005f618     perfthread.obj
 0002:00012640       ??_C@_1BI@IIOPEKIO@?$AA?$CF?$AA?5?$AAU?$AAs?$AAe?$AAr?$AA?5?$AAT?$AAi?$AAm?$AAe@ 000000018005f640     perfthread.obj
 0002:00012658       ??_C@_1BK@FAAJNJIB@?$AAH?$AAa?$AAn?$AAd?$AAl?$AAe?$AA?5?$AAC?$AAo?$AAu?$AAn?$AAt@ 000000018005f658     perfthread.obj
 0002:00012678       ??_C@_1CA@KJMNGIDJ@?$AAP?$AAa?$AAg?$AAe?$AA?5?$AAF?$AAi?$AAl?$AAe?$AA?5?$AAB?$AAy?$AAt?$AAe?$AAs@ 000000018005f678     perfthread.obj
 0002:00012698       ??_C@_1CK@FGGMBBIH@?$AAP?$AAa?$AAg?$AAe?$AA?5?$AAF?$AAi?$AAl?$AAe?$AA?5?$AAB?$AAy?$AAt?$AAe?$AAs@ 000000018005f698     perfthread.obj
 0002:000126c8       ??_C@_1BI@GCOMDKEO@?$AAW?$AAo?$AAr?$AAk?$AAi?$AAn?$AAg?$AA?5?$AAS?$AAe?$AAt@ 000000018005f6c8     perfthread.obj
 0002:000126e0       ??_C@_1CC@OFJLEPCP@?$AAW?$AAo?$AAr?$AAk?$AAi?$AAn?$AAg?$AA?5?$AAS?$AAe?$AAt?$AA?5?$AAP?$AAe?$AAa@ 000000018005f6e0     perfthread.obj
 0002:00012708       ??_C@_1CI@LLKMGPEG@?$AAP?$AAo?$AAo?$AAl?$AA?5?$AAN?$AAo?$AAn?$AAp?$AAa?$AAg?$AAe?$AAd?$AA?5?$AAB@ 000000018005f708     perfthread.obj
 0002:00012730       ??_C@_1CC@IMBAECJF@?$AAP?$AAo?$AAo?$AAl?$AA?5?$AAP?$AAa?$AAg?$AAe?$AAd?$AA?5?$AAB?$AAy?$AAt?$AAe@ 000000018005f730     perfthread.obj
 0002:00012758       ??_C@_1BM@DGDPAMAA@?$AAP?$AAr?$AAi?$AAv?$AAa?$AAt?$AAe?$AA?5?$AAB?$AAy?$AAt?$AAe?$AAs@ 000000018005f758     perfthread.obj
 0002:00012778       ??_C@_1CA@GADAGCME@?$AAP?$AAa?$AAg?$AAe?$AA?5?$AAF?$AAa?$AAu?$AAl?$AAt?$AAs?$AA?1?$AAs?$AAe?$AAc@ 000000018005f778     perfthread.obj
 0002:00012798       ??_C@_1BM@FMIOMJAE@?$AAV?$AAi?$AAr?$AAt?$AAu?$AAa?$AAl?$AA?5?$AAB?$AAy?$AAt?$AAe?$AAs@ 000000018005f798     perfthread.obj
 0002:000127b8       ??_C@_1CG@KJOKFONA@?$AAV?$AAi?$AAr?$AAt?$AAu?$AAa?$AAl?$AA?5?$AAB?$AAy?$AAt?$AAe?$AAs?$AA?5?$AAP@ 000000018005f7b8     perfthread.obj
 0002:000127e0       ??_C@_1CE@DFDFLLAO@?$AAI?$AAO?$AA?5?$AAD?$AAa?$AAt?$AAa?$AA?5?$AAB?$AAy?$AAt?$AAe?$AAs?$AA?1?$AAs@ 000000018005f7e0     perfthread.obj
 0002:00012808       ??_C@_1CE@EFLEKJAB@?$AAI?$AAO?$AA?5?$AAR?$AAe?$AAa?$AAd?$AA?5?$AAB?$AAy?$AAt?$AAe?$AAs?$AA?1?$AAs@ 000000018005f808     perfthread.obj
 0002:00012830       ??_C@_1CG@MEJHKKKF@?$AAI?$AAO?$AA?5?$AAW?$AAr?$AAi?$AAt?$AAe?$AA?5?$AAB?$AAy?$AAt?$AAe?$AAs?$AA?1@ 000000018005f830     perfthread.obj
 0002:00012858       ??_C@_1CG@LBBBPCJA@?$AAI?$AAO?$AA?5?$AAO?$AAt?$AAh?$AAe?$AAr?$AA?5?$AAB?$AAy?$AAt?$AAe?$AAs?$AA?1@ 000000018005f858     perfthread.obj
 0002:00012880       ??_C@_1CO@LIEOHDCC@?$AAI?$AAO?$AA?5?$AAD?$AAa?$AAt?$AAa?$AA?5?$AAO?$AAp?$AAe?$AAr?$AAa?$AAt?$AAi@ 000000018005f880     perfthread.obj
 0002:000128b0       ??_C@_1CO@LIIKBHDH@?$AAI?$AAO?$AA?5?$AAR?$AAe?$AAa?$AAd?$AA?5?$AAO?$AAp?$AAe?$AAr?$AAa?$AAt?$AAi@ 000000018005f8b0     perfthread.obj
 0002:000128e0       ??_C@_1DA@HICMAFKK@?$AAI?$AAO?$AA?5?$AAW?$AAr?$AAi?$AAt?$AAe?$AA?5?$AAO?$AAp?$AAe?$AAr?$AAa?$AAt@ 000000018005f8e0     perfthread.obj
 0002:00012910       ??_C@_1DA@BEHINMGJ@?$AAI?$AAO?$AA?5?$AAO?$AAt?$AAh?$AAe?$AAr?$AA?5?$AAO?$AAp?$AAe?$AAr?$AAa?$AAt@ 000000018005f910     perfthread.obj
 0002:00012940       ??_C@_1BA@MGJGGMO@?$AAC?$AAo?$AAu?$AAn?$AAt?$AAe?$AAr@ 000000018005f940     perfthread.obj
 0002:00012950       ??_C@_1BG@NKNJPBCD@?$AAI?$AAD?$AA?5?$AAP?$AAr?$AAo?$AAc?$AAe?$AAs?$AAs@ 000000018005f950     perfthread.obj
 0002:00012968       ??_C@_1BM@KCAKLHJN@?$AAP?$AAr?$AAi?$AAo?$AAr?$AAi?$AAt?$AAy?$AA?5?$AAB?$AAa?$AAs?$AAe@ 000000018005f968     perfthread.obj
 0002:00012988       ??_C@_1BK@KCHPPKHP@?$AAT?$AAh?$AAr?$AAe?$AAa?$AAd?$AA?5?$AAC?$AAo?$AAu?$AAn?$AAt@ 000000018005f988     perfthread.obj
 0002:000129a8       ??_C@_1CI@FNIEMNAI@?$AAC?$AAr?$AAe?$AAa?$AAt?$AAi?$AAn?$AAg?$AA?5?$AAP?$AAr?$AAo?$AAc?$AAe?$AAs@ 000000018005f9a8     perfthread.obj
 0002:000129d0       ??_C@_1BK@IKAFHKBD@?$AAE?$AAl?$AAa?$AAp?$AAs?$AAe?$AAd?$AA?5?$AAT?$AAi?$AAm?$AAe@ 000000018005f9d0     perfthread.obj
 0002:000129f0       ??_C@_19DLCFHDFF@?$AAP?$AAE?$AAR?$AAF@ 000000018005f9f0     perfthread.obj
 0002:00012a00       ??_C@_19DOGDICKI@?$AA?4?$AAe?$AAx?$AAe@ 000000018005fa00     perfthread.obj
 0002:00012a10       ??_C@_1O@NKAIMMPD@?$AA_?$AAT?$AAo?$AAt?$AAa?$AAl@ 000000018005fa10     Plist.obj
 0002:00012a20       ??_C@_1CC@DMDJMJLM@?$AAS?$AAe?$AAD?$AAe?$AAb?$AAu?$AAg?$AAP?$AAr?$AAi?$AAv?$AAi?$AAl?$AAe?$AAg@ 000000018005fa20     Plist.obj
 0002:00012a48       ??_C@_1BE@KEEKBEOD@?$AA?$HL?$AA0?$AA?$HN?$AA?3?$AA?6?$AA?$HL?$AA1?$AA?$HN?$AA?6@ 000000018005fa48     Plist.obj
 0002:00012a60       ??_C@_1O@DMFBLLIP@?$AA?6?$AA?$HL?$AA0?$AA?$HN?$AA?3?$AA?6@ 000000018005fa60     Plist.obj
 0002:00012a70       ??_C@_1BG@JBKHLPML@?$AA?$HL?$AA0?$AA?$HN?$AA?5?$AA?$HL?$AA1?$AA?3?$AA8?$AAX?$AA?$HN@ 000000018005fa70     Plist.obj
 0002:00012a88       ??_C@_19DPDNGGHD@?$AA?5?$AA?$HL?$AA0?$AA?$HN@ 000000018005fa88     Plist.obj
 0002:00012a98       ??_C@_1BE@EMDGEBAH@?$AA?$HL?$AA0?$AA?3?$AA0?$AA?$HL?$AA1?$AA?$HN?$AAX?$AA?$HN@ 000000018005fa98     Plist.obj
 0002:00012ab8       ??_7?$_Func_impl_no_alloc@V<lambda_1>@?6??PrintModules@?$ipc_functions@$0A@@@SAXPEAX0AEAUoptions@@@Z@_NPEA_W_K@std@@6B@ 000000018005fab8     Plist.obj
 0002:00012b20       ??_C@_1CA@CCAFOKCB@?$AAE?$AAr?$AAr?$AAo?$AAr?$AA?5?$AA0?$AAx?$AA?$HL?$AA0?$AA?3?$AA0?$AA8?$AAX?$AA?$HN@ 000000018005fb20     Pmix.obj
 0002:00012b40       ??_C@_15JNBOKNOG@?$AA?$AN?$AA?6@ 000000018005fb40     Pmix.obj
 0002:00012bb8       ??_C@_1DC@LAIEFOLO@?$AAW?$AAi?$AAn?$AA3?$AA2?$AA_?$AAP?$AAr?$AAo?$AAc?$AAe?$AAs?$AAs?$AA?4?$AAH@ 000000018005fbb8     wmi.obj
 0002:00012bf0       ??_C@_1BO@CLCOBGDE@?$AAE?$AAx?$AAe?$AAc?$AAu?$AAt?$AAa?$AAb?$AAl?$AAe?$AAP?$AAa?$AAt?$AAh@ 000000018005fbf0     wmi.obj
 0002:00012c10       ??_C@_1BI@LPJNJKGA@?$AAC?$AAo?$AAm?$AAm?$AAa?$AAn?$AAd?$AAL?$AAi?$AAn?$AAe@ 000000018005fc10     wmi.obj
 0002:00012c28       ??_C@_1BC@JHNNEHFE@?$AAP?$AAr?$AAi?$AAo?$AAr?$AAi?$AAt?$AAy@ 000000018005fc28     wmi.obj
 0002:00012c40       ??_C@_1BC@HJJANEGO@?$AAG?$AAe?$AAt?$AAO?$AAw?$AAn?$AAe?$AAr@ 000000018005fc40     wmi.obj
 0002:00012c58       ??_C@_19PIJILKAI@?$AAU?$AAs?$AAe?$AAr@ 000000018005fc58     wmi.obj
 0002:00012c68       ??_C@_1O@OAMNPMOM@?$AAD?$AAo?$AAm?$AAa?$AAi?$AAn@ 000000018005fc68     wmi.obj
 0002:00012c78       ??_C@_1BI@OIPNMPCL@?$AAG?$AAe?$AAt?$AAO?$AAw?$AAn?$AAe?$AAr?$AAS?$AAi?$AAd@ 000000018005fc78     wmi.obj
 0002:00012c90       ??_C@_17NKMLOKHF@?$AAS?$AAi?$AAd@ 000000018005fc90     wmi.obj
 0002:00012c98       ??_C@_1BE@CFEJJKFE@?$AAS?$AAe?$AAs?$AAs?$AAi?$AAo?$AAn?$AAI?$AAd@ 000000018005fc98     wmi.obj
 0002:00012cb0       ??_C@_1BM@MLGLIGHJ@?$AAW?$AAi?$AAn?$AA3?$AA2?$AA_?$AAP?$AAr?$AAo?$AAc?$AAe?$AAs?$AAs@ 000000018005fcb0     wmi.obj
 0002:00012cd0       ??_C@_1BI@FLOHINJE@?$AAR?$AAe?$AAt?$AAu?$AAr?$AAn?$AAV?$AAa?$AAl?$AAu?$AAe@ 000000018005fcd0     wmi.obj
 0002:00012ce8       ??_C@_1BI@NKNJJIDM@?$AAS?$AAe?$AAt?$AAP?$AAr?$AAi?$AAo?$AAr?$AAi?$AAt?$AAy@ 000000018005fce8     wmi.obj
 0002:00012d00       ??_C@_1O@GGHBFGJC@?$AAR?$AAe?$AAa?$AAs?$AAo?$AAn@ 000000018005fd00     wmi.obj
 0002:00012d10       ??_C@_1BE@PBPGMODO@?$AAT?$AAe?$AAr?$AAm?$AAi?$AAn?$AAa?$AAt?$AAe@ 000000018005fd10     wmi.obj
 0002:00012d28       ??_C@_1CC@OGNCBAIB@?$AA?2?$AA?2?$AA?$HL?$AA0?$AA?$HN?$AA?2?$AAr?$AAo?$AAo?$AAt?$AA?2?$AAc?$AAi?$AAm?$AAv@ 000000018005fd28     wmi.obj
 0002:00012d4c       ??_C@_13JOFGPIOO@?$AA?4@   000000018005fd4c     wmi.obj
 0002:00012d50       MainGuid                   000000018005fd50     Proclist.obj
 0002:00012d60       ConfigDialogGuid           000000018005fd60     Proclist.obj
 0002:00012d70       ??_C@_1M@OAIMIKLP@?$AAn?$AAt?$AAd?$AAl?$AAl@ 000000018005fd70     Proclist.obj
 0002:00012d80       ??_C@_0BK@EGDDIFMK@NtQueryInformationProcess@ 000000018005fd80     Proclist.obj
 0002:00012da0       ??_C@_0BJ@HKKELGGC@NtQueryInformationThread@ 000000018005fda0     Proclist.obj
 0002:00012dc0       ??_C@_0O@IFMDHOMC@NtQueryObject@ 000000018005fdc0     Proclist.obj
 0002:00012dd0       ??_C@_0BJ@NDLOPGCH@NtQuerySystemInformation@ 000000018005fdd0     Proclist.obj
 0002:00012df0       ??_C@_0BH@DLPGICA@NtQueryInformationFile@ 000000018005fdf0     Proclist.obj
 0002:00012e08       ??_C@_0CB@GDPHBMJN@NtWow64QueryInformationProcess6@ 000000018005fe08     Proclist.obj
 0002:00012e30       ??_C@_0BL@NJDHCDMK@NtWow64ReadVirtualMemory64@ 000000018005fe30     Proclist.obj
 0002:00012e50       ??_C@_1BC@GDMECMAK@?$AAk?$AAe?$AAr?$AAn?$AAe?$AAl?$AA3?$AA2@ 000000018005fe50     Proclist.obj
 0002:00012e68       ??_C@_0P@LKABJJMO@IsWow64Process@ 000000018005fe68     Proclist.obj
 0002:00012e78       ??_C@_1BC@DNHGCMLG@?$AAa?$AAd?$AAv?$AAa?$AAp?$AAi?$AA3?$AA2@ 000000018005fe78     Proclist.obj
 0002:00012e90       ??_C@_0L@KJHKJIPF@IsValidSid@ 000000018005fe90     Proclist.obj
 0002:00012ea0       ??_C@_0BK@FIHGNING@GetSidIdentifierAuthority@ 000000018005fea0     Proclist.obj
 0002:00012ec0       ??_C@_0BI@LPFJALDI@GetSidSubAuthorityCount@ 000000018005fec0     Proclist.obj
 0002:00012ed8       ??_C@_0BD@LMGFHOAE@GetSidSubAuthority@ 000000018005fed8     Proclist.obj
 0002:00012ef0       ??_C@_1O@BCCLBEOE@?$AAu?$AAs?$AAe?$AAr?$AA3?$AA2@ 000000018005fef0     Proclist.obj
 0002:00012f00       ??_C@_0BA@FKGDNIJG@GetGuiResources@ 000000018005ff00     Proclist.obj
 0002:00012f10       ??_C@_1M@FFPAMFOB@?$AAo?$AAl?$AAe?$AA3?$AA2@ 000000018005ff10     Proclist.obj
 0002:00012f20       ??_C@_0BC@IOEGILCE@CoSetProxyBlanket@ 000000018005ff20     Proclist.obj
 0002:00012f38       ??_C@_1M@OMFDJDJC@?$AAp?$AAs?$AAa?$AAp?$AAi@ 000000018005ff38     Proclist.obj
 0002:00012f48       ??_C@_0BF@LEEEDPDK@EnumProcessModulesEx@ 000000018005ff48     Proclist.obj
 0002:00012f60       ??_C@_1BC@PDEABLIN@?$AAP?$AAr?$AAo?$AAc?$AAL?$AAi?$AAs?$AAt@ 000000018005ff60     Proclist.obj
 0002:00012f78       ??_C@_1DK@DCAMPEPJ@?$AAP?$AAr?$AAo?$AAc?$AAe?$AAs?$AAs?$AA?5?$AAL?$AAi?$AAs?$AAt?$AA?5?$AAf?$AAo@ 000000018005ff78     Proclist.obj
 0002:00012fb8       ??_C@_1DE@BGKMIKPD@?$AAE?$AAu?$AAg?$AAe?$AAn?$AAe?$AA?5?$AAR?$AAo?$AAs?$AAh?$AAa?$AAl?$AA?5?$AA?$CG@ 000000018005ffb8     Proclist.obj
 0002:00012ff0       ??_C@_1M@MNPEKPKO@?$AAp?$AAl?$AAi?$AAs?$AAt@ 000000018005fff0     Proclist.obj
 0002:00013000       MenuGuid                   0000000180060000     Proclist.obj
 0002:00013010       __real@3f000000            0000000180060010     perfthread.obj
 0002:00013014       __real@3f800000            0000000180060014     perfthread.obj
 0002:00013018       __real@4024000000000000    0000000180060018     Pclass.obj
 0002:00013020       __real@43e0000000000000    0000000180060020     Pclass.obj
 0002:00013028       __real@5f000000            0000000180060028     Pclass.obj
 0002:00013030       __xmm@00000000000000020000000000000000 0000000180060030     Pcfg.obj
 0002:00013040       __xmm@80000000000000008000000000000000 0000000180060040     handles.obj
 0002:00013050       __xmm@80000000800000008000000080000000 0000000180060050     handles.obj
 0002:00013060       __xmm@ffffffffffffffffffffffffffffffff 0000000180060060     Pcfg.obj
 0002:000130d0       _load_config_used          00000001800600d0     LIBCMT:loadcfg.obj
 0002:000131d8       ??_R4logic_error@std@@6B@  00000001800601d8     libcpmt:xthrow.obj
 0002:00013200       ??_R3logic_error@std@@8    0000000180060200     libcpmt:xthrow.obj
 0002:00013218       ??_R2logic_error@std@@8    0000000180060218     libcpmt:xthrow.obj
 0002:00013230       ??_R1A@?0A@EA@logic_error@std@@8 0000000180060230     libcpmt:xthrow.obj
 0002:00013258       ??_R4length_error@std@@6B@ 0000000180060258     libcpmt:xthrow.obj
 0002:00013280       ??_R3length_error@std@@8   0000000180060280     libcpmt:xthrow.obj
 0002:00013298       ??_R2length_error@std@@8   0000000180060298     libcpmt:xthrow.obj
 0002:000132b8       ??_R1A@?0A@EA@length_error@std@@8 00000001800602b8     libcpmt:xthrow.obj
 0002:000132e0       ??_R4out_of_range@std@@6B@ 00000001800602e0     libcpmt:xthrow.obj
 0002:00013308       ??_R3out_of_range@std@@8   0000000180060308     libcpmt:xthrow.obj
 0002:00013320       ??_R2out_of_range@std@@8   0000000180060320     libcpmt:xthrow.obj
 0002:00013340       ??_R1A@?0A@EA@out_of_range@std@@8 0000000180060340     libcpmt:xthrow.obj
 0002:00013368       ??_R4bad_function_call@std@@6B@ 0000000180060368     libcpmt:xthrow.obj
 0002:00013390       ??_R3bad_function_call@std@@8 0000000180060390     libcpmt:xthrow.obj
 0002:000133a8       ??_R2bad_function_call@std@@8 00000001800603a8     libcpmt:xthrow.obj
 0002:000133c0       ??_R1A@?0A@EA@bad_function_call@std@@8 00000001800603c0     libcpmt:xthrow.obj
 0002:000133e8       ??_R4_Locimp@locale@std@@6B@ 00000001800603e8     libcpmt:locale0.obj
 0002:00013410       ??_R3_Locimp@locale@std@@8 0000000180060410     libcpmt:locale0.obj
 0002:00013428       ??_R2_Locimp@locale@std@@8 0000000180060428     libcpmt:locale0.obj
 0002:00013450       ??_R1A@?0A@EA@_Locimp@locale@std@@8 0000000180060450     libcpmt:locale0.obj
 0002:00013478       ??_R4type_info@@6B@        0000000180060478     LIBCMT:std_type_info_static.obj
 0002:000134a0       ??_R3type_info@@8          00000001800604a0     LIBCMT:std_type_info_static.obj
 0002:000134b8       ??_R2type_info@@8          00000001800604b8     LIBCMT:std_type_info_static.obj
 0002:000134c8       ??_R1A@?0A@EA@type_info@@8 00000001800604c8     LIBCMT:std_type_info_static.obj
 0002:000134f0       ??_R4bad_exception@std@@6B@ 00000001800604f0     libvcruntime:frame.obj
 0002:00013518       ??_R3bad_exception@std@@8  0000000180060518     libvcruntime:frame.obj
 0002:00013530       ??_R2bad_exception@std@@8  0000000180060530     libvcruntime:frame.obj
 0002:00013548       ??_R1A@?0A@EA@bad_exception@std@@8 0000000180060548     libvcruntime:frame.obj
 0002:00013570       ??_R1A@?0A@EA@?$basic_memory_buffer@D$0BPE@V?$allocator@D@std@@@v8@fmt@@8 0000000180060570     format.obj
 0002:00013598       ??_R4exception@std@@6B@    0000000180060598     format.obj
 0002:000135c0       ??_R2bad_array_new_length@std@@8 00000001800605c0     format.obj
 0002:000135e0       ??_R3?$buffer@H@detail@v8@fmt@@8 00000001800605e0     format.obj
 0002:000135f8       ??_R1A@?0A@EA@?$buffer@H@detail@v8@fmt@@8 00000001800605f8     format.obj
 0002:00013620       ??_R3?$basic_memory_buffer@H$0BPE@V?$allocator@H@std@@@v8@fmt@@8 0000000180060620     format.obj
 0002:00013638       ??_R4?$basic_memory_buffer@_W$0BPE@V?$allocator@_W@std@@@v8@fmt@@6B@ 0000000180060638     format.obj
 0002:00013660       ??_R4runtime_error@std@@6B@ 0000000180060660     format.obj
 0002:00013688       ??_R3_Facet_base@std@@8    0000000180060688     format.obj
 0002:000136a0       ??_R1A@?0A@EA@bad_cast@std@@8 00000001800606a0     format.obj
 0002:000136c8       ??_R1A@?0A@EA@?$buffer@I@detail@v8@fmt@@8 00000001800606c8     format.obj
 0002:000136f0       ??_R2bad_alloc@std@@8      00000001800606f0     format.obj
 0002:00013708       ??_R3format_error@v8@fmt@@8 0000000180060708     format.obj
 0002:00013720       ??_R3_Crt_new_delete@std@@8 0000000180060720     format.obj
 0002:00013738       ??_R1A@?0A@EA@runtime_error@std@@8 0000000180060738     format.obj
 0002:00013760       ??_R2?$buffer@_W@detail@v8@fmt@@8 0000000180060760     format.obj
 0002:00013770       ??_R1A@?0A@EA@exception@std@@8 0000000180060770     format.obj
 0002:00013798       ??_R2?$numpunct@_W@std@@8  0000000180060798     format.obj
 0002:000137c0       ??_R1A@?0A@EA@_Facet_base@std@@8 00000001800607c0     format.obj
 0002:000137e8       ??_R1A@?0A@EA@bad_alloc@std@@8 00000001800607e8     format.obj
 0002:00013810       ??_R2format_error@v8@fmt@@8 0000000180060810     format.obj
 0002:00013830       ??_R3?$basic_memory_buffer@D$0BPE@V?$allocator@D@std@@@v8@fmt@@8 0000000180060830     format.obj
 0002:00013848       ??_R17?0A@EA@_Crt_new_delete@std@@8 0000000180060848     format.obj
 0002:00013870       ??_R2?$basic_memory_buffer@D$0BPE@V?$allocator@D@std@@@v8@fmt@@8 0000000180060870     format.obj
 0002:00013888       ??_R3?$basic_memory_buffer@_W$0BPE@V?$allocator@_W@std@@@v8@fmt@@8 0000000180060888     format.obj
 0002:000138a0       ??_R2bad_cast@std@@8       00000001800608a0     format.obj
 0002:000138b8       ??_R2exception@std@@8      00000001800608b8     format.obj
 0002:000138c8       ??_R1A@?0A@EA@facet@locale@std@@8 00000001800608c8     format.obj
 0002:000138f0       ??_R2?$buffer@I@detail@v8@fmt@@8 00000001800608f0     format.obj
 0002:00013900       ??_R3?$numpunct@_W@std@@8  0000000180060900     format.obj
 0002:00013918       ??_R3?$buffer@I@detail@v8@fmt@@8 0000000180060918     format.obj
 0002:00013930       ??_R4?$basic_memory_buffer@H$0BPE@V?$allocator@H@std@@@v8@fmt@@6B@ 0000000180060930     format.obj
 0002:00013958       ??_R1A@?0A@EA@?$numpunct@_W@std@@8 0000000180060958     format.obj
 0002:00013980       ??_R2?$basic_memory_buffer@I$0CA@V?$allocator@I@std@@@v8@fmt@@8 0000000180060980     format.obj
 0002:00013998       ??_R3exception@std@@8      0000000180060998     format.obj
 0002:000139b0       ??_R2?$buffer@D@detail@v8@fmt@@8 00000001800609b0     format.obj
 0002:000139c0       ??_R3?$buffer@D@detail@v8@fmt@@8 00000001800609c0     format.obj
 0002:000139d8       ??_R2?$buffer@H@detail@v8@fmt@@8 00000001800609d8     format.obj
 0002:000139e8       ??_R3facet@locale@std@@8   00000001800609e8     format.obj
 0002:00013a00       ??_R2?$basic_memory_buffer@_W$0BPE@V?$allocator@_W@std@@@v8@fmt@@8 0000000180060a00     format.obj
 0002:00013a18       ??_R3bad_cast@std@@8       0000000180060a18     format.obj
 0002:00013a30       ??_R4bad_alloc@std@@6B@    0000000180060a30     format.obj
 0002:00013a58       ??_R4bad_cast@std@@6B@     0000000180060a58     format.obj
 0002:00013a80       ??_R1A@?0A@EA@_Crt_new_delete@std@@8 0000000180060a80     format.obj
 0002:00013aa8       ??_R2?$basic_memory_buffer@H$0BPE@V?$allocator@H@std@@@v8@fmt@@8 0000000180060aa8     format.obj
 0002:00013ac0       ??_R4format_error@v8@fmt@@6B@ 0000000180060ac0     format.obj
 0002:00013ae8       ??_R3bad_array_new_length@std@@8 0000000180060ae8     format.obj
 0002:00013b00       ??_R3bad_alloc@std@@8      0000000180060b00     format.obj
 0002:00013b18       ??_R4_Facet_base@std@@6B@  0000000180060b18     format.obj
 0002:00013b40       ??_R2runtime_error@std@@8  0000000180060b40     format.obj
 0002:00013b58       ??_R4?$numpunct@_W@std@@6B@ 0000000180060b58     format.obj
 0002:00013b80       ??_R3?$buffer@_W@detail@v8@fmt@@8 0000000180060b80     format.obj
 0002:00013b98       ??_R4bad_array_new_length@std@@6B@ 0000000180060b98     format.obj
 0002:00013bc0       ??_R1A@?0A@EA@?$buffer@_W@detail@v8@fmt@@8 0000000180060bc0     format.obj
 0002:00013be8       ??_R2_Crt_new_delete@std@@8 0000000180060be8     format.obj
 0002:00013bf8       ??_R1A@?0A@EA@?$buffer@D@detail@v8@fmt@@8 0000000180060bf8     format.obj
 0002:00013c20       ??_R1A@?0A@EA@?$basic_memory_buffer@I$0CA@V?$allocator@I@std@@@v8@fmt@@8 0000000180060c20     format.obj
 0002:00013c48       ??_R1A@?0A@EA@bad_array_new_length@std@@8 0000000180060c48     format.obj
 0002:00013c70       ??_R3?$basic_memory_buffer@I$0CA@V?$allocator@I@std@@@v8@fmt@@8 0000000180060c70     format.obj
 0002:00013c88       ??_R1A@?0A@EA@format_error@v8@fmt@@8 0000000180060c88     format.obj
 0002:00013cb0       ??_R2_Facet_base@std@@8    0000000180060cb0     format.obj
 0002:00013cc0       ??_R2facet@locale@std@@8   0000000180060cc0     format.obj
 0002:00013ce0       ??_R3runtime_error@std@@8  0000000180060ce0     format.obj
 0002:00013cf8       ??_R4?$basic_memory_buffer@D$0BPE@V?$allocator@D@std@@@v8@fmt@@6B@ 0000000180060cf8     format.obj
 0002:00013d20       ??_R1A@?0A@EA@?$basic_memory_buffer@H$0BPE@V?$allocator@H@std@@@v8@fmt@@8 0000000180060d20     format.obj
 0002:00013d48       ??_R1A@?0A@EA@?$basic_memory_buffer@_W$0BPE@V?$allocator@_W@std@@@v8@fmt@@8 0000000180060d48     format.obj
 0002:00013d70       ??_R4?$basic_memory_buffer@I$0CA@V?$allocator@I@std@@@v8@fmt@@6B@ 0000000180060d70     format.obj
 0002:00013d98       ??_R3DialogAPIBinding@@8   0000000180060d98     Pcfg.obj
 0002:00013db0       ??_R1A@?0A@EA@PluginCheckBoxBinding@@8 0000000180060db0     Pcfg.obj
 0002:00013dd8       ??_R3PluginCheckBoxBinding@@8 0000000180060dd8     Pcfg.obj
 0002:00013df0       ??_R2DialogAPIBinding@@8   0000000180060df0     Pcfg.obj
 0002:00013e00       ??_R4PluginCheckBoxBinding@@6B@ 0000000180060e00     Pcfg.obj
 0002:00013e28       ??_R2PluginCheckBoxBinding@@8 0000000180060e28     Pcfg.obj
 0002:00013e40       ??_R1A@?0A@EA@DialogAPIBinding@@8 0000000180060e40     Pcfg.obj
 0002:00013e68       ??_R2PluginEditFieldBinding@@8 0000000180060e68     Pclass.obj
 0002:00013e80       ??_R4PluginEditFieldBinding@@6B@ 0000000180060e80     Pclass.obj
 0002:00013ea8       ??_R3PluginEditFieldBinding@@8 0000000180060ea8     Pclass.obj
 0002:00013ec0       ??_R1A@?0A@EA@PluginEditFieldBinding@@8 0000000180060ec0     Pclass.obj
 0002:00013f18       ??_R1A@?0A@EA@?$_Func_base@_NPEA_W_K@std@@8 0000000180060f18     Plist.obj
 0002:00013f40       ??_R3?$_Func_impl_no_alloc@V<lambda_1>@?6??PrintModules@?$ipc_functions@$0A@@@SAXPEAX0AEAUoptions@@@Z@_NPEA_W_K@std@@8 0000000180060f40     Plist.obj
 0002:00013f80       ??_R2?$_Func_base@_NPEA_W_K@std@@8 0000000180060f80     Plist.obj
 0002:00013f90       ??_R3?$_Func_base@_NPEA_W_K@std@@8 0000000180060f90     Plist.obj
 0002:00013fa8       ??_R1A@?0A@EA@?$_Func_impl_no_alloc@V<lambda_1>@?6??PrintModules@?$ipc_functions@$0A@@@SAXPEAX0AEAUoptions@@@Z@_NPEA_W_K@std@@8 0000000180060fa8     Plist.obj
 0002:00013fd0       ??_R2?$_Func_impl_no_alloc@V<lambda_1>@?6??PrintModules@?$ipc_functions@$0A@@@SAXPEAX0AEAUoptions@@@Z@_NPEA_W_K@std@@8 0000000180060fd0     Plist.obj
 0002:00014010       ??_R4?$_Func_impl_no_alloc@V<lambda_1>@?6??PrintModules@?$ipc_functions@$0A@@@SAXPEAX0AEAUoptions@@@Z@_NPEA_W_K@std@@6B@ 0000000180061010     Plist.obj
 0002:00014090       ??_R1A@?0A@EA@?$_Func_base@XAEBUtagVARIANT@@@std@@8 0000000180061090     wmi.obj
 0002:000140e0       ??_R2?$_Func_base@XAEBUtagVARIANT@@@std@@8 00000001800610e0     wmi.obj
 0002:00014118       ??_R3?$_Func_base@XAEBUtagVARIANT@@@std@@8 0000000180061118     wmi.obj
 0002:00014510       __rtc_iaa                  0000000180061510     LIBCMT:initsect.obj
 0002:00014518       __rtc_izz                  0000000180061518     LIBCMT:initsect.obj
 0002:00014520       __rtc_taa                  0000000180061520     LIBCMT:initsect.obj
 0002:00014528       __rtc_tzz                  0000000180061528     LIBCMT:initsect.obj
 0002:00019600       _TI2?AVbad_alloc@std@@     0000000180066600     libcpmt:xthrow.obj
 0002:00019620       _CTA2?AVbad_alloc@std@@    0000000180066620     libcpmt:xthrow.obj
 0002:00019638       _CT??_R0?AVlogic_error@std@@@8??0logic_error@std@@QEAA@AEBV01@@Z24 0000000180066638     libcpmt:xthrow.obj
 0002:00019660       _TI3?AVlength_error@std@@  0000000180066660     libcpmt:xthrow.obj
 0002:00019680       _CTA3?AVlength_error@std@@ 0000000180066680     libcpmt:xthrow.obj
 0002:000196a0       _CT??_R0?AVlength_error@std@@@8??0length_error@std@@QEAA@AEBV01@@Z24 00000001800666a0     libcpmt:xthrow.obj
 0002:000196c8       _TI3?AVout_of_range@std@@  00000001800666c8     libcpmt:xthrow.obj
 0002:000196e8       _CTA3?AVout_of_range@std@@ 00000001800666e8     libcpmt:xthrow.obj
 0002:00019708       _CT??_R0?AVout_of_range@std@@@8??0out_of_range@std@@QEAA@AEBV01@@Z24 0000000180066708     libcpmt:xthrow.obj
 0002:00019730       _TI2?AVbad_function_call@std@@ 0000000180066730     libcpmt:xthrow.obj
 0002:00019750       _CTA2?AVbad_function_call@std@@ 0000000180066750     libcpmt:xthrow.obj
 0002:00019768       _CT??_R0?AVbad_function_call@std@@@8??0bad_function_call@std@@QEAA@AEBV01@@Z24 0000000180066768     libcpmt:xthrow.obj
 0002:00019790       _TI2?AVbad_exception@std@@ 0000000180066790     libvcruntime:frame.obj
 0002:000197b0       _CTA2?AVbad_exception@std@@ 00000001800667b0     libvcruntime:frame.obj
 0002:000197c8       _CT??_R0?AVbad_exception@std@@@8??0bad_exception@std@@QEAA@AEBV01@@Z24 00000001800667c8     libvcruntime:frame.obj
 0002:000197f0       _CT??_R0?AVformat_error@v8@fmt@@@8??0format_error@v8@fmt@@QEAA@AEBV012@@Z24 00000001800667f0     format.obj
 0002:00019818       _CTA3?AVformat_error@v8@fmt@@ 0000000180066818     format.obj
 0002:00019838       _TI2?AVruntime_error@std@@ 0000000180066838     format.obj
 0002:00019858       _CTA3?AVbad_array_new_length@std@@ 0000000180066858     format.obj
 0002:00019878       _CTA2?AVbad_cast@std@@     0000000180066878     format.obj
 0002:00019890       _CTA2?AVruntime_error@std@@ 0000000180066890     format.obj
 0002:000198a8       _TI2?AVbad_cast@std@@      00000001800668a8     format.obj
 0002:000198c8       _CT??_R0?AVbad_array_new_length@std@@@8??0bad_array_new_length@std@@QEAA@AEBV01@@Z24 00000001800668c8     format.obj
 0002:000198f0       _CT??_R0?AVruntime_error@std@@@8??0runtime_error@std@@QEAA@AEBV01@@Z24 00000001800668f0     format.obj
 0002:00019918       _CT??_R0?AVbad_cast@std@@@8??0bad_cast@std@@QEAA@AEBV01@@Z24 0000000180066918     format.obj
 0002:00019940       _CT??_R0?AVbad_alloc@std@@@8??0bad_alloc@std@@QEAA@AEBV01@@Z24 0000000180066940     format.obj
 0002:00019968       _CT??_R0?AVexception@std@@@8??0exception@std@@QEAA@AEBV01@@Z24 0000000180066968     format.obj
 0002:00019990       _TI3?AVformat_error@v8@fmt@@ 0000000180066990     format.obj
 0002:000199b0       _TI3?AVbad_array_new_length@std@@ 00000001800669b0     format.obj
 0002:00019b70       __IMPORT_DESCRIPTOR_KERNEL32 0000000180066b70     kernel32:KERNEL32.dll
 0002:00019b84       __IMPORT_DESCRIPTOR_ADVAPI32 0000000180066b84     advapi32:ADVAPI32.dll
 0002:00019b98       __IMPORT_DESCRIPTOR_USER32 0000000180066b98     user32:USER32.dll
 0002:00019bac       __IMPORT_DESCRIPTOR_MPR    0000000180066bac     mpr:MPR.dll
 0002:00019bc0       __IMPORT_DESCRIPTOR_ole32  0000000180066bc0     ole32:ole32.dll
 0002:00019bd4       __IMPORT_DESCRIPTOR_OLEAUT32 0000000180066bd4     oleaut32:OLEAUT32.dll
 0002:00019be8       __IMPORT_DESCRIPTOR_PSAPI  0000000180066be8     psapi:PSAPI.DLL
 0002:00019bfc       __IMPORT_DESCRIPTOR_VERSION 0000000180066bfc     version:VERSION.dll
 0002:00019c10       __NULL_IMPORT_DESCRIPTOR   0000000180066c10     kernel32:KERNEL32.dll
 0003:00000010       __do_unsigned_char_lconv_initialization 0000000180068010     LIBCMT:lconv_unsigned_char.obj
 0003:00000014       __scrt_native_dllmain_reason 0000000180068014     LIBCMT:utility.obj
 0003:00000018       __security_cookie_complement 0000000180068018     LIBCMT:gs_cookie.obj
 0003:00000020       __security_cookie          0000000180068020     LIBCMT:gs_cookie.obj
 0003:00000028       _fltused                   0000000180068028     LIBCMT:fltused.obj
 0003:00000030       __isa_available            0000000180068030     LIBCMT:cpu_disp.obj
 0003:00000034       __isa_enabled              0000000180068034     LIBCMT:cpu_disp.obj
 0003:00000038       __memcpy_nt_iters          0000000180068038     LIBCMT:cpu_disp.obj
 0003:00000040       __memset_nt_iters          0000000180068040     LIBCMT:cpu_disp.obj
 0003:00000060       _iob                       0000000180068060     libucrt:_file.obj
 0003:00000170       __acrt_lconv_c             0000000180068170     libucrt:localeconv.obj
 0003:00000208       __acrt_lconv               0000000180068208     libucrt:localeconv.obj
 0003:00000210       __acrt_lconv_static_decimal 0000000180068210     libucrt:localeconv.obj
 0003:00000214       __acrt_lconv_static_W_decimal 0000000180068214     libucrt:localeconv.obj
 0003:00000220       _pctype                    0000000180068220     libucrt:ctype.obj
 0003:00000228       _pwctype                   0000000180068228     libucrt:ctype.obj
 0003:00000230       __abort_behavior           0000000180068230     libucrt:abort.obj
 0003:00000250       __acrt_initial_locale_data 0000000180068250     libucrt:nlsdata.obj
 0003:000003a8       __acrt_initial_locale_pointers 00000001800683a8     libucrt:nlsdata.obj
 0003:000003b8       __acrt_wide_c_locale_string 00000001800683b8     libucrt:nlsdata.obj
 0003:000003bc       __mb_cur_max               00000001800683bc     libucrt:nlsdata.obj
 0003:000003c0       __globallocalestatus       00000001800683c0     libucrt:glstatus.obj
 0003:00000460       __acrt_initial_multibyte_data 0000000180068460     libucrt:mbctype.obj
 0003:000009a0       _lookuptrailbytes          00000001800689a0     libucrt:read.obj
 0003:00000b28       ?pGetGuiResources@@3P6AKPEAXK@ZEA 0000000180068b28     Proclist.obj
 0003:00000b30       ?pCoSetProxyBlanket@@3P6AJPEAUIUnknown@@KKPEA_WKKPEAXK@ZEA 0000000180068b30     Proclist.obj
 0003:00000b38       ?pIsWow64Process@@3P6AHPEAXPEAH@ZEA 0000000180068b38     Proclist.obj
 0003:00000b40       ?pEnumProcessModulesEx@@3P6AHPEAXPEAPEAUHINSTANCE__@@KPEAKK@ZEA 0000000180068b40     Proclist.obj
 0003:00000b48       ?pNtQuerySystemInformation@@3P6AJKPEAXKPEAK@ZEA 0000000180068b48     Proclist.obj
 0003:00000b50       ?pNtQueryInformationProcess@@3P6AJPEAXW4_PROCESSINFOCLASS@@0KPEAK@ZEA 0000000180068b50     Proclist.obj
 0003:00000b58       ?pNtQueryObject@@3P6AJPEAXK0K0@ZEA 0000000180068b58     Proclist.obj
 0003:00000b60       ?pNtQueryInformationThread@@3P6AJPEAXK0KPEAK@ZEA 0000000180068b60     Proclist.obj
 0003:00000b68       ?pNtQueryInformationFile@@3P6AJPEAX00KK@ZEA 0000000180068b68     Proclist.obj
 0003:00000b70       ??_R0?AVlogic_error@std@@@8 0000000180068b70     libcpmt:xthrow.obj
 0003:00000b98       ??_R0?AVlength_error@std@@@8 0000000180068b98     libcpmt:xthrow.obj
 0003:00000bc0       ??_R0?AVout_of_range@std@@@8 0000000180068bc0     libcpmt:xthrow.obj
 0003:00000be8       ??_R0?AVbad_function_call@std@@@8 0000000180068be8     libcpmt:xthrow.obj
 0003:00000c18       ??_R0?AV_Locimp@locale@std@@@8 0000000180068c18     libcpmt:locale0.obj
 0003:00000c48       ??_R0?AVtype_info@@@8      0000000180068c48     LIBCMT:std_type_info_static.obj
 0003:00000c68       ??_R0?AVbad_exception@std@@@8 0000000180068c68     libvcruntime:frame.obj
 0003:00000c90       ??_R0?AVruntime_error@std@@@8 0000000180068c90     format.obj
 0003:00000cb8       ??_R0?AVbad_alloc@std@@@8  0000000180068cb8     format.obj
 0003:00000ce0       ??_R0?AV?$basic_memory_buffer@H$0BPE@V?$allocator@H@std@@@v8@fmt@@@8 0000000180068ce0     format.obj
 0003:00000d30       ??_R0?AV_Facet_base@std@@@8 0000000180068d30     format.obj
 0003:00000d58       ??_R0?AU_Crt_new_delete@std@@@8 0000000180068d58     format.obj
 0003:00000d88       ??_R0?AV?$buffer@_W@detail@v8@fmt@@@8 0000000180068d88     format.obj
 0003:00000db8       ??_R0?AVbad_cast@std@@@8   0000000180068db8     format.obj
 0003:00000de0       ??_R0?AV?$numpunct@_W@std@@@8 0000000180068de0     format.obj
 0003:00000e08       ??_R0?AV?$buffer@D@detail@v8@fmt@@@8 0000000180068e08     format.obj
 0003:00000e38       ??_R0?AV?$buffer@H@detail@v8@fmt@@@8 0000000180068e38     format.obj
 0003:00000e70       ??_R0?AV?$basic_memory_buffer@I$0CA@V?$allocator@I@std@@@v8@fmt@@@8 0000000180068e70     format.obj
 0003:00000ec0       ??_R0?AVfacet@locale@std@@@8 0000000180068ec0     format.obj
 0003:00000ef0       ??_R0?AV?$basic_memory_buffer@_W$0BPE@V?$allocator@_W@std@@@v8@fmt@@@8 0000000180068ef0     format.obj
 0003:00000f48       ??_R0?AVformat_error@v8@fmt@@@8 0000000180068f48     format.obj
 0003:00000f78       ??_R0?AV?$buffer@I@detail@v8@fmt@@@8 0000000180068f78     format.obj
 0003:00000fa8       ??_R0?AVexception@std@@@8  0000000180068fa8     format.obj
 0003:00000fd0       ??_R0?AV?$basic_memory_buffer@D$0BPE@V?$allocator@D@std@@@v8@fmt@@@8 0000000180068fd0     format.obj
 0003:00001020       ??_R0?AVbad_array_new_length@std@@@8 0000000180069020     format.obj
 0003:00001050       ??_R0?AVDialogAPIBinding@@@8 0000000180069050     Pcfg.obj
 0003:00001078       ??_R0?AVPluginCheckBoxBinding@@@8 0000000180069078     Pcfg.obj
 0003:000010a8       ??_R0?AVPluginEditFieldBinding@@@8 00000001800690a8     Pclass.obj
 0003:000010d8       ??_R0?AV?$_Func_base@_NPEA_W_K@std@@@8 00000001800690d8     Plist.obj
 0003:000011e0       ??_R0?AV<lambda_1>@?6??PrintModules@?$ipc_functions@$0A@@@SAXPEAX0AEAUoptions@@@Z@@8 00000001800691e0     Plist.obj
 0003:00001240       ??_R0?AV?$_Func_impl_no_alloc@V<lambda_1>@?6??PrintModules@?$ipc_functions@$0A@@@SAXPEAX0AEAUoptions@@@Z@_NPEA_W_K@std@@@8 0000000180069240     Plist.obj
 0003:00001368       ??_R0?AV?$_Func_base@XAEBUtagVARIANT@@@std@@@8 0000000180069368     wmi.obj
 0003:000016a0       ?_Id_cnt@id@locale@std@@0HA 00000001800696a0     libcpmt:locale0.obj
 0003:000016a8       ?_Clocptr@_Locimp@locale@std@@0PEAV123@EA 00000001800696a8     libcpmt:locale0.obj
 0003:000016b0       ?id@?$ctype@_W@std@@2V0locale@2@A 00000001800696b0     libcpmt:locale0.obj
 0003:000016b8       ?id@?$ctype@D@std@@2V0locale@2@A 00000001800696b8     libcpmt:locale0.obj
 0003:000016c0       ?id@?$codecvt@GDU_Mbstatet@@@std@@2V0locale@2@A 00000001800696c0     libcpmt:locale0.obj
 0003:000016c8       ?id@?$ctype@G@std@@2V0locale@2@A 00000001800696c8     libcpmt:locale0.obj
 0003:000016e0       ?id@?$codecvt@_WDU_Mbstatet@@@std@@2V0locale@2@A 00000001800696e0     libcpmt:locale0.obj
 0003:00001710       __KERNEL32Functions        0000000180069710     libcpmt:winapisupp.obj
 0003:00001850       ?id@?$num_get@DV?$istreambuf_iterator@DU?$char_traits@D@std@@@std@@@std@@2V0locale@2@A 0000000180069850     libcpmt:locale.obj
 0003:00001858       ?id@?$num_put@DV?$ostreambuf_iterator@DU?$char_traits@D@std@@@std@@@std@@2V0locale@2@A 0000000180069858     libcpmt:locale.obj
 0003:00001860       ?id@?$codecvt@DDU_Mbstatet@@@std@@2V0locale@2@A 0000000180069860     libcpmt:locale.obj
 0003:00001870       ?_Ptr_cin@std@@3PEAV?$basic_istream@DU?$char_traits@D@std@@@1@EA 0000000180069870     libcpmt:iosptrs.obj
 0003:00001878       ?_Ptr_cout@std@@3PEAV?$basic_ostream@DU?$char_traits@D@std@@@1@EA 0000000180069878     libcpmt:iosptrs.obj
 0003:00001880       ?_Ptr_cerr@std@@3PEAV?$basic_ostream@DU?$char_traits@D@std@@@1@EA 0000000180069880     libcpmt:iosptrs.obj
 0003:00001888       ?_Ptr_clog@std@@3PEAV?$basic_ostream@DU?$char_traits@D@std@@@1@EA 0000000180069888     libcpmt:iosptrs.obj
 0003:00001890       ?_Ptr_wcin@std@@3PEAV?$basic_istream@_WU?$char_traits@_W@std@@@1@EA 0000000180069890     libcpmt:iosptrs.obj
 0003:00001898       ?_Ptr_wcout@std@@3PEAV?$basic_ostream@_WU?$char_traits@_W@std@@@1@EA 0000000180069898     libcpmt:iosptrs.obj
 0003:000018a0       ?_Ptr_wcerr@std@@3PEAV?$basic_ostream@_WU?$char_traits@_W@std@@@1@EA 00000001800698a0     libcpmt:iosptrs.obj
 0003:000018a8       ?_Ptr_wclog@std@@3PEAV?$basic_ostream@_WU?$char_traits@_W@std@@@1@EA 00000001800698a8     libcpmt:iosptrs.obj
 0003:00001910       ?id@?$time_put@_WV?$ostreambuf_iterator@_WU?$char_traits@_W@std@@@std@@@std@@2V0locale@2@A 0000000180069910     libcpmt:wlocale.obj
 0003:00001918       ?id@?$num_get@_WV?$istreambuf_iterator@_WU?$char_traits@_W@std@@@std@@@std@@2V0locale@2@A 0000000180069918     libcpmt:wlocale.obj
 0003:00001920       ?id@?$num_put@_WV?$ostreambuf_iterator@_WU?$char_traits@_W@std@@@std@@@std@@2V0locale@2@A 0000000180069920     libcpmt:wlocale.obj
 0003:00001928       ?id@?$collate@_W@std@@2V0locale@2@A 0000000180069928     libcpmt:wlocale.obj
 0003:00001930       ?id@?$messages@_W@std@@2V0locale@2@A 0000000180069930     libcpmt:wlocale.obj
 0003:00001938       ?id@?$money_get@_WV?$istreambuf_iterator@_WU?$char_traits@_W@std@@@std@@@std@@2V0locale@2@A 0000000180069938     libcpmt:wlocale.obj
 0003:00001940       ?id@?$money_put@_WV?$ostreambuf_iterator@_WU?$char_traits@_W@std@@@std@@@std@@2V0locale@2@A 0000000180069940     libcpmt:wlocale.obj
 0003:00001948       ?id@?$moneypunct@_W$0A@@std@@2V0locale@2@A 0000000180069948     libcpmt:wlocale.obj
 0003:00001950       ?id@?$moneypunct@_W$00@std@@2V0locale@2@A 0000000180069950     libcpmt:wlocale.obj
 0003:00001958       ?id@?$time_get@_WV?$istreambuf_iterator@_WU?$char_traits@_W@std@@@std@@@std@@2V0locale@2@A 0000000180069958     libcpmt:wlocale.obj
 0003:00001960       ?id@?$num_get@GV?$istreambuf_iterator@GU?$char_traits@G@std@@@std@@@std@@2V0locale@2@A 0000000180069960     libcpmt:wlocale.obj
 0003:00001968       ?id@?$num_put@GV?$ostreambuf_iterator@GU?$char_traits@G@std@@@std@@@std@@2V0locale@2@A 0000000180069968     libcpmt:wlocale.obj
 0003:00001970       ?id@?$numpunct@G@std@@2V0locale@2@A 0000000180069970     libcpmt:wlocale.obj
 0003:00001978       ?id@?$collate@G@std@@2V0locale@2@A 0000000180069978     libcpmt:wlocale.obj
 0003:00001980       ?id@?$messages@G@std@@2V0locale@2@A 0000000180069980     libcpmt:wlocale.obj
 0003:00001988       ?id@?$money_get@GV?$istreambuf_iterator@GU?$char_traits@G@std@@@std@@@std@@2V0locale@2@A 0000000180069988     libcpmt:wlocale.obj
 0003:00001990       ?id@?$money_put@GV?$ostreambuf_iterator@GU?$char_traits@G@std@@@std@@@std@@2V0locale@2@A 0000000180069990     libcpmt:wlocale.obj
 0003:00001998       ?id@?$moneypunct@G$0A@@std@@2V0locale@2@A 0000000180069998     libcpmt:wlocale.obj
 0003:000019a0       ?id@?$moneypunct@G$00@std@@2V0locale@2@A 00000001800699a0     libcpmt:wlocale.obj
 0003:000019a8       ?id@?$time_get@GV?$istreambuf_iterator@GU?$char_traits@G@std@@@std@@@std@@2V0locale@2@A 00000001800699a8     libcpmt:wlocale.obj
 0003:000019b0       ?id@?$time_put@GV?$ostreambuf_iterator@GU?$char_traits@G@std@@@std@@@std@@2V0locale@2@A 00000001800699b0     libcpmt:wlocale.obj
 0003:000019b8       ?id@?$collate@D@std@@2V0locale@2@A 00000001800699b8     libcpmt:xlocale.obj
 0003:000019c0       ?id@?$messages@D@std@@2V0locale@2@A 00000001800699c0     libcpmt:xlocale.obj
 0003:000019c8       ?id@?$money_get@DV?$istreambuf_iterator@DU?$char_traits@D@std@@@std@@@std@@2V0locale@2@A 00000001800699c8     libcpmt:xlocale.obj
 0003:000019d0       ?id@?$money_put@DV?$ostreambuf_iterator@DU?$char_traits@D@std@@@std@@@std@@2V0locale@2@A 00000001800699d0     libcpmt:xlocale.obj
 0003:000019d8       ?id@?$moneypunct@D$0A@@std@@2V0locale@2@A 00000001800699d8     libcpmt:xlocale.obj
 0003:000019e0       ?id@?$moneypunct@D$00@std@@2V0locale@2@A 00000001800699e0     libcpmt:xlocale.obj
 0003:000019e8       ?id@?$time_get@DV?$istreambuf_iterator@DU?$char_traits@D@std@@@std@@@std@@2V0locale@2@A 00000001800699e8     libcpmt:xlocale.obj
 0003:000019f0       ?id@?$time_put@DV?$ostreambuf_iterator@DU?$char_traits@D@std@@@std@@@std@@2V0locale@2@A 00000001800699f0     libcpmt:xlocale.obj
 0003:000019f8       __scrt_current_native_startup_state 00000001800699f8     LIBCMT:utility.obj
 0003:00001a00       __scrt_native_startup_lock 0000000180069a00     LIBCMT:utility.obj
 0003:00001fb4       __favor                    0000000180069fb4     LIBCMT:cpu_disp.obj
 0003:00001fb8       __scrt_debugger_hook_flag  0000000180069fb8     LIBCMT:utility_desktop.obj
 0003:00001fc0       ?__type_info_root_node@@3U__type_info_node@@A 0000000180069fc0     LIBCMT:tncleanup.obj
 0003:00001fd0       ?_OptionsStorage@?1??__local_stdio_scanf_options@@9@4_KA 0000000180069fd0     LIBCMT:default_local_stdio_options.obj
 0003:00001fd8       ?__WinRTOutOfMemoryExceptionCallback@@3P6APEAXXZEA 0000000180069fd8     libvcruntime:ehhelpers.obj
 0003:00002060       __pPurecall                000000018006a060     libvcruntime:purevirt_data.obj
 0003:00002098       ?pArgList@UnDecorator@@0PEAVReplicator@@EA 000000018006a098     libvcruntime:undname.obj
 0003:000020a0       ?pZNameList@UnDecorator@@0PEAVReplicator@@EA 000000018006a0a0     libvcruntime:undname.obj
 0003:000020a8       ?pTemplateArgList@UnDecorator@@0PEAVReplicator@@EA 000000018006a0a8     libvcruntime:undname.obj
 0003:000020b0       ?gName@UnDecorator@@0PEBDEB 000000018006a0b0     libvcruntime:undname.obj
 0003:000020b8       ?name@UnDecorator@@0PEBDEB 000000018006a0b8     libvcruntime:undname.obj
 0003:000020c0       ?disableFlags@UnDecorator@@0KA 000000018006a0c0     libvcruntime:undname.obj
 0003:000020c4       ?fExplicitTemplateParams@UnDecorator@@0_NA 000000018006a0c4     libvcruntime:undname.obj
 0003:000020c5       ?fGetTemplateArgumentList@UnDecorator@@0_NA 000000018006a0c5     libvcruntime:undname.obj
 0003:000020c8       ?m_pGetParameter@UnDecorator@@0P6APEADJ@ZEA 000000018006a0c8     libvcruntime:undname.obj
 0003:000020d0       ?m_CHPENameOffset@UnDecorator@@0KA 000000018006a0d0     libvcruntime:undname.obj
 0003:000020d4       ?m_recursionLevel@UnDecorator@@0KA 000000018006a0d4     libvcruntime:undname.obj
 0003:00002148       _nstream                   000000018006a148     libucrt:_file.obj
 0003:00002150       __piob                     000000018006a150     libucrt:_file.obj
 0003:00002158       __acrt_lconv_static_null   000000018006a158     libucrt:localeconv.obj
 0003:0000215c       __acrt_lconv_static_W_null 000000018006a15c     libucrt:localeconv.obj
 0003:000023a0       ?c_exit_complete@?1???R<lambda_6e4b09c48022b2350581041d5f6b0c4c>@@QEBA@XZ@4_NA 000000018006a3a0     libucrt:exit.obj
 0003:000024b8       _environ_table             000000018006a4b8     libucrt:environment_initialization.obj
 0003:000024c0       _wenviron_table            000000018006a4c0     libucrt:environment_initialization.obj
 0003:000024c8       __dcrt_initial_wide_environment 000000018006a4c8     libucrt:environment_initialization.obj
 0003:000024d0       __dcrt_initial_narrow_environment 000000018006a4d0     libucrt:environment_initialization.obj
 0003:000024d8       __acrt_atexit_table        000000018006a4d8     libucrt:onexit.obj
 0003:000024f0       __acrt_at_quick_exit_table 000000018006a4f0     libucrt:onexit.obj
 0003:00002510       __pioinfo                  000000018006a510     libucrt:ioinit.obj
 0003:00002910       _nhandle                   000000018006a910     libucrt:ioinit.obj
 0003:00002ae8       __acrt_stdout_buffer       000000018006aae8     libucrt:_sftbuf.obj
 0003:00002af0       __acrt_stderr_buffer       000000018006aaf0     libucrt:_sftbuf.obj
 0003:00002af8       __acrt_locale_changed_data 000000018006aaf8     libucrt:wsetlocale.obj
 0003:00002b00       __acrt_current_locale_data 000000018006ab00     libucrt:nlsdata.obj
 0003:00002b08       __fma3_is_available        000000018006ab08     libucrt:fma3_available.obj
 0003:00002b0c       __use_fma3_lib             000000018006ab0c     libucrt:fma3_available.obj
 0003:00002b30       ?_timezone@@3V?$dual_state_global@J@__crt_state_management@@A 000000018006ab30     libucrt:timeset.obj
 0003:00002b34       ?_daylight@@3V?$dual_state_global@H@__crt_state_management@@A 000000018006ab34     libucrt:timeset.obj
 0003:00002b38       ?_dstbias@@3V?$dual_state_global@J@__crt_state_management@@A 000000018006ab38     libucrt:timeset.obj
 0003:00002c10       _mbctype                   000000018006ac10     libucrt:mbctype.obj
 0003:00002c18       _mbcasemap                 000000018006ac18     libucrt:mbctype.obj
 0003:00002c20       __acrt_current_multibyte_data 000000018006ac20     libucrt:mbctype.obj
 0003:00002c30       _pgmptr                    000000018006ac30     libucrt:argv_data.obj
 0003:00002c38       __argc                     000000018006ac38     libucrt:argv_data.obj
 0003:00002c40       __argv                     000000018006ac40     libucrt:argv_data.obj
 0003:00002c48       __wargv                    000000018006ac48     libucrt:argv_data.obj
 0003:00002c50       _acmdln                    000000018006ac50     libucrt:argv_data.obj
 0003:00002c58       _wcmdln                    000000018006ac58     libucrt:argv_data.obj
 0003:00002c60       __acrt_heap                000000018006ac60     libucrt:heap_handle.obj
 0003:00002c88       ?_OptionsStorage@?1??__local_stdio_printf_options@@9@4_KA 000000018006ac88     format.obj
 0003:00002c90       ?_Psave@?$_Facetptr@V?$numpunct@_W@std@@@std@@2PEBVfacet@locale@2@EB 000000018006ac90     format.obj
 0003:00002cb0       ?Opt@@3Uoptions@@A         000000018006acb0     Proclist.obj
 0003:00002ce0       ?PsInfo@@3UPluginStartupInfo@@A 000000018006ace0     Proclist.obj
 0003:00002e00       ?FSF@@3UFarStandardFunctions@@A 000000018006ae00     Proclist.obj
 0003:00002f98       ?m_PanelModesDataRemote@Plist@@0V?$vector@Umode@@V?$allocator@Umode@@@std@@@std@@A 000000018006af98     fileio.obj
 0003:00002fb0       ?m_PanelModesDataLocal@Plist@@0V?$vector@Umode@@V?$allocator@Umode@@@std@@@std@@A 000000018006afb0     fileio.obj
 0003:00002fc8       ?id@?$numpunct@_W@std@@2V0locale@2@A 000000018006afc8     format.obj
 0003:00002fd0       ?id@?$numpunct@D@std@@2V0locale@2@A 000000018006afd0     format.obj
 0003:00004668       __dyn_tls_init_callback    000000018006c668     <common>
 0003:00004670       __scrt_ucrt_dll_is_in_use  000000018006c670     <common>

 entry point at        0001:0002d858

 Static symbols

 0000:fff8b000       .debug$S                   0000000180000000     ProcList.exp
 0000:fff8b000       .debug$S                   0000000180000000     advapi32:ADVAPI32.dll
 0000:fff8b000       .debug$S                   0000000180000000     advapi32:ADVAPI32.dll
 0000:fff8b000       .debug$S                   0000000180000000     advapi32:ADVAPI32.dll
 0000:fff8b000       .debug$S                   0000000180000000     advapi32:ADVAPI32.dll
 0000:fff8b000       .debug$S                   0000000180000000     advapi32:ADVAPI32.dll
 0000:fff8b000       .debug$S                   0000000180000000     advapi32:ADVAPI32.dll
 0000:fff8b000       .debug$S                   0000000180000000     advapi32:ADVAPI32.dll
 0000:fff8b000       .debug$S                   0000000180000000     advapi32:ADVAPI32.dll
 0000:fff8b000       .debug$S                   0000000180000000     advapi32:ADVAPI32.dll
 0000:fff8b000       .debug$S                   0000000180000000     advapi32:ADVAPI32.dll
 0000:fff8b000       .debug$S                   0000000180000000     advapi32:ADVAPI32.dll
 0000:fff8b000       .debug$S                   0000000180000000     advapi32:ADVAPI32.dll
 0000:fff8b000       .debug$S                   0000000180000000     kernel32:KERNEL32.dll
 0000:fff8b000       .debug$S                   0000000180000000     kernel32:KERNEL32.dll
 0000:fff8b000       .debug$S                   0000000180000000     kernel32:KERNEL32.dll
 0000:fff8b000       .debug$S                   0000000180000000     kernel32:KERNEL32.dll
 0000:fff8b000       .debug$S                   0000000180000000     kernel32:KERNEL32.dll
 0000:fff8b000       .debug$S                   0000000180000000     kernel32:KERNEL32.dll
 0000:fff8b000       .debug$S                   0000000180000000     kernel32:KERNEL32.dll
 0000:fff8b000       .debug$S                   0000000180000000     kernel32:KERNEL32.dll
 0000:fff8b000       .debug$S                   0000000180000000     kernel32:KERNEL32.dll
 0000:fff8b000       .debug$S                   0000000180000000     kernel32:KERNEL32.dll
 0000:fff8b000       .debug$S                   0000000180000000     kernel32:KERNEL32.dll
 0000:fff8b000       .debug$S                   0000000180000000     kernel32:KERNEL32.dll
 0000:fff8b000       .debug$S                   0000000180000000     kernel32:KERNEL32.dll
 0000:fff8b000       .debug$S                   0000000180000000     kernel32:KERNEL32.dll
 0000:fff8b000       .debug$S                   0000000180000000     kernel32:KERNEL32.dll
 0000:fff8b000       .debug$S                   0000000180000000     kernel32:KERNEL32.dll
 0000:fff8b000       .debug$S                   0000000180000000     kernel32:KERNEL32.dll
 0000:fff8b000       .debug$S                   0000000180000000     kernel32:KERNEL32.dll
 0000:fff8b000       .debug$S                   0000000180000000     kernel32:KERNEL32.dll
 0000:fff8b000       .debug$S                   0000000180000000     kernel32:KERNEL32.dll
 0000:fff8b000       .debug$S                   0000000180000000     kernel32:KERNEL32.dll
 0000:fff8b000       .debug$S                   0000000180000000     kernel32:KERNEL32.dll
 0000:fff8b000       .debug$S                   0000000180000000     kernel32:KERNEL32.dll
 0000:fff8b000       .debug$S                   0000000180000000     kernel32:KERNEL32.dll
 0000:fff8b000       .debug$S                   0000000180000000     kernel32:KERNEL32.dll
 0000:fff8b000       .debug$S                   0000000180000000     kernel32:KERNEL32.dll
 0000:fff8b000       .debug$S                   0000000180000000     kernel32:KERNEL32.dll
 0000:fff8b000       .debug$S                   0000000180000000     kernel32:KERNEL32.dll
 0000:fff8b000       .debug$S                   0000000180000000     kernel32:KERNEL32.dll
 0000:fff8b000       .debug$S                   0000000180000000     kernel32:KERNEL32.dll
 0000:fff8b000       .debug$S                   0000000180000000     kernel32:KERNEL32.dll
 0000:fff8b000       .debug$S                   0000000180000000     kernel32:KERNEL32.dll
 0000:fff8b000       .debug$S                   0000000180000000     kernel32:KERNEL32.dll
 0000:fff8b000       .debug$S                   0000000180000000     kernel32:KERNEL32.dll
 0000:fff8b000       .debug$S                   0000000180000000     kernel32:KERNEL32.dll
 0000:fff8b000       .debug$S                   0000000180000000     kernel32:KERNEL32.dll
 0000:fff8b000       .debug$S                   0000000180000000     kernel32:KERNEL32.dll
 0000:fff8b000       .debug$S                   0000000180000000     kernel32:KERNEL32.dll
 0000:fff8b000       .debug$S                   0000000180000000     kernel32:KERNEL32.dll
 0000:fff8b000       .debug$S                   0000000180000000     kernel32:KERNEL32.dll
 0000:fff8b000       .debug$S                   0000000180000000     kernel32:KERNEL32.dll
 0000:fff8b000       .debug$S                   0000000180000000     kernel32:KERNEL32.dll
 0000:fff8b000       .debug$S                   0000000180000000     kernel32:KERNEL32.dll
 0000:fff8b000       .debug$S                   0000000180000000     kernel32:KERNEL32.dll
 0000:fff8b000       .debug$S                   0000000180000000     kernel32:KERNEL32.dll
 0000:fff8b000       .debug$S                   0000000180000000     kernel32:KERNEL32.dll
 0000:fff8b000       .debug$S                   0000000180000000     kernel32:KERNEL32.dll
 0000:fff8b000       .debug$S                   0000000180000000     kernel32:KERNEL32.dll
 0000:fff8b000       .debug$S                   0000000180000000     kernel32:KERNEL32.dll
 0000:fff8b000       .debug$S                   0000000180000000     kernel32:KERNEL32.dll
 0000:fff8b000       .debug$S                   0000000180000000     kernel32:KERNEL32.dll
 0000:fff8b000       .debug$S                   0000000180000000     kernel32:KERNEL32.dll
 0000:fff8b000       .debug$S                   0000000180000000     kernel32:KERNEL32.dll
 0000:fff8b000       .debug$S                   0000000180000000     kernel32:KERNEL32.dll
 0000:fff8b000       .debug$S                   0000000180000000     kernel32:KERNEL32.dll
 0000:fff8b000       .debug$S                   0000000180000000     kernel32:KERNEL32.dll
 0000:fff8b000       .debug$S                   0000000180000000     kernel32:KERNEL32.dll
 0000:fff8b000       .debug$S                   0000000180000000     kernel32:KERNEL32.dll
 0000:fff8b000       .debug$S                   0000000180000000     kernel32:KERNEL32.dll
 0000:fff8b000       .debug$S                   0000000180000000     kernel32:KERNEL32.dll
 0000:fff8b000       .debug$S                   0000000180000000     kernel32:KERNEL32.dll
 0000:fff8b000       .debug$S                   0000000180000000     kernel32:KERNEL32.dll
 0000:fff8b000       .debug$S                   0000000180000000     kernel32:KERNEL32.dll
 0000:fff8b000       .debug$S                   0000000180000000     kernel32:KERNEL32.dll
 0000:fff8b000       .debug$S                   0000000180000000     kernel32:KERNEL32.dll
 0000:fff8b000       .debug$S                   0000000180000000     kernel32:KERNEL32.dll
 0000:fff8b000       .debug$S                   0000000180000000     kernel32:KERNEL32.dll
 0000:fff8b000       .debug$S                   0000000180000000     kernel32:KERNEL32.dll
 0000:fff8b000       .debug$S                   0000000180000000     kernel32:KERNEL32.dll
 0000:fff8b000       .debug$S                   0000000180000000     kernel32:KERNEL32.dll
 0000:fff8b000       .debug$S                   0000000180000000     kernel32:KERNEL32.dll
 0000:fff8b000       .debug$S                   0000000180000000     kernel32:KERNEL32.dll
 0000:fff8b000       .debug$S                   0000000180000000     kernel32:KERNEL32.dll
 0000:fff8b000       .debug$S                   0000000180000000     kernel32:KERNEL32.dll
 0000:fff8b000       .debug$S                   0000000180000000     kernel32:KERNEL32.dll
 0000:fff8b000       .debug$S                   0000000180000000     kernel32:KERNEL32.dll
 0000:fff8b000       .debug$S                   0000000180000000     kernel32:KERNEL32.dll
 0000:fff8b000       .debug$S                   0000000180000000     kernel32:KERNEL32.dll
 0000:fff8b000       .debug$S                   0000000180000000     kernel32:KERNEL32.dll
 0000:fff8b000       .debug$S                   0000000180000000     kernel32:KERNEL32.dll
 0000:fff8b000       .debug$S                   0000000180000000     kernel32:KERNEL32.dll
 0000:fff8b000       .debug$S                   0000000180000000     kernel32:KERNEL32.dll
 0000:fff8b000       .debug$S                   0000000180000000     kernel32:KERNEL32.dll
 0000:fff8b000       .debug$S                   0000000180000000     kernel32:KERNEL32.dll
 0000:fff8b000       .debug$S                   0000000180000000     kernel32:KERNEL32.dll
 0000:fff8b000       .debug$S                   0000000180000000     kernel32:KERNEL32.dll
 0000:fff8b000       .debug$S                   0000000180000000     kernel32:KERNEL32.dll
 0000:fff8b000       .debug$S                   0000000180000000     kernel32:KERNEL32.dll
 0000:fff8b000       .debug$S                   0000000180000000     kernel32:KERNEL32.dll
 0000:fff8b000       .debug$S                   0000000180000000     kernel32:KERNEL32.dll
 0000:fff8b000       .debug$S                   0000000180000000     kernel32:KERNEL32.dll
 0000:fff8b000       .debug$S                   0000000180000000     kernel32:KERNEL32.dll
 0000:fff8b000       .debug$S                   0000000180000000     kernel32:KERNEL32.dll
 0000:fff8b000       .debug$S                   0000000180000000     kernel32:KERNEL32.dll
 0000:fff8b000       .debug$S                   0000000180000000     kernel32:KERNEL32.dll
 0000:fff8b000       .debug$S                   0000000180000000     kernel32:KERNEL32.dll
 0000:fff8b000       .debug$S                   0000000180000000     kernel32:KERNEL32.dll
 0000:fff8b000       .debug$S                   0000000180000000     kernel32:KERNEL32.dll
 0000:fff8b000       .debug$S                   0000000180000000     kernel32:KERNEL32.dll
 0000:fff8b000       .debug$S                   0000000180000000     kernel32:KERNEL32.dll
 0000:fff8b000       .debug$S                   0000000180000000     kernel32:KERNEL32.dll
 0000:fff8b000       .debug$S                   0000000180000000     kernel32:KERNEL32.dll
 0000:fff8b000       .debug$S                   0000000180000000     kernel32:KERNEL32.dll
 0000:fff8b000       .debug$S                   0000000180000000     kernel32:KERNEL32.dll
 0000:fff8b000       .debug$S                   0000000180000000     kernel32:KERNEL32.dll
 0000:fff8b000       .debug$S                   0000000180000000     kernel32:KERNEL32.dll
 0000:fff8b000       .debug$S                   0000000180000000     kernel32:KERNEL32.dll
 0000:fff8b000       .debug$S                   0000000180000000     kernel32:KERNEL32.dll
 0000:fff8b000       .debug$S                   0000000180000000     kernel32:KERNEL32.dll
 0000:fff8b000       .debug$S                   0000000180000000     kernel32:KERNEL32.dll
 0000:fff8b000       .debug$S                   0000000180000000     kernel32:KERNEL32.dll
 0000:fff8b000       .debug$S                   0000000180000000     kernel32:KERNEL32.dll
 0000:fff8b000       .debug$S                   0000000180000000     kernel32:KERNEL32.dll
 0000:fff8b000       .debug$S                   0000000180000000     kernel32:KERNEL32.dll
 0000:fff8b000       .debug$S                   0000000180000000     mpr:MPR.dll
 0000:fff8b000       .debug$S                   0000000180000000     mpr:MPR.dll
 0000:fff8b000       .debug$S                   0000000180000000     ole32:ole32.dll
 0000:fff8b000       .debug$S                   0000000180000000     ole32:ole32.dll
 0000:fff8b000       .debug$S                   0000000180000000     ole32:ole32.dll
 0000:fff8b000       .debug$S                   0000000180000000     oleaut32:OLEAUT32.dll
 0000:fff8b000       .debug$S                   0000000180000000     oleaut32:OLEAUT32.dll
 0000:fff8b000       .debug$S                   0000000180000000     oleaut32:OLEAUT32.dll
 0000:fff8b000       .debug$S                   0000000180000000     psapi:PSAPI.DLL
 0000:fff8b000       .debug$S                   0000000180000000     psapi:PSAPI.DLL
 0000:fff8b000       .debug$S                   0000000180000000     user32:USER32.dll
 0000:fff8b000       .debug$S                   0000000180000000     user32:USER32.dll
 0000:fff8b000       .debug$S                   0000000180000000     user32:USER32.dll
 0000:fff8b000       .debug$S                   0000000180000000     user32:USER32.dll
 0000:fff8b000       .debug$S                   0000000180000000     user32:USER32.dll
 0000:fff8b000       .debug$S                   0000000180000000     user32:USER32.dll
 0000:fff8b000       .debug$S                   0000000180000000     user32:USER32.dll
 0000:fff8b000       .debug$S                   0000000180000000     user32:USER32.dll
 0000:fff8b000       .debug$S                   0000000180000000     user32:USER32.dll
 0000:fff8b000       .debug$S                   0000000180000000     user32:USER32.dll
 0000:fff8b000       .debug$S                   0000000180000000     user32:USER32.dll
 0000:fff8b000       .debug$S                   0000000180000000     user32:USER32.dll
 0000:fff8b000       .debug$S                   0000000180000000     version:VERSION.dll
 0000:fff8b000       .debug$S                   0000000180000000     version:VERSION.dll
 0000:fff8b000       .debug$S                   0000000180000000     version:VERSION.dll
 0001:00000000       ??__E?m_PanelModesDataLocal@Plist@@0V?$vector@Umode@@V?$allocator@Umode@@@std@@@std@@A@@YAXXZ 0000000180001000 f   fileio.obj
 0001:00000010       ??__E?m_PanelModesDataRemote@Plist@@0V?$vector@Umode@@V?$allocator@Umode@@@std@@@std@@A@@YAXXZ 0000000180001010 f   fileio.obj
 0001:00000020       ??__EhDebugToken@@YAXXZ    0000000180001020 f   Plist.obj
 0001:0000002c       ??__Einitlocks@std@@YAXXZ  000000018000102c f   libcpmt:xlock.obj
 0001:0000004c       ??__E_Fac_tidy_reg@std@@YAXXZ 000000018000104c f   libcpmt:locale0.obj
 0001:00000058       ??__Eclassic_locale@std@@YAXXZ 0000000180001058 f   libcpmt:locale0.obj
 0001:00000064       ??__Einit_atexit@@YAXXZ    0000000180001064 f   libcpmt:iosptrs.obj
 0001:00000070       ??__Einitlocks@std@@YAXXZ  0000000180001070 f   libcpmt:iosptrs.obj
 0001:000015d4       $LN157                     00000001800025d4     format.obj
 0001:000067b0       ?query_object@@YA?AV?$unique_ptr@$$BY0A@DU?$default_delete@$$BY0A@D@std@@@std@@PEAXW4_OBJECT_INFORMATION_CLASS@@@Z 00000001800077b0 f   handles.obj
 0001:00006870       ?GetFileNameThread@test@?4??GetFileName@@YA?AV?$basic_string@_WU?$char_traits@_W@std@@V?$allocator@_W@2@@std@@PEAX@Z@SAK0@Z 0000000180007870 f   handles.obj
 0001:000068d0       ??R<lambda_1>@?1??GetUserAccountID@@YA@XZ@QEBA?AV?$basic_string@_WU?$char_traits@_W@std@@V?$allocator@_W@2@@std@@XZ 00000001800078d0 f   handles.obj
 0001:00006b00       ?GetNameByType@@YA?AV?$basic_string@_WU?$char_traits@_W@std@@V?$allocator@_W@2@@std@@PEAXGPEAVPerfThread@@@Z 0000000180007b00 f   handles.obj
 0001:00007290       ?duplicate_handle@@YA?AV?$unique_ptr@XUhandle_closer@@@std@@PEAXK@Z 0000000180008290 f   handles.obj
 0001:00007c50       ?on_text@format_handler@?1???$vformat_to@_W@detail@v8@fmt@@YAXAEAV?$buffer@_W@234@V?$basic_string_view@_W@34@V?$basic_format_args@V?$basic_format_context@V?$back_insert_iterator@V?$buffer@_W@detail@v8@fmt@@@std@@_W@v8@fmt@@@34@Vlocale_ref@234@@Z@QEAAXPEB_W4@Z 0000000180008c50 f   handles.obj
 0001:00007cc0       ?on_replacement_field@format_handler@?1???$vformat_to@_W@detail@v8@fmt@@YAXAEAV?$buffer@_W@234@V?$basic_string_view@_W@34@V?$basic_format_args@V?$basic_format_context@V?$back_insert_iterator@V?$buffer@_W@detail@v8@fmt@@@std@@_W@v8@fmt@@@34@Vlocale_ref@234@@Z@QEAAXHPEB_W@Z 0000000180008cc0 f   handles.obj
 0001:00008624       $LN470                     0000000180009624     handles.obj
 0001:00008d60       $LN172                     0000000180009d60     handles.obj
 0001:00008da0       ??$parse_format_string@$0A@_WUformat_handler@?1???$vformat_to@_W@detail@v8@fmt@@YAXAEAV?$buffer@_W@234@V?$basic_string_view@_W@34@V?$basic_format_args@V?$basic_format_context@V?$back_insert_iterator@V?$buffer@_W@detail@v8@fmt@@@std@@_W@v8@fmt@@@34@Vlocale_ref@234@@Z@@detail@v8@fmt@@YAXV?$basic_string_view@_W@12@$$QEAUformat_handler@?1???$vformat_to@_W@012@YAXAEAV?$buffer@_W@012@0V?$basic_format_args@V?$basic_format_context@V?$back_insert_iterator@V?$buffer@_W@detail@v8@fmt@@@std@@_W@v8@fmt@@@12@Vlocale_ref@012@@Z@@Z 0000000180009da0 f   handles.obj
 0001:00009090       ??Rwriter@?1???$parse_format_string@$0A@_WUformat_handler@?1???$vformat_to@_W@detail@v8@fmt@@YAXAEAV?$buffer@_W@234@V?$basic_string_view@_W@34@V?$basic_format_args@V?$basic_format_context@V?$back_insert_iterator@V?$buffer@_W@detail@v8@fmt@@@std@@_W@v8@fmt@@@34@Vlocale_ref@234@@Z@@detail@v8@fmt@@YAXV?$basic_string_view@_W@23@$$QEAUformat_handler@?1???$vformat_to@_W@123@YAXAEAV?$buffer@_W@123@0V?$basic_format_args@V?$basic_format_context@V?$back_insert_iterator@V?$buffer@_W@detail@v8@fmt@@@std@@_W@v8@fmt@@@23@Vlocale_ref@123@@Z@@Z@QEAAXPEB_W5@Z 000000018000a090 f   handles.obj
 0001:00009260       $LN24                      000000018000a260     handles.obj
 0001:000092a8       $LN23                      000000018000a2a8     handles.obj
 0001:00009ee0       ??$parse_replacement_field@_WAEAUformat_handler@?1???$vformat_to@_W@detail@v8@fmt@@YAXAEAV?$buffer@_W@234@V?$basic_string_view@_W@34@V?$basic_format_args@V?$basic_format_context@V?$back_insert_iterator@V?$buffer@_W@detail@v8@fmt@@@std@@_W@v8@fmt@@@34@Vlocale_ref@234@@Z@@detail@v8@fmt@@YAPEB_WPEB_W0AEAUformat_handler@?1???$vformat_to@_W@012@YAXAEAV?$buffer@_W@012@V?$basic_string_view@_W@12@V?$basic_format_args@V?$basic_format_context@V?$back_insert_iterator@V?$buffer@_W@detail@v8@fmt@@@std@@_W@v8@fmt@@@12@Vlocale_ref@012@@Z@@Z 000000018000aee0 f   handles.obj
 0001:0000c610       $LN40                      000000018000d610     handles.obj
 0001:0000c650       ??$do_parse_arg_id@_WAEAUid_adapter@?1???$parse_replacement_field@_WAEAUformat_handler@?1???$vformat_to@_W@detail@v8@fmt@@YAXAEAV?$buffer@_W@234@V?$basic_string_view@_W@34@V?$basic_format_args@V?$basic_format_context@V?$back_insert_iterator@V?$buffer@_W@detail@v8@fmt@@@std@@_W@v8@fmt@@@34@Vlocale_ref@234@@Z@@detail@v8@fmt@@YAPEB_WPEB_W0AEAUformat_handler@?1???$vformat_to@_W@234@YAXAEAV?$buffer@_W@234@V?$basic_string_view@_W@34@V?$basic_format_args@V?$basic_format_context@V?$back_insert_iterator@V?$buffer@_W@detail@v8@fmt@@@std@@_W@v8@fmt@@@34@Vlocale_ref@234@@Z@@Z@@detail@v8@fmt@@YAPEB_WPEB_W0AEAUid_adapter@?1???$parse_replacement_field@_WAEAUformat_handler@?1???$vformat_to@_W@detail@v8@fmt@@YAXAEAV?$buffer@_W@234@V?$basic_string_view@_W@34@V?$basic_format_args@V?$basic_format_context@V?$back_insert_iterator@V?$buffer@_W@detail@v8@fmt@@@std@@_W@v8@fmt@@@34@Vlocale_ref@234@@Z@@012@YAPEB_W00AEAUformat_handler@?1???$vformat_to@_W@012@YAXAEAV?$buffer@_W@012@V?$basic_string_view@_W@12@V?$basic_format_args@V?$basic_format_context@V?$back_insert_iterator@V?$buffer@_W@detail@v8@fmt@@@std@@_W@v8@fmt@@@12@Vlocale_ref@012@@Z@@Z@@Z 000000018000d650 f   handles.obj
 0001:0000d080       $LN224                     000000018000e080     handles.obj
 0001:0000db30       ??R<lambda_2>@?4???$do_write_float@V?$back_insert_iterator@V?$buffer@_W@detail@v8@fmt@@@std@@U?$decimal_fp@M@dragonbox@detail@v8@fmt@@_WV?$digit_grouping@_W@567@@detail@v8@fmt@@YA?AV?$back_insert_iterator@V?$buffer@_W@detail@v8@fmt@@@std@@V45@AEBU?$decimal_fp@M@dragonbox@123@AEBU?$basic_format_specs@_W@23@Ufloat_specs@123@Vlocale_ref@123@@Z@QEBA?AV45@0@Z 000000018000eb30 f   handles.obj
 0001:0000e2d0       ??R<lambda_2>@?4???$do_write_float@V?$back_insert_iterator@V?$buffer@_W@detail@v8@fmt@@@std@@U?$decimal_fp@N@dragonbox@detail@v8@fmt@@_WV?$digit_grouping@_W@567@@detail@v8@fmt@@YA?AV?$back_insert_iterator@V?$buffer@_W@detail@v8@fmt@@@std@@V45@AEBU?$decimal_fp@N@dragonbox@123@AEBU?$basic_format_specs@_W@23@Ufloat_specs@123@Vlocale_ref@123@@Z@QEBA?AV45@0@Z 000000018000f2d0 f   handles.obj
 0001:0000e7cc       $LN162                     000000018000f7cc     handles.obj
 0001:0000ea5c       $LN162                     000000018000fa5c     handles.obj
 0001:0000f07c       $LN234                     000000018001007c     handles.obj
 0001:0000f920       ??R<lambda_2>@?4???$do_write_float@V?$back_insert_iterator@V?$buffer@_W@detail@v8@fmt@@@std@@Ubig_decimal_fp@detail@v8@fmt@@_WV?$digit_grouping@_W@456@@detail@v8@fmt@@YA?AV?$back_insert_iterator@V?$buffer@_W@detail@v8@fmt@@@std@@V45@AEBUbig_decimal_fp@123@AEBU?$basic_format_specs@_W@23@Ufloat_specs@123@Vlocale_ref@123@@Z@QEBA?AV45@0@Z 0000000180010920 f   handles.obj
 0001:00010100       ??$write_padded@$00V?$back_insert_iterator@V?$buffer@_W@detail@v8@fmt@@@std@@_WAEAV<lambda_1>@?1???$write_nonfinite@_WV?$back_insert_iterator@V?$buffer@_W@detail@v8@fmt@@@std@@@detail@v8@fmt@@YA?AV12@V12@_NU?$basic_format_specs@_W@56@AEBUfloat_specs@456@@Z@@detail@v8@fmt@@YA?AV?$back_insert_iterator@V?$buffer@_W@detail@v8@fmt@@@std@@V34@AEBU?$basic_format_specs@_W@12@_K2AEAV<lambda_1>@?1???$write_nonfinite@_WV?$back_insert_iterator@V?$buffer@_W@detail@v8@fmt@@@std@@@012@YA?AV34@0_NU512@AEBUfloat_specs@012@@Z@@Z 0000000180011100 f   handles.obj
 0001:00010d80       ??$write_padded@$01V?$back_insert_iterator@V?$buffer@_W@detail@v8@fmt@@@std@@_WAEAV<lambda_1>@?1???$write_ptr@_WV?$back_insert_iterator@V?$buffer@_W@detail@v8@fmt@@@std@@_K@detail@v8@fmt@@YA?AV12@V12@_KPEBU?$basic_format_specs@_W@56@@Z@@detail@v8@fmt@@YA?AV?$back_insert_iterator@V?$buffer@_W@detail@v8@fmt@@@std@@V34@AEBU?$basic_format_specs@_W@12@_K2AEAV<lambda_1>@?1???$write_ptr@_WV?$back_insert_iterator@V?$buffer@_W@detail@v8@fmt@@@std@@_K@012@YA?AV34@02PEBU512@@Z@@Z 0000000180011d80 f   handles.obj
 0001:00011bb0       ??$write_padded@$01V?$back_insert_iterator@V?$buffer@_W@detail@v8@fmt@@@std@@_WAEAV<lambda_3>@?BD@???$do_write_float@V?$back_insert_iterator@V?$buffer@_W@detail@v8@fmt@@@std@@U?$decimal_fp@M@dragonbox@detail@v8@fmt@@_WV?$digit_grouping@_W@567@@detail@v8@fmt@@YA?AV12@V12@AEBU?$decimal_fp@M@dragonbox@456@AEBU?$basic_format_specs@_W@56@Ufloat_specs@456@Vlocale_ref@456@@Z@@detail@v8@fmt@@YA?AV?$back_insert_iterator@V?$buffer@_W@detail@v8@fmt@@@std@@V34@AEBU?$basic_format_specs@_W@12@_K2AEAV<lambda_3>@?BD@???$do_write_float@V?$back_insert_iterator@V?$buffer@_W@detail@v8@fmt@@@std@@U?$decimal_fp@M@dragonbox@detail@v8@fmt@@_WV?$digit_grouping@_W@567@@012@YA?AV34@0AEBU?$decimal_fp@M@dragonbox@012@1Ufloat_specs@012@Vlocale_ref@012@@Z@@Z 0000000180012bb0 f   handles.obj
 0001:00012170       ??$write_padded@$01V?$back_insert_iterator@V?$buffer@_W@detail@v8@fmt@@@std@@_WAEAV<lambda_4>@?BO@???$do_write_float@V?$back_insert_iterator@V?$buffer@_W@detail@v8@fmt@@@std@@U?$decimal_fp@M@dragonbox@detail@v8@fmt@@_WV?$digit_grouping@_W@567@@detail@v8@fmt@@YA?AV12@V12@AEBU?$decimal_fp@M@dragonbox@456@AEBU?$basic_format_specs@_W@56@Ufloat_specs@456@Vlocale_ref@456@@Z@@detail@v8@fmt@@YA?AV?$back_insert_iterator@V?$buffer@_W@detail@v8@fmt@@@std@@V34@AEBU?$basic_format_specs@_W@12@_K2AEAV<lambda_4>@?BO@???$do_write_float@V?$back_insert_iterator@V?$buffer@_W@detail@v8@fmt@@@std@@U?$decimal_fp@M@dragonbox@detail@v8@fmt@@_WV?$digit_grouping@_W@567@@012@YA?AV34@0AEBU?$decimal_fp@M@dragonbox@012@1Ufloat_specs@012@Vlocale_ref@012@@Z@@Z 0000000180013170 f   handles.obj
 0001:000123a0       ??$write_padded@$01V?$back_insert_iterator@V?$buffer@_W@detail@v8@fmt@@@std@@_WAEAV<lambda_5>@?1???$do_write_float@V?$back_insert_iterator@V?$buffer@_W@detail@v8@fmt@@@std@@U?$decimal_fp@M@dragonbox@detail@v8@fmt@@_WV?$digit_grouping@_W@567@@detail@v8@fmt@@YA?AV12@V12@AEBU?$decimal_fp@M@dragonbox@456@AEBU?$basic_format_specs@_W@56@Ufloat_specs@456@Vlocale_ref@456@@Z@@detail@v8@fmt@@YA?AV?$back_insert_iterator@V?$buffer@_W@detail@v8@fmt@@@std@@V34@AEBU?$basic_format_specs@_W@12@_K2AEAV<lambda_5>@?1???$do_write_float@V?$back_insert_iterator@V?$buffer@_W@detail@v8@fmt@@@std@@U?$decimal_fp@M@dragonbox@detail@v8@fmt@@_WV?$digit_grouping@_W@567@@012@YA?AV34@0AEBU?$decimal_fp@M@dragonbox@012@1Ufloat_specs@012@Vlocale_ref@012@@Z@@Z 00000001800133a0 f   handles.obj
 0001:000125f0       ??$write_padded@$01V?$back_insert_iterator@V?$buffer@_W@detail@v8@fmt@@@std@@_WAEAV<lambda_3>@?BD@???$do_write_float@V?$back_insert_iterator@V?$buffer@_W@detail@v8@fmt@@@std@@U?$decimal_fp@N@dragonbox@detail@v8@fmt@@_WV?$digit_grouping@_W@567@@detail@v8@fmt@@YA?AV12@V12@AEBU?$decimal_fp@N@dragonbox@456@AEBU?$basic_format_specs@_W@56@Ufloat_specs@456@Vlocale_ref@456@@Z@@detail@v8@fmt@@YA?AV?$back_insert_iterator@V?$buffer@_W@detail@v8@fmt@@@std@@V34@AEBU?$basic_format_specs@_W@12@_K2AEAV<lambda_3>@?BD@???$do_write_float@V?$back_insert_iterator@V?$buffer@_W@detail@v8@fmt@@@std@@U?$decimal_fp@N@dragonbox@detail@v8@fmt@@_WV?$digit_grouping@_W@567@@012@YA?AV34@0AEBU?$decimal_fp@N@dragonbox@012@1Ufloat_specs@012@Vlocale_ref@012@@Z@@Z 00000001800135f0 f   handles.obj
 0001:00012830       ??$write_padded@$01V?$back_insert_iterator@V?$buffer@_W@detail@v8@fmt@@@std@@_WAEAV<lambda_4>@?BO@???$do_write_float@V?$back_insert_iterator@V?$buffer@_W@detail@v8@fmt@@@std@@U?$decimal_fp@N@dragonbox@detail@v8@fmt@@_WV?$digit_grouping@_W@567@@detail@v8@fmt@@YA?AV12@V12@AEBU?$decimal_fp@N@dragonbox@456@AEBU?$basic_format_specs@_W@56@Ufloat_specs@456@Vlocale_ref@456@@Z@@detail@v8@fmt@@YA?AV?$back_insert_iterator@V?$buffer@_W@detail@v8@fmt@@@std@@V34@AEBU?$basic_format_specs@_W@12@_K2AEAV<lambda_4>@?BO@???$do_write_float@V?$back_insert_iterator@V?$buffer@_W@detail@v8@fmt@@@std@@U?$decimal_fp@N@dragonbox@detail@v8@fmt@@_WV?$digit_grouping@_W@567@@012@YA?AV34@0AEBU?$decimal_fp@N@dragonbox@012@1Ufloat_specs@012@Vlocale_ref@012@@Z@@Z 0000000180013830 f   handles.obj
 0001:00012a60       ??$write_padded@$01V?$back_insert_iterator@V?$buffer@_W@detail@v8@fmt@@@std@@_WAEAV<lambda_5>@?1???$do_write_float@V?$back_insert_iterator@V?$buffer@_W@detail@v8@fmt@@@std@@U?$decimal_fp@N@dragonbox@detail@v8@fmt@@_WV?$digit_grouping@_W@567@@detail@v8@fmt@@YA?AV12@V12@AEBU?$decimal_fp@N@dragonbox@456@AEBU?$basic_format_specs@_W@56@Ufloat_specs@456@Vlocale_ref@456@@Z@@detail@v8@fmt@@YA?AV?$back_insert_iterator@V?$buffer@_W@detail@v8@fmt@@@std@@V34@AEBU?$basic_format_specs@_W@12@_K2AEAV<lambda_5>@?1???$do_write_float@V?$back_insert_iterator@V?$buffer@_W@detail@v8@fmt@@@std@@U?$decimal_fp@N@dragonbox@detail@v8@fmt@@_WV?$digit_grouping@_W@567@@012@YA?AV34@0AEBU?$decimal_fp@N@dragonbox@012@1Ufloat_specs@012@Vlocale_ref@012@@Z@@Z 0000000180013a60 f   handles.obj
 0001:00012cb0       ??$write_padded@$01V?$back_insert_iterator@V?$buffer@_W@detail@v8@fmt@@@std@@_WAEAV<lambda_3>@?BD@???$do_write_float@V?$back_insert_iterator@V?$buffer@_W@detail@v8@fmt@@@std@@Ubig_decimal_fp@detail@v8@fmt@@_WV?$digit_grouping@_W@456@@detail@v8@fmt@@YA?AV12@V12@AEBUbig_decimal_fp@456@AEBU?$basic_format_specs@_W@56@Ufloat_specs@456@Vlocale_ref@456@@Z@@detail@v8@fmt@@YA?AV?$back_insert_iterator@V?$buffer@_W@detail@v8@fmt@@@std@@V34@AEBU?$basic_format_specs@_W@12@_K2AEAV<lambda_3>@?BD@???$do_write_float@V?$back_insert_iterator@V?$buffer@_W@detail@v8@fmt@@@std@@Ubig_decimal_fp@detail@v8@fmt@@_WV?$digit_grouping@_W@456@@012@YA?AV34@0AEBUbig_decimal_fp@012@1Ufloat_specs@012@Vlocale_ref@012@@Z@@Z 0000000180013cb0 f   handles.obj
 0001:00012ef0       ??$write_padded@$01V?$back_insert_iterator@V?$buffer@_W@detail@v8@fmt@@@std@@_WAEAV<lambda_4>@?BO@???$do_write_float@V?$back_insert_iterator@V?$buffer@_W@detail@v8@fmt@@@std@@Ubig_decimal_fp@detail@v8@fmt@@_WV?$digit_grouping@_W@456@@detail@v8@fmt@@YA?AV12@V12@AEBUbig_decimal_fp@456@AEBU?$basic_format_specs@_W@56@Ufloat_specs@456@Vlocale_ref@456@@Z@@detail@v8@fmt@@YA?AV?$back_insert_iterator@V?$buffer@_W@detail@v8@fmt@@@std@@V34@AEBU?$basic_format_specs@_W@12@_K2AEAV<lambda_4>@?BO@???$do_write_float@V?$back_insert_iterator@V?$buffer@_W@detail@v8@fmt@@@std@@Ubig_decimal_fp@detail@v8@fmt@@_WV?$digit_grouping@_W@456@@012@YA?AV34@0AEBUbig_decimal_fp@012@1Ufloat_specs@012@Vlocale_ref@012@@Z@@Z 0000000180013ef0 f   handles.obj
 0001:00013120       ??$write_padded@$01V?$back_insert_iterator@V?$buffer@_W@detail@v8@fmt@@@std@@_WAEAV<lambda_5>@?1???$do_write_float@V?$back_insert_iterator@V?$buffer@_W@detail@v8@fmt@@@std@@Ubig_decimal_fp@detail@v8@fmt@@_WV?$digit_grouping@_W@456@@detail@v8@fmt@@YA?AV12@V12@AEBUbig_decimal_fp@456@AEBU?$basic_format_specs@_W@56@Ufloat_specs@456@Vlocale_ref@456@@Z@@detail@v8@fmt@@YA?AV?$back_insert_iterator@V?$buffer@_W@detail@v8@fmt@@@std@@V34@AEBU?$basic_format_specs@_W@12@_K2AEAV<lambda_5>@?1???$do_write_float@V?$back_insert_iterator@V?$buffer@_W@detail@v8@fmt@@@std@@Ubig_decimal_fp@detail@v8@fmt@@_WV?$digit_grouping@_W@456@@012@YA?AV34@0AEBUbig_decimal_fp@012@1Ufloat_specs@012@Vlocale_ref@012@@Z@@Z 0000000180014120 f   handles.obj
 0001:00013390       ??$write_padded@$01V?$back_insert_iterator@V?$buffer@_W@detail@v8@fmt@@@std@@_WV<lambda_1>@?1???$write_int_localized@V?$back_insert_iterator@V?$buffer@_W@detail@v8@fmt@@@std@@_K_W@detail@v8@fmt@@YA?AV12@V12@_KIAEBU?$basic_format_specs@_W@56@AEBV?$digit_grouping@_W@456@@Z@@detail@v8@fmt@@YA?AV?$back_insert_iterator@V?$buffer@_W@detail@v8@fmt@@@std@@V34@AEBU?$basic_format_specs@_W@12@_K2$$QEAV<lambda_1>@?1???$write_int_localized@V?$back_insert_iterator@V?$buffer@_W@detail@v8@fmt@@@std@@_K_W@012@YA?AV34@02I1AEBV?$digit_grouping@_W@012@@Z@@Z 0000000180014390 f   handles.obj
 0001:00014a94       $LN45                      0000000180015a94     Pcfg.obj
 0001:00014df0       $LN69                      0000000180015df0     Pcfg.obj
 0001:0001502c       $LN13                      000000018001602c     Pcfg.obj
 0001:00016000       ?ui64toa_width@@YA?AV?$basic_string@_WU?$char_traits@_W@std@@V?$allocator@_W@2@@std@@_KI_N@Z 0000000180017000 f   Pclass.obj
 0001:000164d0       ?PrintTitle@@YA?AV?$basic_string@_WU?$char_traits@_W@std@@V?$allocator@_W@2@@std@@V?$basic_string_view@_WU?$char_traits@_W@std@@@2@@Z 00000001800174d0 f   Pclass.obj
 0001:00016630       ?PrintTitle@@YA?AV?$basic_string@_WU?$char_traits@_W@std@@V?$allocator@_W@2@@std@@H@Z 0000000180017630 f   Pclass.obj
 0001:00016890       ?TranslateMode@@YA_NAEBV?$basic_string@_WU?$char_traits@_W@std@@V?$allocator@_W@2@@std@@AEAV12@@Z 0000000180017890 f   Pclass.obj
 0001:000171c4       $LN584                     00000001800181c4     Pclass.obj
 0001:000171cc       $LN583                     00000001800181cc     Pclass.obj
 0001:00018ab0       ?generate_titles@@YAXAEBV?$basic_string@_WU?$char_traits@_W@std@@V?$allocator@_W@2@@std@@AEAUPanelMode@@@Z 0000000180019ab0 f   Pclass.obj
 0001:00018cec       $LN87                      0000000180019cec     Pclass.obj
 0001:000192d0       ?EnumWndProc@@YAHPEAUHWND__@@_J@Z 000000018001a2d0 f   Pclass.obj
 0001:0001a1a8       $LN996                     000000018001b1a8     Pclass.obj
 0001:0001a2c0       ?window_style@@YA@PEAUHWND__@@@Z 000000018001b2c0 f   Pclass.obj
 0001:0001a7f0       ?window_ex_style@@YA@PEAUHWND__@@@Z 000000018001b7f0 f   Pclass.obj
 0001:0001ad10       ?DumpNTCounters@@YAXPEAXAEAVPerfThread@@KK@Z 000000018001bd10 f   Pclass.obj
 0001:00020518       $LN2729                    0000000180021518     Pclass.obj
 0001:000272c0       ??$transform@V?$_List_const_iterator@V?$_List_val@U?$_List_simple_types@U?$pair@$$CBKUProcessPerfData@@@std@@@std@@@std@@@std@@V?$back_insert_iterator@V?$vector@UProcessPerfData@@V?$allocator@UProcessPerfData@@@std@@@std@@@2@V<lambda_1>@?2??RefreshWMIData@PerfThread@@AEAAXXZ@@std@@YA?AV?$back_insert_iterator@V?$vector@UProcessPerfData@@V?$allocator@UProcessPerfData@@@std@@@std@@@0@V?$_List_const_iterator@V?$_List_val@U?$_List_simple_types@U?$pair@$$CBKUProcessPerfData@@@std@@@std@@@std@@@0@0V10@V<lambda_1>@?2??RefreshWMIData@PerfThread@@AEAAXXZ@@Z 00000001800282c0 f   perfthread.obj
 0001:00027f30       ?FreeUserData@@YAXQEAXQEBUFarPanelItemFreeInfo@@@Z 0000000180028f30 f   Plist.obj
 0001:00028a40       ?print_module_impl@@YAXQEAXAEBV?$basic_string@_WU?$char_traits@_W@std@@V?$allocator@_W@2@@std@@KAEBUoptions@@AEBV?$function@$$A6A_NPEA_W_K@Z@2@@Z 0000000180029a40 f   Plist.obj
 0001:00029b30       ??$print_module@PEAX@@YAXQEAXPEAXKAEAUoptions@@AEBV?$function@$$A6A_NPEA_W_K@Z@std@@@Z 000000018002ab30 f   Plist.obj
 0001:00029fb0       ?_Delete_this@?$_Func_impl_no_alloc@V<lambda_3>@?N@??PrintModules@@YAXPEAXKAEAUoptions@@@Z@_NPEA_W_K@std@@EEAAX_N@Z 000000018002afb0 f i Plist.obj
 0001:00029fc0       ?_Get@?$_Func_impl_no_alloc@V<lambda_3>@?N@??PrintModules@@YAXPEAXKAEAUoptions@@@Z@_NPEA_W_K@std@@EEBAPEBXXZ 000000018002afc0 f i Plist.obj
 0001:00029fc0       ?_Get@?$_Func_impl_no_alloc@V<lambda_1>@?1??GetProcessInt@WMIConnection@@AEAAKKPEB_W@Z@XAEBUtagVARIANT@@@std@@EEBAPEBXXZ 000000018002afc0 f i wmi.obj
 0001:00029fc0       ?_Get@?$_Func_impl_no_alloc@V<lambda_1>@?1??GetProcessString@WMIConnection@@AEAA?AV?$basic_string@_WU?$char_traits@_W@std@@V?$allocator@_W@2@@std@@KPEB_W@Z@XAEBUtagVARIANT@@@std@@EEBAPEBXXZ 000000018002afc0 f i wmi.obj
 0001:0002a040       ?_Target_type@?$_Func_impl_no_alloc@V<lambda_3>@?N@??PrintModules@@YAXPEAXKAEAUoptions@@@Z@_NPEA_W_K@std@@EEBAAEBVtype_info@@XZ 000000018002b040 f   Plist.obj
 0001:0002a050       ?_Do_call@?$_Func_impl_no_alloc@V<lambda_3>@?N@??PrintModules@@YAXPEAXKAEAUoptions@@@Z@_NPEA_W_K@std@@EEAA_N$$QEAPEA_W$$QEA_K@Z 000000018002b050 f   Plist.obj
 0001:0002a080       ?_Copy@?$_Func_impl_no_alloc@V<lambda_3>@?N@??PrintModules@@YAXPEAXKAEAUoptions@@@Z@_NPEA_W_K@std@@EEBAPEAV?$_Func_base@_NPEA_W_K@2@PEAX@Z 000000018002b080 f   Plist.obj
 0001:0002a080       ?_Move@?$_Func_impl_no_alloc@V<lambda_3>@?N@??PrintModules@@YAXPEAXKAEAUoptions@@@Z@_NPEA_W_K@std@@EEAAPEAV?$_Func_base@_NPEA_W_K@2@PEAX@Z 000000018002b080 f   Plist.obj
 0001:0002a4e0       ?ProcessPath@@YA@K@Z       000000018002b4e0 f   wmi.obj
 0001:0002b350       ?_Delete_this@?$_Func_impl_no_alloc@V<lambda_1>@?1??GetProcessInt@WMIConnection@@AEAAKKPEB_W@Z@XAEBUtagVARIANT@@@std@@EEAAX_N@Z 000000018002c350 f   wmi.obj
 0001:0002b350       ?_Delete_this@?$_Func_impl_no_alloc@V<lambda_1>@?1??GetProcessString@WMIConnection@@AEAA?AV?$basic_string@_WU?$char_traits@_W@std@@V?$allocator@_W@2@@std@@KPEB_W@Z@XAEBUtagVARIANT@@@std@@EEAAX_N@Z 000000018002c350 f   wmi.obj
 0001:0002b360       ?_Target_type@?$_Func_impl_no_alloc@V<lambda_1>@?1??GetProcessString@WMIConnection@@AEAA?AV?$basic_string@_WU?$char_traits@_W@std@@V?$allocator@_W@2@@std@@KPEB_W@Z@XAEBUtagVARIANT@@@std@@EEBAAEBVtype_info@@XZ 000000018002c360 f   wmi.obj
 0001:0002b370       ?_Do_call@?$_Func_impl_no_alloc@V<lambda_1>@?1??GetProcessString@WMIConnection@@AEAA?AV?$basic_string@_WU?$char_traits@_W@std@@V?$allocator@_W@2@@std@@KPEB_W@Z@XAEBUtagVARIANT@@@std@@EEAAXAEBUtagVARIANT@@@Z 000000018002c370 f   wmi.obj
 0001:0002b3a0       ?_Copy@?$_Func_impl_no_alloc@V<lambda_1>@?1??GetProcessString@WMIConnection@@AEAA?AV?$basic_string@_WU?$char_traits@_W@std@@V?$allocator@_W@2@@std@@KPEB_W@Z@XAEBUtagVARIANT@@@std@@EEBAPEAV?$_Func_base@XAEBUtagVARIANT@@@2@PEAX@Z 000000018002c3a0 f   wmi.obj
 0001:0002b3a0       ?_Move@?$_Func_impl_no_alloc@V<lambda_1>@?1??GetProcessString@WMIConnection@@AEAA?AV?$basic_string@_WU?$char_traits@_W@std@@V?$allocator@_W@2@@std@@KPEB_W@Z@XAEBUtagVARIANT@@@std@@EEAAPEAV?$_Func_base@XAEBUtagVARIANT@@@2@PEAX@Z 000000018002c3a0 f   wmi.obj
 0001:0002b3c0       ?_Target_type@?$_Func_impl_no_alloc@V<lambda_1>@?1??GetProcessInt@WMIConnection@@AEAAKKPEB_W@Z@XAEBUtagVARIANT@@@std@@EEBAAEBVtype_info@@XZ 000000018002c3c0 f   wmi.obj
 0001:0002b3d0       ?_Do_call@?$_Func_impl_no_alloc@V<lambda_1>@?1??GetProcessInt@WMIConnection@@AEAAKKPEB_W@Z@XAEBUtagVARIANT@@@std@@EEAAXAEBUtagVARIANT@@@Z 000000018002c3d0 f   wmi.obj
 0001:0002b3e0       ?_Copy@?$_Func_impl_no_alloc@V<lambda_1>@?1??GetProcessInt@WMIConnection@@AEAAKKPEB_W@Z@XAEBUtagVARIANT@@@std@@EEBAPEAV?$_Func_base@XAEBUtagVARIANT@@@2@PEAX@Z 000000018002c3e0 f   wmi.obj
 0001:0002b3e0       ?_Move@?$_Func_impl_no_alloc@V<lambda_1>@?1??GetProcessInt@WMIConnection@@AEAAKKPEB_W@Z@XAEBUtagVARIANT@@@std@@EEAAPEAV?$_Func_base@XAEBUtagVARIANT@@@2@PEAX@Z 000000018002c3e0 f   wmi.obj
 0001:0002b400       ?fNtQueryInformationFile@@YAJPEAX00KK@Z 000000018002c400 f   Proclist.obj
 0001:0002b400       ?fNtQueryInformationProcess@@YAJPEAXW4_PROCESSINFOCLASS@@0KPEAK@Z 000000018002c400 f   Proclist.obj
 0001:0002b400       ?fNtQueryInformationThread@@YAJPEAXK0KPEAK@Z 000000018002c400 f   Proclist.obj
 0001:0002b400       ?fNtQueryObject@@YAJPEAXK0K0@Z 000000018002c400 f   Proclist.obj
 0001:0002b400       ?fNtQuerySystemInformation@@YAJKPEAXKPEAK@Z 000000018002c400 f   Proclist.obj
 0001:0002b410       ?fEnumProcessModulesEx@@YAHPEAXPEAPEAUHINSTANCE__@@KPEAKK@Z 000000018002c410 f   Proclist.obj
 0001:0002b410       ?fGetGuiResources@@YAKPEAXK@Z 000000018002c410 f   Proclist.obj
 0001:0002b410       ?fIsWow64Process@@YAHPEAXPEAH@Z 000000018002c410 f   Proclist.obj
 0001:0002b410       no_op_initialize           000000018002c410 f   libucrt:wsetlocale.obj
 0001:0002b420       ?fCoSetProxyBlanket@@YAJPEAUIUnknown@@KKPEA_WKKPEAXK@Z 000000018002c420 f   Proclist.obj
 0001:0002b430       ?dynamic_bind@@YAXXZ       000000018002c430 f   Proclist.obj
 0001:0002c884       tidy_global                000000018002d884 f   libcpmt:locale0.obj
 0001:0002c978       ?initialize_pointers@@YAHXZ 000000018002d978 f   libcpmt:winapisupp.obj
 0001:0002cda0       $$000000                   000000018002dda0     LIBCMT:amdsecgs.obj
 0001:0002d384       capture_current_context    000000018002e384 f   LIBCMT:gs_report.obj
 0001:0002d3f4       capture_previous_context   000000018002e3f4 f   LIBCMT:gs_report.obj
 0001:0002d538       ?dllmain_crt_dispatch@@YAHQEAUHINSTANCE__@@KQEAX@Z 000000018002e538 f   LIBCMT:dll_dllmain.obj
 0001:0002d588       ?dllmain_crt_process_attach@@YAHQEAUHINSTANCE__@@QEAX@Z 000000018002e588 f   LIBCMT:dll_dllmain.obj
 0001:0002d6a0       ?dllmain_crt_process_detach@@YAH_N@Z 000000018002e6a0 f   LIBCMT:dll_dllmain.obj
 0001:0002d724       ?dllmain_dispatch@@YAHQEAUHINSTANCE__@@KQEAX@Z 000000018002e724 f   LIBCMT:dll_dllmain.obj
 0001:0002d9a0       $$000000                   000000018002e9a0     LIBCMT:chkstk.obj
 0001:0002eea0       $$000000                   000000018002fea0     libvcruntime:memcpy.obj
 0001:0002f2b0       $$000000                   00000001800302b0     libvcruntime:memset.obj
 0001:0002f470       $$000000                   0000000180030470     libvcruntime:memchr.obj
 0001:0002f4f0       $$000000                   00000001800304f0     libvcruntime:memcmp.obj
 0001:0002fc58       ??$BuildCatchObjectHelperInternal@V__FrameHandler3@@@@YAHPEAUEHExceptionRecord@@PEAXPEBU_s_HandlerType@@PEBU_s_CatchableType@@@Z 0000000180030c58 f   libvcruntime:frame.obj
 0001:0002fe58       ??$BuildCatchObjectHelperInternal@V__FrameHandler4@@@@YAHPEAUEHExceptionRecord@@PEAXPEAUHandlerType4@FH4@@PEBU_s_CatchableType@@@Z 0000000180030e58 f   libvcruntime:frame.obj
 0001:0003005c       ??$BuildCatchObjectInternal@V__FrameHandler3@@@@YAXPEAUEHExceptionRecord@@PEAXPEBU_s_HandlerType@@PEBU_s_CatchableType@@@Z 000000018003105c f   libvcruntime:frame.obj
 0001:0003011c       ??$BuildCatchObjectInternal@V__FrameHandler4@@@@YAXPEAUEHExceptionRecord@@PEAXPEAUHandlerType4@FH4@@PEBU_s_CatchableType@@@Z 000000018003111c f   libvcruntime:frame.obj
 0001:000301e0       ??$CatchIt@V__FrameHandler3@@@@YAXPEAUEHExceptionRecord@@PEA_KPEAU_CONTEXT@@PEAU_xDISPATCHER_CONTEXT@@PEBU_s_FuncInfo@@PEBU_s_HandlerType@@PEBU_s_CatchableType@@PEBU_s_TryBlockMapEntry@@H1EE@Z 00000001800311e0 f   libvcruntime:frame.obj
 0001:000302b4       ??$CatchIt@V__FrameHandler4@@@@YAXPEAUEHExceptionRecord@@PEA_KPEAU_CONTEXT@@PEAU_xDISPATCHER_CONTEXT@@PEAUFuncInfo4@FH4@@PEAUHandlerType4@4@PEBU_s_CatchableType@@PEAUTryBlockMapEntry4@4@H1EE@Z 00000001800312b4 f   libvcruntime:frame.obj
 0001:00030388       ??$FindHandler@V__FrameHandler3@@@@YAXPEAUEHExceptionRecord@@PEA_KPEAU_CONTEXT@@PEAU_xDISPATCHER_CONTEXT@@PEBU_s_FuncInfo@@EH1@Z 0000000180031388 f   libvcruntime:frame.obj
 0001:00030880       ??$FindHandler@V__FrameHandler4@@@@YAXPEAUEHExceptionRecord@@PEA_KPEAU_CONTEXT@@PEAU_xDISPATCHER_CONTEXT@@PEAUFuncInfo4@FH4@@EH1@Z 0000000180031880 f   libvcruntime:frame.obj
 0001:00030d90       ??$FindHandlerForForeignException@V__FrameHandler3@@@@YAXPEAUEHExceptionRecord@@PEA_KPEAU_CONTEXT@@PEAU_xDISPATCHER_CONTEXT@@PEBU_s_FuncInfo@@HH1@Z 0000000180031d90 f   libvcruntime:frame.obj
 0001:00030fa4       ??$FindHandlerForForeignException@V__FrameHandler4@@@@YAXPEAUEHExceptionRecord@@PEA_KPEAU_CONTEXT@@PEAU_xDISPATCHER_CONTEXT@@PEAUFuncInfo4@FH4@@HH1@Z 0000000180031fa4 f   libvcruntime:frame.obj
 0001:00032184       ?ExFilterRethrow@@YAHPEAU_EXCEPTION_POINTERS@@PEAUEHExceptionRecord@@PEAH@Z 0000000180033184 f   libvcruntime:frame.obj
 0001:0003220c       ?ExFilterRethrowFH4@@YAHPEAU_EXCEPTION_POINTERS@@PEAUEHExceptionRecord@@HPEAH@Z 000000018003320c f   libvcruntime:frame.obj
 0001:00032734       ?IsInExceptionSpec@@YAEPEAUEHExceptionRecord@@PEBU_s_ESTypeList@@@Z 0000000180033734 f   libvcruntime:frame.obj
 0001:00032824       ?Is_bad_exception_allowed@@YAEPEBU_s_ESTypeList@@@Z 0000000180033824 f   libvcruntime:frame.obj
 0001:00032b70       $$000000                   0000000180033b70     libvcruntime:notify.obj
 0001:00032bec       ?try_get_function@@YAPEAXW4function_id@?A0x81a78551@@QEBDQEBW4module_id@2@2@Z 0000000180033bec f   libvcruntime:winapi_downlevel.obj
 0001:00032ee0       $$000000                   0000000180033ee0     libvcruntime:handlers.obj
 0001:00033788       ??$common_vsprintf@Vformat_validation_base@__crt_stdio_output@@D@@YAH_KQEAD0QEBDQEAU__crt_locale_pointers@@1@Z 0000000180034788 f   libucrt:output.obj
 0001:000356ec       ??$?RV<lambda_41e84717acc955b55e9d0d529e507b68>@@AEAV<lambda_b37934c380d97b75fd242ea49540127a>@@V<lambda_bb6db9f9ac473960206e0d4b942b5506>@@@?$__crt_seh_guarded_call@PEAD@@QEAAPEAD$$QEAV<lambda_41e84717acc955b55e9d0d529e507b68>@@AEAV<lambda_b37934c380d97b75fd242ea49540127a>@@$$QEAV<lambda_bb6db9f9ac473960206e0d4b942b5506>@@@Z 00000001800366ec f   libucrt:setlocale.obj
 0001:0003572c       ??R<lambda_b37934c380d97b75fd242ea49540127a>@@QEBAPEADXZ 000000018003672c f   libucrt:setlocale.obj
 0001:000365e4       memcpy_s                   00000001800375e4 f   libucrt:cfout.obj
 0001:000365e4       memcpy_s                   00000001800375e4 f   libucrt:strtod.obj
 0001:00036670       $$000000                   0000000180037670     libucrt:pow.obj
 0001:00037d10       $$000000                   0000000180038d10     libucrt:powf.obj
 0001:0003948c       ??$?RV<lambda_d80eeec6fff315bfe5c115232f3240e3>@@AEAV<lambda_6e4b09c48022b2350581041d5f6b0c4c>@@V<lambda_2358e3775559c9db80273638284d5e45>@@@?$__crt_seh_guarded_call@X@@QEAAX$$QEAV<lambda_d80eeec6fff315bfe5c115232f3240e3>@@AEAV<lambda_6e4b09c48022b2350581041d5f6b0c4c>@@$$QEAV<lambda_2358e3775559c9db80273638284d5e45>@@@Z 000000018003a48c f   libucrt:exit.obj
 0001:000394c4       ??R<lambda_6e4b09c48022b2350581041d5f6b0c4c>@@QEBA@XZ 000000018003a4c4 f   libucrt:exit.obj
 0001:00039588       ?atexit_exception_filter@@YAHK@Z 000000018003a588 f   libucrt:exit.obj
 0001:00039594       ?common_exit@@YAXHW4_crt_exit_cleanup_mode@@W4_crt_exit_return_mode@@@Z 000000018003a594 f   libucrt:exit.obj
 0001:00039650       ?exit_or_terminate_process@@YAXI@Z 000000018003a650 f   libucrt:exit.obj
 0001:0003969c       ?try_cor_exit_process@@YAXI@Z 000000018003a69c f   libucrt:exit.obj
 0001:00039724       ??$parse_command_line@D@@YAXPEADPEAPEAD0PEA_K2@Z 000000018003a724 f   libucrt:argv_parsing.obj
 0001:00039ad0       ??$common_initialize_environment_nolock@D@@YAHXZ 000000018003aad0 f   libucrt:environment_initialization.obj
 0001:00039b3c       ??$create_environment@D@@YAQEAPEADQEAD@Z 000000018003ab3c f   libucrt:environment_initialization.obj
 0001:00039c44       ??$free_environment@D@@YAXQEAPEAD@Z 000000018003ac44 f   libucrt:environment_initialization.obj
 0001:00039c44       ??$free_environment@_W@@YAXQEAPEA_W@Z 000000018003ac44 f   libucrt:environment_initialization.obj
 0001:00039c88       ??$uninitialize_environment_internal@D@@YAXAEAPEAPEAD@Z 000000018003ac88 f   libucrt:environment_initialization.obj
 0001:00039ca4       ??$uninitialize_environment_internal@_W@@YAXAEAPEAPEA_W@Z 000000018003aca4 f   libucrt:environment_initialization.obj
 0001:00039d00       ??$?RV<lambda_638799b9deba96c50f710eeac98168cd>@@AEAV<lambda_22ebabd17bc4fa466a2aca6d8deb888d>@@V<lambda_a6f7d7db0129f75315ebf26d50c089f1>@@@?$__crt_seh_guarded_call@H@@QEAAH$$QEAV<lambda_638799b9deba96c50f710eeac98168cd>@@AEAV<lambda_22ebabd17bc4fa466a2aca6d8deb888d>@@$$QEAV<lambda_a6f7d7db0129f75315ebf26d50c089f1>@@@Z 000000018003ad00 f   libucrt:onexit.obj
 0001:00039d3c       ??$?RV<lambda_7777bce6b2f8c936911f934f8298dc43>@@AEAV<lambda_f03950bc5685219e0bcd2087efbe011e>@@V<lambda_3883c3dff614d5e0c5f61bb1ac94921c>@@@?$__crt_seh_guarded_call@H@@QEAAH$$QEAV<lambda_7777bce6b2f8c936911f934f8298dc43>@@AEAV<lambda_f03950bc5685219e0bcd2087efbe011e>@@$$QEAV<lambda_3883c3dff614d5e0c5f61bb1ac94921c>@@@Z 000000018003ad3c f   libucrt:onexit.obj
 0001:00039d78       ??R<lambda_22ebabd17bc4fa466a2aca6d8deb888d>@@QEBAHXZ 000000018003ad78 f   libucrt:onexit.obj
 0001:00039f28       ??R<lambda_f03950bc5685219e0bcd2087efbe011e>@@QEBAHXZ 000000018003af28 f   libucrt:onexit.obj
 0001:0003a0fc       initialize_global_variables 000000018003b0fc f   libucrt:initialization.obj
 0001:0003a110       initialize_c               000000018003b110 f   libucrt:initialization.obj
 0001:0003a134       initialize_environment     000000018003b134 f   libucrt:initialization.obj
 0001:0003a134       initialize_global_state_isolation 000000018003b134 f   libucrt:initialization.obj
 0001:0003a134       report_memory_leaks        000000018003b134 f   libucrt:initialization.obj
 0001:0003a134       uninitialize_c             000000018003b134 f   libucrt:initialization.obj
 0001:0003a134       uninitialize_global_state_isolation 000000018003b134 f   libucrt:initialization.obj
 0001:0003a138       uninitialize_environment   000000018003b138 f   libucrt:initialization.obj
 0001:0003a148       initialize_pointers        000000018003b148 f   libucrt:initialization.obj
 0001:0003a188       uninitialize_vcruntime     000000018003b188 f   libucrt:initialization.obj
 0001:0003a190       uninitialize_allocated_memory 000000018003b190 f   libucrt:initialization.obj
 0001:0003a1d0       uninitialize_allocated_io_buffers 000000018003b1d0 f   libucrt:initialization.obj
 0001:0003ae00       $$000000                   000000018003be00     libucrt:strncmp.obj
 0001:0003aebc       ??$?RV<lambda_0ae27a3a962d80f24befdcbee591983d>@@AEAV<lambda_8d0ee55de4b1038c4002e0adecdf1839>@@V<lambda_dc504788e8f1664fe9b84e20bfb512f2>@@@?$__crt_seh_guarded_call@X@@QEAAX$$QEAV<lambda_0ae27a3a962d80f24befdcbee591983d>@@AEAV<lambda_8d0ee55de4b1038c4002e0adecdf1839>@@$$QEAV<lambda_dc504788e8f1664fe9b84e20bfb512f2>@@@Z 000000018003bebc f   libucrt:per_thread_data.obj
 0001:0003aefc       ??$?RV<lambda_2d41944a1d46af3157314b8a01080d33>@@AEAV<lambda_8f455de75cd7d7f24b4096f044d8b9e6>@@V<lambda_aa500f224e6afead328df44964fe2772>@@@?$__crt_seh_guarded_call@X@@QEAAX$$QEAV<lambda_2d41944a1d46af3157314b8a01080d33>@@AEAV<lambda_8f455de75cd7d7f24b4096f044d8b9e6>@@$$QEAV<lambda_aa500f224e6afead328df44964fe2772>@@@Z 000000018003befc f   libucrt:per_thread_data.obj
 0001:0003af3c       ??$?RV<lambda_aa87e3671a710a21b5dc78c0bdf72e11>@@AEAV<lambda_92619d2358a28f41a33ba319515a20b9>@@V<lambda_6992ecaafeb10aed2b74cb1fae11a551>@@@?$__crt_seh_guarded_call@X@@QEAAX$$QEAV<lambda_aa87e3671a710a21b5dc78c0bdf72e11>@@AEAV<lambda_92619d2358a28f41a33ba319515a20b9>@@$$QEAV<lambda_6992ecaafeb10aed2b74cb1fae11a551>@@@Z 000000018003bf3c f   libucrt:per_thread_data.obj
 0001:0003af84       ??$?RV<lambda_f2e299630e499de9f9a165e60fcd3db5>@@AEAV<lambda_2ae9d31cdba2644fcbeaf08da7c24588>@@V<lambda_40d01ff24d0e7b3814fdbdcee8eab3c7>@@@?$__crt_seh_guarded_call@X@@QEAAX$$QEAV<lambda_f2e299630e499de9f9a165e60fcd3db5>@@AEAV<lambda_2ae9d31cdba2644fcbeaf08da7c24588>@@$$QEAV<lambda_40d01ff24d0e7b3814fdbdcee8eab3c7>@@@Z 000000018003bf84 f   libucrt:per_thread_data.obj
 0001:0003afe4       ?construct_ptd_array@@YAXQEAU__acrt_ptd@@@Z 000000018003bfe4 f   libucrt:per_thread_data.obj
 0001:0003b0b4       ?destroy_fls@@YAXPEAX@Z    000000018003c0b4 f   libucrt:per_thread_data.obj
 0001:0003b0d4       ?destroy_ptd_array@@YAXQEAU__acrt_ptd@@@Z 000000018003c0d4 f   libucrt:per_thread_data.obj
 0001:0003b1cc       ?replace_current_thread_locale_nolock@@YAXQEAU__acrt_ptd@@QEAU__crt_locale_data@@@Z 000000018003c1cc f   libucrt:per_thread_data.obj
 0001:0003b520       ?initialize_inherited_file_handles_nolock@@YAXXZ 000000018003c520 f   libucrt:ioinit.obj
 0001:0003b610       ?initialize_stdio_handles_nolock@@YAXXZ 000000018003c610 f   libucrt:ioinit.obj
 0001:0003b858       ?<lambda_invoker_cdecl>@<lambda_795c6bd18aed400428efeb9a5f0e1479>@@CAHPEA_W@Z 000000018003c858 f   libucrt:winapi_thunks.obj
 0001:0003b880       ??$?RV<lambda_48fc4a32460bb0512d3b13f8499328be>@@AEAV<lambda_6c3dac0a4f3f9cefca9bb494422f9b77>@@V<lambda_0a2f2c9f9a56eb2b08bfa6ff61d331c5>@@@?$__crt_seh_guarded_call@H@@QEAAH$$QEAV<lambda_48fc4a32460bb0512d3b13f8499328be>@@AEAV<lambda_6c3dac0a4f3f9cefca9bb494422f9b77>@@$$QEAV<lambda_0a2f2c9f9a56eb2b08bfa6ff61d331c5>@@@Z 000000018003c880 f   libucrt:winapi_thunks.obj
 0001:0003b8fc       ?try_get_function@@YAPEAXW4function_id@?A0x391cf84c@@QEBDQEBW4module_id@2@2@Z 000000018003c8fc f   libucrt:winapi_thunks.obj
 0001:0003c31c       ??$?RV<lambda_842d9ff0dc9ef11c61343bbaebe7f885>@@AEAV<lambda_c5860995281e5c4ce005b3de8f5874ee>@@V<lambda_d90129c13df834fdcbf8d2b88dafcf2d>@@@?$__crt_seh_guarded_call@X@@QEAAX$$QEAV<lambda_842d9ff0dc9ef11c61343bbaebe7f885>@@AEAV<lambda_c5860995281e5c4ce005b3de8f5874ee>@@$$QEAV<lambda_d90129c13df834fdcbf8d2b88dafcf2d>@@@Z 000000018003d31c f   libucrt:fflush.obj
 0001:0003c3b8       ??$?RV<lambda_886d6c58226a84441f68b9f2b8217b83>@@AEAV<lambda_ab61a845afdef5b7c387490eaf3616ee>@@V<lambda_f7f22ab5edc0698d5f6905b0d3f44752>@@@?$__crt_seh_guarded_call@X@@QEAAX$$QEAV<lambda_886d6c58226a84441f68b9f2b8217b83>@@AEAV<lambda_ab61a845afdef5b7c387490eaf3616ee>@@$$QEAV<lambda_f7f22ab5edc0698d5f6905b0d3f44752>@@@Z 000000018003d3b8 f   libucrt:fflush.obj
 0001:0003c498       ?common_flush_all@@YAH_N@Z 000000018003d498 f   libucrt:fflush.obj
 0001:0003cc04       ?fp_format_a@@YAHQEBNPEAD_KQEAD2H_NIQEAU__crt_locale_pointers@@@Z 000000018003dc04 f   libucrt:cvt.obj
 0001:0003cf74       ?fp_format_e@@YAHQEBNQEAD_K12H_NIQEAU__crt_locale_pointers@@@Z 000000018003df74 f   libucrt:cvt.obj
 0001:0003d050       ?fp_format_e_internal@@YAHQEAD_KH_NIQEAU_strflt@@2QEAU__crt_locale_pointers@@@Z 000000018003e050 f   libucrt:cvt.obj
 0001:0003d224       ?fp_format_f_internal@@YAHQEAD_KHQEAU_strflt@@_NQEAU__crt_locale_pointers@@@Z 000000018003e224 f   libucrt:cvt.obj
 0001:0003d368       ?fp_format_g@@YAHQEBNQEAD_K12H_NIQEAU__crt_locale_pointers@@@Z 000000018003e368 f   libucrt:cvt.obj
 0001:0003d7b8       ??$?RV<lambda_1d892b297fdedeee07ed8124eeb2f2fa>@@AEAV<lambda_ffc046909424fd52df0ac47e64813305>@@V<lambda_01a7098693036236037e7cdb9bca3d73>@@@?$__crt_seh_guarded_call@X@@QEAAX$$QEAV<lambda_1d892b297fdedeee07ed8124eeb2f2fa>@@AEAV<lambda_ffc046909424fd52df0ac47e64813305>@@$$QEAV<lambda_01a7098693036236037e7cdb9bca3d73>@@@Z 000000018003e7b8 f   libucrt:wsetlocale.obj
 0001:0003d8f4       ??$?RV<lambda_410d79af7f07d98d83a3f525b3859a53>@@AEAV<lambda_3e16ef9562a7dcce91392c22ab16ea36>@@V<lambda_38119f0e861e05405d8a144b9b982f0a>@@@?$__crt_seh_guarded_call@X@@QEAAX$$QEAV<lambda_410d79af7f07d98d83a3f525b3859a53>@@AEAV<lambda_3e16ef9562a7dcce91392c22ab16ea36>@@$$QEAV<lambda_38119f0e861e05405d8a144b9b982f0a>@@@Z 000000018003e8f4 f   libucrt:wsetlocale.obj
 0001:0003d964       ??$?RV<lambda_7f2adfce497ff2baa965cd4f576ecfd1>@@AEAV<lambda_2a444430fde8c29194d880d93eed5e8f>@@AEAV<lambda_8dff2cf36a5417162780cd64fa2883ef>@@@?$__crt_seh_guarded_call@X@@QEAAX$$QEAV<lambda_7f2adfce497ff2baa965cd4f576ecfd1>@@AEAV<lambda_2a444430fde8c29194d880d93eed5e8f>@@AEAV<lambda_8dff2cf36a5417162780cd64fa2883ef>@@@Z 000000018003e964 f   libucrt:wsetlocale.obj
 0001:0003d990       ??R<lambda_2a444430fde8c29194d880d93eed5e8f>@@QEBA@XZ 000000018003e990 f   libucrt:wsetlocale.obj
 0001:0003dd64       _copytlocinfo_nolock       000000018003ed64 f   libucrt:wsetlocale.obj
 0001:0003de24       _expandlocale              000000018003ee24 f   libucrt:wsetlocale.obj
 0001:0003e3b0       _wsetlocale_get_all        000000018003f3b0 f   libucrt:wsetlocale.obj
 0001:0003e59c       _wsetlocale_nolock         000000018003f59c f   libucrt:wsetlocale.obj
 0001:0003e834       _wsetlocale_set_cat        000000018003f834 f   libucrt:wsetlocale.obj
 0001:0003eb88       parse_bcp47                000000018003fb88 f   libucrt:wsetlocale.obj
 0001:0003ed88       parse_bcp47_code_page      000000018003fd88 f   libucrt:wsetlocale.obj
 0001:0003edd0       parse_bcp47_language       000000018003fdd0 f   libucrt:wsetlocale.obj
 0001:0003ee5c       parse_bcp47_region         000000018003fe5c f   libucrt:wsetlocale.obj
 0001:0003ef68       parse_bcp47_script         000000018003ff68 f   libucrt:wsetlocale.obj
 0001:0003eff8       string_is_alpha            000000018003fff8 f   libucrt:wsetlocale.obj
 0001:0003f06c       ?write_double_translated_ansi_nolock@@YA?AUwrite_result@?A0x17268360@@HQEBDI@Z 000000018004006c f   libucrt:write.obj
 0001:0003f53c       ?write_text_ansi_nolock@@YA?AUwrite_result@?A0x17268360@@HQEBDI@Z 000000018004053c f   libucrt:write.obj
 0001:0003f640       ?write_text_utf16le_nolock@@YA?AUwrite_result@?A0x17268360@@HQEBDI@Z 0000000180040640 f   libucrt:write.obj
 0001:0003f75c       ?write_text_utf8_nolock@@YA?AUwrite_result@?A0x17268360@@HQEBDI@Z 000000018004075c f   libucrt:write.obj
 0001:0003fc94       _call_matherr              0000000180040c94 f   libucrt:libm_error.obj
 0001:0003fcfc       _exception_enabled         0000000180040cfc f   libucrt:libm_error.obj
 0001:00040164       ?_mbstowcs_l_helper@@YA_KPEA_WPEBD_KPEAU__crt_locale_pointers@@@Z 0000000180041164 f   libucrt:mbstowcs.obj
 0001:000404b8       ?_wcstombs_l_helper@@YA_KPEADPEB_W_KPEAU__crt_locale_pointers@@@Z 00000001800414b8 f   libucrt:wcstombs.obj
 0001:0004090c       ?InternalGetLocaleInfoA@@YAHQEAU__crt_locale_pointers@@QEB_WKQEADH@Z 000000018004190c f   libucrt:getlocaleinfoa.obj
 0001:00040de0       ?__acrt_LCMapStringA_stat@@YAHPEAU__crt_locale_pointers@@PEB_WKPEBDHPEADHHH@Z 0000000180041de0 f   libucrt:lcmapstringa.obj
 0001:00041aa0       ??$?RV<lambda_450d765d439847d4c735a33c368b5fc0>@@AEAV<lambda_44731a7d0e6d81c3e6aa82d741081786>@@V<lambda_601a2a7da3b7a96e9554ac7215c4b07c>@@@?$__crt_seh_guarded_call@P6AXH@Z@@QEAAP6AXH@Z$$QEAV<lambda_450d765d439847d4c735a33c368b5fc0>@@AEAV<lambda_44731a7d0e6d81c3e6aa82d741081786>@@$$QEAV<lambda_601a2a7da3b7a96e9554ac7215c4b07c>@@@Z 0000000180042aa0 f   libucrt:signal.obj
 0001:000420c8       ?<lambda_invoker_cdecl>@<lambda_a1ce4c8ae42411fd470c77163914f50e>@@CAHPEBX0@Z 00000001800430c8 f   libucrt:argv_wildcards.obj
 0001:00042268       ??$common_expand_argv_wildcards@D@@YAHQEAPEADQEAPEAPEAD@Z 0000000180043268 f   libucrt:argv_wildcards.obj
 0001:00042474       ??$copy_and_add_argument_to_buffer@D@@YAHQEBD0_KAEAV?$argument_list@D@?A0x5f5c8891@@@Z 0000000180043474 f   libucrt:argv_wildcards.obj
 0001:000425fc       ??$expand_argument_wildcards@D@@YAHQEAD0AEAV?$argument_list@D@?A0x5f5c8891@@@Z 00000001800435fc f   libucrt:argv_wildcards.obj
 0001:00042a34       ??$?RV<lambda_efdfa57d1f175319df784efa44bb7b81>@@AEAV<lambda_5f0a4c1567f8adc6734073e5d1e1b35c>@@V<lambda_2e8a7d3640ea6ccb4c2413664c2db6fd>@@@?$__crt_seh_guarded_call@X@@QEAAX$$QEAV<lambda_efdfa57d1f175319df784efa44bb7b81>@@AEAV<lambda_5f0a4c1567f8adc6734073e5d1e1b35c>@@$$QEAV<lambda_2e8a7d3640ea6ccb4c2413664c2db6fd>@@@Z 0000000180043a34 f   libucrt:mbctype.obj
 0001:00042bf0       ?getSystemCP@@YAHH@Z       0000000180043bf0 f   libucrt:mbctype.obj
 0001:00042c70       ?setSBCS@@YAXPEAU__crt_multibyte_data@@@Z 0000000180043c70 f   libucrt:mbctype.obj
 0001:00042d00       ?setSBUpLow@@YAXPEAU__crt_multibyte_data@@@Z 0000000180043d00 f   libucrt:mbctype.obj
 0001:00042ee4       ?setmbcp_internal@@YAHH_NQEAU__acrt_ptd@@QEAPEAU__crt_multibyte_data@@@Z 0000000180043ee4 f   libucrt:mbctype.obj
 0001:000430a8       ?update_thread_multibyte_data_internal@@YAPEAU__crt_multibyte_data@@QEAU__acrt_ptd@@QEAPEAU1@@Z 00000001800440a8 f   libucrt:mbctype.obj
 0001:00043498       ?x_ismbbtype_l@@YAHPEAU__crt_locale_pointers@@IHH@Z 0000000180044498 f   libucrt:ismbbyte.obj
 0001:00043c2c       ??$common_lseek_nolock@_J@@YA_JH_JH@Z 0000000180044c2c f   libucrt:lseek.obj
 0001:00043fe4       ??$?RV<lambda_a37b2b86f63e897a80ea819b0eb08c01>@@AEAV<lambda_38ce7e780aa69e748d6df282ebc68efe>@@V<lambda_99fb1378e971ab6e7edea83e3a7a83a2>@@@?$__crt_seh_guarded_call@H@@QEAAH$$QEAV<lambda_a37b2b86f63e897a80ea819b0eb08c01>@@AEAV<lambda_38ce7e780aa69e748d6df282ebc68efe>@@$$QEAV<lambda_99fb1378e971ab6e7edea83e3a7a83a2>@@@Z 0000000180044fe4 f   libucrt:commit.obj
 0001:00046334       ?free_crt_array_internal@@YAXQEAPEBX_K@Z 0000000180047334 f   libucrt:inittime.obj
 0001:0004638c       ?initialize_lc_time@@YA_NQEAU__crt_lc_time_data@@QEAU__crt_locale_data@@@Z 000000018004738c f   libucrt:inittime.obj
 0001:00046970       GetLocaleNameFromDefault   0000000180047970 f   libucrt:get_qualified_locale.obj
 0001:00046a18       GetLocaleNameFromLangCountry 0000000180047a18 f   libucrt:get_qualified_locale.obj
 0001:00046ae8       GetLocaleNameFromLanguage  0000000180047ae8 f   libucrt:get_qualified_locale.obj
 0001:00046b80       LangCountryEnumProcEx      0000000180047b80 f   libucrt:get_qualified_locale.obj
 0001:00046e6c       LanguageEnumProcEx         0000000180047e6c f   libucrt:get_qualified_locale.obj
 0001:00046f58       ProcessCodePage            0000000180047f58 f   libucrt:get_qualified_locale.obj
 0001:00047024       TestDefaultCountry         0000000180048024 f   libucrt:get_qualified_locale.obj
 0001:00047088       TranslateName              0000000180048088 f   libucrt:get_qualified_locale.obj
 0001:00047388       CountryEnumProc            0000000180048388 f   libucrt:getqloc_downlevel.obj
 0001:00047470       GetLcidFromLangCountry     0000000180048470 f   libucrt:getqloc_downlevel.obj
 0001:00047540       GetLcidFromLanguage        0000000180048540 f   libucrt:getqloc_downlevel.obj
 0001:000475d8       LangCountryEnumProc        00000001800485d8 f   libucrt:getqloc_downlevel.obj
 0001:00047824       LanguageEnumProc           0000000180048824 f   libucrt:getqloc_downlevel.obj
 0001:0004792c       LcidFromHexString          000000018004892c f   libucrt:getqloc_downlevel.obj
 0001:0004797c       ProcessCodePage            000000018004897c f   libucrt:getqloc_downlevel.obj
 0001:00047a2c       TestDefaultLanguage        0000000180048a2c f   libucrt:getqloc_downlevel.obj
 0001:00047ad8       TranslateName              0000000180048ad8 f   libucrt:getqloc_downlevel.obj
 0001:00048010       $$000000                   0000000180049010     libucrt:fpsr.obj
 0001:000484e0       fallbackMethod             00000001800494e0 f   libucrt:strpbrk.obj
 0001:000488a4       $LN78                      00000001800498a4     libucrt:strpbrk.obj
 0001:000488e0       $LN77                      00000001800498e0     libucrt:strpbrk.obj
 0001:00048920       $LN76                      0000000180049920     libucrt:strpbrk.obj
 0001:000489fc       ?initialize_multibyte@@YAHXZ 00000001800499fc f   libucrt:multibyte_initializer.obj
 0001:00048c34       ??$?RV<lambda_751a882b2c74d4b022dec766aa51a29a>@@AEAV<lambda_628dfdc04ba53c8bfc02c9951375f3f5>@@V<lambda_f6c7be5f7998530c34de24c7437d6b54>@@@?$__crt_seh_guarded_call@H@@QEAAH$$QEAV<lambda_751a882b2c74d4b022dec766aa51a29a>@@AEAV<lambda_628dfdc04ba53c8bfc02c9951375f3f5>@@$$QEAV<lambda_f6c7be5f7998530c34de24c7437d6b54>@@@Z 0000000180049c34 f   libucrt:close.obj
 0001:00049190       $$000000                   000000018004a190     libucrt:log10.obj
 0001:0004973c       ??$common_xtox@K_W@@YAHKQEA_W_KI_N@Z 000000018004a73c f   libucrt:xtoa.obj
 0001:00049810       ??$common_xtox_s@K_W@@YAHKQEA_W_KI_N@Z 000000018004a810 f   libucrt:xtoa.obj
 0001:00049bd0       _log_special_common        000000018004abd0 f   libucrt:log_special.obj
 0001:0004a000       $$000000                   000000018004b000     LIBCMT:guard_dispatch.obj
 0001:0004a020       ?dtor$0@?0???$?RH$0A@@?$precision_checker@Uerror_handler@detail@v8@fmt@@@detail@v8@fmt@@QEAA_KH@Z@4HA 000000018004b020 f   format.obj
 0001:0004a020       ?dtor$0@?0???$?RH$0A@@?$width_checker@Uerror_handler@detail@v8@fmt@@@detail@v8@fmt@@QEAA_KH@Z@4HA 000000018004b020 f   format.obj
 0001:0004a020       ?dtor$0@?0???$?RM$0A@@?$precision_checker@Uerror_handler@detail@v8@fmt@@@detail@v8@fmt@@QEAA_KM@Z@4HA 000000018004b020 f   format.obj
 0001:0004a020       ?dtor$0@?0???$?RM$0A@@?$width_checker@Uerror_handler@detail@v8@fmt@@@detail@v8@fmt@@QEAA_KM@Z@4HA 000000018004b020 f   format.obj
 0001:0004a020       ?dtor$0@?0???$?RN$0A@@?$precision_checker@Uerror_handler@detail@v8@fmt@@@detail@v8@fmt@@QEAA_KN@Z@4HA 000000018004b020 f   format.obj
 0001:0004a020       ?dtor$0@?0???$?RN$0A@@?$width_checker@Uerror_handler@detail@v8@fmt@@@detail@v8@fmt@@QEAA_KN@Z@4HA 000000018004b020 f   format.obj
 0001:0004a020       ?dtor$0@?0???$?RO$0A@@?$precision_checker@Uerror_handler@detail@v8@fmt@@@detail@v8@fmt@@QEAA_KO@Z@4HA 000000018004b020 f   format.obj
 0001:0004a020       ?dtor$0@?0???$?RO$0A@@?$width_checker@Uerror_handler@detail@v8@fmt@@@detail@v8@fmt@@QEAA_KO@Z@4HA 000000018004b020 f   format.obj
 0001:0004a020       ?dtor$0@?0???$?RPEBX$0A@@?$precision_checker@Uerror_handler@detail@v8@fmt@@@detail@v8@fmt@@QEAA_KPEBX@Z@4HA 000000018004b020 f   format.obj
 0001:0004a020       ?dtor$0@?0???$?RPEBX$0A@@?$width_checker@Uerror_handler@detail@v8@fmt@@@detail@v8@fmt@@QEAA_KPEBX@Z@4HA 000000018004b020 f   format.obj
 0001:0004a020       ?dtor$0@?0???$?RUmonostate@v8@fmt@@$0A@@?$precision_checker@Uerror_handler@detail@v8@fmt@@@detail@v8@fmt@@QEAA_KUmonostate@23@@Z@4HA 000000018004b020 f   format.obj
 0001:0004a020       ?dtor$0@?0???$?RUmonostate@v8@fmt@@$0A@@?$width_checker@Uerror_handler@detail@v8@fmt@@@detail@v8@fmt@@QEAA_KUmonostate@23@@Z@4HA 000000018004b020 f   format.obj
 0001:0004a020       ?dtor$0@?0???$?R_J$0A@@?$precision_checker@Uerror_handler@detail@v8@fmt@@@detail@v8@fmt@@QEAA_K_J@Z@4HA 000000018004b020 f   format.obj
 0001:0004a020       ?dtor$0@?0???$?R_J$0A@@?$width_checker@Uerror_handler@detail@v8@fmt@@@detail@v8@fmt@@QEAA_K_J@Z@4HA 000000018004b020 f   format.obj
 0001:0004a020       ?dtor$0@?0???$?R_N$0A@@?$precision_checker@Uerror_handler@detail@v8@fmt@@@detail@v8@fmt@@QEAA_K_N@Z@4HA 000000018004b020 f   format.obj
 0001:0004a020       ?dtor$0@?0???$?R_N$0A@@?$width_checker@Uerror_handler@detail@v8@fmt@@@detail@v8@fmt@@QEAA_K_N@Z@4HA 000000018004b020 f   format.obj
 0001:0004a020       ?dtor$0@?0??throw_format_error@detail@v8@fmt@@YAXPEBD@Z@4HA 000000018004b020 f   format.obj
 0001:0004a020       ?dtor$0@?0???$do_parse_arg_id@_WAEAUid_adapter@?1???$parse_replacement_field@_WAEAUformat_handler@?1???$vformat_to@_W@detail@v8@fmt@@YAXAEAV?$buffer@_W@234@V?$basic_string_view@_W@34@V?$basic_format_args@V?$basic_format_context@V?$back_insert_iterator@V?$buffer@_W@detail@v8@fmt@@@std@@_W@v8@fmt@@@34@Vlocale_ref@234@@Z@@detail@v8@fmt@@YAPEB_WPEB_W0AEAUformat_handler@?1???$vformat_to@_W@234@YAXAEAV?$buffer@_W@234@V?$basic_string_view@_W@34@V?$basic_format_args@V?$basic_format_context@V?$back_insert_iterator@V?$buffer@_W@detail@v8@fmt@@@std@@_W@v8@fmt@@@34@Vlocale_ref@234@@Z@@Z@@detail@v8@fmt@@YAPEB_WPEB_W0AEAUid_adapter@?1???$parse_replacement_field@_WAEAUformat_handler@?1???$vformat_to@_W@detail@v8@fmt@@YAXAEAV?$buffer@_W@234@V?$basic_string_view@_W@34@V?$basic_format_args@V?$basic_format_context@V?$back_insert_iterator@V?$buffer@_W@detail@v8@fmt@@@std@@_W@v8@fmt@@@34@Vlocale_ref@234@@Z@@012@YAPEB_W00AEAUformat_handler@?1???$vformat_to@_W@012@YAXAEAV?$buffer@_W@012@V?$basic_string_view@_W@12@V?$basic_format_args@V?$basic_format_context@V?$back_insert_iterator@V?$buffer@_W@detail@v8@fmt@@@std@@_W@v8@fmt@@@12@Vlocale_ref@012@@Z@@Z@@Z@4HA 000000018004b020 f   handles.obj
 0001:0004a020       ?dtor$0@?0???$get_arg@V?$basic_format_context@V?$back_insert_iterator@V?$buffer@_W@detail@v8@fmt@@@std@@_W@v8@fmt@@H@detail@v8@fmt@@YA?AV?$basic_format_arg@V?$basic_format_context@V?$back_insert_iterator@V?$buffer@_W@detail@v8@fmt@@@std@@_W@v8@fmt@@@12@AEAV?$basic_format_context@V?$back_insert_iterator@V?$buffer@_W@detail@v8@fmt@@@std@@_W@12@H@Z@4HA 000000018004b020 f   handles.obj
 0001:0004a020       ?dtor$0@?0???$parse_align@_WAEAV?$specs_checker@V?$specs_handler@_W@detail@v8@fmt@@@detail@v8@fmt@@@detail@v8@fmt@@YAPEB_WPEB_W0AEAV?$specs_checker@V?$specs_handler@_W@detail@v8@fmt@@@012@@Z@4HA 000000018004b020 f   handles.obj
 0001:0004a020       ?dtor$0@?0???$parse_float_type_spec@Uerror_handler@detail@v8@fmt@@_W@detail@v8@fmt@@YA?AUfloat_specs@012@AEBU?$basic_format_specs@_W@12@$$QEAUerror_handler@012@@Z@4HA 000000018004b020 f   handles.obj
 0001:0004a020       ?dtor$0@?0???$parse_format_specs@_WAEAV?$specs_checker@V?$specs_handler@_W@detail@v8@fmt@@@detail@v8@fmt@@@detail@v8@fmt@@YAPEB_WPEB_W0AEAV?$specs_checker@V?$specs_handler@_W@detail@v8@fmt@@@012@@Z@4HA 000000018004b020 f   handles.obj
 0001:0004a020       ?dtor$0@?0???$parse_replacement_field@_WAEAUformat_handler@?1???$vformat_to@_W@detail@v8@fmt@@YAXAEAV?$buffer@_W@234@V?$basic_string_view@_W@34@V?$basic_format_args@V?$basic_format_context@V?$back_insert_iterator@V?$buffer@_W@detail@v8@fmt@@@std@@_W@v8@fmt@@@34@Vlocale_ref@234@@Z@@detail@v8@fmt@@YAPEB_WPEB_W0AEAUformat_handler@?1???$vformat_to@_W@012@YAXAEAV?$buffer@_W@012@V?$basic_string_view@_W@12@V?$basic_format_args@V?$basic_format_context@V?$back_insert_iterator@V?$buffer@_W@detail@v8@fmt@@@std@@_W@v8@fmt@@@12@Vlocale_ref@012@@Z@@Z@4HA 000000018004b020 f   handles.obj
 0001:0004a020       ?dtor$0@?0???$write_int@_WV?$back_insert_iterator@V?$buffer@_W@detail@v8@fmt@@@std@@I@detail@v8@fmt@@YA?AV?$back_insert_iterator@V?$buffer@_W@detail@v8@fmt@@@std@@V34@U?$write_int_arg@I@012@AEBU?$basic_format_specs@_W@12@Vlocale_ref@012@@Z@4HA 000000018004b020 f   handles.obj
 0001:0004a020       ?dtor$0@?0???Rwriter@?1???$parse_format_string@$0A@_WUformat_handler@?1???$vformat_to@_W@detail@v8@fmt@@YAXAEAV?$buffer@_W@234@V?$basic_string_view@_W@34@V?$basic_format_args@V?$basic_format_context@V?$back_insert_iterator@V?$buffer@_W@detail@v8@fmt@@@std@@_W@v8@fmt@@@34@Vlocale_ref@234@@Z@@detail@v8@fmt@@YAXV?$basic_string_view@_W@23@$$QEAUformat_handler@?1???$vformat_to@_W@123@YAXAEAV?$buffer@_W@123@0V?$basic_format_args@V?$basic_format_context@V?$back_insert_iterator@V?$buffer@_W@detail@v8@fmt@@@std@@_W@v8@fmt@@@23@Vlocale_ref@123@@Z@@Z@QEAAXPEB_W5@Z@4HA 000000018004b020 f   handles.obj
 0001:0004a020       ?dtor$0@?0??check_arg_id@?$basic_format_parse_context@_WUerror_handler@detail@v8@fmt@@@v8@fmt@@QEAAXH@Z@4HA 000000018004b020 f   handles.obj
 0001:0004a020       ?dtor$0@?0??get_arg@?$specs_handler@_W@detail@v8@fmt@@AEAA?AV?$basic_format_arg@V?$basic_format_context@V?$back_insert_iterator@V?$buffer@_W@detail@v8@fmt@@@std@@_W@v8@fmt@@@34@V?$basic_string_view@_W@34@@Z@4HA 000000018004b020 f   handles.obj
 0001:0004a020       ?dtor$0@?0??next_arg_id@?$basic_format_parse_context@_WUerror_handler@detail@v8@fmt@@@v8@fmt@@QEAAHXZ@4HA 000000018004b020 f   handles.obj
 0001:0004a020       ?dtor$0@?0??on_sign@?$specs_checker@V?$specs_handler@_W@detail@v8@fmt@@@detail@v8@fmt@@QEAAXW4type@sign@34@@Z@4HA 000000018004b020 f   handles.obj
 0001:0004a020       ?dtor$0@?0??require_numeric_argument@?$specs_checker@V?$specs_handler@_W@detail@v8@fmt@@@detail@v8@fmt@@AEAAXXZ@4HA 000000018004b020 f   handles.obj
 0001:0004a020       ?dtor$12@?0???$visit_format_arg@V?$precision_checker@Uerror_handler@detail@v8@fmt@@@detail@v8@fmt@@V?$basic_format_context@V?$back_insert_iterator@V?$buffer@_W@detail@v8@fmt@@@std@@_W@34@@v8@fmt@@YA_K$$QEAV?$precision_checker@Uerror_handler@detail@v8@fmt@@@detail@01@AEBV?$basic_format_arg@V?$basic_format_context@V?$back_insert_iterator@V?$buffer@_W@detail@v8@fmt@@@std@@_W@v8@fmt@@@01@@Z@4HA 000000018004b020 f   handles.obj
 0001:0004a020       ?dtor$12@?0???$visit_format_arg@V?$width_checker@Uerror_handler@detail@v8@fmt@@@detail@v8@fmt@@V?$basic_format_context@V?$back_insert_iterator@V?$buffer@_W@detail@v8@fmt@@@std@@_W@34@@v8@fmt@@YA_K$$QEAV?$width_checker@Uerror_handler@detail@v8@fmt@@@detail@01@AEBV?$basic_format_arg@V?$basic_format_context@V?$back_insert_iterator@V?$buffer@_W@detail@v8@fmt@@@std@@_W@v8@fmt@@@01@@Z@4HA 000000018004b020 f   handles.obj
 0001:0004a020       ?dtor$2@?0???$vformat@_W$0A@@v8@fmt@@YA?AV?$basic_string@_WU?$char_traits@_W@std@@V?$allocator@_W@2@@std@@V?$basic_string_view@_W@01@V?$basic_format_args@V?$basic_format_context@V?$back_insert_iterator@V?$buffer@_W@detail@v8@fmt@@@std@@_W@v8@fmt@@@01@@Z@4HA 000000018004b020 f   handles.obj
 0001:0004a020       ?dtor$3@?0???$parse_align@_WAEAV?$specs_checker@V?$specs_handler@_W@detail@v8@fmt@@@detail@v8@fmt@@@detail@v8@fmt@@YAPEB_WPEB_W0AEAV?$specs_checker@V?$specs_handler@_W@detail@v8@fmt@@@012@@Z@4HA 000000018004b020 f   handles.obj
 0001:0004a020       ?dtor$3@?0???$parse_format_specs@_WAEAV?$specs_checker@V?$specs_handler@_W@detail@v8@fmt@@@detail@v8@fmt@@@detail@v8@fmt@@YAPEB_WPEB_W0AEAV?$specs_checker@V?$specs_handler@_W@detail@v8@fmt@@@012@@Z@4HA 000000018004b020 f   handles.obj
 0001:0004a020       ?dtor$3@?0???$visit_format_arg@V?$precision_checker@Uerror_handler@detail@v8@fmt@@@detail@v8@fmt@@V?$basic_format_context@V?$back_insert_iterator@V?$buffer@_W@detail@v8@fmt@@@std@@_W@34@@v8@fmt@@YA_K$$QEAV?$precision_checker@Uerror_handler@detail@v8@fmt@@@detail@01@AEBV?$basic_format_arg@V?$basic_format_context@V?$back_insert_iterator@V?$buffer@_W@detail@v8@fmt@@@std@@_W@v8@fmt@@@01@@Z@4HA 000000018004b020 f   handles.obj
 0001:0004a020       ?dtor$3@?0???$visit_format_arg@V?$width_checker@Uerror_handler@detail@v8@fmt@@@detail@v8@fmt@@V?$basic_format_context@V?$back_insert_iterator@V?$buffer@_W@detail@v8@fmt@@@std@@_W@34@@v8@fmt@@YA_K$$QEAV?$width_checker@Uerror_handler@detail@v8@fmt@@@detail@01@AEBV?$basic_format_arg@V?$basic_format_context@V?$back_insert_iterator@V?$buffer@_W@detail@v8@fmt@@@std@@_W@v8@fmt@@@01@@Z@4HA 000000018004b020 f   handles.obj
 0001:0004a020       ?dtor$6@?0???$parse_replacement_field@_WAEAUformat_handler@?1???$vformat_to@_W@detail@v8@fmt@@YAXAEAV?$buffer@_W@234@V?$basic_string_view@_W@34@V?$basic_format_args@V?$basic_format_context@V?$back_insert_iterator@V?$buffer@_W@detail@v8@fmt@@@std@@_W@v8@fmt@@@34@Vlocale_ref@234@@Z@@detail@v8@fmt@@YAPEB_WPEB_W0AEAUformat_handler@?1???$vformat_to@_W@012@YAXAEAV?$buffer@_W@012@V?$basic_string_view@_W@12@V?$basic_format_args@V?$basic_format_context@V?$back_insert_iterator@V?$buffer@_W@detail@v8@fmt@@@std@@_W@v8@fmt@@@12@Vlocale_ref@012@@Z@@Z@4HA 000000018004b020 f   handles.obj
 0001:0004a020       ?dtor$6@?0???$visit_format_arg@V?$precision_checker@Uerror_handler@detail@v8@fmt@@@detail@v8@fmt@@V?$basic_format_context@V?$back_insert_iterator@V?$buffer@_W@detail@v8@fmt@@@std@@_W@34@@v8@fmt@@YA_K$$QEAV?$precision_checker@Uerror_handler@detail@v8@fmt@@@detail@01@AEBV?$basic_format_arg@V?$basic_format_context@V?$back_insert_iterator@V?$buffer@_W@detail@v8@fmt@@@std@@_W@v8@fmt@@@01@@Z@4HA 000000018004b020 f   handles.obj
 0001:0004a020       ?dtor$6@?0???$visit_format_arg@V?$width_checker@Uerror_handler@detail@v8@fmt@@@detail@v8@fmt@@V?$basic_format_context@V?$back_insert_iterator@V?$buffer@_W@detail@v8@fmt@@@std@@_W@34@@v8@fmt@@YA_K$$QEAV?$width_checker@Uerror_handler@detail@v8@fmt@@@detail@01@AEBV?$basic_format_arg@V?$basic_format_context@V?$back_insert_iterator@V?$buffer@_W@detail@v8@fmt@@@std@@_W@v8@fmt@@@01@@Z@4HA 000000018004b020 f   handles.obj
 0001:0004a020       ?dtor$9@?0???$parse_replacement_field@_WAEAUformat_handler@?1???$vformat_to@_W@detail@v8@fmt@@YAXAEAV?$buffer@_W@234@V?$basic_string_view@_W@34@V?$basic_format_args@V?$basic_format_context@V?$back_insert_iterator@V?$buffer@_W@detail@v8@fmt@@@std@@_W@v8@fmt@@@34@Vlocale_ref@234@@Z@@detail@v8@fmt@@YAPEB_WPEB_W0AEAUformat_handler@?1???$vformat_to@_W@012@YAXAEAV?$buffer@_W@012@V?$basic_string_view@_W@12@V?$basic_format_args@V?$basic_format_context@V?$back_insert_iterator@V?$buffer@_W@detail@v8@fmt@@@std@@_W@v8@fmt@@@12@Vlocale_ref@012@@Z@@Z@4HA 000000018004b020 f   handles.obj
 0001:0004a020       ?dtor$9@?0???$visit_format_arg@V?$precision_checker@Uerror_handler@detail@v8@fmt@@@detail@v8@fmt@@V?$basic_format_context@V?$back_insert_iterator@V?$buffer@_W@detail@v8@fmt@@@std@@_W@34@@v8@fmt@@YA_K$$QEAV?$precision_checker@Uerror_handler@detail@v8@fmt@@@detail@01@AEBV?$basic_format_arg@V?$basic_format_context@V?$back_insert_iterator@V?$buffer@_W@detail@v8@fmt@@@std@@_W@v8@fmt@@@01@@Z@4HA 000000018004b020 f   handles.obj
 0001:0004a020       ?dtor$9@?0???$visit_format_arg@V?$width_checker@Uerror_handler@detail@v8@fmt@@@detail@v8@fmt@@V?$basic_format_context@V?$back_insert_iterator@V?$buffer@_W@detail@v8@fmt@@@std@@_W@34@@v8@fmt@@YA_K$$QEAV?$width_checker@Uerror_handler@detail@v8@fmt@@@detail@01@AEBV?$basic_format_arg@V?$basic_format_context@V?$back_insert_iterator@V?$buffer@_W@detail@v8@fmt@@@std@@_W@v8@fmt@@@01@@Z@4HA 000000018004b020 f   handles.obj
 0001:0004a030       ?dtor$0@?0??square@bigint@detail@v8@fmt@@QEAAXXZ@4HA 000000018004b030 f   format.obj
 0001:0004a040       ?dtor$0@?0??format_dragon@detail@v8@fmt@@YAXUfp@123@_NHAEAV?$buffer@D@123@AEAH@Z@4HA 000000018004b040 f   format.obj
 0001:0004a050       ?dtor$1@?0??format_dragon@detail@v8@fmt@@YAXUfp@123@_NHAEAV?$buffer@D@123@AEAH@Z@4HA 000000018004b050 f   format.obj
 0001:0004a060       ?dtor$2@?0??format_dragon@detail@v8@fmt@@YAXUfp@123@_NHAEAV?$buffer@D@123@AEAH@Z@4HA 000000018004b060 f   format.obj
 0001:0004a070       ?dtor$3@?0??format_dragon@detail@v8@fmt@@YAXUfp@123@_NHAEAV?$buffer@D@123@AEAH@Z@4HA 000000018004b070 f   format.obj
 0001:0004a080       ?dtor$0@?0???$use_facet@V?$numpunct@_W@std@@@std@@YAAEBV?$numpunct@_W@0@AEBVlocale@0@@Z@4HA 000000018004b080 f   format.obj
 0001:0004a090       ?dtor$1@?0???$use_facet@V?$numpunct@_W@std@@@std@@YAAEBV?$numpunct@_W@0@AEBVlocale@0@@Z@4HA 000000018004b090 f   format.obj
 0001:0004a0a0       ?dtor$0@?0??_Getcat@?$numpunct@_W@std@@SA_KPEAPEBVfacet@locale@2@PEBV42@@Z@4HA 000000018004b0a0 f   format.obj
 0001:0004a0c0       ?dtor$1@?0??_Getcat@?$numpunct@_W@std@@SA_KPEAPEBVfacet@locale@2@PEBV42@@Z@4HA 000000018004b0c0 f   format.obj
 0001:0004a0f0       ?dtor$2@?0??_Getcat@?$numpunct@_W@std@@SA_KPEAPEBVfacet@locale@2@PEBV42@@Z@4HA 000000018004b0f0 f   format.obj
 0001:0004a100       ?dtor$3@?0??_Getcat@?$numpunct@_W@std@@SA_KPEAPEBVfacet@locale@2@PEBV42@@Z@4HA 000000018004b100 f   format.obj
 0001:0004a110       ?dtor$4@?0??_Getcat@?$numpunct@_W@std@@SA_KPEAPEBVfacet@locale@2@PEBV42@@Z@4HA 000000018004b110 f   format.obj
 0001:0004a120       ?dtor$5@?0??_Getcat@?$numpunct@_W@std@@SA_KPEAPEBVfacet@locale@2@PEBV42@@Z@4HA 000000018004b120 f   format.obj
 0001:0004a130       ?dtor$6@?0??_Getcat@?$numpunct@_W@std@@SA_KPEAPEBVfacet@locale@2@PEBV42@@Z@4HA 000000018004b130 f   format.obj
 0001:0004a140       ?dtor$7@?0??_Getcat@?$numpunct@_W@std@@SA_KPEAPEBVfacet@locale@2@PEBV42@@Z@4HA 000000018004b140 f   format.obj
 0001:0004a150       ?dtor$8@?0??_Getcat@?$numpunct@_W@std@@SA_KPEAPEBVfacet@locale@2@PEBV42@@Z@4HA 000000018004b150 f   format.obj
 0001:0004a160       ?dtor$9@?0??_Getcat@?$numpunct@_W@std@@SA_KPEAPEBVfacet@locale@2@PEBV42@@Z@4HA 000000018004b160 f   format.obj
 0001:0004a170       ?dtor$0@?0??_Init@?$numpunct@_W@std@@IEAAXAEBV_Locinfo@2@_N@Z@4HA 000000018004b170 f   format.obj
 0001:0004a180       ?dtor$0@?0???$decimal_point@_W@detail@v8@fmt@@YA_WVlocale_ref@012@@Z@4HA 000000018004b180 f   handles.obj
 0001:0004a190       ?dtor$0@?0??query_object@@YA?AV?$unique_ptr@$$BY0A@DU?$default_delete@$$BY0A@D@std@@@std@@PEAXW4_OBJECT_INFORMATION_CLASS@@@Z@4HA 000000018004b190 f   handles.obj
 0001:0004a1a0       ?dtor$1@?0???R<lambda_1>@?1??GetUserAccountID@@YA@XZ@QEBA?AV?$basic_string@_WU?$char_traits@_W@std@@V?$allocator@_W@2@@std@@XZ@4HA 000000018004b1a0 f   handles.obj
 0001:0004a1b0       ?dtor$2@?0??print_module_impl@@YAXQEAXAEBV?$basic_string@_WU?$char_traits@_W@std@@V?$allocator@_W@2@@std@@KAEBUoptions@@AEBV?$function@$$A6A_NPEA_W_K@Z@2@@Z@4HA 000000018004b1b0 f   Plist.obj
 0001:0004a1b0       ?dtor$2@?0???R<lambda_1>@?1??GetUserAccountID@@YA@XZ@QEBA?AV?$basic_string@_WU?$char_traits@_W@std@@V?$allocator@_W@2@@std@@XZ@4HA 000000018004b1b0 f   handles.obj
 0001:0004a1c0       ?dtor$3@?0???R<lambda_1>@?1??GetUserAccountID@@YA@XZ@QEBA?AV?$basic_string@_WU?$char_traits@_W@std@@V?$allocator@_W@2@@std@@XZ@4HA 000000018004b1c0 f   handles.obj
 0001:0004a1d0       ?dtor$1@?0??GetNameByType@@YA?AV?$basic_string@_WU?$char_traits@_W@std@@V?$allocator@_W@2@@std@@PEAXGPEAVPerfThread@@@Z@4HA 000000018004b1d0 f   handles.obj
 0001:0004a1e0       ?dtor$2@?0??GetNameByType@@YA?AV?$basic_string@_WU?$char_traits@_W@std@@V?$allocator@_W@2@@std@@PEAXGPEAVPerfThread@@@Z@4HA 000000018004b1e0 f   handles.obj
 0001:0004a1f0       ?dtor$3@?0??GetNameByType@@YA?AV?$basic_string@_WU?$char_traits@_W@std@@V?$allocator@_W@2@@std@@PEAXGPEAVPerfThread@@@Z@4HA 000000018004b1f0 f   handles.obj
 0001:0004a200       ?dtor$11@?0??GetNameByType@@YA?AV?$basic_string@_WU?$char_traits@_W@std@@V?$allocator@_W@2@@std@@PEAXGPEAVPerfThread@@@Z@4HA 000000018004b200 f   handles.obj
 0001:0004a210       ?dtor$11@?0??PrintHandleInfo@@YA_NKPEAX_NPEAVPerfThread@@@Z@4HA 000000018004b210 f   handles.obj
 0001:0004a210       ?dtor$13@?0??GetNameByType@@YA?AV?$basic_string@_WU?$char_traits@_W@std@@V?$allocator@_W@2@@std@@PEAXGPEAVPerfThread@@@Z@4HA 000000018004b210 f   handles.obj
 0001:0004a210       ?dtor$13@?0??PrintHandleInfo@@YA_NKPEAX_NPEAVPerfThread@@@Z@4HA 000000018004b210 f   handles.obj
 0001:0004a220       ?dtor$19@?0??GetNameByType@@YA?AV?$basic_string@_WU?$char_traits@_W@std@@V?$allocator@_W@2@@std@@PEAXGPEAVPerfThread@@@Z@4HA 000000018004b220 f   handles.obj
 0001:0004a240       ?dtor$0@?0??PrintHandleInfo@@YA_NKPEAX_NPEAVPerfThread@@@Z@4HA 000000018004b240 f   handles.obj
 0001:0004a250       ?dtor$3@?0??PrintHandleInfo@@YA_NKPEAX_NPEAVPerfThread@@@Z@4HA 000000018004b250 f   handles.obj
 0001:0004a260       ?dtor$5@?0??PrintHandleInfo@@YA_NKPEAX_NPEAVPerfThread@@@Z@4HA 000000018004b260 f   handles.obj
 0001:0004a270       ?dtor$6@?0??PrintHandleInfo@@YA_NKPEAX_NPEAVPerfThread@@@Z@4HA 000000018004b270 f   handles.obj
 0001:0004a280       ?dtor$0@?0???$visit_format_arg@U?$default_arg_formatter@_W@detail@v8@fmt@@V?$basic_format_context@V?$back_insert_iterator@V?$buffer@_W@detail@v8@fmt@@@std@@_W@34@@v8@fmt@@YA?AV?$back_insert_iterator@V?$buffer@_W@detail@v8@fmt@@@std@@$$QEAU?$default_arg_formatter@_W@detail@01@AEBV?$basic_format_arg@V?$basic_format_context@V?$back_insert_iterator@V?$buffer@_W@detail@v8@fmt@@@std@@_W@v8@fmt@@@01@@Z@4HA 000000018004b280 f   handles.obj
 0001:0004a280       ?dtor$3@?0???$write@_WV?$back_insert_iterator@V?$buffer@_W@detail@v8@fmt@@@std@@@detail@v8@fmt@@YA?AV?$back_insert_iterator@V?$buffer@_W@detail@v8@fmt@@@std@@V34@_WAEBU?$basic_format_specs@_W@12@Vlocale_ref@012@@Z@4HA 000000018004b280 f   handles.obj
 0001:0004a290       ?dtor$0@?0???$parse_precision@_WAEAV?$specs_checker@V?$specs_handler@_W@detail@v8@fmt@@@detail@v8@fmt@@@detail@v8@fmt@@YAPEB_WPEB_W0AEAV?$specs_checker@V?$specs_handler@_W@detail@v8@fmt@@@012@@Z@4HA 000000018004b290 f   handles.obj
 0001:0004a290       ?dtor$0@?0???$visit_format_arg@AEAU?$arg_formatter@_W@detail@v8@fmt@@V?$basic_format_context@V?$back_insert_iterator@V?$buffer@_W@detail@v8@fmt@@@std@@_W@34@@v8@fmt@@YA?AV?$back_insert_iterator@V?$buffer@_W@detail@v8@fmt@@@std@@AEAU?$arg_formatter@_W@detail@01@AEBV?$basic_format_arg@V?$basic_format_context@V?$back_insert_iterator@V?$buffer@_W@detail@v8@fmt@@@std@@_W@v8@fmt@@@01@@Z@4HA 000000018004b290 f   handles.obj
 0001:0004a2a0       ?dtor$0@?0???$parse_format_string@$0A@_WUformat_handler@?1???$vformat_to@_W@detail@v8@fmt@@YAXAEAV?$buffer@_W@234@V?$basic_string_view@_W@34@V?$basic_format_args@V?$basic_format_context@V?$back_insert_iterator@V?$buffer@_W@detail@v8@fmt@@@std@@_W@v8@fmt@@@34@Vlocale_ref@234@@Z@@detail@v8@fmt@@YAXV?$basic_string_view@_W@12@$$QEAUformat_handler@?1???$vformat_to@_W@012@YAXAEAV?$buffer@_W@012@0V?$basic_format_args@V?$basic_format_context@V?$back_insert_iterator@V?$buffer@_W@detail@v8@fmt@@@std@@_W@v8@fmt@@@12@Vlocale_ref@012@@Z@@Z@4HA 000000018004b2a0 f   handles.obj
 0001:0004a2a0       ?dtor$0@?0???$parse_width@_WAEAV?$specs_checker@V?$specs_handler@_W@detail@v8@fmt@@@detail@v8@fmt@@@detail@v8@fmt@@YAPEB_WPEB_W0AEAV?$specs_checker@V?$specs_handler@_W@detail@v8@fmt@@@012@@Z@4HA 000000018004b2a0 f   handles.obj
 0001:0004a2a0       ?dtor$12@?0???$parse_precision@_WAEAV?$specs_checker@V?$specs_handler@_W@detail@v8@fmt@@@detail@v8@fmt@@@detail@v8@fmt@@YAPEB_WPEB_W0AEAV?$specs_checker@V?$specs_handler@_W@detail@v8@fmt@@@012@@Z@4HA 000000018004b2a0 f   handles.obj
 0001:0004a2a0       ?dtor$6@?0???$parse_precision@_WAEAV?$specs_checker@V?$specs_handler@_W@detail@v8@fmt@@@detail@v8@fmt@@@detail@v8@fmt@@YAPEB_WPEB_W0AEAV?$specs_checker@V?$specs_handler@_W@detail@v8@fmt@@@012@@Z@4HA 000000018004b2a0 f   handles.obj
 0001:0004a2a0       ?dtor$6@?0???$parse_width@_WAEAV?$specs_checker@V?$specs_handler@_W@detail@v8@fmt@@@detail@v8@fmt@@@detail@v8@fmt@@YAPEB_WPEB_W0AEAV?$specs_checker@V?$specs_handler@_W@detail@v8@fmt@@@012@@Z@4HA 000000018004b2a0 f   handles.obj
 0001:0004a2a0       ?dtor$9@?0???$parse_precision@_WAEAV?$specs_checker@V?$specs_handler@_W@detail@v8@fmt@@@detail@v8@fmt@@@detail@v8@fmt@@YAPEB_WPEB_W0AEAV?$specs_checker@V?$specs_handler@_W@detail@v8@fmt@@@012@@Z@4HA 000000018004b2a0 f   handles.obj
 0001:0004a2b0       ?dtor$0@?0???$write@_WV?$back_insert_iterator@V?$buffer@_W@detail@v8@fmt@@@std@@@detail@v8@fmt@@YA?AV?$back_insert_iterator@V?$buffer@_W@detail@v8@fmt@@@std@@V34@_WAEBU?$basic_format_specs@_W@12@Vlocale_ref@012@@Z@4HA 000000018004b2b0 f   handles.obj
 0001:0004a2b0       ?dtor$3@?0???$parse_format_string@$0A@_WUformat_handler@?1???$vformat_to@_W@detail@v8@fmt@@YAXAEAV?$buffer@_W@234@V?$basic_string_view@_W@34@V?$basic_format_args@V?$basic_format_context@V?$back_insert_iterator@V?$buffer@_W@detail@v8@fmt@@@std@@_W@v8@fmt@@@34@Vlocale_ref@234@@Z@@detail@v8@fmt@@YAXV?$basic_string_view@_W@12@$$QEAUformat_handler@?1???$vformat_to@_W@012@YAXAEAV?$buffer@_W@012@0V?$basic_format_args@V?$basic_format_context@V?$back_insert_iterator@V?$buffer@_W@detail@v8@fmt@@@std@@_W@v8@fmt@@@12@Vlocale_ref@012@@Z@@Z@4HA 000000018004b2b0 f   handles.obj
 0001:0004a2c0       ?dtor$0@?0???$vformat@_W$0A@@v8@fmt@@YA?AV?$basic_string@_WU?$char_traits@_W@std@@V?$allocator@_W@2@@std@@V?$basic_string_view@_W@01@V?$basic_format_args@V?$basic_format_context@V?$back_insert_iterator@V?$buffer@_W@detail@v8@fmt@@@std@@_W@v8@fmt@@@01@@Z@4HA 000000018004b2c0 f   handles.obj
 0001:0004a2d0       ?dtor$3@?0???$parse_width@_WAEAV?$specs_checker@V?$specs_handler@_W@detail@v8@fmt@@@detail@v8@fmt@@@detail@v8@fmt@@YAPEB_WPEB_W0AEAV?$specs_checker@V?$specs_handler@_W@detail@v8@fmt@@@012@@Z@4HA 000000018004b2d0 f   handles.obj
 0001:0004a2e0       ?dtor$3@?0???$parse_precision@_WAEAV?$specs_checker@V?$specs_handler@_W@detail@v8@fmt@@@detail@v8@fmt@@@detail@v8@fmt@@YAPEB_WPEB_W0AEAV?$specs_checker@V?$specs_handler@_W@detail@v8@fmt@@@012@@Z@4HA 000000018004b2e0 f   handles.obj
 0001:0004a2f0       ?dtor$3@?0???$parse_replacement_field@_WAEAUformat_handler@?1???$vformat_to@_W@detail@v8@fmt@@YAXAEAV?$buffer@_W@234@V?$basic_string_view@_W@34@V?$basic_format_args@V?$basic_format_context@V?$back_insert_iterator@V?$buffer@_W@detail@v8@fmt@@@std@@_W@v8@fmt@@@34@Vlocale_ref@234@@Z@@detail@v8@fmt@@YAPEB_WPEB_W0AEAUformat_handler@?1???$vformat_to@_W@012@YAXAEAV?$buffer@_W@012@V?$basic_string_view@_W@12@V?$basic_format_args@V?$basic_format_context@V?$back_insert_iterator@V?$buffer@_W@detail@v8@fmt@@@std@@_W@v8@fmt@@@12@Vlocale_ref@012@@Z@@Z@4HA 000000018004b2f0 f   handles.obj
 0001:0004a300       ?dtor$0@?0???$write@_WV?$back_insert_iterator@V?$buffer@_W@detail@v8@fmt@@@std@@@detail@v8@fmt@@YA?AV?$back_insert_iterator@V?$buffer@_W@detail@v8@fmt@@@std@@V34@V?$basic_string_view@_W@12@AEBU?$basic_format_specs@_W@12@Vlocale_ref@012@@Z@4HA 000000018004b300 f   handles.obj
 0001:0004a300       ?dtor$0@?0???$write@_WV?$back_insert_iterator@V?$buffer@_W@detail@v8@fmt@@@std@@X$0A@@detail@v8@fmt@@YA?AV?$back_insert_iterator@V?$buffer@_W@detail@v8@fmt@@@std@@V34@PEBXAEBU?$basic_format_specs@_W@12@Vlocale_ref@012@@Z@4HA 000000018004b300 f   handles.obj
 0001:0004a310       ?dtor$0@?0???$write@_WV?$back_insert_iterator@V?$buffer@_W@detail@v8@fmt@@@std@@M$0A@@detail@v8@fmt@@YA?AV?$back_insert_iterator@V?$buffer@_W@detail@v8@fmt@@@std@@V34@MU?$basic_format_specs@_W@12@Vlocale_ref@012@@Z@4HA 000000018004b310 f   handles.obj
 0001:0004a310       ?dtor$0@?0???$write@_WV?$back_insert_iterator@V?$buffer@_W@detail@v8@fmt@@@std@@N$0A@@detail@v8@fmt@@YA?AV?$back_insert_iterator@V?$buffer@_W@detail@v8@fmt@@@std@@V34@NU?$basic_format_specs@_W@12@Vlocale_ref@012@@Z@4HA 000000018004b310 f   handles.obj
 0001:0004a310       ?dtor$0@?0???$write@_WV?$back_insert_iterator@V?$buffer@_W@detail@v8@fmt@@@std@@O$0A@@detail@v8@fmt@@YA?AV?$back_insert_iterator@V?$buffer@_W@detail@v8@fmt@@@std@@V34@OU?$basic_format_specs@_W@12@Vlocale_ref@012@@Z@4HA 000000018004b310 f   handles.obj
 0001:0004a320       ?dtor$0@?0???$do_parse_arg_id@_WAEAUprecision_adapter@?1???$parse_precision@_WAEAV?$specs_checker@V?$specs_handler@_W@detail@v8@fmt@@@detail@v8@fmt@@@detail@v8@fmt@@YAPEB_WPEB_W0AEAV?$specs_checker@V?$specs_handler@_W@detail@v8@fmt@@@234@@Z@@detail@v8@fmt@@YAPEB_WPEB_W0AEAUprecision_adapter@?1???$parse_precision@_WAEAV?$specs_checker@V?$specs_handler@_W@detail@v8@fmt@@@detail@v8@fmt@@@012@YAPEB_W00AEAV?$specs_checker@V?$specs_handler@_W@detail@v8@fmt@@@012@@Z@@Z@4HA 000000018004b320 f   handles.obj
 0001:0004a320       ?dtor$0@?0???$do_parse_arg_id@_WAEAUwidth_adapter@?1???$parse_width@_WAEAV?$specs_checker@V?$specs_handler@_W@detail@v8@fmt@@@detail@v8@fmt@@@detail@v8@fmt@@YAPEB_WPEB_W0AEAV?$specs_checker@V?$specs_handler@_W@detail@v8@fmt@@@234@@Z@@detail@v8@fmt@@YAPEB_WPEB_W0AEAUwidth_adapter@?1???$parse_width@_WAEAV?$specs_checker@V?$specs_handler@_W@detail@v8@fmt@@@detail@v8@fmt@@@012@YAPEB_W00AEAV?$specs_checker@V?$specs_handler@_W@detail@v8@fmt@@@012@@Z@@Z@4HA 000000018004b320 f   handles.obj
 0001:0004a320       ?dtor$0@?0???$write_int@_WV?$back_insert_iterator@V?$buffer@_W@detail@v8@fmt@@@std@@_K@detail@v8@fmt@@YA?AV?$back_insert_iterator@V?$buffer@_W@detail@v8@fmt@@@std@@V34@U?$write_int_arg@_K@012@AEBU?$basic_format_specs@_W@12@Vlocale_ref@012@@Z@4HA 000000018004b320 f   handles.obj
 0001:0004a320       ?dtor$3@?0???$do_parse_arg_id@_WAEAUprecision_adapter@?1???$parse_precision@_WAEAV?$specs_checker@V?$specs_handler@_W@detail@v8@fmt@@@detail@v8@fmt@@@detail@v8@fmt@@YAPEB_WPEB_W0AEAV?$specs_checker@V?$specs_handler@_W@detail@v8@fmt@@@234@@Z@@detail@v8@fmt@@YAPEB_WPEB_W0AEAUprecision_adapter@?1???$parse_precision@_WAEAV?$specs_checker@V?$specs_handler@_W@detail@v8@fmt@@@detail@v8@fmt@@@012@YAPEB_W00AEAV?$specs_checker@V?$specs_handler@_W@detail@v8@fmt@@@012@@Z@@Z@4HA 000000018004b320 f   handles.obj
 0001:0004a320       ?dtor$3@?0???$do_parse_arg_id@_WAEAUwidth_adapter@?1???$parse_width@_WAEAV?$specs_checker@V?$specs_handler@_W@detail@v8@fmt@@@detail@v8@fmt@@@detail@v8@fmt@@YAPEB_WPEB_W0AEAV?$specs_checker@V?$specs_handler@_W@detail@v8@fmt@@@234@@Z@@detail@v8@fmt@@YAPEB_WPEB_W0AEAUwidth_adapter@?1???$parse_width@_WAEAV?$specs_checker@V?$specs_handler@_W@detail@v8@fmt@@@detail@v8@fmt@@@012@YAPEB_W00AEAV?$specs_checker@V?$specs_handler@_W@detail@v8@fmt@@@012@@Z@@Z@4HA 000000018004b320 f   handles.obj
 0001:0004a330       ?dtor$0@?0???$do_write_float@V?$back_insert_iterator@V?$buffer@_W@detail@v8@fmt@@@std@@U?$decimal_fp@M@dragonbox@detail@v8@fmt@@_WV?$digit_grouping@_W@567@@detail@v8@fmt@@YA?AV?$back_insert_iterator@V?$buffer@_W@detail@v8@fmt@@@std@@V34@AEBU?$decimal_fp@M@dragonbox@012@AEBU?$basic_format_specs@_W@12@Ufloat_specs@012@Vlocale_ref@012@@Z@4HA 000000018004b330 f   handles.obj
 0001:0004a330       ?dtor$1@?0???$do_write_float@V?$back_insert_iterator@V?$buffer@_W@detail@v8@fmt@@@std@@U?$decimal_fp@M@dragonbox@detail@v8@fmt@@_WV?$digit_grouping@_W@567@@detail@v8@fmt@@YA?AV?$back_insert_iterator@V?$buffer@_W@detail@v8@fmt@@@std@@V34@AEBU?$decimal_fp@M@dragonbox@012@AEBU?$basic_format_specs@_W@12@Ufloat_specs@012@Vlocale_ref@012@@Z@4HA 000000018004b330 f   handles.obj
 0001:0004a340       ?dtor$0@?0???$do_write_float@V?$back_insert_iterator@V?$buffer@_W@detail@v8@fmt@@@std@@U?$decimal_fp@N@dragonbox@detail@v8@fmt@@_WV?$digit_grouping@_W@567@@detail@v8@fmt@@YA?AV?$back_insert_iterator@V?$buffer@_W@detail@v8@fmt@@@std@@V34@AEBU?$decimal_fp@N@dragonbox@012@AEBU?$basic_format_specs@_W@12@Ufloat_specs@012@Vlocale_ref@012@@Z@4HA 000000018004b340 f   handles.obj
 0001:0004a340       ?dtor$1@?0???$do_write_float@V?$back_insert_iterator@V?$buffer@_W@detail@v8@fmt@@@std@@U?$decimal_fp@N@dragonbox@detail@v8@fmt@@_WV?$digit_grouping@_W@567@@detail@v8@fmt@@YA?AV?$back_insert_iterator@V?$buffer@_W@detail@v8@fmt@@@std@@V34@AEBU?$decimal_fp@N@dragonbox@012@AEBU?$basic_format_specs@_W@12@Ufloat_specs@012@Vlocale_ref@012@@Z@4HA 000000018004b340 f   handles.obj
 0001:0004a350       ?dtor$0@?0???$do_write_float@V?$back_insert_iterator@V?$buffer@_W@detail@v8@fmt@@@std@@Ubig_decimal_fp@detail@v8@fmt@@_WV?$digit_grouping@_W@456@@detail@v8@fmt@@YA?AV?$back_insert_iterator@V?$buffer@_W@detail@v8@fmt@@@std@@V34@AEBUbig_decimal_fp@012@AEBU?$basic_format_specs@_W@12@Ufloat_specs@012@Vlocale_ref@012@@Z@4HA 000000018004b350 f   handles.obj
 0001:0004a350       ?dtor$1@?0???$do_write_float@V?$back_insert_iterator@V?$buffer@_W@detail@v8@fmt@@@std@@Ubig_decimal_fp@detail@v8@fmt@@_WV?$digit_grouping@_W@456@@detail@v8@fmt@@YA?AV?$back_insert_iterator@V?$buffer@_W@detail@v8@fmt@@@std@@V34@AEBUbig_decimal_fp@012@AEBU?$basic_format_specs@_W@12@Ufloat_specs@012@Vlocale_ref@012@@Z@4HA 000000018004b350 f   handles.obj
 0001:0004a360       ?dtor$0@?0???0?$digit_grouping@_W@detail@v8@fmt@@QEAA@Vlocale_ref@123@_N@Z@4HA 000000018004b360 f   handles.obj
 0001:0004a370       ?dtor$5@?0???0?$digit_grouping@_W@detail@v8@fmt@@QEAA@Vlocale_ref@123@_N@Z@4HA 000000018004b370 f   handles.obj
 0001:0004a380       ?dtor$6@?0???0?$digit_grouping@_W@detail@v8@fmt@@QEAA@Vlocale_ref@123@_N@Z@4HA 000000018004b380 f   handles.obj
 0001:0004a390       ?dtor$0@?0???$write_int_localized@V?$back_insert_iterator@V?$buffer@_W@detail@v8@fmt@@@std@@_K_W@detail@v8@fmt@@YA_NAEAV?$back_insert_iterator@V?$buffer@_W@detail@v8@fmt@@@std@@_KIAEBU?$basic_format_specs@_W@12@Vlocale_ref@012@@Z@4HA 000000018004b390 f   handles.obj
 0001:0004a3a0       ?dtor$0@?0???$write_significand@_WV?$back_insert_iterator@V?$buffer@_W@detail@v8@fmt@@@std@@IV?$digit_grouping@_W@detail@v8@fmt@@@detail@v8@fmt@@YA?AV?$back_insert_iterator@V?$buffer@_W@detail@v8@fmt@@@std@@V34@IHHAEBV?$digit_grouping@_W@012@@Z@4HA 000000018004b3a0 f   handles.obj
 0001:0004a3a0       ?dtor$0@?0???$write_significand@_WV?$back_insert_iterator@V?$buffer@_W@detail@v8@fmt@@@std@@PEBDV?$digit_grouping@_W@detail@v8@fmt@@@detail@v8@fmt@@YA?AV?$back_insert_iterator@V?$buffer@_W@detail@v8@fmt@@@std@@V34@PEBDHHAEBV?$digit_grouping@_W@012@@Z@4HA 000000018004b3a0 f   handles.obj
 0001:0004a3a0       ?dtor$0@?0???$write_significand@_WV?$back_insert_iterator@V?$buffer@_W@detail@v8@fmt@@@std@@_KV?$digit_grouping@_W@detail@v8@fmt@@@detail@v8@fmt@@YA?AV?$back_insert_iterator@V?$buffer@_W@detail@v8@fmt@@@std@@V34@_KHHAEBV?$digit_grouping@_W@012@@Z@4HA 000000018004b3a0 f   handles.obj
 0001:0004a3b0       ?dtor$0@?0???$write_significand@V?$back_insert_iterator@V?$buffer@_W@detail@v8@fmt@@@std@@_WIV?$digit_grouping@_W@detail@v8@fmt@@@detail@v8@fmt@@YA?AV?$back_insert_iterator@V?$buffer@_W@detail@v8@fmt@@@std@@V34@IHH_WAEBV?$digit_grouping@_W@012@@Z@4HA 000000018004b3b0 f   handles.obj
 0001:0004a3c0       ?dtor$0@?0???$write_significand@V?$back_insert_iterator@V?$buffer@_W@detail@v8@fmt@@@std@@_WPEBDV?$digit_grouping@_W@detail@v8@fmt@@@detail@v8@fmt@@YA?AV?$back_insert_iterator@V?$buffer@_W@detail@v8@fmt@@@std@@V34@PEBDHH_WAEBV?$digit_grouping@_W@012@@Z@4HA 000000018004b3c0 f   handles.obj
 0001:0004a3c0       ?dtor$0@?0???$write_significand@V?$back_insert_iterator@V?$buffer@_W@detail@v8@fmt@@@std@@_W_KV?$digit_grouping@_W@detail@v8@fmt@@@detail@v8@fmt@@YA?AV?$back_insert_iterator@V?$buffer@_W@detail@v8@fmt@@@std@@V34@_KHH_WAEBV?$digit_grouping@_W@012@@Z@4HA 000000018004b3c0 f   handles.obj
 0001:0004a3d0       ?dtor$0@?0???$apply@V?$back_insert_iterator@V?$buffer@_W@detail@v8@fmt@@@std@@D@?$digit_grouping@_W@detail@v8@fmt@@QEBA?AV?$back_insert_iterator@V?$buffer@_W@detail@v8@fmt@@@std@@V45@V?$basic_string_view@D@23@@Z@4HA 000000018004b3d0 f   handles.obj
 0001:0004a3d0       ?dtor$0@?0???$apply@V?$back_insert_iterator@V?$buffer@_W@detail@v8@fmt@@@std@@_W@?$digit_grouping@_W@detail@v8@fmt@@QEBA?AV?$back_insert_iterator@V?$buffer@_W@detail@v8@fmt@@@std@@V45@V?$basic_string_view@_W@23@@Z@4HA 000000018004b3d0 f   handles.obj
 0001:0004a3e0       ?dtor$0@?0??Config@@YAHXZ@4HA 000000018004b3e0 f   Pcfg.obj
 0001:0004a3f0       ?dtor$0@?0??Read@options@@QEAAXXZ@4HA 000000018004b3f0 f   Pcfg.obj
 0001:0004a3f0       ?dtor$0@?0??Write@options@@QEBAXXZ@4HA 000000018004b3f0 f   Pcfg.obj
 0001:0004a400       ?dtor$0@?0??ui64toa_width@@YA?AV?$basic_string@_WU?$char_traits@_W@std@@V?$allocator@_W@2@@std@@_KI_N@Z@4HA 000000018004b400 f   Pclass.obj
 0001:0004a400       ?dtor$1@?0??GetVersionInfo@Plist@@SA_NPEB_WAEAV?$unique_ptr@$$BY0A@DU?$default_delete@$$BY0A@D@std@@@std@@AEAPEB_W2@Z@4HA 000000018004b400 f   Pclass.obj
 0001:0004a410       ?dtor$0@?0??PrintTitle@@YA?AV?$basic_string@_WU?$char_traits@_W@std@@V?$allocator@_W@2@@std@@V?$basic_string_view@_WU?$char_traits@_W@std@@@2@@Z@4HA 000000018004b410 f   Pclass.obj
 0001:0004a410       ?dtor$2@?0??GetVersionInfo@Plist@@SA_NPEB_WAEAV?$unique_ptr@$$BY0A@DU?$default_delete@$$BY0A@D@std@@@std@@AEAPEB_W2@Z@4HA 000000018004b410 f   Pclass.obj
 0001:0004a410       ?dtor$4@?0??GetVersionInfo@Plist@@SA_NPEB_WAEAV?$unique_ptr@$$BY0A@DU?$default_delete@$$BY0A@D@std@@@std@@AEAPEB_W2@Z@4HA 000000018004b410 f   Pclass.obj
 0001:0004a420       ?dtor$0@?0???0Plist@@QEAA@XZ@4HA 000000018004b420 f   Pclass.obj
 0001:0004a430       ?dtor$1@?0???0Plist@@QEAA@XZ@4HA 000000018004b430 f   Pclass.obj
 0001:0004a440       ?dtor$2@?0???0Plist@@QEAA@XZ@4HA 000000018004b440 f   Pclass.obj
 0001:0004a450       ?dtor$0@?0??SavePanelModes@Plist@@SAXXZ@4HA 000000018004b450 f   Pclass.obj
 0001:0004a450       ?dtor$3@?0???0Plist@@QEAA@XZ@4HA 000000018004b450 f   Pclass.obj
 0001:0004a460       ?dtor$7@?0???0Plist@@QEAA@XZ@4HA 000000018004b460 f   Pclass.obj
 0001:0004a480       ?dtor$0@?0??TranslateMode@@YA_NAEBV?$basic_string@_WU?$char_traits@_W@std@@V?$allocator@_W@2@@std@@AEAV12@@Z@4HA 000000018004b480 f   Pclass.obj
 0001:0004a480       ?dtor$0@?0???$print_module@PEAX@@YAXQEAXPEAXKAEAUoptions@@AEBV?$function@$$A6A_NPEA_W_K@Z@std@@@Z@4HA 000000018004b480 f   Plist.obj
 0001:0004a490       ?dtor$0@?0??InitializePanelModes@Plist@@SAXXZ@4HA 000000018004b490 f   Pclass.obj
 0001:0004a490       ?dtor$6@?0??PrintOwnerInfo@Plist@@AEAAXPEAXK@Z@4HA 000000018004b490 f   Pclass.obj
 0001:0004a490       ?dtor$91@?0??InitializePanelModes@Plist@@SAXXZ@4HA 000000018004b490 f   Pclass.obj
 0001:0004a4a0       ?dtor$8@?0??InitializePanelModes@Plist@@SAXXZ@4HA 000000018004b4a0 f   Pclass.obj
 0001:0004a4a0       ?dtor$99@?0??InitializePanelModes@Plist@@SAXXZ@4HA 000000018004b4a0 f   Pclass.obj
 0001:0004a4b0       ?dtor$100@?0??InitializePanelModes@Plist@@SAXXZ@4HA 000000018004b4b0 f   Pclass.obj
 0001:0004a4b0       ?dtor$9@?0??InitializePanelModes@Plist@@SAXXZ@4HA 000000018004b4b0 f   Pclass.obj
 0001:0004a4c0       ?dtor$108@?0??InitializePanelModes@Plist@@SAXXZ@4HA 000000018004b4c0 f   Pclass.obj
 0001:0004a4c0       ?dtor$17@?0??InitializePanelModes@Plist@@SAXXZ@4HA 000000018004b4c0 f   Pclass.obj
 0001:0004a4d0       ?dtor$109@?0??InitializePanelModes@Plist@@SAXXZ@4HA 000000018004b4d0 f   Pclass.obj
 0001:0004a4d0       ?dtor$18@?0??InitializePanelModes@Plist@@SAXXZ@4HA 000000018004b4d0 f   Pclass.obj
 0001:0004a4e0       ?dtor$117@?0??InitializePanelModes@Plist@@SAXXZ@4HA 000000018004b4e0 f   Pclass.obj
 0001:0004a4e0       ?dtor$26@?0??InitializePanelModes@Plist@@SAXXZ@4HA 000000018004b4e0 f   Pclass.obj
 0001:0004a4f0       ?dtor$118@?0??InitializePanelModes@Plist@@SAXXZ@4HA 000000018004b4f0 f   Pclass.obj
 0001:0004a4f0       ?dtor$27@?0??InitializePanelModes@Plist@@SAXXZ@4HA 000000018004b4f0 f   Pclass.obj
 0001:0004a500       ?dtor$126@?0??InitializePanelModes@Plist@@SAXXZ@4HA 000000018004b500 f   Pclass.obj
 0001:0004a500       ?dtor$35@?0??InitializePanelModes@Plist@@SAXXZ@4HA 000000018004b500 f   Pclass.obj
 0001:0004a510       ?dtor$127@?0??InitializePanelModes@Plist@@SAXXZ@4HA 000000018004b510 f   Pclass.obj
 0001:0004a510       ?dtor$36@?0??InitializePanelModes@Plist@@SAXXZ@4HA 000000018004b510 f   Pclass.obj
 0001:0004a520       ?dtor$135@?0??InitializePanelModes@Plist@@SAXXZ@4HA 000000018004b520 f   Pclass.obj
 0001:0004a520       ?dtor$44@?0??InitializePanelModes@Plist@@SAXXZ@4HA 000000018004b520 f   Pclass.obj
 0001:0004a530       ?dtor$136@?0??InitializePanelModes@Plist@@SAXXZ@4HA 000000018004b530 f   Pclass.obj
 0001:0004a530       ?dtor$45@?0??InitializePanelModes@Plist@@SAXXZ@4HA 000000018004b530 f   Pclass.obj
 0001:0004a540       ?dtor$144@?0??InitializePanelModes@Plist@@SAXXZ@4HA 000000018004b540 f   Pclass.obj
 0001:0004a540       ?dtor$53@?0??InitializePanelModes@Plist@@SAXXZ@4HA 000000018004b540 f   Pclass.obj
 0001:0004a550       ?dtor$145@?0??InitializePanelModes@Plist@@SAXXZ@4HA 000000018004b550 f   Pclass.obj
 0001:0004a550       ?dtor$54@?0??InitializePanelModes@Plist@@SAXXZ@4HA 000000018004b550 f   Pclass.obj
 0001:0004a560       ?dtor$153@?0??InitializePanelModes@Plist@@SAXXZ@4HA 000000018004b560 f   Pclass.obj
 0001:0004a560       ?dtor$62@?0??InitializePanelModes@Plist@@SAXXZ@4HA 000000018004b560 f   Pclass.obj
 0001:0004a570       ?dtor$154@?0??InitializePanelModes@Plist@@SAXXZ@4HA 000000018004b570 f   Pclass.obj
 0001:0004a570       ?dtor$63@?0??InitializePanelModes@Plist@@SAXXZ@4HA 000000018004b570 f   Pclass.obj
 0001:0004a580       ?dtor$162@?0??InitializePanelModes@Plist@@SAXXZ@4HA 000000018004b580 f   Pclass.obj
 0001:0004a580       ?dtor$71@?0??InitializePanelModes@Plist@@SAXXZ@4HA 000000018004b580 f   Pclass.obj
 0001:0004a590       ?dtor$163@?0??InitializePanelModes@Plist@@SAXXZ@4HA 000000018004b590 f   Pclass.obj
 0001:0004a590       ?dtor$29@?0??GetFiles@Plist@@QEAAHPEAUPluginPanelItem@@_KHPEAPEB_W1AEAUoptions@@@Z@4HA 000000018004b590 f   Pclass.obj
 0001:0004a590       ?dtor$31@?0??GetFiles@Plist@@QEAAHPEAUPluginPanelItem@@_KHPEAPEB_W1AEAUoptions@@@Z@4HA 000000018004b590 f   Pclass.obj
 0001:0004a590       ?dtor$4@?0??GetFiles@Plist@@QEAAHPEAUPluginPanelItem@@_KHPEAPEB_W1AEAUoptions@@@Z@4HA 000000018004b590 f   Pclass.obj
 0001:0004a590       ?dtor$6@?0??GetFiles@Plist@@QEAAHPEAUPluginPanelItem@@_KHPEAPEB_W1AEAUoptions@@@Z@4HA 000000018004b590 f   Pclass.obj
 0001:0004a590       ?dtor$72@?0??InitializePanelModes@Plist@@SAXXZ@4HA 000000018004b590 f   Pclass.obj
 0001:0004a590       ?dtor$8@?0??GetFiles@Plist@@QEAAHPEAUPluginPanelItem@@_KHPEAPEB_W1AEAUoptions@@@Z@4HA 000000018004b590 f   Pclass.obj
 0001:0004a5a0       ?dtor$171@?0??InitializePanelModes@Plist@@SAXXZ@4HA 000000018004b5a0 f   Pclass.obj
 0001:0004a5a0       ?dtor$80@?0??InitializePanelModes@Plist@@SAXXZ@4HA 000000018004b5a0 f   Pclass.obj
 0001:0004a5b0       ?dtor$172@?0??InitializePanelModes@Plist@@SAXXZ@4HA 000000018004b5b0 f   Pclass.obj
 0001:0004a5b0       ?dtor$81@?0??InitializePanelModes@Plist@@SAXXZ@4HA 000000018004b5b0 f   Pclass.obj
 0001:0004a5c0       ?dtor$181@?0??InitializePanelModes@Plist@@SAXXZ@4HA 000000018004b5c0 f   Pclass.obj
 0001:0004a5c0       ?dtor$90@?0??InitializePanelModes@Plist@@SAXXZ@4HA 000000018004b5c0 f   Pclass.obj
 0001:0004a5f0       ?dtor$182@?0??InitializePanelModes@Plist@@SAXXZ@4HA 000000018004b5f0 f   Pclass.obj
 0001:0004a600       ?dtor$183@?0??InitializePanelModes@Plist@@SAXXZ@4HA 000000018004b600 f   Pclass.obj
 0001:0004a610       ?dtor$1@?0??PrintOwnerInfo@Plist@@AEAAXPEAXK@Z@4HA 000000018004b610 f   Pclass.obj
 0001:0004a610       ?dtor$1@?0??SavePanelModes@Plist@@SAXXZ@4HA 000000018004b610 f   Pclass.obj
 0001:0004a610       ?dtor$1@?0??PrintNTCurDirAndEnv@@YAXPEAX0H@Z@4HA 000000018004b610 f   Plist.obj
 0001:0004a620       ?dtor$0@?0??generate_titles@@YAXAEBV?$basic_string@_WU?$char_traits@_W@std@@V?$allocator@_W@2@@std@@AEAUPanelMode@@@Z@4HA 000000018004b620 f   Pclass.obj
 0001:0004a630       ?dtor$0@?0??GetOpenPanelInfo@Plist@@QEAAXPEAUOpenPanelInfo@@@Z@4HA 000000018004b630 f   Pclass.obj
 0001:0004a640       ?dtor$0@?0??GetFindData@Plist@@QEAAHAEAPEAUPluginPanelItem@@AEA_K_K@Z@4HA 000000018004b640 f   Pclass.obj
 0001:0004a650       ?dtor$1@?0??GetFindData@Plist@@QEAAHAEAPEAUPluginPanelItem@@AEA_K_K@Z@4HA 000000018004b650 f   Pclass.obj
 0001:0004a660       ?dtor$2@?0??GetFindData@Plist@@QEAAHAEAPEAUPluginPanelItem@@AEA_K_K@Z@4HA 000000018004b660 f   Pclass.obj
 0001:0004a670       ?dtor$3@?0??GetFindData@Plist@@QEAAHAEAPEAUPluginPanelItem@@AEA_K_K@Z@4HA 000000018004b670 f   Pclass.obj
 0001:0004a680       ?dtor$0@?0??PrintVersionInfo@Plist@@CAXPEAXPEB_W@Z@4HA 000000018004b680 f   Pclass.obj
 0001:0004a680       ?dtor$4@?0??GetFindData@Plist@@QEAAHAEAPEAUPluginPanelItem@@AEA_K_K@Z@4HA 000000018004b680 f   Pclass.obj
 0001:0004a690       ?dtor$5@?0??GetFindData@Plist@@QEAAHAEAPEAUPluginPanelItem@@AEA_K_K@Z@4HA 000000018004b690 f   Pclass.obj
 0001:0004a6a0       ?dtor$6@?0??GetFindData@Plist@@QEAAHAEAPEAUPluginPanelItem@@AEA_K_K@Z@4HA 000000018004b6a0 f   Pclass.obj
 0001:0004a6b0       ?dtor$7@?0??GetFindData@Plist@@QEAAHAEAPEAUPluginPanelItem@@AEA_K_K@Z@4HA 000000018004b6b0 f   Pclass.obj
 0001:0004a6c0       ?dtor$8@?0??GetFindData@Plist@@QEAAHAEAPEAUPluginPanelItem@@AEA_K_K@Z@4HA 000000018004b6c0 f   Pclass.obj
 0001:0004a6d0       ?dtor$13@?0??GetFindData@Plist@@QEAAHAEAPEAUPluginPanelItem@@AEA_K_K@Z@4HA 000000018004b6d0 f   Pclass.obj
 0001:0004a6e0       ?dtor$14@?0??GetFindData@Plist@@QEAAHAEAPEAUPluginPanelItem@@AEA_K_K@Z@4HA 000000018004b6e0 f   Pclass.obj
 0001:0004a6f0       ?dtor$0@?0??window_ex_style@@YA@PEAUHWND__@@@Z@4HA 000000018004b6f0 f   Pclass.obj
 0001:0004a6f0       ?dtor$0@?0??window_style@@YA@PEAUHWND__@@@Z@4HA 000000018004b6f0 f   Pclass.obj
 0001:0004a700       ?dtor$0@?0??DumpNTCounters@@YAXPEAXAEAVPerfThread@@KK@Z@4HA 000000018004b700 f   Pclass.obj
 0001:0004a710       ?dtor$3@?0??DumpNTCounters@@YAXPEAXAEAVPerfThread@@KK@Z@4HA 000000018004b710 f   Pclass.obj
 0001:0004a720       ?dtor$0@?0??GetFiles@Plist@@QEAAHPEAUPluginPanelItem@@_KHPEAPEB_W1AEAUoptions@@@Z@4HA 000000018004b720 f   Pclass.obj
 0001:0004a730       ?dtor$1@?0??GetFiles@Plist@@QEAAHPEAUPluginPanelItem@@_KHPEAPEB_W1AEAUoptions@@@Z@4HA 000000018004b730 f   Pclass.obj
 0001:0004a740       ?dtor$2@?0??GetFiles@Plist@@QEAAHPEAUPluginPanelItem@@_KHPEAPEB_W1AEAUoptions@@@Z@4HA 000000018004b740 f   Pclass.obj
 0001:0004a750       ?dtor$3@?0??GetFiles@Plist@@QEAAHPEAUPluginPanelItem@@_KHPEAPEB_W1AEAUoptions@@@Z@4HA 000000018004b750 f   Pclass.obj
 0001:0004a760       ?dtor$11@?0??GetFiles@Plist@@QEAAHPEAUPluginPanelItem@@_KHPEAPEB_W1AEAUoptions@@@Z@4HA 000000018004b760 f   Pclass.obj
 0001:0004a770       ?dtor$14@?0??GetFiles@Plist@@QEAAHPEAUPluginPanelItem@@_KHPEAPEB_W1AEAUoptions@@@Z@4HA 000000018004b770 f   Pclass.obj
 0001:0004a770       ?dtor$16@?0??GetFiles@Plist@@QEAAHPEAUPluginPanelItem@@_KHPEAPEB_W1AEAUoptions@@@Z@4HA 000000018004b770 f   Pclass.obj
 0001:0004a770       ?dtor$18@?0??GetFiles@Plist@@QEAAHPEAUPluginPanelItem@@_KHPEAPEB_W1AEAUoptions@@@Z@4HA 000000018004b770 f   Pclass.obj
 0001:0004a770       ?dtor$23@?0??GetFiles@Plist@@QEAAHPEAUPluginPanelItem@@_KHPEAPEB_W1AEAUoptions@@@Z@4HA 000000018004b770 f   Pclass.obj
 0001:0004a780       ?dtor$20@?0??GetFiles@Plist@@QEAAHPEAUPluginPanelItem@@_KHPEAPEB_W1AEAUoptions@@@Z@4HA 000000018004b780 f   Pclass.obj
 0001:0004a780       ?dtor$35@?0??GetFiles@Plist@@QEAAHPEAUPluginPanelItem@@_KHPEAPEB_W1AEAUoptions@@@Z@4HA 000000018004b780 f   Pclass.obj
 0001:0004a790       ?dtor$22@?0??GetFiles@Plist@@QEAAHPEAUPluginPanelItem@@_KHPEAPEB_W1AEAUoptions@@@Z@4HA 000000018004b790 f   Pclass.obj
 0001:0004a790       ?dtor$33@?0??GetFiles@Plist@@QEAAHPEAUPluginPanelItem@@_KHPEAPEB_W1AEAUoptions@@@Z@4HA 000000018004b790 f   Pclass.obj
 0001:0004a790       ?dtor$38@?0??GetFiles@Plist@@QEAAHPEAUPluginPanelItem@@_KHPEAPEB_W1AEAUoptions@@@Z@4HA 000000018004b790 f   Pclass.obj
 0001:0004a790       ?dtor$41@?0??GetFiles@Plist@@QEAAHPEAUPluginPanelItem@@_KHPEAPEB_W1AEAUoptions@@@Z@4HA 000000018004b790 f   Pclass.obj
 0001:0004a7a0       ?dtor$26@?0??GetFiles@Plist@@QEAAHPEAUPluginPanelItem@@_KHPEAPEB_W1AEAUoptions@@@Z@4HA 000000018004b7a0 f   Pclass.obj
 0001:0004a7b0       ?dtor$27@?0??GetFiles@Plist@@QEAAHPEAUPluginPanelItem@@_KHPEAPEB_W1AEAUoptions@@@Z@4HA 000000018004b7b0 f   Pclass.obj
 0001:0004a7c0       ?dtor$28@?0??GetFiles@Plist@@QEAAHPEAUPluginPanelItem@@_KHPEAPEB_W1AEAUoptions@@@Z@4HA 000000018004b7c0 f   Pclass.obj
 0001:0004a7d0       ?dtor$37@?0??GetFiles@Plist@@QEAAHPEAUPluginPanelItem@@_KHPEAPEB_W1AEAUoptions@@@Z@4HA 000000018004b7d0 f   Pclass.obj
 0001:0004a7e0       ?dtor$40@?0??GetFiles@Plist@@QEAAHPEAUPluginPanelItem@@_KHPEAPEB_W1AEAUoptions@@@Z@4HA 000000018004b7e0 f   Pclass.obj
 0001:0004a7f0       ?dtor$0@?0??DeleteFiles@Plist@@QEAAHPEAUPluginPanelItem@@_K1@Z@4HA 000000018004b7f0 f   Pclass.obj
 0001:0004a800       ?dtor$1@?0??DeleteFiles@Plist@@QEAAHPEAUPluginPanelItem@@_K1@Z@4HA 000000018004b800 f   Pclass.obj
 0001:0004a800       ?dtor$1@?0??PrintVersionInfo@Plist@@CAXPEAXPEB_W@Z@4HA 000000018004b800 f   Pclass.obj
 0001:0004a800       ?dtor$3@?0??PrintVersionInfo@Plist@@CAXPEAXPEB_W@Z@4HA 000000018004b800 f   Pclass.obj
 0001:0004a800       ?dtor$4@?0??DeleteFiles@Plist@@QEAAHPEAUPluginPanelItem@@_K1@Z@4HA 000000018004b800 f   Pclass.obj
 0001:0004a810       ?dtor$0@?0??Connect@Plist@@QEAA_NPEB_W00@Z@4HA 000000018004b810 f   Pclass.obj
 0001:0004a820       ?dtor$1@?0??Connect@Plist@@QEAA_NPEB_W00@Z@4HA 000000018004b820 f   Pclass.obj
 0001:0004a830       ?dtor$3@?0??Connect@Plist@@QEAA_NPEB_W00@Z@4HA 000000018004b830 f   Pclass.obj
 0001:0004a850       ?dtor$0@?0??ProcessKey@Plist@@QEAAHPEBU_INPUT_RECORD@@@Z@4HA 000000018004b850 f   Pclass.obj
 0001:0004a860       ?dtor$1@?0??ProcessKey@Plist@@QEAAHPEBU_INPUT_RECORD@@@Z@4HA 000000018004b860 f   Pclass.obj
 0001:0004a860       ?dtor$2@?0??ProcessKey@Plist@@QEAAHPEBU_INPUT_RECORD@@@Z@4HA 000000018004b860 f   Pclass.obj
 0001:0004a860       ?dtor$4@?0??ProcessKey@Plist@@QEAAHPEBU_INPUT_RECORD@@@Z@4HA 000000018004b860 f   Pclass.obj
 0001:0004a870       ?dtor$3@?0??ProcessKey@Plist@@QEAAHPEBU_INPUT_RECORD@@@Z@4HA 000000018004b870 f   Pclass.obj
 0001:0004a870       ?dtor$5@?0??ProcessKey@Plist@@QEAAHPEBU_INPUT_RECORD@@@Z@4HA 000000018004b870 f   Pclass.obj
 0001:0004a880       ?dtor$8@?0??ProcessKey@Plist@@QEAAHPEBU_INPUT_RECORD@@@Z@4HA 000000018004b880 f   Pclass.obj
 0001:0004a890       ?dtor$11@?0??ProcessKey@Plist@@QEAAHPEBU_INPUT_RECORD@@@Z@4HA 000000018004b890 f   Pclass.obj
 0001:0004a890       ?dtor$9@?0??ProcessKey@Plist@@QEAAHPEBU_INPUT_RECORD@@@Z@4HA 000000018004b890 f   Pclass.obj
 0001:0004a8a0       ?dtor$10@?0??ProcessKey@Plist@@QEAAHPEBU_INPUT_RECORD@@@Z@4HA 000000018004b8a0 f   Pclass.obj
 0001:0004a8b0       ?dtor$12@?0??ProcessKey@Plist@@QEAAHPEBU_INPUT_RECORD@@@Z@4HA 000000018004b8b0 f   Pclass.obj
 0001:0004a8c0       ?dtor$13@?0??ProcessKey@Plist@@QEAAHPEBU_INPUT_RECORD@@@Z@4HA 000000018004b8c0 f   Pclass.obj
 0001:0004a8d0       ?dtor$14@?0??ProcessKey@Plist@@QEAAHPEBU_INPUT_RECORD@@@Z@4HA 000000018004b8d0 f   Pclass.obj
 0001:0004a8e0       ?dtor$15@?0??ProcessKey@Plist@@QEAAHPEBU_INPUT_RECORD@@@Z@4HA 000000018004b8e0 f   Pclass.obj
 0001:0004a910       ?dtor$16@?0??ProcessKey@Plist@@QEAAHPEBU_INPUT_RECORD@@@Z@4HA 000000018004b910 f   Pclass.obj
 0001:0004a940       ?dtor$181@?0??ProcessKey@Plist@@QEAAHPEBU_INPUT_RECORD@@@Z@4HA 000000018004b940 f   Pclass.obj
 0001:0004a940       ?dtor$183@?0??ProcessKey@Plist@@QEAAHPEBU_INPUT_RECORD@@@Z@4HA 000000018004b940 f   Pclass.obj
 0001:0004a960       ?dtor$187@?0??ProcessKey@Plist@@QEAAHPEBU_INPUT_RECORD@@@Z@4HA 000000018004b960 f   Pclass.obj
 0001:0004a970       ?dtor$0@?0??PrintOwnerInfo@Plist@@AEAAXPEAXK@Z@4HA 000000018004b970 f   Pclass.obj
 0001:0004a970       ?dtor$4@?0??RefreshWMIData@PerfThread@@AEAAXXZ@4HA 000000018004b970 f   perfthread.obj
 0001:0004a980       ?dtor$2@?0??PrintOwnerInfo@Plist@@AEAAXPEAXK@Z@4HA 000000018004b980 f   Pclass.obj
 0001:0004a980       ?dtor$0@?0??PrintNTCurDirAndEnv@@YAXPEAX0H@Z@4HA 000000018004b980 f   Plist.obj
 0001:0004a990       ?dtor$0@?0??Compare@Plist@@QEBAHPEBUPluginPanelItem@@0I@Z@4HA 000000018004b990 f   Pclass.obj
 0001:0004a9a0       ?dtor$1@?0??Compare@Plist@@QEBAHPEBUPluginPanelItem@@0I@Z@4HA 000000018004b9a0 f   Pclass.obj
 0001:0004a9b0       ?dtor$0@?0???$_Try_emplace@AEBK$$V@?$_Hash@V?$_Umap_traits@KPEAUHWND__@@V?$_Uhash_compare@KU?$hash@K@std@@U?$equal_to@K@2@@std@@V?$allocator@U?$pair@$$CBKPEAUHWND__@@@std@@@3@$0A@@std@@@std@@IEAA?AU?$pair@PEAU?$_List_node@U?$pair@$$CBKPEAUHWND__@@@std@@PEAX@std@@_N@1@AEBK@Z@4HA 000000018004b9b0 f   Pclass.obj
 0001:0004a9b0       ?dtor$1@?0???$_Try_emplace@AEBK$$V@?$_Hash@V?$_Umap_traits@KPEAUHWND__@@V?$_Uhash_compare@KU?$hash@K@std@@U?$equal_to@K@2@@std@@V?$allocator@U?$pair@$$CBKPEAUHWND__@@@std@@@3@$0A@@std@@@std@@IEAA?AU?$pair@PEAU?$_List_node@U?$pair@$$CBKPEAUHWND__@@@std@@PEAX@std@@_N@1@AEBK@Z@4HA 000000018004b9b0 f   Pclass.obj
 0001:0004a9c0       ?dtor$0@?0???$_Assign_range@PEBUmode@@@?$vector@Umode@@V?$allocator@Umode@@@std@@@std@@AEAAXPEBUmode@@0Uforward_iterator_tag@1@@Z@4HA 000000018004b9c0 f   Pclass.obj
 0001:0004a9d0       ?dtor$1@?0???$_Assign_range@PEBUmode@@@?$vector@Umode@@V?$allocator@Umode@@@std@@@std@@AEAAXPEBUmode@@0Uforward_iterator_tag@1@@Z@4HA 000000018004b9d0 f   Pclass.obj
 0001:0004a9e0       ?dtor$3@?0???$_Assign_range@PEBUmode@@@?$vector@Umode@@V?$allocator@Umode@@@std@@@std@@AEAAXPEBUmode@@0Uforward_iterator_tag@1@@Z@4HA 000000018004b9e0 f   Pclass.obj
 0001:0004a9e0       ?dtor$6@?0???$_Assign_range@PEBUmode@@@?$vector@Umode@@V?$allocator@Umode@@@std@@@std@@AEAAXPEBUmode@@0Uforward_iterator_tag@1@@Z@4HA 000000018004b9e0 f   Pclass.obj
 0001:0004a9f0       ?dtor$4@?0???$_Assign_range@PEBUmode@@@?$vector@Umode@@V?$allocator@Umode@@@std@@@std@@AEAAXPEBUmode@@0Uforward_iterator_tag@1@@Z@4HA 000000018004b9f0 f   Pclass.obj
 0001:0004a9f0       ?dtor$7@?0???$_Assign_range@PEBUmode@@@?$vector@Umode@@V?$allocator@Umode@@@std@@@std@@AEAAXPEBUmode@@0Uforward_iterator_tag@1@@Z@4HA 000000018004b9f0 f   Pclass.obj
 0001:0004aa00       ?dtor$0@?0???0PerfThread@@QEAA@PEAVPlist@@PEB_W11@Z@4HA 000000018004ba00 f   perfthread.obj
 0001:0004aa10       ?dtor$1@?0???0PerfThread@@QEAA@PEAVPlist@@PEB_W11@Z@4HA 000000018004ba10 f   perfthread.obj
 0001:0004aa20       ?dtor$2@?0???0PerfThread@@QEAA@PEAVPlist@@PEB_W11@Z@4HA 000000018004ba20 f   perfthread.obj
 0001:0004aa30       ?dtor$3@?0???0PerfThread@@QEAA@PEAVPlist@@PEB_W11@Z@4HA 000000018004ba30 f   perfthread.obj
 0001:0004aa40       ?dtor$4@?0???0PerfThread@@QEAA@PEAVPlist@@PEB_W11@Z@4HA 000000018004ba40 f   perfthread.obj
 0001:0004aa50       ?dtor$5@?0???0PerfThread@@QEAA@PEAVPlist@@PEB_W11@Z@4HA 000000018004ba50 f   perfthread.obj
 0001:0004aa60       ?dtor$6@?0???0PerfThread@@QEAA@PEAVPlist@@PEB_W11@Z@4HA 000000018004ba60 f   perfthread.obj
 0001:0004aa80       ?dtor$7@?0???0PerfThread@@QEAA@PEAVPlist@@PEB_W11@Z@4HA 000000018004ba80 f   perfthread.obj
 0001:0004aaa0       ?dtor$8@?0???0PerfThread@@QEAA@PEAVPlist@@PEB_W11@Z@4HA 000000018004baa0 f   perfthread.obj
 0001:0004aac0       ?dtor$9@?0???0PerfThread@@QEAA@PEAVPlist@@PEB_W11@Z@4HA 000000018004bac0 f   perfthread.obj
 0001:0004aae0       ?dtor$10@?0???0PerfThread@@QEAA@PEAVPlist@@PEB_W11@Z@4HA 000000018004bae0 f   perfthread.obj
 0001:0004ab00       ?dtor$11@?0???0PerfThread@@QEAA@PEAVPlist@@PEB_W11@Z@4HA 000000018004bb00 f   perfthread.obj
 0001:0004ab20       ?dtor$12@?0???0PerfThread@@QEAA@PEAVPlist@@PEB_W11@Z@4HA 000000018004bb20 f   perfthread.obj
 0001:0004ab30       ?dtor$13@?0???0PerfThread@@QEAA@PEAVPlist@@PEB_W11@Z@4HA 000000018004bb30 f   perfthread.obj
 0001:0004ab40       ?dtor$0@?0??Refresh@PerfThread@@AEAAXXZ@4HA 000000018004bb40 f   perfthread.obj
 0001:0004ab50       ?dtor$1@?0??Refresh@PerfThread@@AEAAXXZ@4HA 000000018004bb50 f   perfthread.obj
 0001:0004ab60       ?dtor$2@?0??Refresh@PerfThread@@AEAAXXZ@4HA 000000018004bb60 f   perfthread.obj
 0001:0004ab70       ?dtor$7@?0??Refresh@PerfThread@@AEAAXXZ@4HA 000000018004bb70 f   perfthread.obj
 0001:0004ab80       ?dtor$10@?0??Refresh@PerfThread@@AEAAXXZ@4HA 000000018004bb80 f   perfthread.obj
 0001:0004ab90       ?dtor$16@?0??Refresh@PerfThread@@AEAAXXZ@4HA 000000018004bb90 f   perfthread.obj
 0001:0004aba0       ?dtor$17@?0??Refresh@PerfThread@@AEAAXXZ@4HA 000000018004bba0 f   perfthread.obj
 0001:0004abb0       ?dtor$22@?0??Refresh@PerfThread@@AEAAXXZ@4HA 000000018004bbb0 f   perfthread.obj
 0001:0004abc0       ?dtor$23@?0??Refresh@PerfThread@@AEAAXXZ@4HA 000000018004bbc0 f   perfthread.obj
 0001:0004abd0       ?dtor$0@?0??RefreshWMIData@PerfThread@@AEAAXXZ@4HA 000000018004bbd0 f   perfthread.obj
 0001:0004abe0       ?dtor$1@?0??RefreshWMIData@PerfThread@@AEAAXXZ@4HA 000000018004bbe0 f   perfthread.obj
 0001:0004abf0       ?dtor$6@?0??RefreshWMIData@PerfThread@@AEAAXXZ@4HA 000000018004bbf0 f   perfthread.obj
 0001:0004ac00       ?dtor$8@?0??RefreshWMIData@PerfThread@@AEAAXXZ@4HA 000000018004bc00 f   perfthread.obj
 0001:0004ac30       ?dtor$20@?0??RefreshWMIData@PerfThread@@AEAAXXZ@4HA 000000018004bc30 f   perfthread.obj
 0001:0004ac30       ?dtor$9@?0??RefreshWMIData@PerfThread@@AEAAXXZ@4HA 000000018004bc30 f   perfthread.obj
 0001:0004ac40       ?dtor$19@?0??RefreshWMIData@PerfThread@@AEAAXXZ@4HA 000000018004bc40 f   perfthread.obj
 0001:0004ac70       ?dtor$1@?0???0?$unordered_multimap@KUProcessPerfData@@U?$hash@K@std@@U?$equal_to@K@3@V?$allocator@U?$pair@$$CBKUProcessPerfData@@@std@@@3@@std@@QEAA@XZ@4HA 000000018004bc70 f   perfthread.obj
 0001:0004ac80       ?dtor$2@?0???0?$unordered_multimap@KUProcessPerfData@@U?$hash@K@std@@U?$equal_to@K@3@V?$allocator@U?$pair@$$CBKUProcessPerfData@@@std@@@3@@std@@QEAA@XZ@4HA 000000018004bc80 f   perfthread.obj
 0001:0004ac90       ?dtor$0@?0???$transform@V?$_List_const_iterator@V?$_List_val@U?$_List_simple_types@U?$pair@$$CBKUProcessPerfData@@@std@@@std@@@std@@@std@@V?$back_insert_iterator@V?$vector@UProcessPerfData@@V?$allocator@UProcessPerfData@@@std@@@std@@@2@V<lambda_1>@?2??RefreshWMIData@PerfThread@@AEAAXXZ@@std@@YA?AV?$back_insert_iterator@V?$vector@UProcessPerfData@@V?$allocator@UProcessPerfData@@@std@@@std@@@0@V?$_List_const_iterator@V?$_List_val@U?$_List_simple_types@U?$pair@$$CBKUProcessPerfData@@@std@@@std@@@std@@@0@0V10@V<lambda_1>@?2??RefreshWMIData@PerfThread@@AEAAXXZ@@Z@4HA 000000018004bc90 f   perfthread.obj
 0001:0004aca0       ?dtor$0@?0???0ProcessPerfData@@QEAA@AEBU0@@Z@4HA 000000018004bca0 f   perfthread.obj
 0001:0004acc0       ?dtor$1@?0???0ProcessPerfData@@QEAA@AEBU0@@Z@4HA 000000018004bcc0 f   perfthread.obj
 0001:0004ace0       ?dtor$2@?0???0ProcessPerfData@@QEAA@AEBU0@@Z@4HA 000000018004bce0 f   perfthread.obj
 0001:0004ad00       ?dtor$0@?0??GetList@@YA_NAEAPEAUPluginPanelItem@@AEA_KAEAVPerfThread@@@Z@4HA 000000018004bd00 f   Plist.obj
 0001:0004ad10       ?dtor$2@?0??GetList@@YA_NAEAPEAUPluginPanelItem@@AEA_KAEAVPerfThread@@@Z@4HA 000000018004bd10 f   Plist.obj
 0001:0004ad20       ?dtor$3@?0??GetList@@YA_NAEAPEAUPluginPanelItem@@AEA_KAEAVPerfThread@@@Z@4HA 000000018004bd20 f   Plist.obj
 0001:0004ad30       ?dtor$0@?0??KillProcess@@YA_NKPEAUHWND__@@@Z@4HA 000000018004bd30 f   Plist.obj
 0001:0004ad40       ?dtor$1@?0??KillProcess@@YA_NKPEAUHWND__@@@Z@4HA 000000018004bd40 f   Plist.obj
 0001:0004ad50       ?dtor$0@?0??PrintModules@@YAXPEAXKAEAUoptions@@@Z@4HA 000000018004bd50 f   Plist.obj
 0001:0004ad60       ?dtor$1@?0??PrintModules@@YAXPEAXKAEAUoptions@@@Z@4HA 000000018004bd60 f   Plist.obj
 0001:0004ad70       ?dtor$2@?0??PrintModules@@YAXPEAXKAEAUoptions@@@Z@4HA 000000018004bd70 f   Plist.obj
 0001:0004ad80       ?dtor$3@?0??PrintModules@@YAXPEAXKAEAUoptions@@@Z@4HA 000000018004bd80 f   Plist.obj
 0001:0004ad80       ?dtor$8@?0??PrintModules@@YAXPEAXKAEAUoptions@@@Z@4HA 000000018004bd80 f   Plist.obj
 0001:0004ad90       ?dtor$0@?0???$insert@V?$_List_unchecked_const_iterator@V?$_List_val@U?$_List_simple_types@U?$pair@$$CBKUProcessPerfData@@@std@@@std@@@std@@U_Iterator_base0@2@@std@@@?$_Hash@V?$_Umap_traits@KUProcessPerfData@@V?$_Uhash_compare@KU?$hash@K@std@@U?$equal_to@K@2@@std@@V?$allocator@U?$pair@$$CBKUProcessPerfData@@@std@@@3@$00@std@@@std@@QEAAXV?$_List_unchecked_const_iterator@V?$_List_val@U?$_List_simple_types@U?$pair@$$CBKUProcessPerfData@@@std@@@std@@@std@@U_Iterator_base0@2@@1@0@Z@4HA 000000018004bd90 f   Plist.obj
 0001:0004ada0       ?dtor$1@?0???$insert@V?$_List_unchecked_const_iterator@V?$_List_val@U?$_List_simple_types@U?$pair@$$CBKUProcessPerfData@@@std@@@std@@@std@@U_Iterator_base0@2@@std@@@?$_Hash@V?$_Umap_traits@KUProcessPerfData@@V?$_Uhash_compare@KU?$hash@K@std@@U?$equal_to@K@2@@std@@V?$allocator@U?$pair@$$CBKUProcessPerfData@@@std@@@3@$00@std@@@std@@QEAAXV?$_List_unchecked_const_iterator@V?$_List_val@U?$_List_simple_types@U?$pair@$$CBKUProcessPerfData@@@std@@@std@@@std@@U_Iterator_base0@2@@1@0@Z@4HA 000000018004bda0 f   Plist.obj
 0001:0004adb0       ?dtor$0@?0??WinError@@YAHPEB_W@Z@4HA 000000018004bdb0 f   Pmix.obj
 0001:0004adc0       ?dtor$1@?0??WinError@@YAHPEB_W@Z@4HA 000000018004bdc0 f   Pmix.obj
 0001:0004adc0       ?dtor$5@?0??GetProcessOwner@WMIConnection@@QEAA?AV?$basic_string@_WU?$char_traits@_W@std@@V?$allocator@_W@2@@std@@KPEAV23@@Z@4HA 000000018004bdc0 f   wmi.obj
 0001:0004adc0       ?dtor$5@?0??GetProcessUserSid@WMIConnection@@QEAA?AV?$basic_string@_WU?$char_traits@_W@std@@V?$allocator@_W@2@@std@@K@Z@4HA 000000018004bdc0 f   wmi.obj
 0001:0004add0       ?dtor$0@?0??GetProcessOwner@WMIConnection@@QEAA?AV?$basic_string@_WU?$char_traits@_W@std@@V?$allocator@_W@2@@std@@KPEAV23@@Z@4HA 000000018004bdd0 f   wmi.obj
 0001:0004add0       ?dtor$0@?0??GetProcessUserSid@WMIConnection@@QEAA?AV?$basic_string@_WU?$char_traits@_W@std@@V?$allocator@_W@2@@std@@K@Z@4HA 000000018004bdd0 f   wmi.obj
 0001:0004add0       ?dtor$5@?0??ExecMethod@WMIConnection@@AEAAHKPEB_W0K@Z@4HA 000000018004bdd0 f   wmi.obj
 0001:0004ade0       ?dtor$1@?0??GetProcessOwner@WMIConnection@@QEAA?AV?$basic_string@_WU?$char_traits@_W@std@@V?$allocator@_W@2@@std@@KPEAV23@@Z@4HA 000000018004bde0 f   wmi.obj
 0001:0004ade0       ?dtor$1@?0??GetProcessUserSid@WMIConnection@@QEAA?AV?$basic_string@_WU?$char_traits@_W@std@@V?$allocator@_W@2@@std@@K@Z@4HA 000000018004bde0 f   wmi.obj
 0001:0004ade0       ?dtor$8@?0??ExecMethod@WMIConnection@@AEAAHKPEB_W0K@Z@4HA 000000018004bde0 f   wmi.obj
 0001:0004adf0       ?dtor$2@?0??GetProcessOwner@WMIConnection@@QEAA?AV?$basic_string@_WU?$char_traits@_W@std@@V?$allocator@_W@2@@std@@KPEAV23@@Z@4HA 000000018004bdf0 f   wmi.obj
 0001:0004adf0       ?dtor$2@?0??GetProcessUserSid@WMIConnection@@QEAA?AV?$basic_string@_WU?$char_traits@_W@std@@V?$allocator@_W@2@@std@@K@Z@4HA 000000018004bdf0 f   wmi.obj
 0001:0004ae00       ?dtor$3@?0??GetProcessOwner@WMIConnection@@QEAA?AV?$basic_string@_WU?$char_traits@_W@std@@V?$allocator@_W@2@@std@@KPEAV23@@Z@4HA 000000018004be00 f   wmi.obj
 0001:0004ae00       ?dtor$3@?0??GetProcessUserSid@WMIConnection@@QEAA?AV?$basic_string@_WU?$char_traits@_W@std@@V?$allocator@_W@2@@std@@K@Z@4HA 000000018004be00 f   wmi.obj
 0001:0004ae10       ?dtor$0@?0??GetProcessInt@WMIConnection@@AEAAKKPEB_W@Z@4HA 000000018004be10 f   wmi.obj
 0001:0004ae10       ?dtor$0@?0??GetProcessSessionId@WMIConnection@@QEAAKK@Z@4HA 000000018004be10 f   wmi.obj
 0001:0004ae20       ?dtor$0@?0??ExecMethod@WMIConnection@@AEAAHKPEB_W0K@Z@4HA 000000018004be20 f   wmi.obj
 0001:0004ae30       ?dtor$1@?0??ExecMethod@WMIConnection@@AEAAHKPEB_W0K@Z@4HA 000000018004be30 f   wmi.obj
 0001:0004ae30       ?dtor$4@?0??ExecMethod@WMIConnection@@AEAAHKPEB_W0K@Z@4HA 000000018004be30 f   wmi.obj
 0001:0004ae30       ?dtor$6@?0??ExecMethod@WMIConnection@@AEAAHKPEB_W0K@Z@4HA 000000018004be30 f   wmi.obj
 0001:0004ae40       ?dtor$10@?0??ExecMethod@WMIConnection@@AEAAHKPEB_W0K@Z@4HA 000000018004be40 f   wmi.obj
 0001:0004ae40       ?dtor$2@?0??ExecMethod@WMIConnection@@AEAAHKPEB_W0K@Z@4HA 000000018004be40 f   wmi.obj
 0001:0004ae50       ?dtor$3@?0??ExecMethod@WMIConnection@@AEAAHKPEB_W0K@Z@4HA 000000018004be50 f   wmi.obj
 0001:0004ae60       ?dtor$7@?0??ExecMethod@WMIConnection@@AEAAHKPEB_W0K@Z@4HA 000000018004be60 f   wmi.obj
 0001:0004ae70       ?dtor$9@?0??ExecMethod@WMIConnection@@AEAAHKPEB_W0K@Z@4HA 000000018004be70 f   wmi.obj
 0001:0004ae80       ?dtor$0@?0??GetProcessProperty@WMIConnection@@AEAA_NKPEB_WAEBV?$function@$$A6AXAEBUtagVARIANT@@@Z@std@@@Z@4HA 000000018004be80 f   wmi.obj
 0001:0004ae90       ?dtor$1@?0??GetProcessProperty@WMIConnection@@AEAA_NKPEB_WAEBV?$function@$$A6AXAEBUtagVARIANT@@@Z@std@@@Z@4HA 000000018004be90 f   wmi.obj
 0001:0004aea0       ?dtor$2@?0??GetProcessProperty@WMIConnection@@AEAA_NKPEB_WAEBV?$function@$$A6AXAEBUtagVARIANT@@@Z@std@@@Z@4HA 000000018004bea0 f   wmi.obj
 0001:0004aeb0       ?dtor$0@?0??Connect@WMIConnection@@QEAA_NPEB_W00@Z@4HA 000000018004beb0 f   wmi.obj
 0001:0004aec0       ?dtor$2@?0??Connect@WMIConnection@@QEAA_NPEB_W00@Z@4HA 000000018004bec0 f   wmi.obj
 0001:0004aed0       ?dtor$3@?0??Connect@WMIConnection@@QEAA_NPEB_W00@Z@4HA 000000018004bed0 f   wmi.obj
 0001:0004aee0       ?dtor$4@?0??Connect@WMIConnection@@QEAA_NPEB_W00@Z@4HA 000000018004bee0 f   wmi.obj
 0001:0004aef0       ?dtor$5@?0??Connect@WMIConnection@@QEAA_NPEB_W00@Z@4HA 000000018004bef0 f   wmi.obj
 0001:0004aefc       ?dtor$0@?0??_Init@locale@std@@CAPEAV_Locimp@12@_N@Z@4HA 000000018004befc f   libcpmt:locale0.obj
 0001:0004af08       __scrt_is_nonwritable_in_current_image$filt$0 000000018004bf08 f   LIBCMT:utility.obj
 0001:0004af20       ?fin$0@?0???_M@YAXPEAX_K1P6AX0@Z@Z@4HA 000000018004bf20 f   LIBCMT:ehvecdtr.obj
 0001:0004af4c       ?filt$0@?0??__ArrayUnwind@@YAXPEAX_K1P6AX0@Z@Z@4HA 000000018004bf4c f   LIBCMT:ehvecdtr.obj
 0001:0004afab       ?fin$0@?0??dllmain_crt_process_attach@@YAHQEAUHINSTANCE__@@QEAX@Z@4HA 000000018004bfab f   LIBCMT:dll_dllmain.obj
 0001:0004afc2       ?fin$0@?0??dllmain_crt_process_detach@@YAH_N@Z@4HA 000000018004bfc2 f   LIBCMT:dll_dllmain.obj
 0001:0004afdb       ?fin$1@?0??dllmain_crt_process_detach@@YAH_N@Z@4HA 000000018004bfdb f   LIBCMT:dll_dllmain.obj
 0001:0004afef       ?filt$0@?0??dllmain_dispatch@@YAHQEAUHINSTANCE__@@KQEAX@Z@4HA 000000018004bfef f   LIBCMT:dll_dllmain.obj
 0001:0004b025       ?filt$0@?0???$_CallSETranslator@V__FrameHandler3@@@@YAHPEAUEHExceptionRecord@@PEA_KPEAU_CONTEXT@@PEAU_xDISPATCHER_CONTEXT@@PEBU_s_FuncInfo@@K1@Z@4HA 000000018004c025 f   libvcruntime:risctrnsctrl.obj
 0001:0004b0b6       ?filt$0@?0???$_CallSETranslator@V__FrameHandler4@@@@YAHPEAUEHExceptionRecord@@PEA_KPEAU_CONTEXT@@PEAU_xDISPATCHER_CONTEXT@@PEAUFuncInfo4@FH4@@K1@Z@4HA 000000018004c0b6 f   libvcruntime:risctrnsctrl.obj
 0001:0004b147       __DestructExceptionObject$filt$0 000000018004c147 f   libvcruntime:ehhelpers.obj
 0001:0004b1dd       ?filt$0@?0??CxxCallCatchBlock@__FrameHandler3@@SAPEAXPEAU_EXCEPTION_RECORD@@@Z@4HA 000000018004c1dd f   libvcruntime:frame.obj
 0001:0004b202       ?fin$1@?0??CxxCallCatchBlock@__FrameHandler3@@SAPEAXPEAU_EXCEPTION_RECORD@@@Z@4HA 000000018004c202 f   libvcruntime:frame.obj
 0001:0004b27a       ?filt$0@?0??CxxCallCatchBlock@__FrameHandler4@@SAPEAXPEAU_EXCEPTION_RECORD@@@Z@4HA 000000018004c27a f   libvcruntime:frame.obj
 0001:0004b2a9       ?fin$1@?0??CxxCallCatchBlock@__FrameHandler4@@SAPEAXPEAU_EXCEPTION_RECORD@@@Z@4HA 000000018004c2a9 f   libvcruntime:frame.obj
 0001:0004b32c       ?filt$0@?0??FrameUnwindToState@__FrameHandler3@@SAXPEA_KPEAU_xDISPATCHER_CONTEXT@@PEBU_s_FuncInfo@@H@Z@4HA 000000018004c32c f   libvcruntime:frame.obj
 0001:0004b342       ?fin$1@?0??FrameUnwindToState@__FrameHandler3@@SAXPEA_KPEAU_xDISPATCHER_CONTEXT@@PEBU_s_FuncInfo@@H@Z@4HA 000000018004c342 f   libvcruntime:frame.obj
 0001:0004b365       ?filt$0@?0??FrameUnwindToState@__FrameHandler4@@SAXPEA_KPEAU_xDISPATCHER_CONTEXT@@PEAUFuncInfo4@FH4@@H@Z@4HA 000000018004c365 f   libvcruntime:frame.obj
 0001:0004b37b       ?fin$1@?0??FrameUnwindToState@__FrameHandler4@@SAXPEA_KPEAU_xDISPATCHER_CONTEXT@@PEAUFuncInfo4@FH4@@H@Z@4HA 000000018004c37b f   libvcruntime:frame.obj
 0001:0004b39e       __acrt_initialize_lowio$fin$0 000000018004c39e f   libucrt:ioinit.obj
 0001:0004b39e       __acrt_lowio_ensure_fh_exists$fin$0 000000018004c39e f   libucrt:osfinfo.obj
 0001:0004b3b7       ?fin$0@?0???$?RV<lambda_0ae27a3a962d80f24befdcbee591983d>@@AEAV<lambda_8d0ee55de4b1038c4002e0adecdf1839>@@V<lambda_dc504788e8f1664fe9b84e20bfb512f2>@@@?$__crt_seh_guarded_call@X@@QEAAX$$QEAV<lambda_0ae27a3a962d80f24befdcbee591983d>@@AEAV<lambda_8d0ee55de4b1038c4002e0adecdf1839>@@$$QEAV<lambda_dc504788e8f1664fe9b84e20bfb512f2>@@@Z@4HA 000000018004c3b7 f   libucrt:per_thread_data.obj
 0001:0004b3b7       ?fin$0@?0???$?RV<lambda_2d41944a1d46af3157314b8a01080d33>@@AEAV<lambda_8f455de75cd7d7f24b4096f044d8b9e6>@@V<lambda_aa500f224e6afead328df44964fe2772>@@@?$__crt_seh_guarded_call@X@@QEAAX$$QEAV<lambda_2d41944a1d46af3157314b8a01080d33>@@AEAV<lambda_8f455de75cd7d7f24b4096f044d8b9e6>@@$$QEAV<lambda_aa500f224e6afead328df44964fe2772>@@@Z@4HA 000000018004c3b7 f   libucrt:per_thread_data.obj
 0001:0004b3b7       ?fin$0@?0???$?RV<lambda_aa87e3671a710a21b5dc78c0bdf72e11>@@AEAV<lambda_92619d2358a28f41a33ba319515a20b9>@@V<lambda_6992ecaafeb10aed2b74cb1fae11a551>@@@?$__crt_seh_guarded_call@X@@QEAAX$$QEAV<lambda_aa87e3671a710a21b5dc78c0bdf72e11>@@AEAV<lambda_92619d2358a28f41a33ba319515a20b9>@@$$QEAV<lambda_6992ecaafeb10aed2b74cb1fae11a551>@@@Z@4HA 000000018004c3b7 f   libucrt:per_thread_data.obj
 0001:0004b3b7       ?fin$0@?0???$?RV<lambda_f2e299630e499de9f9a165e60fcd3db5>@@AEAV<lambda_2ae9d31cdba2644fcbeaf08da7c24588>@@V<lambda_40d01ff24d0e7b3814fdbdcee8eab3c7>@@@?$__crt_seh_guarded_call@X@@QEAAX$$QEAV<lambda_f2e299630e499de9f9a165e60fcd3db5>@@AEAV<lambda_2ae9d31cdba2644fcbeaf08da7c24588>@@$$QEAV<lambda_40d01ff24d0e7b3814fdbdcee8eab3c7>@@@Z@4HA 000000018004c3b7 f   libucrt:per_thread_data.obj
 0001:0004b3b7       ?fin$0@?0???$?RV<lambda_48fc4a32460bb0512d3b13f8499328be>@@AEAV<lambda_6c3dac0a4f3f9cefca9bb494422f9b77>@@V<lambda_0a2f2c9f9a56eb2b08bfa6ff61d331c5>@@@?$__crt_seh_guarded_call@H@@QEAAH$$QEAV<lambda_48fc4a32460bb0512d3b13f8499328be>@@AEAV<lambda_6c3dac0a4f3f9cefca9bb494422f9b77>@@$$QEAV<lambda_0a2f2c9f9a56eb2b08bfa6ff61d331c5>@@@Z@4HA 000000018004c3b7 f   libucrt:winapi_thunks.obj
 0001:0004b3b7       ?fin$0@?0???$?RV<lambda_41e84717acc955b55e9d0d529e507b68>@@AEAV<lambda_b37934c380d97b75fd242ea49540127a>@@V<lambda_bb6db9f9ac473960206e0d4b942b5506>@@@?$__crt_seh_guarded_call@PEAD@@QEAAPEAD$$QEAV<lambda_41e84717acc955b55e9d0d529e507b68>@@AEAV<lambda_b37934c380d97b75fd242ea49540127a>@@$$QEAV<lambda_bb6db9f9ac473960206e0d4b942b5506>@@@Z@4HA 000000018004c3b7 f   libucrt:setlocale.obj
 0001:0004b3b7       ?fin$0@?0???$?RV<lambda_1d892b297fdedeee07ed8124eeb2f2fa>@@AEAV<lambda_ffc046909424fd52df0ac47e64813305>@@V<lambda_01a7098693036236037e7cdb9bca3d73>@@@?$__crt_seh_guarded_call@X@@QEAAX$$QEAV<lambda_1d892b297fdedeee07ed8124eeb2f2fa>@@AEAV<lambda_ffc046909424fd52df0ac47e64813305>@@$$QEAV<lambda_01a7098693036236037e7cdb9bca3d73>@@@Z@4HA 000000018004c3b7 f   libucrt:wsetlocale.obj
 0001:0004b3b7       ?fin$0@?0???$?RV<lambda_efdfa57d1f175319df784efa44bb7b81>@@AEAV<lambda_5f0a4c1567f8adc6734073e5d1e1b35c>@@V<lambda_2e8a7d3640ea6ccb4c2413664c2db6fd>@@@?$__crt_seh_guarded_call@X@@QEAAX$$QEAV<lambda_efdfa57d1f175319df784efa44bb7b81>@@AEAV<lambda_5f0a4c1567f8adc6734073e5d1e1b35c>@@$$QEAV<lambda_2e8a7d3640ea6ccb4c2413664c2db6fd>@@@Z@4HA 000000018004c3b7 f   libucrt:mbctype.obj
 0001:0004b3b7       ?fin$0@?0???$?RV<lambda_450d765d439847d4c735a33c368b5fc0>@@AEAV<lambda_44731a7d0e6d81c3e6aa82d741081786>@@V<lambda_601a2a7da3b7a96e9554ac7215c4b07c>@@@?$__crt_seh_guarded_call@P6AXH@Z@@QEAAP6AXH@Z$$QEAV<lambda_450d765d439847d4c735a33c368b5fc0>@@AEAV<lambda_44731a7d0e6d81c3e6aa82d741081786>@@$$QEAV<lambda_601a2a7da3b7a96e9554ac7215c4b07c>@@@Z@4HA 000000018004c3b7 f   libucrt:signal.obj
 0001:0004b3b7       ?fin$0@?0???$?RV<lambda_d80eeec6fff315bfe5c115232f3240e3>@@AEAV<lambda_6e4b09c48022b2350581041d5f6b0c4c>@@V<lambda_2358e3775559c9db80273638284d5e45>@@@?$__crt_seh_guarded_call@X@@QEAAX$$QEAV<lambda_d80eeec6fff315bfe5c115232f3240e3>@@AEAV<lambda_6e4b09c48022b2350581041d5f6b0c4c>@@$$QEAV<lambda_2358e3775559c9db80273638284d5e45>@@@Z@4HA 000000018004c3b7 f   libucrt:exit.obj
 0001:0004b3b7       ?fin$0@?0???$?RV<lambda_638799b9deba96c50f710eeac98168cd>@@AEAV<lambda_22ebabd17bc4fa466a2aca6d8deb888d>@@V<lambda_a6f7d7db0129f75315ebf26d50c089f1>@@@?$__crt_seh_guarded_call@H@@QEAAH$$QEAV<lambda_638799b9deba96c50f710eeac98168cd>@@AEAV<lambda_22ebabd17bc4fa466a2aca6d8deb888d>@@$$QEAV<lambda_a6f7d7db0129f75315ebf26d50c089f1>@@@Z@4HA 000000018004c3b7 f   libucrt:onexit.obj
 0001:0004b3b7       ?fin$0@?0???$?RV<lambda_7777bce6b2f8c936911f934f8298dc43>@@AEAV<lambda_f03950bc5685219e0bcd2087efbe011e>@@V<lambda_3883c3dff614d5e0c5f61bb1ac94921c>@@@?$__crt_seh_guarded_call@H@@QEAAH$$QEAV<lambda_7777bce6b2f8c936911f934f8298dc43>@@AEAV<lambda_f03950bc5685219e0bcd2087efbe011e>@@$$QEAV<lambda_3883c3dff614d5e0c5f61bb1ac94921c>@@@Z@4HA 000000018004c3b7 f   libucrt:onexit.obj
 0001:0004b3d1       ?filt$0@?0???R<lambda_6e4b09c48022b2350581041d5f6b0c4c>@@QEBA@XZ@4HA 000000018004c3d1 f   libucrt:exit.obj
 0001:0004b3ec       _query_new_handler$fin$0   000000018004c3ec f   libucrt:new_handler.obj
 0001:0004b402       _fcloseall$fin$0           000000018004c402 f   libucrt:closeall.obj
 0001:0004b41b       ?fin$0@?0???$?RV<lambda_842d9ff0dc9ef11c61343bbaebe7f885>@@AEAV<lambda_c5860995281e5c4ce005b3de8f5874ee>@@V<lambda_d90129c13df834fdcbf8d2b88dafcf2d>@@@?$__crt_seh_guarded_call@X@@QEAAX$$QEAV<lambda_842d9ff0dc9ef11c61343bbaebe7f885>@@AEAV<lambda_c5860995281e5c4ce005b3de8f5874ee>@@$$QEAV<lambda_d90129c13df834fdcbf8d2b88dafcf2d>@@@Z@4HA 000000018004c41b f   libucrt:fflush.obj
 0001:0004b436       ?fin$0@?0???$?RV<lambda_886d6c58226a84441f68b9f2b8217b83>@@AEAV<lambda_ab61a845afdef5b7c387490eaf3616ee>@@V<lambda_f7f22ab5edc0698d5f6905b0d3f44752>@@@?$__crt_seh_guarded_call@X@@QEAAX$$QEAV<lambda_886d6c58226a84441f68b9f2b8217b83>@@AEAV<lambda_ab61a845afdef5b7c387490eaf3616ee>@@$$QEAV<lambda_f7f22ab5edc0698d5f6905b0d3f44752>@@@Z@4HA 000000018004c436 f   libucrt:fflush.obj
 0001:0004b453       ?fin$0@?0???$?RV<lambda_410d79af7f07d98d83a3f525b3859a53>@@AEAV<lambda_3e16ef9562a7dcce91392c22ab16ea36>@@V<lambda_38119f0e861e05405d8a144b9b982f0a>@@@?$__crt_seh_guarded_call@X@@QEAAX$$QEAV<lambda_410d79af7f07d98d83a3f525b3859a53>@@AEAV<lambda_3e16ef9562a7dcce91392c22ab16ea36>@@$$QEAV<lambda_38119f0e861e05405d8a144b9b982f0a>@@@Z@4HA 000000018004c453 f   libucrt:wsetlocale.obj
 0001:0004b46d       ?fin$0@?0???$?RV<lambda_7f2adfce497ff2baa965cd4f576ecfd1>@@AEAV<lambda_2a444430fde8c29194d880d93eed5e8f>@@AEAV<lambda_8dff2cf36a5417162780cd64fa2883ef>@@@?$__crt_seh_guarded_call@X@@QEAAX$$QEAV<lambda_7f2adfce497ff2baa965cd4f576ecfd1>@@AEAV<lambda_2a444430fde8c29194d880d93eed5e8f>@@AEAV<lambda_8dff2cf36a5417162780cd64fa2883ef>@@@Z@4HA 000000018004c46d f   libucrt:wsetlocale.obj
 0001:0004b48e       _write$fin$0               000000018004c48e f   libucrt:write.obj
 0001:0004b4a5       ?dtor$0@?0??_wcstombs_l_helper@@YA_KPEADPEB_W_KPEAU__crt_locale_pointers@@@Z@4HA 000000018004c4a5 f   libucrt:wcstombs.obj
 0001:0004b4b1       _ctrlfp$filt$0             000000018004c4b1 f   libucrt:fpctrl.obj
 0001:0004b4dd       raise$fin$0                000000018004c4dd f   libucrt:signal.obj
 0001:0004b4fe       ?fin$0@?0??update_thread_multibyte_data_internal@@YAPEAU__crt_multibyte_data@@QEAU__acrt_ptd@@QEAPEAU1@@Z@4HA 000000018004c4fe f   libucrt:mbctype.obj
 0001:0004b517       __acrt_update_thread_locale_data$fin$0 000000018004c517 f   libucrt:locale_refcounting.obj
 0001:0004b530       fclose$fin$0               000000018004c530 f   libucrt:fclose.obj
 0001:0004b548       ?fin$0@?0???$?RV<lambda_751a882b2c74d4b022dec766aa51a29a>@@AEAV<lambda_628dfdc04ba53c8bfc02c9951375f3f5>@@V<lambda_f6c7be5f7998530c34de24c7437d6b54>@@@?$__crt_seh_guarded_call@H@@QEAAH$$QEAV<lambda_751a882b2c74d4b022dec766aa51a29a>@@AEAV<lambda_628dfdc04ba53c8bfc02c9951375f3f5>@@$$QEAV<lambda_f6c7be5f7998530c34de24c7437d6b54>@@@Z@4HA 000000018004c548 f   libucrt:close.obj
 0001:0004b548       ?fin$0@?0???$?RV<lambda_a37b2b86f63e897a80ea819b0eb08c01>@@AEAV<lambda_38ce7e780aa69e748d6df282ebc68efe>@@V<lambda_99fb1378e971ab6e7edea83e3a7a83a2>@@@?$__crt_seh_guarded_call@H@@QEAAH$$QEAV<lambda_a37b2b86f63e897a80ea819b0eb08c01>@@AEAV<lambda_38ce7e780aa69e748d6df282ebc68efe>@@$$QEAV<lambda_99fb1378e971ab6e7edea83e3a7a83a2>@@@Z@4HA 000000018004c548 f   libucrt:commit.obj
 0001:0004b570       _IsNonwritableInCurrentImage$filt$0 000000018004c570 f   LIBCMT:pesect.obj
 0001:0004b590       ??__F?m_PanelModesDataRemote@Plist@@0V?$vector@Umode@@V?$allocator@Umode@@@std@@@std@@A@@YAXXZ 000000018004c590 f   fileio.obj
 0001:0004b5a0       ??__F?m_PanelModesDataLocal@Plist@@0V?$vector@Umode@@V?$allocator@Umode@@@std@@@std@@A@@YAXXZ 000000018004c5a0 f   fileio.obj
 0001:0004b5b0       ??__FUserAccountID@?1??GetUserAccountID@@YA@XZ@YAXXZ 000000018004c5b0 f   handles.obj
 0001:0004b620       ??__FTitle@?1??GetOpenPanelInfo@Plist@@QEAAXPEAUOpenPanelInfo@@@Z@YAXXZ 000000018004c620 f   Pclass.obj
 0001:0004b690       ??__FhDebugToken@@YAXXZ    000000018004c690 f   Plist.obj
 0001:0004b6a4       ??__Finitlocks@std@@YAXXZ  000000018004c6a4 f   libcpmt:xlock.obj
 0001:0004b6b0       ??__F_Fac_tidy_reg@std@@YAXXZ 000000018004c6b0 f   libcpmt:locale0.obj
 0001:0004b70c       ??__Fclassic_locale@std@@YAXXZ 000000018004c70c f   libcpmt:locale0.obj
 0001:0004b74c       ??__Finit_atexit@@YAXXZ    000000018004c74c f   libcpmt:iosptrs.obj
 0001:0004b794       ??__Finitlocks@std@@YAXXZ  000000018004c794 f   libcpmt:iosptrs.obj
 0002:000004b8       ?initlocks$initializer$@std@@3P6AXXZEA 000000018004d4b8     libcpmt:xlock.obj
 0002:000004c0       ?initlocks$initializer$@std@@3P6AXXZEA 000000018004d4c0     libcpmt:iosptrs.obj
 0002:000004c8       ?init_atexit$initializer$@@3P6AXXZEA 000000018004d4c8     libcpmt:iosptrs.obj
 0002:000004d0       ?_Fac_tidy_reg$initializer$@std@@3P6AXXZEA 000000018004d4d0     libcpmt:locale0.obj
 0002:000004d8       ?classic_locale$initializer$@std@@3P6AXXZEA 000000018004d4d8     libcpmt:locale0.obj
 0002:000004e0       ??m_PanelModesDataLocal$initializer$@Plist@@0P6AXXZEA@@3P6AXXZEA 000000018004d4e0     fileio.obj
 0002:000004e8       ??m_PanelModesDataRemote$initializer$@Plist@@0P6AXXZEA@@3P6AXXZEA 000000018004d4e8     fileio.obj
 0002:000004f0       ?hDebugToken$initializer$@@3P6AXXZEA 000000018004d4f0     Plist.obj
 0002:00000508       ?pinit@@3P6AHXZEA          000000018004d508     libcpmt:winapisupp.obj
 0002:00000510       pinit                      000000018004d510     LIBCMT:lconv_unsigned_char.obj
 0002:00000688       $cppxdata$?_Init@locale@std@@CAPEAV_Locimp@12@_N@Z 000000018004d688     libcpmt:locale0.obj
 0002:00000700       ?_Win_errtab@std@@3QBU_Win_errtab_t@1@B 000000018004d700     libcpmt:syserror.obj
 0002:00000970       ?_Sys_errtab@std@@3QBU_Sys_errtab_t@1@B 000000018004d970     libcpmt:syserror.obj
 0002:00001910       $cppxdata$??__Finit_atexit@@YAXXZ 000000018004e910     libcpmt:iosptrs.obj
 0002:00001988       digits                     000000018004e988     libcpmt:xstoul.obj
 0002:000019b0       ndigs                      000000018004e9b0     libcpmt:xstoul.obj
 0002:000019d8       digits                     000000018004e9d8     libcpmt:xstoull.obj
 0002:00001a00       ndigs                      000000018004ea00     libcpmt:xstoull.obj
 0002:00001a30       ?LcidToLocaleNameTable@@3QBULcidToLocaleName@@B 000000018004ea30     libcpmt:winapinls.obj
 0002:00002870       ?LocaleNameToIndexTable@@3QBULocaleNameIndex@@B 000000018004f870     libcpmt:winapinls.obj
 0002:00004d80       GS_ExceptionPointers       0000000180051d80     LIBCMT:gs_report.obj
 0002:00004dc0       ?ExceptionTemplate@?1??UnwindNestedFrames@__FrameHandler4@@SAXPEA_KPEAUEHExceptionRecord@@PEAU_CONTEXT@@0PEAXPEAUFuncInfo4@FH4@@HHPEAUHandlerType4@6@PEAU_xDISPATCHER_CONTEXT@@E@Z@4U_EXCEPTION_RECORD@@B 0000000180051dc0     libvcruntime:risctrnsctrl.obj
 0002:00004e60       ?ExceptionTemplate@?1??UnwindNestedFrames@__FrameHandler3@@SAXPEA_KPEAUEHExceptionRecord@@PEAU_CONTEXT@@0PEAXPEBU_s_FuncInfo@@HHPEBU_s_HandlerType@@PEAU_xDISPATCHER_CONTEXT@@E@Z@4U_EXCEPTION_RECORD@@B 0000000180051e60     libvcruntime:risctrnsctrl.obj
 0002:00004f30       ?tokenTable@@3QBUStringLiteral@@B 0000000180051f30     libvcruntime:undname.obj
 0002:00005030       ?nameTable@@3QBUStringLiteral@@B 0000000180052030     libvcruntime:undname.obj
 0002:00005560       ?rttiTable@@3QBUStringLiteral@@B 0000000180052560     libvcruntime:undname.obj
 0002:000055b0       ?IndirectionName@@3QBUStringLiteral@@B 00000001800525b0     libvcruntime:undname.obj
 0002:00005610       ?PrefixName@@3QBUStringLiteral@@B 0000000180052610     libvcruntime:undname.obj
 0002:00005ce0       ?module_names@?A0x81a78551@@3QBQEB_WB 0000000180052ce0     libvcruntime:winapi_downlevel.obj
 0002:00005d88       ?candidate_modules@?1??try_get_FlsAlloc@@YAP6AKP6AXPEAX@Z@ZXZ@4QBW4module_id@?A0x81a78551@@B 0000000180052d88     libvcruntime:winapi_downlevel.obj
 0002:00005d90       ?candidate_modules@?1??try_get_FlsFree@@YAP6AHK@ZXZ@4QBW4module_id@?A0x81a78551@@B 0000000180052d90     libvcruntime:winapi_downlevel.obj
 0002:00005d98       ?candidate_modules@?1??try_get_FlsGetValue@@YAP6APEAXK@ZXZ@4QBW4module_id@?A0x81a78551@@B 0000000180052d98     libvcruntime:winapi_downlevel.obj
 0002:00005da0       ?candidate_modules@?1??try_get_FlsSetValue@@YAP6AHKPEAX@ZXZ@4QBW4module_id@?A0x81a78551@@B 0000000180052da0     libvcruntime:winapi_downlevel.obj
 0002:00005da8       ?candidate_modules@?1??try_get_InitializeCriticalSectionEx@@YAP6AHPEAU_RTL_CRITICAL_SECTION@@KK@ZXZ@4QBW4module_id@?A0x81a78551@@B 0000000180052da8     libvcruntime:winapi_downlevel.obj
 0002:00005e30       ?errtable@@3QBUerrentry@?A0x31fdb9ec@@B 0000000180052e30     libucrt:errno.obj
 0002:00005fa0       ?ln_lead_table@?1??log2@@9@9 0000000180052fa0     libucrt:log2.obj
 0002:000061b0       ?ln_tail_table@?1??log2@@9@9 00000001800531b0     libucrt:log2.obj
 0002:00007580       __flag_x_one_y_snan        0000000180054580     libucrt:pow.obj
 0002:00007584       __flag_x_zero_z_inf        0000000180054584     libucrt:pow.obj
 0002:00007588       __flag_x_nan               0000000180054588     libucrt:pow.obj
 0002:0000758c       __flag_y_nan               000000018005458c     libucrt:pow.obj
 0002:00007590       __flag_x_nan_y_nan         0000000180054590     libucrt:pow.obj
 0002:00007594       __flag_x_neg_y_notint      0000000180054594     libucrt:pow.obj
 0002:00007598       __flag_z_zero              0000000180054598     libucrt:pow.obj
 0002:0000759c       __flag_z_denormal          000000018005459c     libucrt:pow.obj
 0002:000075a0       __flag_z_inf               00000001800545a0     libucrt:pow.obj
 0002:000075b0       __ay_max_bound             00000001800545b0     libucrt:pow.obj
 0002:000075b8       __ay_min_bound             00000001800545b8     libucrt:pow.obj
 0002:000075c0       __sign_mask                00000001800545c0     libucrt:pow.obj
 0002:000075c8       __sign_and_exp_mask        00000001800545c8     libucrt:pow.obj
 0002:000075d0       __exp_mask                 00000001800545d0     libucrt:pow.obj
 0002:000075d8       __neg_inf                  00000001800545d8     libucrt:pow.obj
 0002:000075e0       __pos_inf                  00000001800545e0     libucrt:pow.obj
 0002:000075e8       __pos_one                  00000001800545e8     libucrt:pow.obj
 0002:000075f0       __pos_zero                 00000001800545f0     libucrt:pow.obj
 0002:000075f8       __exp_mant_mask            00000001800545f8     libucrt:pow.obj
 0002:00007600       __mant_mask                0000000180054600     libucrt:pow.obj
 0002:00007608       __ind_pattern              0000000180054608     libucrt:pow.obj
 0002:00007610       __neg_qnan                 0000000180054610     libucrt:pow.obj
 0002:00007618       __qnan                     0000000180054618     libucrt:pow.obj
 0002:00007620       __qnan_set                 0000000180054620     libucrt:pow.obj
 0002:00007628       __neg_one                  0000000180054628     libucrt:pow.obj
 0002:00007630       __neg_zero                 0000000180054630     libucrt:pow.obj
 0002:00007638       __exp_shift                0000000180054638     libucrt:pow.obj
 0002:00007640       __exp_bias                 0000000180054640     libucrt:pow.obj
 0002:00007648       __exp_bias_m1              0000000180054648     libucrt:pow.obj
 0002:00007650       __yexp_53                  0000000180054650     libucrt:pow.obj
 0002:00007658       __mant_full                0000000180054658     libucrt:pow.obj
 0002:00007660       __1_before_mant            0000000180054660     libucrt:pow.obj
 0002:00007668       __mask_mant_all8           0000000180054668     libucrt:pow.obj
 0002:00007670       __mask_mant9               0000000180054670     libucrt:pow.obj
 0002:00007680       __real_fffffffff8000000    0000000180054680     libucrt:pow.obj
 0002:00007690       __mask_8000000000000000    0000000180054690     libucrt:pow.obj
 0002:000076a0       __real_4090040000000000    00000001800546a0     libucrt:pow.obj
 0002:000076b0       __real_C090C80000000000    00000001800546b0     libucrt:pow.obj
 0002:000076c0       __real_ninf                00000001800546c0     libucrt:pow.obj
 0002:000076d0       __real_inf                 00000001800546d0     libucrt:pow.obj
 0002:000076e0       __real_nan                 00000001800546e0     libucrt:pow.obj
 0002:000076f0       __real_mant                00000001800546f0     libucrt:pow.obj
 0002:00007700       __mask_1023                0000000180054700     libucrt:pow.obj
 0002:00007710       __mask_001                 0000000180054710     libucrt:pow.obj
 0002:00007720       __real_log2_lead           0000000180054720     libucrt:pow.obj
 0002:00007730       __real_log2_tail           0000000180054730     libucrt:pow.obj
 0002:00007740       __real_two                 0000000180054740     libucrt:pow.obj
 0002:00007750       __real_one                 0000000180054750     libucrt:pow.obj
 0002:00007760       __real_half                0000000180054760     libucrt:pow.obj
 0002:00007770       __mask_100                 0000000180054770     libucrt:pow.obj
 0002:00007780       __real_1_over_2            0000000180054780     libucrt:pow.obj
 0002:00007790       __real_1_over_3            0000000180054790     libucrt:pow.obj
 0002:000077a0       __real_1_over_4            00000001800547a0     libucrt:pow.obj
 0002:000077b0       __real_1_over_5            00000001800547b0     libucrt:pow.obj
 0002:000077c0       __real_1_over_6            00000001800547c0     libucrt:pow.obj
 0002:000077d0       __real_1_over_7            00000001800547d0     libucrt:pow.obj
 0002:000077e0       __mask_1023_f              00000001800547e0     libucrt:pow.obj
 0002:000077f0       __mask_2045                00000001800547f0     libucrt:pow.obj
 0002:00007800       __real_threshold           0000000180054800     libucrt:pow.obj
 0002:00007810       __real_notsign             0000000180054810     libucrt:pow.obj
 0002:00007820       __log_F_inv_head           0000000180054820     libucrt:pow.obj
 0002:00008030       __log_F_inv_tail           0000000180055030     libucrt:pow.obj
 0002:00008840       __denormal_threshold       0000000180055840     libucrt:pow.obj
 0002:00008850       __enable_almost_inf        0000000180055850     libucrt:pow.obj
 0002:00008860       __real_zero                0000000180055860     libucrt:pow.obj
 0002:00008870       __real_smallest_denormal   0000000180055870     libucrt:pow.obj
 0002:00008880       __denormal_tiny_threshold  0000000180055880     libucrt:pow.obj
 0002:00008890       __real_p65536              0000000180055890     libucrt:pow.obj
 0002:000088a0       __real_m68800              00000001800558a0     libucrt:pow.obj
 0002:000088b0       __real_64_by_log2          00000001800558b0     libucrt:pow.obj
 0002:000088c0       __real_log2_by_64_head     00000001800558c0     libucrt:pow.obj
 0002:000088d0       __real_log2_by_64_tail     00000001800558d0     libucrt:pow.obj
 0002:000088e0       __real_1_by_720            00000001800558e0     libucrt:pow.obj
 0002:000088f0       __real_1_by_120            00000001800558f0     libucrt:pow.obj
 0002:00008900       __real_1_by_24             0000000180055900     libucrt:pow.obj
 0002:00008910       __real_1_by_6              0000000180055910     libucrt:pow.obj
 0002:00008920       __real_1_by_2              0000000180055920     libucrt:pow.obj
 0002:00008930       __flag_x_one_y_snan        0000000180055930     libucrt:powf.obj
 0002:00008934       __flag_x_zero_z_inf        0000000180055934     libucrt:powf.obj
 0002:00008938       __flag_x_nan               0000000180055938     libucrt:powf.obj
 0002:0000893c       __flag_y_nan               000000018005593c     libucrt:powf.obj
 0002:00008940       __flag_x_nan_y_nan         0000000180055940     libucrt:powf.obj
 0002:00008944       __flag_x_neg_y_notint      0000000180055944     libucrt:powf.obj
 0002:00008948       __flag_z_zero              0000000180055948     libucrt:powf.obj
 0002:0000894c       __flag_z_denormal          000000018005594c     libucrt:powf.obj
 0002:00008950       __flag_z_inf               0000000180055950     libucrt:powf.obj
 0002:00008954       L__1_by_3                  0000000180055954     libucrt:powf.obj
 0002:0000895c       L__log2                    000000018005595c     libucrt:powf.obj
 0002:00008964       L__max_exp_arg             0000000180055964     libucrt:powf.obj
 0002:0000896c       L__min_exp_arg             000000018005596c     libucrt:powf.obj
 0002:00008974       L__real_log2_by_64         0000000180055974     libucrt:powf.obj
 0002:0000897c       L__1_by_6                  000000018005597c     libucrt:powf.obj
 0002:00008984       L__real_threshold          0000000180055984     libucrt:powf.obj
 0002:0000898c       L__real_one                000000018005598c     libucrt:powf.obj
 0002:00008994       L__real_two                0000000180055994     libucrt:powf.obj
 0002:0000899c       L__neg_zero                000000018005599c     libucrt:powf.obj
 0002:000089b0       L__real_ca42               00000001800559b0     libucrt:powf.obj
 0002:000089b8       L__real_ca4                00000001800559b8     libucrt:powf.obj
 0002:000089c0       L__real_ca31               00000001800559c0     libucrt:powf.obj
 0002:000089c8       L__real_ca3                00000001800559c8     libucrt:powf.obj
 0002:000089d0       L__clear_sign              00000001800559d0     libucrt:powf.obj
 0002:000089e0       L__real_64_by_log2         00000001800559e0     libucrt:powf.obj
 0002:000089f0       L__1_by_2                  00000001800559f0     libucrt:powf.obj
 0002:00008a00       L__1023                    0000000180055a00     libucrt:powf.obj
 0002:00008a10       L__xexp_bits_xmantissa_bits 0000000180055a10     libucrt:powf.obj
 0002:00009330       __acrt_initializers        0000000180056330     libucrt:initialization.obj
 0002:00009430       ?module_names@?A0x391cf84c@@3QBQEB_WB 0000000180056430     libucrt:winapi_thunks.obj
 0002:000098f8       ?candidate_modules@?1??try_get_AreFileApisANSI@@YAP6AHXZXZ@4QBW4module_id@?A0x391cf84c@@B 00000001800568f8     libucrt:winapi_thunks.obj
 0002:00009910       ?candidate_modules@?1??try_get_CompareStringEx@@YAP6AHPEB_WK0H0HPEAU_nlsversioninfo@@PEAX_J@ZXZ@4QBW4module_id@?A0x391cf84c@@B 0000000180056910     libucrt:winapi_thunks.obj
 0002:00009918       ?candidate_modules@?1??try_get_EnumSystemLocalesEx@@YAP6AHP6AHPEA_WK_J@ZK1PEAX@ZXZ@4QBW4module_id@?A0x391cf84c@@B 0000000180056918     libucrt:winapi_thunks.obj
 0002:00009938       ?candidate_modules@?1??try_get_FlsAlloc@@YAP6AKP6AXPEAX@Z@ZXZ@4QBW4module_id@?A0x391cf84c@@B 0000000180056938     libucrt:winapi_thunks.obj
 0002:00009940       ?candidate_modules@?1??try_get_FlsFree@@YAP6AHK@ZXZ@4QBW4module_id@?A0x391cf84c@@B 0000000180056940     libucrt:winapi_thunks.obj
 0002:00009948       ?candidate_modules@?1??try_get_FlsGetValue@@YAP6APEAXK@ZXZ@4QBW4module_id@?A0x391cf84c@@B 0000000180056948     libucrt:winapi_thunks.obj
 0002:00009950       ?candidate_modules@?1??try_get_FlsSetValue@@YAP6AHKPEAX@ZXZ@4QBW4module_id@?A0x391cf84c@@B 0000000180056950     libucrt:winapi_thunks.obj
 0002:00009958       ?candidate_modules@?1??try_get_GetDateFormatEx@@YAP6AHPEB_WKPEBU_SYSTEMTIME@@0PEA_WH0@ZXZ@4QBW4module_id@?A0x391cf84c@@B 0000000180056958     libucrt:winapi_thunks.obj
 0002:00009970       ?candidate_modules@?1??try_get_GetLocaleInfoEx@@YAP6AHPEB_WKPEA_WH@ZXZ@4QBW4module_id@?A0x391cf84c@@B 0000000180056970     libucrt:winapi_thunks.obj
 0002:00009978       ?candidate_modules@?1??try_get_GetTimeFormatEx@@YAP6AHPEB_WKPEBU_SYSTEMTIME@@0PEA_WH@ZXZ@4QBW4module_id@?A0x391cf84c@@B 0000000180056978     libucrt:winapi_thunks.obj
 0002:00009990       ?candidate_modules@?1??try_get_GetUserDefaultLocaleName@@YAP6AHPEA_WH@ZXZ@4QBW4module_id@?A0x391cf84c@@B 0000000180056990     libucrt:winapi_thunks.obj
 0002:000099b8       ?candidate_modules@?1??try_get_InitializeCriticalSectionEx@@YAP6AHPEAU_RTL_CRITICAL_SECTION@@KK@ZXZ@4QBW4module_id@?A0x391cf84c@@B 00000001800569b8     libucrt:winapi_thunks.obj
 0002:000099c0       ?candidate_modules@?1??try_get_IsValidLocaleName@@YAP6AHPEB_W@ZXZ@4QBW4module_id@?A0x391cf84c@@B 00000001800569c0     libucrt:winapi_thunks.obj
 0002:000099e0       ?candidate_modules@?1??try_get_LCMapStringEx@@YAP6AHPEB_WK0HPEA_WHPEAU_nlsversioninfo@@PEAX_J@ZXZ@4QBW4module_id@?A0x391cf84c@@B 00000001800569e0     libucrt:winapi_thunks.obj
 0002:000099e8       ?candidate_modules@?1??try_get_LCIDToLocaleName@@YAP6AHKPEA_WHK@ZXZ@4QBW4module_id@?A0x391cf84c@@B 00000001800569e8     libucrt:winapi_thunks.obj
 0002:00009a08       ?candidate_modules@?1??try_get_LocaleNameToLCID@@YAP6AKPEB_WK@ZXZ@4QBW4module_id@?A0x391cf84c@@B 0000000180056a08     libucrt:winapi_thunks.obj
 0002:00009a24       ?candidate_modules@?1??try_get_AppPolicyGetProcessTerminationMethod@@YAP6AJPEAXPEAW4AppPolicyProcessTerminationMethod@@@ZXZ@4QBW4module_id@?A0x391cf84c@@B 0000000180056a24     libucrt:winapi_thunks.obj
 0002:00009a50       ?mask@?P@??_d_int@@9@4QBGB 0000000180056a50     libucrt:_test.obj
 0002:00009a70       ?sub@?P@??_d_int@@9@4QB_KB 0000000180056a70     libucrt:_test.obj
 0002:00009a90       ?strings@?1??fp_format_nan_or_infinity@@YAHW4__acrt_fp_class@@_NPEAD_K1@Z@4QAY03QEBDA 0000000180056a90     libucrt:cvt.obj
 0002:00009b60       _first_127char             0000000180056b60     libucrt:wsetlocale.obj
 0002:0000a390       $cppxdata$?_wcstombs_l_helper@@YA_KPEADPEB_W_KPEAU__crt_locale_pointers@@@Z 0000000180057390     libucrt:wcstombs.obj
 0002:0000c210       ?_mb_locale_names@@3QBQEB_WB 0000000180059210     libucrt:mbctype.obj
 0002:0000c230       ?LcidToLocaleNameTable@?A0x881e4c05@@3QBULcidToLocaleName@1@B 0000000180059230     libucrt:lcidtoname_downlevel.obj
 0002:0000d070       ?LocaleNameToIndexTable@?A0x881e4c05@@3QBULocaleNameIndex@1@B 000000018005a070     libucrt:lcidtoname_downlevel.obj
 0002:0000deb0       ?large_power_indices@?1??multiply_by_power_of_ten@__crt_strtox@@YA_NAEAUbig_integer@2@I@Z@4QBUunpack_index@?1??12@YA_N0I@Z@B 000000018005aeb0     libucrt:cfout.obj
 0002:0000ef60       __real@433fffffffffffff    000000018005bf60     libucrt:fpsr.obj
 0002:0000ef68       __real@c33fffffffffffff    000000018005bf68     libucrt:fpsr.obj
 0002:0000ef70       __real_ninf                000000018005bf70     libucrt:log10.obj
 0002:0000ef80       __real_inf                 000000018005bf80     libucrt:log10.obj
 0002:0000ef90       __real_neg_qnan            000000018005bf90     libucrt:log10.obj
 0002:0000efa0       __real_qnanbit             000000018005bfa0     libucrt:log10.obj
 0002:0000efb0       __int_1023                 000000018005bfb0     libucrt:log10.obj
 0002:0000efc0       __mask_001                 000000018005bfc0     libucrt:log10.obj
 0002:0000efd0       __mask_mant                000000018005bfd0     libucrt:log10.obj
 0002:0000efe0       __mask_mant_top8           000000018005bfe0     libucrt:log10.obj
 0002:0000eff0       __mask_mant9               000000018005bff0     libucrt:log10.obj
 0002:0000f000       __real_log10_e             000000018005c000     libucrt:log10.obj
 0002:0000f010       __real_log10_e_lead        000000018005c010     libucrt:log10.obj
 0002:0000f020       __real_log10_e_tail        000000018005c020     libucrt:log10.obj
 0002:0000f030       __real_log10_2_lead        000000018005c030     libucrt:log10.obj
 0002:0000f040       __real_log10_2_tail        000000018005c040     libucrt:log10.obj
 0002:0000f050       __real_two                 000000018005c050     libucrt:log10.obj
 0002:0000f060       __real_one                 000000018005c060     libucrt:log10.obj
 0002:0000f070       __real_half                000000018005c070     libucrt:log10.obj
 0002:0000f080       __mask_100                 000000018005c080     libucrt:log10.obj
 0002:0000f090       __real_1_over_512          000000018005c090     libucrt:log10.obj
 0002:0000f0a0       __real_1_over_2            000000018005c0a0     libucrt:log10.obj
 0002:0000f0b0       __real_1_over_3            000000018005c0b0     libucrt:log10.obj
 0002:0000f0c0       __real_1_over_4            000000018005c0c0     libucrt:log10.obj
 0002:0000f0d0       __real_1_over_5            000000018005c0d0     libucrt:log10.obj
 0002:0000f0e0       __real_1_over_6            000000018005c0e0     libucrt:log10.obj
 0002:0000f0f0       __real_neg_1023            000000018005c0f0     libucrt:log10.obj
 0002:0000f100       __mask_2045                000000018005c100     libucrt:log10.obj
 0002:0000f110       __real_threshold           000000018005c110     libucrt:log10.obj
 0002:0000f120       __real_near_one_lt         000000018005c120     libucrt:log10.obj
 0002:0000f130       __real_near_one_gt         000000018005c130     libucrt:log10.obj
 0002:0000f140       __real_min_norm            000000018005c140     libucrt:log10.obj
 0002:0000f150       __real_notsign             000000018005c150     libucrt:log10.obj
 0002:0000f160       __real_ca1                 000000018005c160     libucrt:log10.obj
 0002:0000f170       __real_ca2                 000000018005c170     libucrt:log10.obj
 0002:0000f180       __real_ca3                 000000018005c180     libucrt:log10.obj
 0002:0000f190       __real_ca4                 000000018005c190     libucrt:log10.obj
 0002:0000f1a0       __mask_lower               000000018005c1a0     libucrt:log10.obj
 0002:0000f1b0       __flag_x_zero              000000018005c1b0     libucrt:log10.obj
 0002:0000f1b4       __flag_x_neg               000000018005c1b4     libucrt:log10.obj
 0002:0000f1b8       __flag_x_nan               000000018005c1b8     libucrt:log10.obj
 0002:00011588       ?constStrTypes@@3QBQEB_WB  000000018005e588     handles.obj
 0002:00012428       ?StatusCols@?1??InitializePanelModes@Plist@@SAXXZ@4QB_WB 000000018005f428     Pclass.obj
 0002:00012438       ?Pr@?HF@??ProcessKey@Plist@@QEAAHPEBU_INPUT_RECORD@@@Z@4QBEB 000000018005f438     Pclass.obj
 0002:00012440       ?StatusWidths@?1??InitializePanelModes@Plist@@SAXXZ@4QB_WB 000000018005f440     Pclass.obj
 0002:00012468       ?invalid_chars@?1??GetFiles@Plist@@QEAAHPEAUPluginPanelItem@@_KHPEAPEB_W1AEAUoptions@@@Z@4QB_WB 000000018005f468     Pclass.obj
 0002:00012480       ?PrClasses@?EH@??ProcessKey@Plist@@QEAAHPEBU_INPUT_RECORD@@@Z@4QBGB 000000018005f480     Pclass.obj
 0002:00012af0       ??_7?$_Func_impl_no_alloc@V<lambda_3>@?N@??PrintModules@@YAXPEAXKAEAUoptions@@@Z@_NPEA_W_K@std@@6B@ 000000018005faf0     Plist.obj
 0002:00012b50       ??_7?$_Func_impl_no_alloc@V<lambda_1>@?1??GetProcessInt@WMIConnection@@AEAAKKPEB_W@Z@XAEBUtagVARIANT@@@std@@6B@ 000000018005fb50     wmi.obj
 0002:00012b88       ??_7?$_Func_impl_no_alloc@V<lambda_1>@?1??GetProcessString@WMIConnection@@AEAA?AV?$basic_string@_WU?$char_traits@_W@std@@V?$allocator@_W@2@@std@@KPEB_W@Z@XAEBUtagVARIANT@@@std@@6B@ 000000018005fb88     wmi.obj
 0002:00013ee8       ??_R2?$_Func_impl_no_alloc@V<lambda_3>@?N@??PrintModules@@YAXPEAXKAEAUoptions@@@Z@_NPEA_W_K@std@@8 0000000180060ee8     Plist.obj
 0002:00013f00       ??_R3?$_Func_impl_no_alloc@V<lambda_3>@?N@??PrintModules@@YAXPEAXKAEAUoptions@@@Z@_NPEA_W_K@std@@8 0000000180060f00     Plist.obj
 0002:00013f58       ??_R1A@?0A@EA@?$_Func_impl_no_alloc@V<lambda_3>@?N@??PrintModules@@YAXPEAXKAEAUoptions@@@Z@_NPEA_W_K@std@@8 0000000180060f58     Plist.obj
 0002:00013fe8       ??_R4?$_Func_impl_no_alloc@V<lambda_3>@?N@??PrintModules@@YAXPEAXKAEAUoptions@@@Z@_NPEA_W_K@std@@6B@ 0000000180060fe8     Plist.obj
 0002:00014038       ??_R3?$_Func_impl_no_alloc@V<lambda_1>@?1??GetProcessString@WMIConnection@@AEAA?AV?$basic_string@_WU?$char_traits@_W@std@@V?$allocator@_W@2@@std@@KPEB_W@Z@XAEBUtagVARIANT@@@std@@8 0000000180061038     wmi.obj
 0002:00014050       ??_R2?$_Func_impl_no_alloc@V<lambda_1>@?1??GetProcessInt@WMIConnection@@AEAAKKPEB_W@Z@XAEBUtagVARIANT@@@std@@8 0000000180061050     wmi.obj
 0002:00014068       ??_R4?$_Func_impl_no_alloc@V<lambda_1>@?1??GetProcessString@WMIConnection@@AEAA?AV?$basic_string@_WU?$char_traits@_W@std@@V?$allocator@_W@2@@std@@KPEB_W@Z@XAEBUtagVARIANT@@@std@@6B@ 0000000180061068     wmi.obj
 0002:000140b8       ??_R1A@?0A@EA@?$_Func_impl_no_alloc@V<lambda_1>@?1??GetProcessInt@WMIConnection@@AEAAKKPEB_W@Z@XAEBUtagVARIANT@@@std@@8 00000001800610b8     wmi.obj
 0002:000140f0       ??_R4?$_Func_impl_no_alloc@V<lambda_1>@?1??GetProcessInt@WMIConnection@@AEAAKKPEB_W@Z@XAEBUtagVARIANT@@@std@@6B@ 00000001800610f0     wmi.obj
 0002:00014130       ??_R3?$_Func_impl_no_alloc@V<lambda_1>@?1??GetProcessInt@WMIConnection@@AEAAKKPEB_W@Z@XAEBUtagVARIANT@@@std@@8 0000000180061130     wmi.obj
 0002:00014148       ??_R2?$_Func_impl_no_alloc@V<lambda_1>@?1??GetProcessString@WMIConnection@@AEAA?AV?$basic_string@_WU?$char_traits@_W@std@@V?$allocator@_W@2@@std@@KPEB_W@Z@XAEBUtagVARIANT@@@std@@8 0000000180061148     wmi.obj
 0002:00014160       ??_R1A@?0A@EA@?$_Func_impl_no_alloc@V<lambda_1>@?1??GetProcessString@WMIConnection@@AEAA?AV?$basic_string@_WU?$char_traits@_W@std@@V?$allocator@_W@2@@std@@KPEB_W@Z@XAEBUtagVARIANT@@@std@@8 0000000180061160     wmi.obj
 0002:00014530       $unwind$?WriteToFile@@YA_KPEAX_W@Z 0000000180061530     fileio.obj
 0002:00014530       $unwind$__report_gsfailure 0000000180061530     LIBCMT:gs_report.obj
 0002:00014538       $unwind$??1?$vector@Umode@@V?$allocator@Umode@@@std@@@std@@QEAA@XZ 0000000180061538     fileio.obj
 0002:00014538       $unwind$??1?$vector@UProcessPerfData@@V?$allocator@UProcessPerfData@@@std@@@std@@QEAA@XZ 0000000180061538     perfthread.obj
 0002:00014538       $unwind$??0WMIConnection@@QEAA@XZ 0000000180061538     wmi.obj
 0002:00014538       $unwind$?_Locimp_dtor@_Locimp@locale@std@@CAXPEAV123@@Z 0000000180061538     libcpmt:locale0.obj
 0002:00014538       $unwind$iswctype           0000000180061538     libucrt:iswctype.obj
 0002:00014544       $chain$0$??1?$vector@Umode@@V?$allocator@Umode@@@std@@@std@@QEAA@XZ 0000000180061544     fileio.obj
 0002:00014558       $chain$1$??1?$vector@Umode@@V?$allocator@Umode@@@std@@@std@@QEAA@XZ 0000000180061558     fileio.obj
 0002:00014568       $unwind$??0PluginDialogBuilder@@QEAA@AEBUPluginStartupInfo@@AEBU_GUID@@1HPEB_WP6A_JPEAX_J43@Z3_K@Z 0000000180061568     Pcfg.obj
 0002:00014568       $unwind$??_GPluginCheckBoxBinding@@UEAAPEAXI@Z 0000000180061568     Pcfg.obj
 0002:00014568       $unwind$?AddText@PluginDialogBuilder@@QEAAPEAUFarDialogItem@@H@Z 0000000180061568     Pcfg.obj
 0002:00014568       $unwind$?SaveValue@PluginCheckBoxBinding@@UEAAXPEBUFarDialogItem@@H@Z 0000000180061568     Pcfg.obj
 0002:00014568       $unwind$??1?$_Hash_vec@V?$allocator@V?$_List_unchecked_iterator@V?$_List_val@U?$_List_simple_types@U?$pair@$$CBKPEAUHWND__@@@std@@@std@@@std@@@std@@@std@@@std@@QEAA@XZ 0000000180061568     Pclass.obj
 0002:00014568       $unwind$??1?$pair@KV?$basic_string@_WU?$char_traits@_W@std@@V?$allocator@_W@2@@std@@@std@@QEAA@XZ 0000000180061568     Pclass.obj
 0002:00014568       $unwind$??1?$pair@_JV?$basic_string@_WU?$char_traits@_W@std@@V?$allocator@_W@2@@std@@@std@@QEAA@XZ 0000000180061568     Pclass.obj
 0002:00014568       $unwind$??1?$unique_ptr@VPerfThread@@U?$default_delete@VPerfThread@@@std@@@std@@QEAA@XZ 0000000180061568     Pclass.obj
 0002:00014568       $unwind$??1?$unique_ptr@VWMIConnection@@U?$default_delete@VWMIConnection@@@std@@@std@@QEAA@XZ 0000000180061568     Pclass.obj
 0002:00014568       $unwind$??1?$vector@UFarMenuItem@@V?$allocator@UFarMenuItem@@@std@@@std@@QEAA@XZ 0000000180061568     Pclass.obj
 0002:00014568       $unwind$??1?$vector@_KV?$allocator@_K@std@@@std@@QEAA@XZ 0000000180061568     Pclass.obj
 0002:00014568       $unwind$??4?$unique_ptr@VPerfThread@@U?$default_delete@VPerfThread@@@std@@@std@@QEAAAEAV01@$$QEAV01@@Z 0000000180061568     Pclass.obj
 0002:00014568       $unwind$??_GPluginEditFieldBinding@@UEAAPEAXI@Z 0000000180061568     Pclass.obj
 0002:00014568       $unwind$?SaveValue@PluginEditFieldBinding@@UEAAXPEBUFarDialogItem@@H@Z 0000000180061568     Pclass.obj
 0002:00014568       $unwind$?SmartReread@PerfThread@@QEAAXXZ 0000000180061568     Pclass.obj
 0002:00014568       $unwind$?_Tidy@?$vector@V?$basic_string@_WU?$char_traits@_W@std@@V?$allocator@_W@2@@std@@V?$allocator@V?$basic_string@_WU?$char_traits@_W@std@@V?$allocator@_W@2@@std@@@2@@std@@AEAAXXZ 0000000180061568     Pclass.obj
 0002:00014568       $unwind$??1?$function@$$A6A_NPEA_W_K@Z@std@@QEAA@XZ 0000000180061568     Plist.obj
 0002:00014568       $unwind$??1?$vector@PEAUHINSTANCE__@@V?$allocator@PEAUHINSTANCE__@@@std@@@std@@QEAA@XZ 0000000180061568     Plist.obj
 0002:00014568       $unwind$??1?$basic_string@_WU?$char_traits@_W@std@@V?$allocator@_W@2@@std@@QEAA@XZ 0000000180061568     fileio.obj
 0002:00014568       $unwind$??1mode@@QEAA@XZ   0000000180061568     fileio.obj
 0002:00014568       $unwind$?_Tidy_deallocate@?$basic_string@_WU?$char_traits@_W@std@@V?$allocator@_W@2@@std@@AEAAXXZ 0000000180061568     fileio.obj
 0002:00014568       $unwind$??0?$basic_string@_WU?$char_traits@_W@std@@V?$allocator@_W@2@@std@@QEAA@QEB_W@Z 0000000180061568     format.obj
 0002:00014568       $unwind$??0bad_alloc@std@@QEAA@AEBV01@@Z 0000000180061568     format.obj
 0002:00014568       $unwind$??0bad_array_new_length@std@@QEAA@AEBV01@@Z 0000000180061568     format.obj
 0002:00014568       $unwind$??0bad_cast@std@@QEAA@AEBV01@@Z 0000000180061568     format.obj
 0002:00014568       $unwind$??0exception@std@@QEAA@AEBV01@@Z 0000000180061568     format.obj
 0002:00014568       $unwind$??0format_error@v8@fmt@@QEAA@AEBV012@@Z 0000000180061568     format.obj
 0002:00014568       $unwind$??0runtime_error@std@@QEAA@AEBV01@@Z 0000000180061568     format.obj
 0002:00014568       $unwind$??1?$_Tidy_guard@V?$numpunct@_W@std@@@std@@QEAA@XZ 0000000180061568     format.obj
 0002:00014568       $unwind$??1?$_Yarn@D@std@@QEAA@XZ 0000000180061568     format.obj
 0002:00014568       $unwind$??1?$_Yarn@_W@std@@QEAA@XZ 0000000180061568     format.obj
 0002:00014568       $unwind$??1?$basic_string@DU?$char_traits@D@std@@V?$allocator@D@2@@std@@QEAA@XZ 0000000180061568     format.obj
 0002:00014568       $unwind$??1?$thousands_sep_result@_W@detail@v8@fmt@@QEAA@XZ 0000000180061568     format.obj
 0002:00014568       $unwind$??_3bigint@detail@v8@fmt@@QEAAAEAV0123@H@Z 0000000180061568     format.obj
 0002:00014568       $unwind$??_G_Facet_base@std@@UEAAPEAXI@Z 0000000180061568     format.obj
 0002:00014568       $unwind$?do_falsename@?$numpunct@_W@std@@MEBA?AV?$basic_string@_WU?$char_traits@_W@std@@V?$allocator@_W@2@@2@XZ 0000000180061568     format.obj
 0002:00014568       $unwind$?do_grouping@?$numpunct@_W@std@@MEBA?AV?$basic_string@DU?$char_traits@D@std@@V?$allocator@D@2@@2@XZ 0000000180061568     format.obj
 0002:00014568       $unwind$?do_truename@?$numpunct@_W@std@@MEBA?AV?$basic_string@_WU?$char_traits@_W@std@@V?$allocator@_W@2@@2@XZ 0000000180061568     format.obj
 0002:00014568       $unwind$??1?$digit_grouping@_W@detail@v8@fmt@@QEAA@XZ 0000000180061568     handles.obj
 0002:00014568       $unwind$??1DebugToken@@QEAA@XZ 0000000180061568     handles.obj
 0002:00014568       $unwind$??1?$_Hash_vec@V?$allocator@V?$_List_unchecked_iterator@V?$_List_val@U?$_List_simple_types@U?$pair@$$CBKUProcessPerfData@@@std@@@std@@@std@@@std@@@std@@@std@@QEAA@XZ 0000000180061568     perfthread.obj
 0002:00014568       $unwind$??1?$_List_node_emplace_op2@V?$allocator@U?$_List_node@U?$pair@$$CBKUProcessPerfData@@@std@@PEAX@std@@@std@@@std@@QEAA@XZ 0000000180061568     perfthread.obj
 0002:00014568       $unwind$??1?$unordered_multimap@KUProcessPerfData@@U?$hash@K@std@@U?$equal_to@K@3@V?$allocator@U?$pair@$$CBKUProcessPerfData@@@std@@@3@@std@@QEAA@XZ 0000000180061568     perfthread.obj
 0002:00014568       $unwind$??1?$vector@EV?$allocator@E@std@@@std@@QEAA@XZ 0000000180061568     perfthread.obj
 0002:00014568       $unwind$??1?$vector@_WV?$allocator@_W@std@@@std@@QEAA@XZ 0000000180061568     perfthread.obj
 0002:00014568       $unwind$??1PerfLib@@QEAA@XZ 0000000180061568     perfthread.obj
 0002:00014568       $unwind$??1?$function@$$A6AXAEBUtagVARIANT@@@Z@std@@QEAA@XZ 0000000180061568     wmi.obj
 0002:00014568       $unwind$__raise_securityfailure 0000000180061568     LIBCMT:gs_report.obj
 0002:00014568       $unwind$??2@YAPEAX_K@Z     0000000180061568     LIBCMT:new_scalar.obj
 0002:00014568       $unwind$??_Gtype_info@@UEAAPEAXI@Z 0000000180061568     LIBCMT:std_type_info_static.obj
 0002:00014568       $unwind$__scrt_initialize_crt 0000000180061568     LIBCMT:utility.obj
 0002:00014568       $unwind$__scrt_initialize_onexit_tables 0000000180061568     LIBCMT:utility.obj
 0002:00014568       $unwind$__scrt_release_startup_lock 0000000180061568     LIBCMT:utility.obj
 0002:00014568       $unwind$__scrt_uninitialize_crt 0000000180061568     LIBCMT:utility.obj
 0002:00014568       $unwind$_onexit            0000000180061568     LIBCMT:utility.obj
 0002:00014568       $unwind$??__F_Fac_tidy_reg@std@@YAXXZ 0000000180061568     libcpmt:locale0.obj
 0002:00014568       $unwind$?_Facet_Register@std@@YAXPEAV_Facet_base@1@@Z 0000000180061568     libcpmt:locale0.obj
 0002:00014568       $unwind$?_Setgloballocale@locale@std@@CAXPEAX@Z 0000000180061568     libcpmt:locale0.obj
 0002:00014568       $unwind$?initialize_pointers@@YAHXZ 0000000180061568     libcpmt:winapisupp.obj
 0002:00014568       $unwind$??0_Lockit@std@@QEAA@H@Z 0000000180061568     libcpmt:xlock.obj
 0002:00014568       $unwind$??1_Init_locks@std@@QEAA@XZ 0000000180061568     libcpmt:xlock.obj
 0002:00014568       $unwind$??0bad_function_call@std@@QEAA@AEBV01@@Z 0000000180061568     libcpmt:xthrow.obj
 0002:00014568       $unwind$??0length_error@std@@QEAA@AEBV01@@Z 0000000180061568     libcpmt:xthrow.obj
 0002:00014568       $unwind$??0logic_error@std@@QEAA@AEBV01@@Z 0000000180061568     libcpmt:xthrow.obj
 0002:00014568       $unwind$??0out_of_range@std@@QEAA@AEBV01@@Z 0000000180061568     libcpmt:xthrow.obj
 0002:00014568       $unwind$_IsExceptionObjectToBeDestroyed 0000000180061568     libvcruntime:ehhelpers.obj
 0002:00014568       $unwind$?GetUnwindTryBlock@__FrameHandler3@@SAHPEA_KPEAU_xDISPATCHER_CONTEXT@@PEBU_s_FuncInfo@@@Z 0000000180061568     libvcruntime:ehstate.obj
 0002:00014568       $unwind$?StateFromIp@__FrameHandler3@@SAHPEBU_s_FuncInfo@@PEAU_xDISPATCHER_CONTEXT@@_K@Z 0000000180061568     libvcruntime:ehstate.obj
 0002:00014568       $unwind$??0HandlerMap4@FH4@@QEAA@PEBUTryBlockMapEntry4@1@_KH@Z 0000000180061568     libvcruntime:frame.obj
 0002:00014568       $unwind$??0bad_exception@std@@QEAA@AEBV01@@Z 0000000180061568     libvcruntime:frame.obj
 0002:00014568       $unwind$?ExFilterRethrow@@YAHPEAU_EXCEPTION_POINTERS@@PEAUEHExceptionRecord@@PEAH@Z 0000000180061568     libvcruntime:frame.obj
 0002:00014568       $unwind$__vcrt_uninitialize_locks 0000000180061568     libvcruntime:locks.obj
 0002:00014568       $unwind$__vcrt_freeptd     0000000180061568     libvcruntime:per_thread_data.obj
 0002:00014568       $unwind$?ExecutionInCatch@__FrameHandler3@@SA_NPEAU_xDISPATCHER_CONTEXT@@PEBU_s_FuncInfo@@@Z 0000000180061568     libvcruntime:risctrnsctrl.obj
 0002:00014568       $unwind$_CreateFrameInfo   0000000180061568     libvcruntime:risctrnsctrl.obj
 0002:00014568       $unwind$_SetImageBase      0000000180061568     libvcruntime:risctrnsctrl.obj
 0002:00014568       $unwind$_SetThrowImageBase 0000000180061568     libvcruntime:risctrnsctrl.obj
 0002:00014568       $unwind$__std_exception_destroy 0000000180061568     libvcruntime:std_exception.obj
 0002:00014568       $unwind$__std_type_info_destroy_list 0000000180061568     libvcruntime:std_type_info.obj
 0002:00014568       $unwind$__vcrt_FlsAlloc    0000000180061568     libvcruntime:winapi_downlevel.obj
 0002:00014568       $unwind$__vcrt_FlsFree     0000000180061568     libvcruntime:winapi_downlevel.obj
 0002:00014568       $unwind$__vcrt_FlsGetValue 0000000180061568     libvcruntime:winapi_downlevel.obj
 0002:00014568       $unwind$?__c16rtomb_utf8@__crt_mbstring@@YA_KPEAD_SPEAU_Mbstatet@@@Z 0000000180061568     libucrt:c16rtomb.obj
 0002:00014568       $unwind$_calloc_base       0000000180061568     libucrt:calloc_base.obj
 0002:00014568       $unwind$_malloc_base       0000000180061568     libucrt:malloc_base.obj
 0002:00014568       $unwind$_callnewh          0000000180061568     libucrt:new_handler.obj
 0002:00014568       $unwind$initialize_pointers 0000000180061568     libucrt:initialization.obj
 0002:00014568       $unwind$uninitialize_allocated_memory 0000000180061568     libucrt:initialization.obj
 0002:00014568       $unwind$__acrt_initialize_locks 0000000180061568     libucrt:locks.obj
 0002:00014568       $unwind$__acrt_uninitialize_locks 0000000180061568     libucrt:locks.obj
 0002:00014568       $unwind$__acrt_freeptd     0000000180061568     libucrt:per_thread_data.obj
 0002:00014568       $unwind$__acrt_getptd_head 0000000180061568     libucrt:per_thread_data.obj
 0002:00014568       $unwind$__acrt_get_process_end_policy 0000000180061568     libucrt:win_policies.obj
 0002:00014568       $unwind$__acrt_AppPolicyGetProcessTerminationMethodInternal 0000000180061568     libucrt:winapi_thunks.obj
 0002:00014568       $unwind$__acrt_FlsAlloc    0000000180061568     libucrt:winapi_thunks.obj
 0002:00014568       $unwind$__acrt_FlsFree     0000000180061568     libucrt:winapi_thunks.obj
 0002:00014568       $unwind$__acrt_FlsGetValue 0000000180061568     libucrt:winapi_thunks.obj
 0002:00014568       $unwind$__acrt_IsValidLocaleName 0000000180061568     libucrt:winapi_thunks.obj
 0002:00014568       $unwind$__acrt_uninitialize_winapi_thunks 0000000180061568     libucrt:winapi_thunks.obj
 0002:00014568       $unwind$__acrt_update_locale_info 0000000180061568     libucrt:locale_update.obj
 0002:00014568       $unwind$__acrt_update_multibyte_info 0000000180061568     libucrt:locale_update.obj
 0002:00014568       $unwind$__acrt_allocate_buffer_for_argv 0000000180061568     libucrt:argv_parsing.obj
 0002:00014568       $unwind$?exit_or_terminate_process@@YAXI@Z 0000000180061568     libucrt:exit.obj
 0002:00014568       $unwind$?try_cor_exit_process@@YAXI@Z 0000000180061568     libucrt:exit.obj
 0002:00014568       $unwind$__acrt_uninitialize_stdio 0000000180061568     libucrt:_file.obj
 0002:00014568       $unwind$__acrt_stdio_free_buffer_nolock 0000000180061568     libucrt:_freebuf.obj
 0002:00014568       $unwind$_fflush_nolock     0000000180061568     libucrt:fflush.obj
 0002:00014568       $unwind$?state_case_normal@?$output_processor@DV?$string_output_adapter@D@__crt_stdio_output@@V?$format_validation_base@DV?$string_output_adapter@D@__crt_stdio_output@@@2@@__crt_stdio_output@@AEAA_NXZ 0000000180061568     libucrt:output.obj
 0002:00014568       $unwind$?type_case_c_tchar@?$output_processor@DV?$string_output_adapter@D@__crt_stdio_output@@V?$format_validation_base@DV?$string_output_adapter@D@__crt_stdio_output@@@2@@__crt_stdio_output@@AEAA_ND@Z 0000000180061568     libucrt:output.obj
 0002:00014568       $unwind$?type_case_s@?$output_processor@DV?$string_output_adapter@D@__crt_stdio_output@@V?$format_validation_base@DV?$string_output_adapter@D@__crt_stdio_output@@@2@@__crt_stdio_output@@AEAA_NXZ 0000000180061568     libucrt:output.obj
 0002:00014568       $unwind$strcpy_s           0000000180061568     libucrt:strcpy_s.obj
 0002:00014568       $unwind$wcscat_s           0000000180061568     libucrt:wcscat_s.obj
 0002:00014568       $unwind$wcscpy_s           0000000180061568     libucrt:wcscpy_s.obj
 0002:00014568       $unwind$_clrfp             0000000180061568     libucrt:fpctrl.obj
 0002:00014568       $unwind$_set_statfp        0000000180061568     libucrt:fpctrl.obj
 0002:00014568       $unwind$_clearfp           0000000180061568     libucrt:ieee.obj
 0002:00014568       $unwind$fegetenv           0000000180061568     libucrt:fegetenv.obj
 0002:00014568       $unwind$feholdexcept       0000000180061568     libucrt:feholdexcept.obj
 0002:00014568       $unwind$fesetenv           0000000180061568     libucrt:fesetenv.obj
 0002:00014570       $unwind$?ItemWidth@PluginDialogBuilder@@CA_JAEBUFarDialogItem@@@Z 0000000180061570     Pcfg.obj
 0002:00014570       $unwind$??__FTitle@?1??GetOpenPanelInfo@Plist@@QEAAXPEAUOpenPanelInfo@@@Z@YAXXZ 0000000180061570     Pclass.obj
 0002:00014570       $unwind$?_Xlength@?$vector@PEB_WV?$allocator@PEB_W@std@@@std@@CAXXZ 0000000180061570     Pclass.obj
 0002:00014570       $unwind$?_Xlength@?$vector@UFarMenuItem@@V?$allocator@UFarMenuItem@@@std@@@std@@CAXXZ 0000000180061570     Pclass.obj
 0002:00014570       $unwind$?_Xlength@?$vector@Umode@@V?$allocator@Umode@@@std@@@std@@CAXXZ 0000000180061570     Pclass.obj
 0002:00014570       $unwind$?_Xlength@?$vector@V?$basic_string@_WU?$char_traits@_W@std@@V?$allocator@_W@2@@std@@V?$allocator@V?$basic_string@_WU?$char_traits@_W@std@@V?$allocator@_W@2@@std@@@2@@std@@CAXXZ 0000000180061570     Pclass.obj
 0002:00014570       $unwind$?_Xlength@?$vector@_KV?$allocator@_K@std@@@std@@CAXXZ 0000000180061570     Pclass.obj
 0002:00014570       $unwind$?_Xran@?$_String_val@U?$_Simple_types@_W@std@@@std@@SAXXZ 0000000180061570     Pclass.obj
 0002:00014570       $unwind$?allocate@?$allocator@UFarMenuItem@@@std@@QEAAPEAUFarMenuItem@@_K@Z 0000000180061570     Pclass.obj
 0002:00014570       $unwind$?allocate@?$allocator@V?$basic_string@_WU?$char_traits@_W@std@@V?$allocator@_W@2@@std@@@std@@QEAAPEAV?$basic_string@_WU?$char_traits@_W@std@@V?$allocator@_W@2@@2@_K@Z 0000000180061570     Pclass.obj
 0002:00014570       $unwind$?allocate@?$allocator@_K@std@@QEAAPEA_K_K@Z 0000000180061570     Pclass.obj
 0002:00014570       $unwind$?deallocate@?$allocator@UFarMenuItem@@@std@@QEAAXQEAUFarMenuItem@@_K@Z 0000000180061570     Pclass.obj
 0002:00014570       $unwind$?deallocate@?$allocator@V?$basic_string@_WU?$char_traits@_W@std@@V?$allocator@_W@2@@std@@@std@@QEAAXQEAV?$basic_string@_WU?$char_traits@_W@std@@V?$allocator@_W@2@@2@_K@Z 0000000180061570     Pclass.obj
 0002:00014570       $unwind$?deallocate@?$allocator@_K@std@@QEAAXQEA_K_K@Z 0000000180061570     Pclass.obj
 0002:00014570       $unwind$?_Do_call@?$_Func_impl_no_alloc@V<lambda_3>@?N@??PrintModules@@YAXPEAXKAEAUoptions@@@Z@_NPEA_W_K@std@@EEAA_N$$QEAPEA_W$$QEA_K@Z 0000000180061570     Plist.obj
 0002:00014570       $unwind$?_Xlength@?$vector@PEAUHINSTANCE__@@V?$allocator@PEAUHINSTANCE__@@@std@@@std@@CAXXZ 0000000180061570     Plist.obj
 0002:00014570       $unwind$?allocate@?$allocator@PEAUHINSTANCE__@@@std@@QEAAPEAPEAUHINSTANCE__@@_K@Z 0000000180061570     Plist.obj
 0002:00014570       $unwind$?dynamic_bind@@YAXXZ 0000000180061570     Proclist.obj
 0002:00014570       $unwind$CompareW           0000000180061570     Proclist.obj
 0002:00014570       $unwind$ConfigureW         0000000180061570     Proclist.obj
 0002:00014570       $unwind$DeleteFilesW       0000000180061570     Proclist.obj
 0002:00014570       $unwind$GetFindDataW       0000000180061570     Proclist.obj
 0002:00014570       $unwind$GetGlobalInfoW     0000000180061570     Proclist.obj
 0002:00014570       $unwind$ProcessPanelInputW 0000000180061570     Proclist.obj
 0002:00014570       $unwind$ProcessSynchroEventW 0000000180061570     Proclist.obj
 0002:00014570       $unwind$?deallocate@?$allocator@_W@std@@QEAAXQEA_W_K@Z 0000000180061570     fileio.obj
 0002:00014570       $unwind$??1?$basic_memory_buffer@D$0BPE@V?$allocator@D@std@@@v8@fmt@@QEAA@XZ 0000000180061570     format.obj
 0002:00014570       $unwind$??1?$basic_memory_buffer@H$0BPE@V?$allocator@H@std@@@v8@fmt@@QEAA@XZ 0000000180061570     format.obj
 0002:00014570       $unwind$??1?$basic_memory_buffer@I$0CA@V?$allocator@I@std@@@v8@fmt@@QEAA@XZ 0000000180061570     format.obj
 0002:00014570       $unwind$??1?$basic_memory_buffer@_W$0BPE@V?$allocator@_W@std@@@v8@fmt@@QEAA@XZ 0000000180061570     format.obj
 0002:00014570       $unwind$??1bigint@detail@v8@fmt@@QEAA@XZ 0000000180061570     format.obj
 0002:00014570       $unwind$??1locale@std@@QEAA@XZ 0000000180061570     format.obj
 0002:00014570       $unwind$?_Xlen@?$basic_string@DU?$char_traits@D@std@@V?$allocator@D@2@@std@@CAXXZ 0000000180061570     format.obj
 0002:00014570       $unwind$?_Xlen@?$basic_string@_WU?$char_traits@_W@std@@V?$allocator@_W@2@@std@@CAXXZ 0000000180061570     format.obj
 0002:00014570       $unwind$?allocate@?$allocator@_W@std@@QEAAPEA_W_K@Z 0000000180061570     format.obj
 0002:00014570       $unwind$?deallocate@?$allocator@I@std@@QEAAXQEAI_K@Z 0000000180061570     format.obj
 0002:00014570       $unwind$??__FUserAccountID@?1??GetUserAccountID@@YA@XZ@YAXXZ 0000000180061570     handles.obj
 0002:00014570       $unwind$?_Xlength@?$vector@EV?$allocator@E@std@@@std@@CAXXZ 0000000180061570     perfthread.obj
 0002:00014570       $unwind$?_Xlength@?$vector@UProcessPerfData@@V?$allocator@UProcessPerfData@@@std@@@std@@CAXXZ 0000000180061570     perfthread.obj
 0002:00014570       $unwind$?allocate@?$allocator@UProcessPerfData@@@std@@QEAAPEAUProcessPerfData@@_K@Z 0000000180061570     perfthread.obj
 0002:00014570       $unwind$__scrt_initialize_default_local_stdio_options 0000000180061570     LIBCMT:default_local_stdio_options.obj
 0002:00014570       $unwind$?dllmain_crt_dispatch@@YAHQEAUHINSTANCE__@@KQEAX@Z 0000000180061570     LIBCMT:dll_dllmain.obj
 0002:00014570       $unwind$__report_rangecheckfailure 0000000180061570     LIBCMT:gs_report.obj
 0002:00014570       $unwind$__GSHandlerCheck   0000000180061570     LIBCMT:gshandler.obj
 0002:00014570       $unwind$__scrt_acquire_startup_lock 0000000180061570     LIBCMT:utility.obj
 0002:00014570       $unwind$__scrt_dllmain_after_initialize_c 0000000180061570     LIBCMT:utility.obj
 0002:00014570       $unwind$__scrt_dllmain_before_initialize_c 0000000180061570     LIBCMT:utility.obj
 0002:00014570       $unwind$__scrt_dllmain_crt_thread_attach 0000000180061570     LIBCMT:utility.obj
 0002:00014570       $unwind$__scrt_dllmain_crt_thread_detach 0000000180061570     LIBCMT:utility.obj
 0002:00014570       $unwind$__scrt_dllmain_uninitialize_c 0000000180061570     LIBCMT:utility.obj
 0002:00014570       $unwind$__scrt_dllmain_uninitialize_critical 0000000180061570     LIBCMT:utility.obj
 0002:00014570       $unwind$atexit             0000000180061570     LIBCMT:utility.obj
 0002:00014570       $unwind$??__Einitlocks@std@@YAXXZ 0000000180061570     libcpmt:iosptrs.obj
 0002:00014570       $unwind$?_Atexit@@YAXP6AXXZ@Z 0000000180061570     libcpmt:iosptrs.obj
 0002:00014570       $unwind$??__Fclassic_locale@std@@YAXXZ 0000000180061570     libcpmt:locale0.obj
 0002:00014570       $unwind$?_Locinfo_dtor@_Locinfo@std@@SAXPEAV12@@Z 0000000180061570     libcpmt:locale0.obj
 0002:00014570       $unwind$_Deletegloballocale 0000000180061570     libcpmt:locale0.obj
 0002:00014570       $unwind$tidy_global        0000000180061570     libcpmt:locale0.obj
 0002:00014570       $unwind$__crtInitializeCriticalSectionEx 0000000180061570     libcpmt:winapisupp.obj
 0002:00014570       $unwind$??1_Lockit@std@@QEAA@XZ 0000000180061570     libcpmt:xlock.obj
 0002:00014570       $unwind$??__Einitlocks@std@@YAXXZ 0000000180061570     libcpmt:xlock.obj
 0002:00014570       $unwind$__current_exception 0000000180061570     libvcruntime:ehhelpers.obj
 0002:00014570       $unwind$__current_exception_context 0000000180061570     libvcruntime:ehhelpers.obj
 0002:00014570       $unwind$__std_terminate    0000000180061570     libvcruntime:ehhelpers.obj
 0002:00014570       $unwind$?GetCurrentState@__FrameHandler3@@SAHPEA_KPEAU_xDISPATCHER_CONTEXT@@PEBU_s_FuncInfo@@@Z 0000000180061570     libvcruntime:ehstate.obj
 0002:00014570       $unwind$__vcrt_initialize  0000000180061570     libvcruntime:initialization.obj
 0002:00014570       $unwind$__vcrt_thread_attach 0000000180061570     libvcruntime:initialization.obj
 0002:00014570       $unwind$__vcrt_thread_detach 0000000180061570     libvcruntime:initialization.obj
 0002:00014570       $unwind$__vcrt_uninitialize 0000000180061570     libvcruntime:initialization.obj
 0002:00014570       $unwind$__vcrt_uninitialize_critical 0000000180061570     libvcruntime:initialization.obj
 0002:00014570       $unwind$__vcrt_initialize_locks 0000000180061570     libvcruntime:locks.obj
 0002:00014570       $unwind$__vcrt_freefls     0000000180061570     libvcruntime:per_thread_data.obj
 0002:00014570       $unwind$__vcrt_getptd      0000000180061570     libvcruntime:per_thread_data.obj
 0002:00014570       $unwind$__vcrt_initialize_ptd 0000000180061570     libvcruntime:per_thread_data.obj
 0002:00014570       $unwind$__vcrt_uninitialize_ptd 0000000180061570     libvcruntime:per_thread_data.obj
 0002:00014570       $unwind$_purecall          0000000180061570     libvcruntime:purevirt.obj
 0002:00014570       $unwind$?FrameUnwindToEmptyState@__FrameHandler4@@SAXPEA_KPEAU_xDISPATCHER_CONTEXT@@PEAUFuncInfo4@FH4@@@Z 0000000180061570     libvcruntime:risctrnsctrl.obj
 0002:00014570       $unwind$_GetImageBase      0000000180061570     libvcruntime:risctrnsctrl.obj
 0002:00014570       $unwind$_GetThrowImageBase 0000000180061570     libvcruntime:risctrnsctrl.obj
 0002:00014570       $unwind$__dcrt_terminate_console_output 0000000180061570     libucrt:initcon.obj
 0002:00014570       $unwind$??$uninitialize_environment_internal@D@@YAXAEAPEAPEAD@Z 0000000180061570     libucrt:environment_initialization.obj
 0002:00014570       $unwind$??$uninitialize_environment_internal@_W@@YAXAEAPEAPEA_W@Z 0000000180061570     libucrt:environment_initialization.obj
 0002:00014570       $unwind$__dcrt_uninitialize_environments_nolock 0000000180061570     libucrt:environment_initialization.obj
 0002:00014570       $unwind$?__c32rtomb_utf8@__crt_mbstring@@YA_KPEAD_UPEAU_Mbstatet@@@Z 0000000180061570     libucrt:c32rtomb.obj
 0002:00014570       $unwind$__acrt_initialize_heap 0000000180061570     libucrt:heap_handle.obj
 0002:00014570       $unwind$_msize_base        0000000180061570     libucrt:msize.obj
 0002:00014570       $unwind$?initialize_multibyte@@YAHXZ 0000000180061570     libucrt:multibyte_initializer.obj
 0002:00014570       $unwind$__acrt_thread_attach 0000000180061570     libucrt:initialization.obj
 0002:00014570       $unwind$__acrt_thread_detach 0000000180061570     libucrt:initialization.obj
 0002:00014570       $unwind$__acrt_uninitialize 0000000180061570     libucrt:initialization.obj
