 IntChecker2

 Timestamp is 617c097e (Fri Oct 29 14:47:26 2021)

 Preferred load address is 0000000180000000

 Start         Length     Name                   Class
 0001:00000000 000003a0H .text$di                CODE
 0001:000003a0 00060fe0H .text$mn                CODE
 0001:00061380 00000040H .text$mn$00             CODE
 0001:000613c0 00001fa0H .text$x                 CODE
 0001:00063360 00000110H .text$yd                CODE
 0002:00000000 00000378H .idata$5                DATA
 0002:00000378 00000028H .00cfg                  DATA
 0002:000003a0 00000008H .CRT$XCA                DATA
 0002:000003a8 00000018H .CRT$XCC                DATA
 0002:000003c0 00000010H .CRT$XCL                DATA
 0002:000003d0 00000008H .CRT$XCU                DATA
 0002:000003d8 00000008H .CRT$XCZ                DATA
 0002:000003e0 00000008H .CRT$XIA                DATA
 0002:000003e8 00000030H .CRT$XIC                DATA
 0002:00000418 00000008H .CRT$XIZ                DATA
 0002:00000420 00000008H .CRT$XPA                DATA
 0002:00000428 00000010H .CRT$XPX                DATA
 0002:00000438 00000008H .CRT$XPXA               DATA
 0002:00000440 00000008H .CRT$XPZ                DATA
 0002:00000448 00000008H .CRT$XTA                DATA
 0002:00000450 00000030H .CRT$XTZ                DATA
 0002:00000458 00000000H .gehcont$y              DATA
 0002:00000458 00000000H .gfids$y                DATA
 0002:00000480 0001ef00H .rdata                  DATA
 0002:0001f380 00000000H .rdata$CastGuardVftablesA DATA
 0002:0001f380 00000000H .rdata$CastGuardVftablesC DATA
 0002:0001f380 00002724H .rdata$r                DATA
 0002:00021aa4 0000015cH .rdata$voltmd           DATA
 0002:00021c00 00000358H .rdata$zzzdbg           DATA
 0002:00021f58 00000008H .rtc$IAA                DATA
 0002:00021f60 00000008H .rtc$IZZ                DATA
 0002:00021f68 00000008H .rtc$TAA                DATA
 0002:00021f70 00000008H .rtc$TZZ                DATA
 0002:00021f78 00005a70H .xdata                  DATA
 0002:000279e8 00000558H .xdata$x                DATA
 0002:00027f40 000000bcH .edata                  DATA
 0002:00027ffc 00000050H .idata$2                DATA
 0002:0002804c 00000014H .idata$3                DATA
 0002:00028060 00000378H .idata$4                DATA
 0002:000283d8 000007f8H .idata$6                DATA
 0003:00000000 00007980H .data                   DATA
 0003:00007980 00000430H .data$r                 DATA
 0003:00007db0 00000e80H .data$rs                DATA
 0003:00008c30 000020ccH .bss                    DATA
 0004:00000000 00004200H .pdata                  DATA
 0005:00000000 000000f4H _RDATA                  DATA
 0006:00000000 00000060H .rsrc$01                DATA
 0006:00000060 000002f8H .rsrc$02                DATA

  Address         Publics by Value              Rva+Base               Lib:Object

 0000:00000000       __guard_longjmp_table      0000000000000000     <absolute>
 0000:00000000       ___safe_se_handler_table   0000000000000000     <absolute>
 0000:00000000       __x64_code_ranges_to_entry_points_count 0000000000000000     <absolute>
 0000:00000000       __guard_fids_count         0000000000000000     <absolute>
 0000:00000000       __arm64x_extra_rfe_table   0000000000000000     <absolute>
 0000:00000000       __arm64x_redirection_metadata 0000000000000000     <absolute>
 0000:00000000       __guard_iat_table          0000000000000000     <absolute>
 0000:00000000       __hybrid_code_map          0000000000000000     <absolute>
 0000:00000000       __arm64x_extra_rfe_table_size 0000000000000000     <absolute>
 0000:00000000       ___safe_se_handler_count   0000000000000000     <absolute>
 0000:00000000       __guard_iat_count          0000000000000000     <absolute>
 0000:00000000       __guard_longjmp_count      0000000000000000     <absolute>
 0000:00000000       __x64_code_ranges_to_entry_points 0000000000000000     <absolute>
 0000:00000000       __dynamic_value_reloc_table 0000000000000000     <absolute>
 0000:00000000       __hybrid_auxiliary_iat     0000000000000000     <absolute>
 0000:00000000       __hybrid_auxiliary_iat_copy 0000000000000000     <absolute>
 0000:00000000       __guard_eh_cont_count      0000000000000000     <absolute>
 0000:00000000       __AbsoluteZero             0000000000000000     <absolute>
 0000:00000000       __guard_check_icall_a64n_fptr 0000000000000000     <absolute>
 0000:00000000       __guard_fids_table         0000000000000000     <absolute>
 0000:00000000       __arm64x_redirection_metadata_count 0000000000000000     <absolute>
 0000:00000000       __enclave_config           0000000000000000     <absolute>
 0000:00000000       __guard_eh_cont_table      0000000000000000     <absolute>
 0000:00000000       __arm64x_native_entrypoint 0000000000000000     <absolute>
 0000:00000000       __hybrid_code_map_count    0000000000000000     <absolute>
 0000:00000100       __guard_flags              0000000000000100     <absolute>
 0000:00000000       __ImageBase                0000000180000000     <linker-defined>
 0001:000003a0       ??4?$basic_string@_WU?$char_traits@_W@std@@V?$allocator@_W@2@@std@@QEAAAEAV01@$$QEAV01@@Z 00000001800013a0 f i trust.obj
 0001:00000440       ??0?$basic_string@_WU?$char_traits@_W@std@@V?$allocator@_W@2@@std@@QEAA@AEBV01@@Z 0000000180001440 f i trust.obj
 0001:00000540       ?_Xlen_string@std@@YAXXZ   0000000180001540 f i trust.obj
 0001:00000560       ??0bad_array_new_length@std@@QEAA@XZ 0000000180001560 f i trust.obj
 0001:00000590       ??1bad_function_call@std@@UEAA@XZ 0000000180001590 f i libcpmt:xthrow.obj
 0001:00000590       ??1bad_alloc@std@@UEAA@XZ  0000000180001590 f i trust.obj
 0001:00000590       ??1length_error@std@@UEAA@XZ 0000000180001590 f i libcpmt:xthrow.obj
 0001:00000590       ??1failure@ios_base@std@@UEAA@XZ 0000000180001590 f i hashing.obj
 0001:00000590       ??1bad_exception@std@@UEAA@XZ 0000000180001590 f i libvcruntime:frame.obj
 0001:00000590       ??1bad_cast@std@@UEAA@XZ   0000000180001590 f i hashing.obj
 0001:00000590       ??1out_of_range@std@@UEAA@XZ 0000000180001590 f i libcpmt:xthrow.obj
 0001:00000590       ??1system_error@std@@UEAA@XZ 0000000180001590 f i hashing.obj
 0001:00000590       ??1bad_array_new_length@std@@UEAA@XZ 0000000180001590 f i trust.obj
 0001:00000590       ??1regex_error@std@@UEAA@XZ 0000000180001590 f i libcpmt:xthrow.obj
 0001:00000590       ??1runtime_error@std@@UEAA@XZ 0000000180001590 f i hashing.obj
 0001:000005b0       ??_Eruntime_error@std@@UEAAPEAXI@Z 00000001800015b0 f i * CIL library *:* CIL module *
 0001:000005b0       ??_Ebad_array_new_length@std@@UEAAPEAXI@Z 00000001800015b0 f i * CIL library *:* CIL module *
 0001:000005b0       ??_Ebad_function_call@std@@UEAAPEAXI@Z 00000001800015b0 f i libcpmt:xthrow.obj
 0001:000005b0       ??_Gbad_exception@std@@UEAAPEAXI@Z 00000001800015b0 f i libvcruntime:frame.obj
 0001:000005b0       ??_Eout_of_range@std@@UEAAPEAXI@Z 00000001800015b0 f i libcpmt:xthrow.obj
 0001:000005b0       ??_Elength_error@std@@UEAAPEAXI@Z 00000001800015b0 f i libcpmt:xthrow.obj
 0001:000005b0       ??_Gbad_cast@std@@UEAAPEAXI@Z 00000001800015b0 f i hashing.obj
 0001:000005b0       ??_Gruntime_error@std@@UEAAPEAXI@Z 00000001800015b0 f i hashing.obj
 0001:000005b0       ??_Gout_of_range@std@@UEAAPEAXI@Z 00000001800015b0 f i libcpmt:xthrow.obj
 0001:000005b0       ??_Elogic_error@std@@UEAAPEAXI@Z 00000001800015b0 f i libcpmt:xthrow.obj
 0001:000005b0       ??_Ebad_exception@std@@UEAAPEAXI@Z 00000001800015b0 f i libvcruntime:frame.obj
 0001:000005b0       ??_Ebad_cast@std@@UEAAPEAXI@Z 00000001800015b0 f i * CIL library *:* CIL module *
 0001:000005b0       ??_Glength_error@std@@UEAAPEAXI@Z 00000001800015b0 f i libcpmt:xthrow.obj
 0001:000005b0       ??_Gbad_array_new_length@std@@UEAAPEAXI@Z 00000001800015b0 f i trust.obj
 0001:000005b0       ??_Eexception@std@@UEAAPEAXI@Z 00000001800015b0 f i * CIL library *:* CIL module *
 0001:000005b0       ??_Glogic_error@std@@UEAAPEAXI@Z 00000001800015b0 f i libcpmt:xthrow.obj
 0001:000005b0       ??_Ebad_alloc@std@@UEAAPEAXI@Z 00000001800015b0 f i * CIL library *:* CIL module *
 0001:000005b0       ??_Gbad_function_call@std@@UEAAPEAXI@Z 00000001800015b0 f i libcpmt:xthrow.obj
 0001:000005b0       ??_Gbad_alloc@std@@UEAAPEAXI@Z 00000001800015b0 f i trust.obj
 0001:000005b0       ??_Gexception@std@@UEAAPEAXI@Z 00000001800015b0 f i trust.obj
 0001:00000600       ??0bad_array_new_length@std@@QEAA@AEBV01@@Z 0000000180001600 f i trust.obj
 0001:00000640       ??0bad_alloc@std@@QEAA@AEBV01@@Z 0000000180001640 f i trust.obj
 0001:00000680       ?what@exception@std@@UEBAPEBDXZ 0000000180001680 f i trust.obj
 0001:000006a0       ??0exception@std@@QEAA@AEBV01@@Z 00000001800016a0 f i trust.obj
 0001:000006e0       ?_Throw_bad_array_new_length@std@@YAXXZ 00000001800016e0 f i trust.obj
 0001:000006e0       ?__scrt_throw_std_bad_array_new_length@@YAXXZ 00000001800016e0 f i LIBCMT:throw_bad_alloc.obj
 0001:00000700       ?assign@?$basic_string@_WU?$char_traits@_W@std@@V?$allocator@_W@2@@std@@QEAAAEAV12@QEB_W_K@Z 0000000180001700 f i trust.obj
 0001:000008a0       ??1?$basic_string@_WU?$char_traits@_W@std@@V?$allocator@_W@2@@std@@QEAA@XZ 00000001800018a0 f i trust.obj
 0001:000008a0       ??1path@filesystem@std@@QEAA@XZ 00000001800018a0 f i IntChecker2-Far3.obj
 0001:00000910       DllMain                    0000000180001910 f   dllmain.obj
 0001:00000910       _get_startup_argv_mode     0000000180001910 f   LIBCMT:argv_mode.obj
 0001:00000920       ??_E_Node_base@std@@UEAAPEAXI@Z 0000000180001920 f i * CIL library *:* CIL module *
 0001:00000920       ??_G_Node_endif@std@@UEAAPEAXI@Z 0000000180001920 f i hashing.obj
 0001:00000920       ??_G_Node_base@std@@UEAAPEAXI@Z 0000000180001920 f i hashing.obj
 0001:00000920       ??_E_Node_endif@std@@UEAAPEAXI@Z 0000000180001920 f i * CIL library *:* CIL module *
 0001:00000950       ??_G_Root_node@std@@UEAAPEAXI@Z 0000000180001950 f i hashing.obj
 0001:00000950       ??_E_Root_node@std@@UEAAPEAXI@Z 0000000180001950 f i * CIL library *:* CIL module *
 0001:00000980       ??_E_Node_back@std@@UEAAPEAXI@Z 0000000180001980 f i * CIL library *:* CIL module *
 0001:00000980       ??_G_Node_capture@std@@UEAAPEAXI@Z 0000000180001980 f i hashing.obj
 0001:00000980       ??_E_Node_capture@std@@UEAAPEAXI@Z 0000000180001980 f i * CIL library *:* CIL module *
 0001:00000980       ??_E_Node_end_group@std@@UEAAPEAXI@Z 0000000180001980 f i * CIL library *:* CIL module *
 0001:00000980       ??_E_Node_end_rep@std@@UEAAPEAXI@Z 0000000180001980 f i * CIL library *:* CIL module *
 0001:00000980       ??_G_Node_end_group@std@@UEAAPEAXI@Z 0000000180001980 f i hashing.obj
 0001:00000980       ??_G_Node_end_rep@std@@UEAAPEAXI@Z 0000000180001980 f i hashing.obj
 0001:00000980       ??_G_Node_back@std@@UEAAPEAXI@Z 0000000180001980 f i hashing.obj
 0001:000009b0       ??_E_Node_assert@std@@UEAAPEAXI@Z 00000001800019b0 f i * CIL library *:* CIL module *
 0001:000009b0       ??_G_Node_assert@std@@UEAAPEAXI@Z 00000001800019b0 f i hashing.obj
 0001:00000a40       ??_E_Node_if@std@@UEAAPEAXI@Z 0000000180001a40 f i * CIL library *:* CIL module *
 0001:00000a40       ??_G_Node_if@std@@UEAAPEAXI@Z 0000000180001a40 f i hashing.obj
 0001:00000b00       ??_E_Node_rep@std@@UEAAPEAXI@Z 0000000180001b00 f i * CIL library *:* CIL module *
 0001:00000b00       ??_G_Node_rep@std@@UEAAPEAXI@Z 0000000180001b00 f i hashing.obj
 0001:00000b30       ?_Calculate_loop_simplicity@std@@YAXPEAV_Node_base@1@0PEAV_Node_rep@1@@Z 0000000180001b30 f i hashing.obj
 0001:00000c10       ?_Throw_tree_length_error@std@@YAXXZ 0000000180001c10 f i hashing.obj
 0001:00000c30       ??1HashAlgoInfo@@QEAA@XZ   0000000180001c30 f i hashing.obj
 0001:00000cf0       ?SetFileHash@HashList@@QEAAXAEBV?$basic_string@_WU?$char_traits@_W@std@@V?$allocator@_W@2@@std@@V?$basic_string@DU?$char_traits@D@std@@V?$allocator@D@2@@3@W4rhash_ids@@@Z 0000000180001cf0 f   hashing.obj
 0001:00000fd0       ??1FileHashInfo@@QEAA@XZ   0000000180001fd0 f i hashing.obj
 0001:00001090       ?SaveHashesToFile@HashList@@AEAA_NAEBV?$basic_string@_WU?$char_traits@_W@std@@V?$allocator@_W@2@@std@@AEAV?$vector@UFileHashInfo@@V?$allocator@UFileHashInfo@@@std@@@3@I_N@Z 0000000180002090 f   hashing.obj
 0001:000014e0       ??_D?$basic_stringstream@DU?$char_traits@D@std@@V?$allocator@D@2@@std@@QEAAXXZ 00000001800024e0 f i hashing.obj
 0001:000015e0       ?SaveList@HashList@@QEAA_NPEB_WI@Z 00000001800025e0 f   hashing.obj
 0001:000016b0       ?SaveListSeparate@HashList@@QEAA_NPEB_WIAEAH1@Z 00000001800026b0 f   hashing.obj
 0001:00001b40       ?SaveListEachDir@HashList@@QEAA_NPEB_WIAEAH1@Z 0000000180002b40 f   hashing.obj
 0001:000023f0       ??1?$map@V?$basic_string@_WU?$char_traits@_W@std@@V?$allocator@_W@2@@std@@V?$vector@UFileHashInfo@@V?$allocator@UFileHashInfo@@@std@@@2@U?$less@V?$basic_string@_WU?$char_traits@_W@std@@V?$allocator@_W@2@@std@@@2@V?$allocator@U?$pair@$$CBV?$basic_string@_WU?$char_traits@_W@std@@V?$allocator@_W@2@@std@@V?$vector@UFileHashInfo@@V?$allocator@UFileHashInfo@@@std@@@2@@std@@@2@@std@@QEAA@XZ 00000001800033f0 f i hashing.obj
 0001:00002400       ?LoadList@HashList@@QEAA_NPEB_WI_N@Z 0000000180003400 f   hashing.obj
 0001:00002790       ?DetectFormat@HashList@@AEAA_NPEBDIPEB_WAEAHAEAW4HashListFormat@@@Z 0000000180003790 f   hashing.obj
 0001:00002a80       ?TryParseBSD@HashList@@AEAA_NPEBDIAEAUFileHashInfo@@@Z 0000000180003a80 f   hashing.obj
 0001:00002f20       ??1?$match_results@PEBDV?$allocator@V?$sub_match@PEBD@std@@@std@@@std@@QEAA@XZ 0000000180003f20 f i hashing.obj
 0001:00002fa0       ?TryParseSimple@HashList@@AEAA_NPEBDIHAEAUFileHashInfo@@@Z 0000000180003fa0 f   hashing.obj
 0001:000034c0       ?TryParseSfv@HashList@@AEAA_NPEBDIHAEAUFileHashInfo@@@Z 00000001800044c0 f   hashing.obj
 0001:000039e0       ?ToString@FileHashInfo@@QEBA?AV?$basic_string@_WU?$char_traits@_W@std@@V?$allocator@_W@2@@std@@XZ 00000001800049e0 f   hashing.obj
 0001:00003c60       ??_D?$basic_stringstream@_WU?$char_traits@_W@std@@V?$allocator@_W@2@@std@@QEAAXXZ 0000000180004c60 f i hashing.obj
 0001:00003d60       ?GenerateHash@@YA?AW4GenResult@@AEBV?$basic_string@_WU?$char_traits@_W@std@@V?$allocator@_W@2@@std@@V?$vector@W4rhash_ids@@V?$allocator@W4rhash_ids@@@std@@@3@AEAV?$vector@V?$basic_string@DU?$char_traits@D@std@@V?$allocator@D@2@@std@@V?$allocator@V?$basic_string@DU?$char_traits@D@std@@V?$allocator@D@2@@std@@@2@@3@_NP6A_NPEAX_J@Z4@Z 0000000180004d60 f   hashing.obj
 0001:000042f0       ?GenerateHash@@YA?AW4GenResult@@AEBV?$basic_string@_WU?$char_traits@_W@std@@V?$allocator@_W@2@@std@@W4rhash_ids@@AEAV?$basic_string@DU?$char_traits@D@std@@V?$allocator@D@2@@3@_NP6A_NPEAX_J@Z4@Z 00000001800052f0 f   hashing.obj
 0001:00004500       ?DetectHashAlgo@@YA?AV?$vector@HV?$allocator@H@std@@@std@@AEBV?$basic_string@DU?$char_traits@D@std@@V?$allocator@D@2@@2@@Z 0000000180005500 f   hashing.obj
 0001:00004670       ??1?$vector@V?$basic_string@DU?$char_traits@D@std@@V?$allocator@D@2@@std@@V?$allocator@V?$basic_string@DU?$char_traits@D@std@@V?$allocator@D@2@@std@@@2@@std@@QEAA@XZ 0000000180005670 f i hashing.obj
 0001:000046e0       ??1?$_Vb_val@V?$allocator@_N@std@@@std@@QEAA@XZ 00000001800056e0 f i hashing.obj
 0001:000046e0       ??1?$vector@_NV?$allocator@_N@std@@@std@@QEAA@XZ 00000001800056e0 f i hashing.obj
 0001:000046e0       ??1?$vector@HV?$allocator@H@std@@@std@@QEAA@XZ 00000001800056e0 f i hashing.obj
 0001:000046e0       ??1?$vector@W4rhash_ids@@V?$allocator@W4rhash_ids@@@std@@@std@@QEAA@XZ 00000001800056e0 f i hashing.obj
 0001:00004740       ?seekpos@?$basic_stringbuf@_WU?$char_traits@_W@std@@V?$allocator@_W@2@@std@@MEAA?AV?$fpos@U_Mbstatet@@@2@V32@H@Z 0000000180005740 f i hashing.obj
 0001:00004850       ?seekoff@?$basic_stringbuf@_WU?$char_traits@_W@std@@V?$allocator@_W@2@@std@@MEAA?AV?$fpos@U_Mbstatet@@@2@_JHH@Z 0000000180005850 f i hashing.obj
 0001:000049d0       ?underflow@?$basic_stringbuf@_WU?$char_traits@_W@std@@V?$allocator@_W@2@@std@@MEAAGXZ 00000001800059d0 f i hashing.obj
 0001:00004a40       ?pbackfail@?$basic_stringbuf@_WU?$char_traits@_W@std@@V?$allocator@_W@2@@std@@MEAAGG@Z 0000000180005a40 f i hashing.obj
 0001:00004aa0       ?overflow@?$basic_stringbuf@_WU?$char_traits@_W@std@@V?$allocator@_W@2@@std@@MEAAGG@Z 0000000180005aa0 f i hashing.obj
 0001:00004cf0       ??1?$basic_stringbuf@_WU?$char_traits@_W@std@@V?$allocator@_W@2@@std@@UEAA@XZ 0000000180005cf0 f i hashing.obj
 0001:00004e00       ?_Unlock@?$basic_streambuf@_WU?$char_traits@_W@std@@@std@@UEAAXXZ 0000000180005e00 f i hashing.obj
 0001:00004e00       ExitFARW                   0000000180005e00 f i IntChecker2-Far3.obj
 0001:00004e00       ?SaveValue@?$DialogItemBinding@UFarDialogItem@@@@UEAAXPEAUFarDialogItem@@H@Z 0000000180005e00 f i IntChecker2-Far3.obj
 0001:00004e00       ?_Unlock@?$basic_streambuf@DU?$char_traits@D@std@@@std@@UEAAXXZ 0000000180005e00 f i hashing.obj
 0001:00004e00       ?imbue@?$basic_streambuf@DU?$char_traits@D@std@@@std@@MEAAXAEBVlocale@2@@Z 0000000180005e00 f i hashing.obj
 0001:00004e00       ?_Lock@?$basic_streambuf@_WU?$char_traits@_W@std@@@std@@UEAAXXZ 0000000180005e00 f i hashing.obj
 0001:00004e00       ?_Lock@?$basic_streambuf@DU?$char_traits@D@std@@@std@@UEAAXXZ 0000000180005e00 f i hashing.obj
 0001:00004e00       ?InitDialogItem@?$DialogBuilderBase@UFarDialogItem@@@@MEAAXPEAUFarDialogItem@@PEB_W@Z 0000000180005e00 f i IntChecker2-Far3.obj
 0001:00004e00       _guard_check_icall_nop     0000000180005e00 f i LIBCMT:guard_support.obj
 0001:00004e00       ?imbue@?$basic_streambuf@_WU?$char_traits@_W@std@@@std@@MEAAXAEBVlocale@2@@Z 0000000180005e00 f i hashing.obj
 0001:00004e10       ?sync@?$basic_streambuf@DU?$char_traits@D@std@@@std@@MEAAHXZ 0000000180005e10 f i hashing.obj
 0001:00004e10       ?CreateCheckBoxBinding@?$DialogBuilderBase@UFarDialogItem@@@@MEAAPEAU?$DialogItemBinding@UFarDialogItem@@@@PEAHH@Z 0000000180005e10 f i IntChecker2-Far3.obj
 0001:00004e10       ?AddUIntEditField@?$DialogBuilderBase@UFarDialogItem@@@@UEAAPEAUFarDialogItem@@PEAIH@Z 0000000180005e10 f i IntChecker2-Far3.obj
 0001:00004e10       ?AddIntEditField@?$DialogBuilderBase@UFarDialogItem@@@@UEAAPEAUFarDialogItem@@PEAHH@Z 0000000180005e10 f i IntChecker2-Far3.obj
 0001:00004e10       ?sync@?$basic_streambuf@_WU?$char_traits@_W@std@@@std@@MEAAHXZ 0000000180005e10 f i hashing.obj
 0001:00004e10       ?_Get_deleter@_Ref_count_base@std@@UEBAPEAXAEBVtype_info@@@Z 0000000180005e10 f i IntChecker2-Far3.obj
 0001:00004e10       ?_Move@?$_Func_impl_no_alloc@V?$_Binder@U_Unforced@std@@A6AXAEAVFar3Panel@@@ZAEAV3@@std@@X_J@std@@EEAAPEAV?$_Func_base@X_J@2@PEAX@Z 0000000180005e10 f i IntChecker2-Far3.obj
 0001:00004e10       ?showmanyc@?$basic_streambuf@_WU?$char_traits@_W@std@@@std@@MEAA_JXZ 0000000180005e10 f i hashing.obj
 0001:00004e10       ?showmanyc@?$basic_streambuf@DU?$char_traits@D@std@@@std@@MEAA_JXZ 0000000180005e10 f i hashing.obj
 0001:00004e10       ?CreateRadioButtonBinding@?$DialogBuilderBase@UFarDialogItem@@@@MEAAPEAU?$DialogItemBinding@UFarDialogItem@@@@PEAH@Z 0000000180005e10 f i IntChecker2-Far3.obj
 0001:00004e10       ?GetLangString@?$DialogBuilderBase@UFarDialogItem@@@@MEAAPEB_WH@Z 0000000180005e10 f i IntChecker2-Far3.obj
 0001:00004e20       ?setbuf@?$basic_streambuf@_WU?$char_traits@_W@std@@@std@@MEAAPEAV12@PEA_W_J@Z 0000000180005e20 f i hashing.obj
 0001:00004e20       ?setbuf@?$basic_streambuf@DU?$char_traits@D@std@@@std@@MEAAPEAV12@PEAD_J@Z 0000000180005e20 f i hashing.obj
 0001:00004e30       ?seekpos@?$basic_streambuf@_WU?$char_traits@_W@std@@@std@@MEAA?AV?$fpos@U_Mbstatet@@@2@V32@H@Z 0000000180005e30 f i hashing.obj
 0001:00004e30       ?seekoff@?$basic_streambuf@DU?$char_traits@D@std@@@std@@MEAA?AV?$fpos@U_Mbstatet@@@2@_JHH@Z 0000000180005e30 f i hashing.obj
 0001:00004e30       ?seekoff@?$basic_streambuf@_WU?$char_traits@_W@std@@@std@@MEAA?AV?$fpos@U_Mbstatet@@@2@_JHH@Z 0000000180005e30 f i hashing.obj
 0001:00004e30       ?seekpos@?$basic_streambuf@DU?$char_traits@D@std@@@std@@MEAA?AV?$fpos@U_Mbstatet@@@2@V32@H@Z 0000000180005e30 f i hashing.obj
 0001:00004e50       ?xsputn@?$basic_streambuf@_WU?$char_traits@_W@std@@@std@@MEAA_JPEB_W_J@Z 0000000180005e50 f i hashing.obj
 0001:00004f20       ?xsgetn@?$basic_streambuf@_WU?$char_traits@_W@std@@@std@@MEAA_JPEA_W_J@Z 0000000180005f20 f i hashing.obj
 0001:00004ff0       ?uflow@?$basic_streambuf@_WU?$char_traits@_W@std@@@std@@MEAAGXZ 0000000180005ff0 f i hashing.obj
 0001:00005030       ?pbackfail@?$basic_streambuf@_WU?$char_traits@_W@std@@@std@@MEAAGG@Z 0000000180006030 f i hashing.obj
 0001:00005030       ?overflow@?$basic_streambuf@_WU?$char_traits@_W@std@@@std@@MEAAGG@Z 0000000180006030 f i hashing.obj
 0001:00005030       ?underflow@?$basic_streambuf@_WU?$char_traits@_W@std@@@std@@MEAAGXZ 0000000180006030 f i hashing.obj
 0001:00005040       ??0?$basic_stringstream@_WU?$char_traits@_W@std@@V?$allocator@_W@2@@std@@QEAA@XZ 0000000180006040 f i hashing.obj
 0001:00005160       ??1?$basic_iostream@_WU?$char_traits@_W@std@@@std@@UEAA@XZ 0000000180006160 f i hashing.obj
 0001:000051e0       ??1?$basic_istream@_WU?$char_traits@_W@std@@@std@@UEAA@XZ 00000001800061e0 f i hashing.obj
 0001:00005210       ??1?$basic_ios@_WU?$char_traits@_W@std@@@std@@UEAA@XZ 0000000180006210 f i hashing.obj
 0001:00005210       ??1?$basic_ios@DU?$char_traits@D@std@@@std@@UEAA@XZ 0000000180006210 f i hashing.obj
 0001:00005230       ??1?$basic_regex@DV?$regex_traits@D@std@@@std@@QEAA@XZ 0000000180006230 f i hashing.obj
 0001:00005270       ??0?$basic_regex@DV?$regex_traits@D@std@@@std@@QEAA@PEBDW4syntax_option_type@regex_constants@1@@Z 0000000180006270 f i hashing.obj
 0001:000053f0       ?count@?$_Tree@V?$_Tmap_traits@V?$basic_string@_WU?$char_traits@_W@std@@V?$allocator@_W@2@@std@@V?$vector@UFileHashInfo@@V?$allocator@UFileHashInfo@@@std@@@2@U?$less@V?$basic_string@_WU?$char_traits@_W@std@@V?$allocator@_W@2@@std@@@2@V?$allocator@U?$pair@$$CBV?$basic_string@_WU?$char_traits@_W@std@@V?$allocator@_W@2@@std@@V?$vector@UFileHashInfo@@V?$allocator@UFileHashInfo@@@std@@@2@@std@@@2@$0A@@std@@@std@@QEBA_KAEBV?$basic_string@_WU?$char_traits@_W@std@@V?$allocator@_W@2@@2@@Z 00000001800063f0 f i hashing.obj
 0001:00005580       ??1?$_Tree@V?$_Tmap_traits@V?$basic_string@_WU?$char_traits@_W@std@@V?$allocator@_W@2@@std@@V?$vector@UFileHashInfo@@V?$allocator@UFileHashInfo@@@std@@@2@U?$less@V?$basic_string@_WU?$char_traits@_W@std@@V?$allocator@_W@2@@std@@@2@V?$allocator@U?$pair@$$CBV?$basic_string@_WU?$char_traits@_W@std@@V?$allocator@_W@2@@std@@V?$vector@UFileHashInfo@@V?$allocator@UFileHashInfo@@@std@@@2@@std@@@2@$0A@@std@@@std@@QEAA@XZ 0000000180006580 f i hashing.obj
 0001:000055f0       ?seekpos@?$basic_stringbuf@DU?$char_traits@D@std@@V?$allocator@D@2@@std@@MEAA?AV?$fpos@U_Mbstatet@@@2@V32@H@Z 00000001800065f0 f i hashing.obj
 0001:000056e0       ?seekoff@?$basic_stringbuf@DU?$char_traits@D@std@@V?$allocator@D@2@@std@@MEAA?AV?$fpos@U_Mbstatet@@@2@_JHH@Z 00000001800066e0 f i hashing.obj
 0001:00005840       ?underflow@?$basic_stringbuf@DU?$char_traits@D@std@@V?$allocator@D@2@@std@@MEAAHXZ 0000000180006840 f i hashing.obj
 0001:000058b0       ?pbackfail@?$basic_stringbuf@DU?$char_traits@D@std@@V?$allocator@D@2@@std@@MEAAHH@Z 00000001800068b0 f i hashing.obj
 0001:00005910       ?overflow@?$basic_stringbuf@DU?$char_traits@D@std@@V?$allocator@D@2@@std@@MEAAHH@Z 0000000180006910 f i hashing.obj
 0001:00005b20       ??1?$basic_stringbuf@DU?$char_traits@D@std@@V?$allocator@D@2@@std@@UEAA@XZ 0000000180006b20 f i hashing.obj
 0001:00005c20       ?xsputn@?$basic_streambuf@DU?$char_traits@D@std@@@std@@MEAA_JPEBD_J@Z 0000000180006c20 f i hashing.obj
 0001:00005cd0       ?xsgetn@?$basic_streambuf@DU?$char_traits@D@std@@@std@@MEAA_JPEAD_J@Z 0000000180006cd0 f i hashing.obj
 0001:00005d80       ?uflow@?$basic_streambuf@DU?$char_traits@D@std@@@std@@MEAAHXZ 0000000180006d80 f i hashing.obj
 0001:00005dc0       ?pbackfail@?$basic_streambuf@DU?$char_traits@D@std@@@std@@MEAAHH@Z 0000000180006dc0 f i hashing.obj
 0001:00005dc0       ?TextWidth@?$DialogBuilderBase@UFarDialogItem@@@@MEAAHAEBUFarDialogItem@@@Z 0000000180006dc0 f i IntChecker2-Far3.obj
 0001:00005dc0       ?overflow@?$basic_streambuf@DU?$char_traits@D@std@@@std@@MEAAHH@Z 0000000180006dc0 f i hashing.obj
 0001:00005dc0       ?underflow@?$basic_streambuf@DU?$char_traits@D@std@@@std@@MEAAHXZ 0000000180006dc0 f i hashing.obj
 0001:00005dd0       ??1?$basic_iostream@DU?$char_traits@D@std@@@std@@UEAA@XZ 0000000180006dd0 f i hashing.obj
 0001:00005e50       ??1?$basic_istream@DU?$char_traits@D@std@@@std@@UEAA@XZ 0000000180006e50 f i hashing.obj
 0001:00005e80       ??1HashList@@QEAA@XZ       0000000180006e80 f i IntChecker2-Far3.obj
 0001:00005e80       ??1?$vector@UFileHashInfo@@V?$allocator@UFileHashInfo@@@std@@@std@@QEAA@XZ 0000000180006e80 f i hashing.obj
 0001:00005e90       ??4?$basic_string@DU?$char_traits@D@std@@V?$allocator@D@2@@std@@QEAAAEAV01@$$QEAV01@@Z 0000000180006e90 f i hashing.obj
 0001:00005f20       ??_E?$basic_stringbuf@_WU?$char_traits@_W@std@@V?$allocator@_W@2@@std@@UEAAPEAXI@Z 0000000180006f20 f i * CIL library *:* CIL module *
 0001:00005f20       ??_G?$basic_stringbuf@_WU?$char_traits@_W@std@@V?$allocator@_W@2@@std@@UEAAPEAXI@Z 0000000180006f20 f i hashing.obj
 0001:00005f60       ??_E?$basic_streambuf@_WU?$char_traits@_W@std@@@std@@UEAAPEAXI@Z 0000000180006f60 f i * CIL library *:* CIL module *
 0001:00005f60       ??_G?$basic_streambuf@_WU?$char_traits@_W@std@@@std@@UEAAPEAXI@Z 0000000180006f60 f i hashing.obj
 0001:00005fe0       ??_E?$basic_stringstream@_WU?$char_traits@_W@std@@V?$allocator@_W@2@@std@@UEAAPEAXI@Z 0000000180006fe0 f i * CIL library *:* CIL module *
 0001:00005fe0       ??_G?$basic_stringstream@_WU?$char_traits@_W@std@@V?$allocator@_W@2@@std@@UEAAPEAXI@Z 0000000180006fe0 f i hashing.obj
 0001:00006020       ??_E?$basic_iostream@_WU?$char_traits@_W@std@@@std@@UEAAPEAXI@Z 0000000180007020 f i * CIL library *:* CIL module *
 0001:00006020       ??_G?$basic_iostream@_WU?$char_traits@_W@std@@@std@@UEAAPEAXI@Z 0000000180007020 f i hashing.obj
 0001:000060d0       ??_G?$basic_ostream@_WU?$char_traits@_W@std@@@std@@UEAAPEAXI@Z 00000001800070d0 f i hashing.obj
 0001:000060d0       ??_E?$basic_ostream@_WU?$char_traits@_W@std@@@std@@UEAAPEAXI@Z 00000001800070d0 f i * CIL library *:* CIL module *
 0001:00006140       ??_E?$basic_istream@_WU?$char_traits@_W@std@@@std@@UEAAPEAXI@Z 0000000180007140 f i * CIL library *:* CIL module *
 0001:00006140       ??_G?$basic_istream@_WU?$char_traits@_W@std@@@std@@UEAAPEAXI@Z 0000000180007140 f i hashing.obj
 0001:000061b0       ??_G?$basic_ios@_WU?$char_traits@_W@std@@@std@@UEAAPEAXI@Z 00000001800071b0 f i hashing.obj
 0001:000061b0       ??_E?$basic_ios@DU?$char_traits@D@std@@@std@@UEAAPEAXI@Z 00000001800071b0 f i * CIL library *:* CIL module *
 0001:000061b0       ??_E?$basic_ios@_WU?$char_traits@_W@std@@@std@@UEAAPEAXI@Z 00000001800071b0 f i * CIL library *:* CIL module *
 0001:000061b0       ??_G?$basic_ios@DU?$char_traits@D@std@@@std@@UEAAPEAXI@Z 00000001800071b0 f i hashing.obj
 0001:000061f0       ??1?$regex_traits@D@std@@QEAA@XZ 00000001800071f0 f i hashing.obj
 0001:00006220       ??_G?$basic_stringbuf@DU?$char_traits@D@std@@V?$allocator@D@2@@std@@UEAAPEAXI@Z 0000000180007220 f i hashing.obj
 0001:00006220       ??_E?$basic_stringbuf@DU?$char_traits@D@std@@V?$allocator@D@2@@std@@UEAAPEAXI@Z 0000000180007220 f i * CIL library *:* CIL module *
 0001:00006260       ??_E?$basic_streambuf@DU?$char_traits@D@std@@@std@@UEAAPEAXI@Z 0000000180007260 f i * CIL library *:* CIL module *
 0001:00006260       ??_G?$basic_streambuf@DU?$char_traits@D@std@@@std@@UEAAPEAXI@Z 0000000180007260 f i hashing.obj
 0001:000062e0       ??_E?$basic_stringstream@DU?$char_traits@D@std@@V?$allocator@D@2@@std@@UEAAPEAXI@Z 00000001800072e0 f i * CIL library *:* CIL module *
 0001:000062e0       ??_G?$basic_stringstream@DU?$char_traits@D@std@@V?$allocator@D@2@@std@@UEAAPEAXI@Z 00000001800072e0 f i hashing.obj
 0001:00006320       ??_E?$basic_iostream@DU?$char_traits@D@std@@@std@@UEAAPEAXI@Z 0000000180007320 f i * CIL library *:* CIL module *
 0001:00006320       ??_G?$basic_iostream@DU?$char_traits@D@std@@@std@@UEAAPEAXI@Z 0000000180007320 f i hashing.obj
 0001:000063d0       ??_E?$basic_ostream@DU?$char_traits@D@std@@@std@@UEAAPEAXI@Z 00000001800073d0 f i * CIL library *:* CIL module *
 0001:000063d0       ??_G?$basic_ostream@DU?$char_traits@D@std@@@std@@UEAAPEAXI@Z 00000001800073d0 f i hashing.obj
 0001:00006440       ??_G?$basic_istream@DU?$char_traits@D@std@@@std@@UEAAPEAXI@Z 0000000180007440 f i hashing.obj
 0001:00006440       ??_E?$basic_istream@DU?$char_traits@D@std@@@std@@UEAAPEAXI@Z 0000000180007440 f i * CIL library *:* CIL module *
 0001:000064b0       ??1?$_Tidy_guard@V?$vector@UFileHashInfo@@V?$allocator@UFileHashInfo@@@std@@@std@@@std@@QEAA@XZ 00000001800074b0 f i hashing.obj
 0001:000064c0       ?_Pnavail@?$basic_streambuf@DU?$char_traits@D@std@@@std@@IEBA_JXZ 00000001800074c0 f i hashing.obj
 0001:000064c0       ?_Pnavail@?$basic_streambuf@_WU?$char_traits@_W@std@@@std@@IEBA_JXZ 00000001800074c0 f i hashing.obj
 0001:000064e0       ?_Gnavail@?$basic_streambuf@_WU?$char_traits@_W@std@@@std@@IEBA_JXZ 00000001800074e0 f i hashing.obj
 0001:000064e0       ?_Gnavail@?$basic_streambuf@DU?$char_traits@D@std@@@std@@IEBA_JXZ 00000001800074e0 f i hashing.obj
 0001:00006500       ??0?$basic_iostream@_WU?$char_traits@_W@std@@@std@@QEAA@PEAV?$basic_streambuf@_WU?$char_traits@_W@std@@@1@@Z 0000000180007500 f i hashing.obj
 0001:00006670       ?_Tidy@?$basic_regex@DV?$regex_traits@D@std@@@std@@AEAAXXZ 0000000180007670 f i hashing.obj
 0001:000066f0       ??0?$basic_iostream@DU?$char_traits@D@std@@@std@@QEAA@PEAV?$basic_streambuf@DU?$char_traits@D@std@@@1@@Z 00000001800076f0 f i hashing.obj
 0001:00006860       ?_Tidy@?$vector@UFileHashInfo@@V?$allocator@UFileHashInfo@@@std@@@std@@AEAAXXZ 0000000180007860 f i hashing.obj
 0001:00006920       ?_Destroy@?$vector@UFileHashInfo@@V?$allocator@UFileHashInfo@@@std@@@std@@AEAAXPEAUFileHashInfo@@0@Z 0000000180007920 f i hashing.obj
 0001:00006960       ?deallocate@?$allocator@UPanelFileInfo@@@std@@QEAAXQEAUPanelFileInfo@@_K@Z 0000000180007960 f i IntChecker2-Far3.obj
 0001:00006960       ?deallocate@?$allocator@UFileHashInfo@@@std@@QEAAXQEAUFileHashInfo@@_K@Z 0000000180007960 f i hashing.obj
 0001:000069b0       ?_Xran@?$_String_val@U?$_Simple_types@_W@std@@@std@@SAXXZ 00000001800079b0 f i hashing.obj
 0001:000069d0       ??$?6U?$char_traits@D@std@@@std@@YAAEAV?$basic_ostream@DU?$char_traits@D@std@@@0@AEAV10@PEBD@Z 00000001800079d0 f i hashing.obj
 0001:00006c40       ??$endl@DU?$char_traits@D@std@@@std@@YAAEAV?$basic_ostream@DU?$char_traits@D@std@@@0@AEAV10@@Z 0000000180007c40 f i hashing.obj
 0001:00006ce0       ??$?6_WU?$char_traits@_W@std@@@std@@YAAEAV?$basic_ostream@_WU?$char_traits@_W@std@@@0@AEAV10@PEB_W@Z 0000000180007ce0 f i hashing.obj
 0001:00006f20       ??$_Emplace_reallocate@V?$basic_string@DU?$char_traits@D@std@@V?$allocator@D@2@@std@@@?$vector@V?$basic_string@DU?$char_traits@D@std@@V?$allocator@D@2@@std@@V?$allocator@V?$basic_string@DU?$char_traits@D@std@@V?$allocator@D@2@@std@@@2@@std@@QEAAPEAV?$basic_string@DU?$char_traits@D@std@@V?$allocator@D@2@@1@QEAV21@$$QEAV21@@Z 0000000180007f20 f i hashing.obj
 0001:000071b0       ??$_Emplace_reallocate@AEBW4rhash_ids@@@?$vector@W4rhash_ids@@V?$allocator@W4rhash_ids@@@std@@@std@@QEAAPEAW4rhash_ids@@QEAW42@AEBW42@@Z 00000001800081b0 f i hashing.obj
 0001:000071b0       ??$_Emplace_reallocate@AEBH@?$vector@HV?$allocator@H@std@@@std@@QEAAPEAHQEAHAEBH@Z 00000001800081b0 f i hashing.obj
 0001:00007350       ??$_Reset@PEBD@?$basic_regex@DV?$regex_traits@D@std@@@std@@AEAAXPEBD0W4syntax_option_type@regex_constants@1@Uforward_iterator_tag@1@@Z 0000000180008350 f i hashing.obj
 0001:000074f0       ??$_Try_emplace@AEBV?$basic_string@_WU?$char_traits@_W@std@@V?$allocator@_W@2@@std@@$$V@?$map@V?$basic_string@_WU?$char_traits@_W@std@@V?$allocator@_W@2@@std@@V?$vector@UFileHashInfo@@V?$allocator@UFileHashInfo@@@std@@@2@U?$less@V?$basic_string@_WU?$char_traits@_W@std@@V?$allocator@_W@2@@std@@@2@V?$allocator@U?$pair@$$CBV?$basic_string@_WU?$char_traits@_W@std@@V?$allocator@_W@2@@std@@V?$vector@UFileHashInfo@@V?$allocator@UFileHashInfo@@@std@@@2@@std@@@2@@std@@AEAA?AU?$pair@PEAU?$_Tree_node@U?$pair@$$CBV?$basic_string@_WU?$char_traits@_W@std@@V?$allocator@_W@2@@std@@V?$vector@UFileHashInfo@@V?$allocator@UFileHashInfo@@@std@@@2@@std@@PEAX@std@@_N@1@AEBV?$basic_string@_WU?$char_traits@_W@std@@V?$allocator@_W@2@@1@@Z 00000001800084f0 f i hashing.obj
 0001:00007740       ??$_Emplace_reallocate@AEBUFileHashInfo@@@?$vector@UFileHashInfo@@V?$allocator@UFileHashInfo@@@std@@@std@@QEAAPEAUFileHashInfo@@QEAU2@AEBU2@@Z 0000000180008740 f i hashing.obj
 0001:00007930       ??$_Destroy_range@V?$allocator@V?$basic_string@DU?$char_traits@D@std@@V?$allocator@D@2@@std@@@std@@@std@@YAXPEAV?$basic_string@DU?$char_traits@D@std@@V?$allocator@D@2@@0@QEAV10@AEAV?$allocator@V?$basic_string@DU?$char_traits@D@std@@V?$allocator@D@2@@std@@@0@@Z 0000000180008930 f i hashing.obj
 0001:000079c0       ??$use_facet@V?$ctype@_W@std@@@std@@YAAEBV?$ctype@_W@0@AEBVlocale@0@@Z 00000001800089c0 f i hashing.obj
 0001:00007ad0       ??1?$_Parser@PEBDDV?$regex_traits@D@std@@@std@@QEAA@XZ 0000000180008ad0 f i hashing.obj
 0001:00007b30       ?do_hash@?$collate@D@std@@MEBAJPEBD0@Z 0000000180008b30 f i hashing.obj
 0001:00007b70       ?do_transform@?$collate@D@std@@MEBA?AV?$basic_string@DU?$char_traits@D@std@@V?$allocator@D@2@@2@PEBD0@Z 0000000180008b70 f i hashing.obj
 0001:00007d10       ?do_compare@?$collate@D@std@@MEBAHPEBD000@Z 0000000180008d10 f i hashing.obj
 0001:00007d60       ?_Getcat@?$collate@D@std@@SA_KPEAPEBVfacet@locale@2@PEBV42@@Z 0000000180008d60 f i hashing.obj
 0001:00008080       ??1sentry@?$basic_ostream@DU?$char_traits@D@std@@@std@@QEAA@XZ 0000000180009080 f i hashing.obj
 0001:00008080       ??1sentry@?$basic_ostream@_WU?$char_traits@_W@std@@@std@@QEAA@XZ 0000000180009080 f i hashing.obj
 0001:000080c0       ??0sentry@?$basic_ostream@_WU?$char_traits@_W@std@@@std@@QEAA@AEAV12@@Z 00000001800090c0 f i hashing.obj
 0001:000081e0       ??0sentry@?$basic_ostream@DU?$char_traits@D@std@@@std@@QEAA@AEAV12@@Z 00000001800091e0 f i hashing.obj
 0001:00008260       ?_Xlength@?$vector@IV?$allocator@I@std@@@std@@CAXXZ 0000000180009260 f i hashing.obj
 0001:00008260       ?_Xlength@?$vector@HV?$allocator@H@std@@@std@@CAXXZ 0000000180009260 f i hashing.obj
 0001:00008260       ?_Xlength@?$vector@V?$function@$$A6AX_J@Z@std@@V?$allocator@V?$function@$$A6AX_J@Z@std@@@2@@std@@CAXXZ 0000000180009260 f i IntChecker2-Far3.obj
 0001:00008260       ?_Xlength@?$vector@DV?$allocator@D@std@@@std@@CAXXZ 0000000180009260 f i hashing.obj
 0001:00008260       ?_Xlength@?$vector@UFarMenuItem@@V?$allocator@UFarMenuItem@@@std@@@std@@CAXXZ 0000000180009260 f i IntChecker2-Far3.obj
 0001:00008260       ?_Xlength@?$vector@V?$sub_match@PEBD@std@@V?$allocator@V?$sub_match@PEBD@std@@@2@@std@@CAXXZ 0000000180009260 f i hashing.obj
 0001:00008260       ?_Xlength@?$vector@UFileHashInfo@@V?$allocator@UFileHashInfo@@@std@@@std@@CAXXZ 0000000180009260 f i hashing.obj
 0001:00008260       ?_Xlength@?$vector@_WV?$allocator@_W@std@@@std@@CAXXZ 0000000180009260 f i IntChecker2-Far3.obj
 0001:00008260       ?_Xlength@?$vector@V?$basic_string@DU?$char_traits@D@std@@V?$allocator@D@2@@std@@V?$allocator@V?$basic_string@DU?$char_traits@D@std@@V?$allocator@D@2@@std@@@2@@std@@CAXXZ 0000000180009260 f i hashing.obj
 0001:00008260       ?_Xlength@?$vector@U_Loop_vals_t@std@@V?$allocator@U_Loop_vals_t@std@@@2@@std@@CAXXZ 0000000180009260 f i hashing.obj
 0001:00008260       ?_Xlength@?$vector@_KV?$allocator@_K@std@@@std@@CAXXZ 0000000180009260 f i IntChecker2-Far3.obj
 0001:00008260       ?_Xlength@?$vector@W4rhash_ids@@V?$allocator@W4rhash_ids@@@std@@@std@@CAXXZ 0000000180009260 f i hashing.obj
 0001:00008260       ?_Xlength@?$vector@V?$basic_string@_WU?$char_traits@_W@std@@V?$allocator@_W@2@@std@@V?$allocator@V?$basic_string@_WU?$char_traits@_W@std@@V?$allocator@_W@2@@std@@@2@@std@@CAXXZ 0000000180009260 f i IntChecker2-Far3.obj
 0001:00008260       ?_Xlength@?$vector@UPanelFileInfo@@V?$allocator@UPanelFileInfo@@@std@@@std@@CAXXZ 0000000180009260 f i IntChecker2-Far3.obj
 0001:00008260       ?_Xlength@?$vector@U_Find_file_handle@filesystem@std@@V?$allocator@U_Find_file_handle@filesystem@std@@@3@@std@@CAXXZ 0000000180009260 f i IntChecker2-Far3.obj
 0001:00008260       ?_Xlength@?$vector@PEB_WV?$allocator@PEB_W@std@@@std@@CAXXZ 0000000180009260 f i IntChecker2-Far3.obj
 0001:00008260       ?_Xlength@?$vector@U_Grp_t@?$_Tgt_state_t@PEBD@std@@V?$allocator@U_Grp_t@?$_Tgt_state_t@PEBD@std@@@3@@std@@CAXXZ 0000000180009260 f i hashing.obj
 0001:00008280       ?_Insert_node@?$_Tree_val@U?$_Tree_simple_types@U?$pair@$$CBV?$basic_string@_WU?$char_traits@_W@std@@V?$allocator@_W@2@@std@@V?$vector@UFileHashInfo@@V?$allocator@UFileHashInfo@@@std@@@2@@std@@@std@@@std@@QEAAPEAU?$_Tree_node@U?$pair@$$CBV?$basic_string@_WU?$char_traits@_W@std@@V?$allocator@_W@2@@std@@V?$vector@UFileHashInfo@@V?$allocator@UFileHashInfo@@@std@@@2@@std@@PEAX@2@U?$_Tree_id@PEAU?$_Tree_node@U?$pair@$$CBV?$basic_string@_WU?$char_traits@_W@std@@V?$allocator@_W@2@@std@@V?$vector@UFileHashInfo@@V?$allocator@UFileHashInfo@@@std@@@2@@std@@PEAX@std@@@2@QEAU32@@Z 0000000180009280 f i hashing.obj
 0001:00008500       ?flush@?$basic_ostream@DU?$char_traits@D@std@@@std@@QEAAAEAV12@XZ 0000000180009500 f i hashing.obj
 0001:000085a0       ?put@?$basic_ostream@DU?$char_traits@D@std@@@std@@QEAAAEAV12@D@Z 00000001800095a0 f i hashing.obj
 0001:000086f0       ?_Change_array@?$vector@UFileHashInfo@@V?$allocator@UFileHashInfo@@@std@@@std@@AEAAXQEAUFileHashInfo@@_K1@Z 00000001800096f0 f i hashing.obj
 0001:000087d0       ?_Umove@?$vector@UFileHashInfo@@V?$allocator@UFileHashInfo@@@std@@@std@@AEAAPEAUFileHashInfo@@PEAU3@00@Z 00000001800097d0 f i hashing.obj
 0001:000087f0       ??_E?$collate@D@std@@MEAAPEAXI@Z 00000001800097f0 f i * CIL library *:* CIL module *
 0001:000087f0       ??_G?$collate@D@std@@MEAAPEAXI@Z 00000001800097f0 f i hashing.obj
 0001:00008840       ??1?$_Alloc_construct_ptr@V?$allocator@U?$_Tree_node@U?$pair@$$CBV?$basic_string@_WU?$char_traits@_W@std@@V?$allocator@_W@2@@std@@V?$vector@UFileHashInfo@@V?$allocator@UFileHashInfo@@@std@@@2@@std@@PEAX@std@@@std@@@std@@QEAA@XZ 0000000180009840 f i hashing.obj
 0001:00008840       ??1?$_Tree_temp_node_alloc@V?$allocator@U?$_Tree_node@U?$pair@$$CBV?$basic_string@_WU?$char_traits@_W@std@@V?$allocator@_W@2@@std@@V?$vector@UFileHashInfo@@V?$allocator@UFileHashInfo@@@std@@@2@@std@@PEAX@std@@@std@@@std@@QEAA@XZ 0000000180009840 f i hashing.obj
 0001:00008860       ??1_Sentry_base@?$basic_ostream@DU?$char_traits@D@std@@@std@@QEAA@XZ 0000000180009860 f i hashing.obj
 0001:00008860       ??1_Sentry_base@?$basic_ostream@_WU?$char_traits@_W@std@@@std@@QEAA@XZ 0000000180009860 f i hashing.obj
 0001:00008890       ?_Osfx@?$basic_ostream@_WU?$char_traits@_W@std@@@std@@QEAAXXZ 0000000180009890 f i hashing.obj
 0001:00008890       ?_Osfx@?$basic_ostream@DU?$char_traits@D@std@@@std@@QEAAXXZ 0000000180009890 f i hashing.obj
 0001:000088e0       ?append@?$basic_string@_WU?$char_traits@_W@std@@V?$allocator@_W@2@@std@@QEAAAEAV12@QEB_W_K@Z 00000001800098e0 f i hashing.obj
 0001:00008960       ?resize@?$basic_string@DU?$char_traits@D@std@@V?$allocator@D@2@@std@@QEAAX_KD@Z 0000000180009960 f i hashing.obj
 0001:00008a00       ??$_Insert_range@PEAUFileHashInfo@@@?$vector@UFileHashInfo@@V?$allocator@UFileHashInfo@@@std@@@std@@AEAAXV?$_Vector_const_iterator@V?$_Vector_val@U?$_Simple_types@UFileHashInfo@@@std@@@std@@@1@PEAUFileHashInfo@@1Uforward_iterator_tag@1@@Z 0000000180009a00 f i hashing.obj
 0001:00008e80       ??$_Regex_match1@PEBDV?$allocator@V?$sub_match@PEBD@std@@@std@@DV?$regex_traits@D@2@PEBD@std@@YA_NPEBD0PEAV?$match_results@PEBDV?$allocator@V?$sub_match@PEBD@std@@@std@@@0@AEBV?$basic_regex@DV?$regex_traits@D@std@@@0@W4match_flag_type@regex_constants@0@_N@Z 0000000180009e80 f i hashing.obj
 0001:00008fd0       ??$_Insert_string@_WU?$char_traits@_W@std@@_K@std@@YAAEAV?$basic_ostream@_WU?$char_traits@_W@std@@@0@AEAV10@QEB_W_K@Z 0000000180009fd0 f i hashing.obj
 0001:00009200       ??$_Insert_string@DU?$char_traits@D@std@@_K@std@@YAAEAV?$basic_ostream@DU?$char_traits@D@std@@@0@AEAV10@QEBD_K@Z 000000018000a200 f i hashing.obj
 0001:00009470       ??$_Erase_tree@V?$allocator@U?$_Tree_node@U?$pair@$$CBV?$basic_string@_WU?$char_traits@_W@std@@V?$allocator@_W@2@@std@@V?$vector@UFileHashInfo@@V?$allocator@UFileHashInfo@@@std@@@2@@std@@PEAX@std@@@std@@@?$_Tree_val@U?$_Tree_simple_types@U?$pair@$$CBV?$basic_string@_WU?$char_traits@_W@std@@V?$allocator@_W@2@@std@@V?$vector@UFileHashInfo@@V?$allocator@UFileHashInfo@@@std@@@2@@std@@@std@@@std@@QEAAXAEAV?$allocator@U?$_Tree_node@U?$pair@$$CBV?$basic_string@_WU?$char_traits@_W@std@@V?$allocator@_W@2@@std@@V?$vector@UFileHashInfo@@V?$allocator@UFileHashInfo@@@std@@@2@@std@@PEAX@std@@@1@PEAU?$_Tree_node@U?$pair@$$CBV?$basic_string@_WU?$char_traits@_W@std@@V?$allocator@_W@2@@std@@V?$vector@UFileHashInfo@@V?$allocator@UFileHashInfo@@@std@@@2@@std@@PEAX@1@@Z 000000018000a470 f i hashing.obj
 0001:000094f0       ??$_Uninitialized_move@PEAUFileHashInfo@@V?$allocator@UFileHashInfo@@@std@@@std@@YAPEAUFileHashInfo@@QEAU1@0PEAU1@AEAV?$allocator@UFileHashInfo@@@0@@Z 000000018000a4f0 f i hashing.obj
 0001:00009590       ??$_Reallocate_grow_by@V<lambda_1dfe18491bcca09701d8ccb01d0b0af4>@@PEB_W_K@?$basic_string@_WU?$char_traits@_W@std@@V?$allocator@_W@2@@std@@AEAAAEAV01@_KV<lambda_1dfe18491bcca09701d8ccb01d0b0af4>@@PEB_W_K@Z 000000018000a590 f i hashing.obj
 0001:00009750       ??$_Reallocate_grow_by@V<lambda_e1befb086ad3257e3f042a63030725f7>@@_KD@?$basic_string@DU?$char_traits@D@std@@V?$allocator@D@2@@std@@AEAAAEAV01@_KV<lambda_e1befb086ad3257e3f042a63030725f7>@@_KD@Z 000000018000a750 f i hashing.obj
 0001:000098e0       ??1?$_Matcher@PEBDDV?$regex_traits@D@std@@PEBD@std@@QEAA@XZ 000000018000a8e0 f i hashing.obj
 0001:00009960       ??1?$_Tgt_state_t@PEBD@std@@QEAA@XZ 000000018000a960 f i hashing.obj
 0001:00009a10       ??1?$pair@$$CBV?$basic_string@_WU?$char_traits@_W@std@@V?$allocator@_W@2@@std@@V?$vector@UFileHashInfo@@V?$allocator@UFileHashInfo@@@std@@@2@@std@@QEAA@XZ 000000018000aa10 f i hashing.obj
 0001:00009a80       ??1?$_Bt_state_t@PEBD@std@@QEAA@XZ 000000018000aa80 f i hashing.obj
 0001:00009ae0       ??1?$_Uninitialized_backout_al@V?$allocator@UFileHashInfo@@@std@@@std@@QEAA@XZ 000000018000aae0 f i hashing.obj
 0001:00009b20       ??1?$_Tidy_guard@V?$_Builder@PEBDDV?$regex_traits@D@std@@@std@@@std@@QEAA@XZ 000000018000ab20 f i hashing.obj
 0001:00009b80       ??1?$vector@U_Loop_vals_t@std@@V?$allocator@U_Loop_vals_t@std@@@2@@std@@QEAA@XZ 000000018000ab80 f i hashing.obj
 0001:00009be0       ?_Trim@?$vector@_NV?$allocator@_N@std@@@std@@QEAAX_K@Z 000000018000abe0 f i hashing.obj
 0001:00009c90       ??R?$mersenne_twister@I$0CA@$0CHA@$0BIN@$0BP@$0JJAILANP@$0L@$06$0JNCMFGIA@$0P@$0OPMGAAAA@$0BC@@std@@QEAAIXZ 000000018000ac90 f i hashing.obj
 0001:00009e20       ?_Xlen@?$vector@_NV?$allocator@_N@std@@@std@@QEBAXXZ 000000018000ae20 f i hashing.obj
 0001:00009e40       ?_Error@?$_Parser@PEBDDV?$regex_traits@D@std@@@std@@AEAAXW4error_type@regex_constants@2@@Z 000000018000ae40 f i hashing.obj
 0001:00009e50       ?_Trans@?$_Parser@PEBDDV?$regex_traits@D@std@@@std@@AEAAXXZ 000000018000ae50 f i hashing.obj
 0001:0000a100       ?_Disjunction@?$_Parser@PEBDDV?$regex_traits@D@std@@@std@@AEAAXXZ 000000018000b100 f i hashing.obj
 0001:0000a320       ?_End_group@?$_Builder@PEBDDV?$regex_traits@D@std@@@std@@QEAAXPEAV_Node_base@2@@Z 000000018000b320 f i hashing.obj
 0001:0000a3d0       ?_Begin_capture_group@?$_Builder@PEBDDV?$regex_traits@D@std@@@std@@QEAAPEAV_Node_base@2@I@Z 000000018000b3d0 f i hashing.obj
 0001:0000a460       ??$_Move_unchecked@PEAUFileHashInfo@@PEAU1@@std@@YAPEAUFileHashInfo@@PEAU1@00@Z 000000018000b460 f i hashing.obj
 0001:0000a4c0       ??$_Match@V?$allocator@V?$sub_match@PEBD@std@@@std@@@?$_Matcher@PEBDDV?$regex_traits@D@std@@PEBD@std@@QEAA_NPEAV?$match_results@PEBDV?$allocator@V?$sub_match@PEBD@std@@@std@@@1@_N@Z 000000018000b4c0 f i hashing.obj
 0001:0000a700       ?_Resize@?$match_results@PEBDV?$allocator@V?$sub_match@PEBD@std@@@std@@@std@@QEAAXI@Z 000000018000b700 f i hashing.obj
 0001:0000a7d0       ?resize@?$vector@_NV?$allocator@_N@std@@@std@@QEAAX_K_N@Z 000000018000b7d0 f i hashing.obj
 0001:0000a920       ?_Insert_n@?$vector@_NV?$allocator@_N@std@@@std@@QEAA?AV?$_Vb_iterator@U?$_Wrap_alloc@V?$allocator@I@std@@@std@@@2@V?$_Vb_const_iterator@U?$_Wrap_alloc@V?$allocator@I@std@@@std@@@2@_KAEB_N@Z 000000018000b920 f i hashing.obj
 0001:0000aae0       ?erase@?$vector@_NV?$allocator@_N@std@@@std@@QEAA?AV?$_Vb_iterator@U?$_Wrap_alloc@V?$allocator@I@std@@@std@@@2@V?$_Vb_const_iterator@U?$_Wrap_alloc@V?$allocator@I@std@@@std@@@2@0@Z 000000018000bae0 f i hashing.obj
 0001:0000ad20       ?_Insert_x@?$vector@_NV?$allocator@_N@std@@@std@@QEAA_KV?$_Vb_const_iterator@U?$_Wrap_alloc@V?$allocator@I@std@@@std@@@2@_K@Z 000000018000bd20 f i hashing.obj
 0001:0000af50       ?allocate@?$allocator@I@std@@QEAAPEAI_K@Z 000000018000bf50 f i hashing.obj
 0001:0000afc0       ?_Alternative@?$_Parser@PEBDDV?$regex_traits@D@std@@@std@@AEAA_NXZ 000000018000bfc0 f i hashing.obj
 0001:0000b390       ?_New_node@?$_Builder@PEBDDV?$regex_traits@D@std@@@std@@AEAAPEAV_Node_base@2@W4_Node_type@2@@Z 000000018000c390 f i hashing.obj
 0001:0000b410       ?_Match_pat@?$_Matcher@PEBDDV?$regex_traits@D@std@@PEBD@std@@AEAA_NPEAV_Node_base@2@@Z 000000018000c410 f i hashing.obj
 0001:0000b970       ??$_Resize_reallocate@U_Value_init_tag@std@@@?$vector@U_Grp_t@?$_Tgt_state_t@PEBD@std@@V?$allocator@U_Grp_t@?$_Tgt_state_t@PEBD@std@@@3@@std@@AEAAX_KAEBU_Value_init_tag@1@@Z 000000018000c970 f i hashing.obj
 0001:0000b970       ??$_Resize_reallocate@U_Value_init_tag@std@@@?$vector@U_Loop_vals_t@std@@V?$allocator@U_Loop_vals_t@std@@@2@@std@@AEAAX_KAEBU_Value_init_tag@1@@Z 000000018000c970 f i hashing.obj
 0001:0000bae0       ??0?$_Bt_state_t@PEBD@std@@QEAA@AEBV01@@Z 000000018000cae0 f i hashing.obj
 0001:0000bb80       ??4?$_Tgt_state_t@PEBD@std@@QEAAAEAV01@AEBV01@@Z 000000018000cb80 f i hashing.obj
 0001:0000bc20       ??4?$_Bt_state_t@PEBD@std@@QEAAAEAV01@AEBV01@@Z 000000018000cc20 f i hashing.obj
 0001:0000bcc0       ?_CharacterClass@?$_Parser@PEBDDV?$regex_traits@D@std@@@std@@AEAAXXZ 000000018000ccc0 f i hashing.obj
 0001:0000be20       ?_AtomEscape@?$_Parser@PEBDDV?$regex_traits@D@std@@@std@@AEAAXXZ 000000018000ce20 f i hashing.obj
 0001:0000bfa0       ?_Wrapped_disjunction@?$_Parser@PEBDDV?$regex_traits@D@std@@@std@@AEAA_NXZ 000000018000cfa0 f i hashing.obj
 0001:0000c1c0       ?_Quantifier@?$_Parser@PEBDDV?$regex_traits@D@std@@@std@@AEAAXXZ 000000018000d1c0 f i hashing.obj
 0001:0000c420       ?_Add_char@?$_Builder@PEBDDV?$regex_traits@D@std@@@std@@QEAAXD@Z 000000018000d420 f i hashing.obj
 0001:0000c530       ?_Do_if@?$_Matcher@PEBDDV?$regex_traits@D@std@@PEBD@std@@AEAA_NPEAV_Node_if@2@@Z 000000018000d530 f i hashing.obj
 0001:0000c940       ?_Do_rep@?$_Matcher@PEBDDV?$regex_traits@D@std@@PEBD@std@@AEAA_NPEAV_Node_rep@2@_NH@Z 000000018000d940 f i hashing.obj
 0001:0000cc40       ?_Do_class@?$_Matcher@PEBDDV?$regex_traits@D@std@@PEBD@std@@AEAA_NPEAV_Node_base@2@@Z 000000018000dc40 f i hashing.obj
 0001:0000cdf0       ?_Better_match@?$_Matcher@PEBDDV?$regex_traits@D@std@@PEBD@std@@AEAA_NXZ 000000018000ddf0 f i hashing.obj
 0001:0000cec0       ?_Is_wbound@?$_Matcher@PEBDDV?$regex_traits@D@std@@PEBD@std@@AEBA_NXZ 000000018000dec0 f i hashing.obj
 0001:0000cf40       ??$_Compare@PEBDPEBDV?$regex_traits@D@std@@@std@@YAPEBDPEBD000AEBV?$regex_traits@D@0@W4syntax_option_type@regex_constants@0@@Z 000000018000df40 f i hashing.obj
 0001:0000d070       ??$_Resize_reallocate@U_Value_init_tag@std@@@?$vector@V?$sub_match@PEBD@std@@V?$allocator@V?$sub_match@PEBD@std@@@2@@std@@AEAAX_KAEBU_Value_init_tag@1@@Z 000000018000e070 f i hashing.obj
 0001:0000d270       ??$_Resize_reallocate@I@?$vector@IV?$allocator@I@std@@@std@@AEAAX_KAEBI@Z 000000018000e270 f i hashing.obj
 0001:0000d3a0       ?translate@?$_Regex_traits@D@std@@QEBADD@Z 000000018000e3a0 f i hashing.obj
 0001:0000d450       ??_G?$_Node_class@DV?$regex_traits@D@std@@@std@@UEAAPEAXI@Z 000000018000e450 f i hashing.obj
 0001:0000d450       ??_E?$_Node_class@DV?$regex_traits@D@std@@@std@@UEAAPEAXI@Z 000000018000e450 f i * CIL library *:* CIL module *
 0001:0000d560       ?_Buy_raw@?$vector@U_Grp_t@?$_Tgt_state_t@PEBD@std@@V?$allocator@U_Grp_t@?$_Tgt_state_t@PEBD@std@@@3@@std@@AEAAX_K@Z 000000018000e560 f i hashing.obj
 0001:0000d5f0       ?_DecimalDigits@?$_Parser@PEBDDV?$regex_traits@D@std@@@std@@AEAA_NXZ 000000018000e5f0 f i hashing.obj
 0001:0000d6a0       ?_CharacterClassEscape@?$_Parser@PEBDDV?$regex_traits@D@std@@@std@@AEAA_N_N@Z 000000018000e6a0 f i hashing.obj
 0001:0000d7a0       ?_ClassRanges@?$_Parser@PEBDDV?$regex_traits@D@std@@@std@@AEAAXXZ 000000018000e7a0 f i hashing.obj
 0001:0000da20       ?_CharacterEscape@?$_Parser@PEBDDV?$regex_traits@D@std@@@std@@AEAA_NXZ 000000018000ea20 f i hashing.obj
 0001:0000df30       ?_Do_assert_group@?$_Parser@PEBDDV?$regex_traits@D@std@@@std@@AEAAX_N@Z 000000018000ef30 f i hashing.obj
 0001:0000e020       ?_Add_class@?$_Builder@PEBDDV?$regex_traits@D@std@@@std@@QEAAXXZ 000000018000f020 f i hashing.obj
 0001:0000e0b0       ?_Add_rep@?$_Builder@PEBDDV?$regex_traits@D@std@@@std@@QEAAXHH_N@Z 000000018000f0b0 f i hashing.obj
 0001:0000e390       ?_Do_rep0@?$_Matcher@PEBDDV?$regex_traits@D@std@@PEBD@std@@AEAA_NPEAV_Node_rep@2@_N@Z 000000018000f390 f i hashing.obj
 0001:0000e850       ?_Clear_and_reserve_geometric@?$vector@U_Grp_t@?$_Tgt_state_t@PEBD@std@@V?$allocator@U_Grp_t@?$_Tgt_state_t@PEBD@std@@@3@@std@@AEAAX_K@Z 000000018000f850 f i hashing.obj
 0001:0000e900       ?_Clear_and_reserve_geometric@?$vector@IV?$allocator@I@std@@@std@@AEAAX_K@Z 000000018000f900 f i hashing.obj
 0001:0000e9c0       ??_E?$_Node_str@D@std@@UEAAPEAXI@Z 000000018000f9c0 f i * CIL library *:* CIL module *
 0001:0000e9c0       ??_G?$_Node_str@D@std@@UEAAPEAXI@Z 000000018000f9c0 f i hashing.obj
 0001:0000ea10       ?_HexDigits@?$_Parser@PEBDDV?$regex_traits@D@std@@@std@@AEAAXH@Z 000000018000fa10 f i hashing.obj
 0001:0000eaf0       ?_ClassAtom@?$_Parser@PEBDDV?$regex_traits@D@std@@@std@@AEAA?AW4_Prs_ret@2@XZ 000000018000faf0 f i hashing.obj
 0001:0000ee70       ?_Add_range@?$_Builder@PEBDDV?$regex_traits@D@std@@@std@@QEAAXDD@Z 000000018000fe70 f i hashing.obj
 0001:0000f000       ?_Add_named_class@?$_Builder@PEBDDV?$regex_traits@D@std@@@std@@QEAAXF_N@Z 0000000180010000 f i hashing.obj
 0001:0000f0e0       ?_Add_char_to_array@?$_Builder@PEBDDV?$regex_traits@D@std@@@std@@AEAAXD@Z 00000001800100e0 f i hashing.obj
 0001:0000f180       ??$lookup_classname@PEBD@?$_Regex_traits@D@std@@QEBAFPEBD0_N@Z 0000000180010180 f i hashing.obj
 0001:0000f2d0       ??$_Reallocate_grow_by@V<lambda_319d5e083f45f90dcdce5dce53cbb275>@@D@?$basic_string@DU?$char_traits@D@std@@V?$allocator@D@2@@std@@AEAAAEAV01@_KV<lambda_319d5e083f45f90dcdce5dce53cbb275>@@D@Z 00000001800102d0 f i hashing.obj
 0001:0000f440       ??1?$vector@DV?$allocator@D@std@@@std@@QEAA@XZ 0000000180010440 f i hashing.obj
 0001:0000f4a0       ??1?$unique_ptr@V_Node_assert@std@@U?$default_delete@V_Node_assert@std@@@2@@std@@QEAA@XZ 00000001800104a0 f i hashing.obj
 0001:0000f4a0       ??1?$unique_ptr@V_Facet_base@std@@U?$default_delete@V_Facet_base@std@@@2@@std@@QEAA@XZ 00000001800104a0 f i hashing.obj
 0001:0000f4c0       ?_Do_ex_class@?$_Parser@PEBDDV?$regex_traits@D@std@@@std@@AEAAXW4_Meta_type@2@@Z 00000001800104c0 f i hashing.obj
 0001:0000f700       ?_Add_equiv@?$_Builder@PEBDDV?$regex_traits@D@std@@@std@@QEAAXPEBD0_J@Z 0000000180010700 f i hashing.obj
 0001:0000f890       ?_Char_to_elts@?$_Builder@PEBDDV?$regex_traits@D@std@@@std@@AEAAXPEBD0_JPEAPEAU?$_Sequence@D@2@@Z 0000000180010890 f i hashing.obj
 0001:0000f970       ??$transform_primary@PEAD@?$_Regex_traits@D@std@@QEBA?AV?$basic_string@DU?$char_traits@D@std@@V?$allocator@D@2@@1@PEAD0@Z 0000000180010970 f i hashing.obj
 0001:0000f970       ??$transform_primary@PEBD@?$_Regex_traits@D@std@@QEBA?AV?$basic_string@DU?$char_traits@D@std@@V?$allocator@D@2@@1@PEBD0@Z 0000000180010970 f i hashing.obj
 0001:0000fb58       ??_E?$basic_stringstream@_WU?$char_traits@_W@std@@V?$allocator@_W@2@@std@@$4PPPPPPPM@A@EAAPEAXI@Z 0000000180010b58 f i hashing.obj
 0001:0000fb64       ??_E?$basic_ostream@DU?$char_traits@D@std@@@std@@$4PPPPPPPM@A@EAAPEAXI@Z 0000000180010b64 f i hashing.obj
 0001:0000fb70       ??_E?$basic_stringstream@DU?$char_traits@D@std@@V?$allocator@D@2@@std@@$4PPPPPPPM@A@EAAPEAXI@Z 0000000180010b70 f i hashing.obj
 0001:0000fb7c       ??_E?$basic_iostream@_WU?$char_traits@_W@std@@@std@@$4PPPPPPPM@A@EAAPEAXI@Z 0000000180010b7c f i hashing.obj
 0001:0000fb88       ??_E?$basic_ostream@_WU?$char_traits@_W@std@@@std@@$4PPPPPPPM@A@EAAPEAXI@Z 0000000180010b88 f i hashing.obj
 0001:0000fb94       ??_E?$basic_istream@DU?$char_traits@D@std@@@std@@$4PPPPPPPM@A@EAAPEAXI@Z 0000000180010b94 f i hashing.obj
 0001:0000fba0       ??_E?$basic_istream@_WU?$char_traits@_W@std@@@std@@$4PPPPPPPM@A@EAAPEAXI@Z 0000000180010ba0 f i hashing.obj
 0001:0000fbac       ??_E?$basic_iostream@DU?$char_traits@D@std@@@std@@$4PPPPPPPM@A@EAAPEAXI@Z 0000000180010bac f i hashing.obj
 0001:0000fbc0       ??A?$basic_string@DU?$char_traits@D@std@@V?$allocator@D@2@@std@@QEAAAEAD_K@Z 0000000180010bc0 f i hashing.obj
 0001:0000fbe0       ??_E?$ctype@_W@std@@MEAAPEAXI@Z 0000000180010be0 f i * CIL library *:* CIL module *
 0001:0000fbe0       ??_G?$ctype@_W@std@@MEAAPEAXI@Z 0000000180010be0 f i hashing.obj
 0001:0000fc40       ?do_is@?$ctype@_W@std@@MEBAPEB_WPEB_W0PEAF@Z 0000000180010c40 f i hashing.obj
 0001:0000fc60       ?do_scan_is@?$ctype@_W@std@@MEBAPEB_WFPEB_W0@Z 0000000180010c60 f i hashing.obj
 0001:0000fcd0       ?do_is@?$ctype@_W@std@@MEBA_NF_W@Z 0000000180010cd0 f i hashing.obj
 0001:0000fd00       ?do_scan_not@?$ctype@_W@std@@MEBAPEB_WFPEB_W0@Z 0000000180010d00 f i hashing.obj
 0001:0000fd70       ?do_tolower@?$ctype@_W@std@@MEBAPEB_WPEA_WPEB_W@Z 0000000180010d70 f i hashing.obj
 0001:0000fdc0       ?do_tolower@?$ctype@_W@std@@MEBA_W_W@Z 0000000180010dc0 f i hashing.obj
 0001:0000fdd0       ?do_toupper@?$ctype@_W@std@@MEBAPEB_WPEA_WPEB_W@Z 0000000180010dd0 f i hashing.obj
 0001:0000fe20       ?do_toupper@?$ctype@_W@std@@MEBA_W_W@Z 0000000180010e20 f i hashing.obj
 0001:0000fe30       ?do_widen@?$ctype@_W@std@@MEBAPEBDPEBD0PEA_W@Z 0000000180010e30 f i hashing.obj
 0001:0000fed0       ?do_narrow@?$ctype@_W@std@@MEBAPEB_WPEB_W0DPEAD@Z 0000000180010ed0 f i hashing.obj
 0001:0000ff80       ?do_narrow@?$ctype@_W@std@@MEBAD_WD@Z 0000000180010f80 f i hashing.obj
 0001:0000ffe0       ?_Getcat@?$ctype@_W@std@@SA_KPEAPEBVfacet@locale@2@PEBV42@@Z 0000000180010fe0 f i hashing.obj
 0001:000101a0       ?do_widen@?$ctype@_W@std@@MEBA_WD@Z 00000001800111a0 f i hashing.obj
 0001:000101f0       ??$_Reallocate_grow_by@V<lambda_65e615be2a453ca0576c979606f46740>@@PEBD_K@?$basic_string@DU?$char_traits@D@std@@V?$allocator@D@2@@std@@AEAAAEAV01@_KV<lambda_65e615be2a453ca0576c979606f46740>@@PEBD_K@Z 00000001800111f0 f i hashing.obj
 0001:00010380       ?append@?$basic_string@DU?$char_traits@D@std@@V?$allocator@D@2@@std@@QEAAAEAV12@QEBD_K@Z 0000000180011380 f i hashing.obj
 0001:00010400       ??0_System_error@std@@IEAA@Verror_code@1@AEBV?$basic_string@DU?$char_traits@D@std@@V?$allocator@D@2@@1@@Z 0000000180011400 f i hashing.obj
 0001:000105a0       ??0failure@ios_base@std@@QEAA@PEBDAEBVerror_code@2@@Z 00000001800115a0 f i hashing.obj
 0001:00010680       ??_E_Generic_error_category@std@@UEAAPEAXI@Z 0000000180011680 f i * CIL library *:* CIL module *
 0001:00010680       ??_G_System_error_category@std@@UEAAPEAXI@Z 0000000180011680 f i IntChecker2-Far3.obj
 0001:00010680       ??_E_Iostream_error_category2@std@@UEAAPEAXI@Z 0000000180011680 f i * CIL library *:* CIL module *
 0001:00010680       ??_G_Generic_error_category@std@@UEAAPEAXI@Z 0000000180011680 f i IntChecker2-Far3.obj
 0001:00010680       ??_G_Iostream_error_category2@std@@UEAAPEAXI@Z 0000000180011680 f i hashing.obj
 0001:00010680       ??_E_System_error_category@std@@UEAAPEAXI@Z 0000000180011680 f i * CIL library *:* CIL module *
 0001:000106b0       ?name@_Iostream_error_category2@std@@UEBAPEBDXZ 00000001800116b0 f i hashing.obj
 0001:000106c0       ?message@_Iostream_error_category2@std@@UEBA?AV?$basic_string@DU?$char_traits@D@std@@V?$allocator@D@2@@2@H@Z 00000001800116c0 f i hashing.obj
 0001:00010740       ?equivalent@error_category@std@@UEBA_NAEBVerror_code@2@H@Z 0000000180011740 f i hashing.obj
 0001:00010760       ?default_error_condition@error_category@std@@UEBA?AVerror_condition@2@H@Z 0000000180011760 f i hashing.obj
 0001:00010770       ?equivalent@error_category@std@@UEBA_NHAEBVerror_condition@2@@Z 0000000180011770 f i hashing.obj
 0001:000107b0       ?make_error_code@std@@YA?AVerror_code@1@W4io_errc@1@@Z 00000001800117b0 f i hashing.obj
 0001:000107d0       ??_Esystem_error@std@@UEAAPEAXI@Z 00000001800117d0 f i * CIL library *:* CIL module *
 0001:000107d0       ??_Efailure@ios_base@std@@UEAAPEAXI@Z 00000001800117d0 f i * CIL library *:* CIL module *
 0001:000107d0       ??_Gsystem_error@std@@UEAAPEAXI@Z 00000001800117d0 f i hashing.obj
 0001:000107d0       ??_E_System_error@std@@UEAAPEAXI@Z 00000001800117d0 f i * CIL library *:* CIL module *
 0001:000107d0       ??_G_System_error@std@@UEAAPEAXI@Z 00000001800117d0 f i hashing.obj
 0001:000107d0       ??_Gfailure@ios_base@std@@UEAAPEAXI@Z 00000001800117d0 f i hashing.obj
 0001:00010820       ??0failure@ios_base@std@@QEAA@AEBV012@@Z 0000000180011820 f i hashing.obj
 0001:00010880       ??0system_error@std@@QEAA@AEBV01@@Z 0000000180011880 f i hashing.obj
 0001:000108e0       ??0_System_error@std@@QEAA@AEBV01@@Z 00000001800118e0 f i hashing.obj
 0001:00010930       ??0runtime_error@std@@QEAA@AEBV01@@Z 0000000180011930 f i hashing.obj
 0001:00010970       ?clear@ios_base@std@@QEAAXH_N@Z 0000000180011970 f i hashing.obj
 0001:000109f0       ??_G?$ctype@D@std@@MEAAPEAXI@Z 00000001800119f0 f i hashing.obj
 0001:000109f0       ??_E?$ctype@D@std@@MEAAPEAXI@Z 00000001800119f0 f i * CIL library *:* CIL module *
 0001:00010a60       ?do_tolower@?$ctype@D@std@@MEBAPEBDPEADPEBD@Z 0000000180011a60 f i hashing.obj
 0001:00010ab0       ?do_tolower@?$ctype@D@std@@MEBADD@Z 0000000180011ab0 f i hashing.obj
 0001:00010ac0       ?do_toupper@?$ctype@D@std@@MEBAPEBDPEADPEBD@Z 0000000180011ac0 f i hashing.obj
 0001:00010b10       ?do_toupper@?$ctype@D@std@@MEBADD@Z 0000000180011b10 f i hashing.obj
 0001:00010b20       ?do_widen@?$ctype@D@std@@MEBAPEBDPEBD0PEAD@Z 0000000180011b20 f i hashing.obj
 0001:00010b40       ?do_narrow@?$ctype@D@std@@MEBADDD@Z 0000000180011b40 f i hashing.obj
 0001:00010b40       ?do_widen@?$ctype@D@std@@MEBADD@Z 0000000180011b40 f i hashing.obj
 0001:00010b50       ?do_narrow@?$ctype@D@std@@MEBAPEBDPEBD0DPEAD@Z 0000000180011b50 f i hashing.obj
 0001:00010b70       ??1?$_Yarn@D@std@@QEAA@XZ  0000000180011b70 f i hashing.obj
 0001:00010b70       ??1?$_Yarn@_W@std@@QEAA@XZ 0000000180011b70 f i hashing.obj
 0001:00010ba0       ?_Getcat@?$ctype@D@std@@SA_KPEAPEBVfacet@locale@2@PEBV42@@Z 0000000180011ba0 f i hashing.obj
 0001:00010d30       ??0bad_cast@std@@QEAA@XZ   0000000180011d30 f i hashing.obj
 0001:00010d60       ??0bad_cast@std@@QEAA@AEBV01@@Z 0000000180011d60 f i hashing.obj
 0001:00010da0       ?_Throw_bad_cast@std@@YAXXZ 0000000180011da0 f i hashing.obj
 0001:00010dc0       ??$use_facet@V?$ctype@D@std@@@std@@YAAEBV?$ctype@D@0@AEBVlocale@0@@Z 0000000180011dc0 f i hashing.obj
 0001:00010ed0       ??_G_Facet_base@std@@UEAAPEAXI@Z 0000000180011ed0 f i hashing.obj
 0001:00010ed0       ??_E_Facet_base@std@@UEAAPEAXI@Z 0000000180011ed0 f i * CIL library *:* CIL module *
 0001:00010f00       ??1locale@std@@QEAA@XZ     0000000180011f00 f i hashing.obj
 0001:00010f30       ??_Eios_base@std@@UEAAPEAXI@Z 0000000180011f30 f i * CIL library *:* CIL module *
 0001:00010f30       ??_Gios_base@std@@UEAAPEAXI@Z 0000000180011f30 f i hashing.obj
 0001:00010f70       ?assign@?$basic_string@DU?$char_traits@D@std@@V?$allocator@D@2@@std@@QEAAAEAV12@QEBD_K@Z 0000000180011f70 f i hashing.obj
 0001:000110d0       ??0?$basic_string@DU?$char_traits@D@std@@V?$allocator@D@2@@std@@QEAA@QEBD@Z 00000001800120d0 f i hashing.obj
 0001:00011110       ??0?$basic_string@DU?$char_traits@D@std@@V?$allocator@D@2@@std@@QEAA@AEBV01@@Z 0000000180012110 f i hashing.obj
 0001:000111f0       ??1?$basic_string@DU?$char_traits@D@std@@V?$allocator@D@2@@std@@QEAA@XZ 00000001800121f0 f i hashing.obj
 0001:00011250       ?_Incref@facet@locale@std@@UEAAXXZ 0000000180012250 f i hashing.obj
 0001:00011260       ?_Decref@facet@locale@std@@UEAAPEAV_Facet_base@3@XZ 0000000180012260 f i hashing.obj
 0001:00011270       ??1DialogAPIBinding@@UEAA@XZ 0000000180012270 f i IntChecker2-Far3.obj
 0001:00011280       ?SaveValue@PluginCheckBoxBinding@@UEAAXPEAUFarDialogItem@@H@Z 0000000180012280 f i IntChecker2-Far3.obj
 0001:000112e0       ??_EPluginCheckBoxBinding@@UEAAPEAXI@Z 00000001800122e0 f i * CIL library *:* CIL module *
 0001:000112e0       ??_GPluginCheckBoxBinding@@UEAAPEAXI@Z 00000001800122e0 f i IntChecker2-Far3.obj
 0001:000112e0       ??_EPluginEditFieldBinding@@UEAAPEAXI@Z 00000001800122e0 f i * CIL library *:* CIL module *
 0001:000112e0       ??_GPluginEditFieldBinding@@UEAAPEAXI@Z 00000001800122e0 f i IntChecker2-Far3.obj
 0001:00011310       ?SaveValue@PluginRadioButtonBinding@@UEAAXPEAUFarDialogItem@@H@Z 0000000180012310 f i IntChecker2-Far3.obj
 0001:00011360       ??_EPluginRadioButtonBinding@@UEAAPEAXI@Z 0000000180012360 f i * CIL library *:* CIL module *
 0001:00011360       ??_GPluginRadioButtonBinding@@UEAAPEAXI@Z 0000000180012360 f i IntChecker2-Far3.obj
 0001:00011390       ?SaveValue@PluginEditFieldBinding@@UEAAXPEAUFarDialogItem@@H@Z 0000000180012390 f i IntChecker2-Far3.obj
 0001:000113d0       ?SaveValue@PluginIntEditFieldBinding@@UEAAXPEAUFarDialogItem@@H@Z 00000001800123d0 f i IntChecker2-Far3.obj
 0001:00011420       ??_GPluginIntEditFieldBinding@@UEAAPEAXI@Z 0000000180012420 f i IntChecker2-Far3.obj
 0001:00011420       ??_EPluginIntEditFieldBinding@@UEAAPEAXI@Z 0000000180012420 f i * CIL library *:* CIL module *
 0001:00011420       ??_EPluginUIntEditFieldBinding@@UEAAPEAXI@Z 0000000180012420 f i * CIL library *:* CIL module *
 0001:00011420       ??_GPluginUIntEditFieldBinding@@UEAAPEAXI@Z 0000000180012420 f i IntChecker2-Far3.obj
 0001:00011450       ?SaveValue@PluginUIntEditFieldBinding@@UEAAXPEAUFarDialogItem@@H@Z 0000000180012450 f i IntChecker2-Far3.obj
 0001:000114a0       ?SaveValue@PluginListControlBinding@@UEAAXPEAUFarDialogItem@@H@Z 00000001800124a0 f i IntChecker2-Far3.obj
 0001:00011520       ??_GPluginListControlBinding@@UEAAPEAXI@Z 0000000180012520 f i IntChecker2-Far3.obj
 0001:00011520       ??_EPluginListControlBinding@@UEAAPEAXI@Z 0000000180012520 f i * CIL library *:* CIL module *
 0001:00011590       ?InitDialogItem@PluginDialogBuilder@@MEAAXPEAUFarDialogItem@@PEB_W@Z 0000000180012590 f i IntChecker2-Far3.obj
 0001:000115c0       ?TextWidth@PluginDialogBuilder@@MEAAHAEBUFarDialogItem@@@Z 00000001800125c0 f i IntChecker2-Far3.obj
 0001:000115d0       ?GetLangString@PluginDialogBuilder@@MEAAPEB_WH@Z 00000001800125d0 f i IntChecker2-Far3.obj
 0001:000115f0       ?DoShowDialog@PluginDialogBuilder@@MEAA_JXZ 00000001800125f0 f i IntChecker2-Far3.obj
 0001:000116b0       ?CreateCheckBoxBinding@PluginDialogBuilder@@MEAAPEAU?$DialogItemBinding@UFarDialogItem@@@@PEAHH@Z 00000001800126b0 f i IntChecker2-Far3.obj
 0001:00011720       ?CreateRadioButtonBinding@PluginDialogBuilder@@MEAAPEAU?$DialogItemBinding@UFarDialogItem@@@@PEAH@Z 0000000180012720 f i IntChecker2-Far3.obj
 0001:00011780       ?AddListControl@PluginDialogBuilder@@IEAAPEAUFarDialogItem@@W4FARDIALOGITEMTYPES@@PEAHPEA_WHHPEBQEB_W_K4@Z 0000000180012780 f i IntChecker2-Far3.obj
 0001:00011900       ??1PluginDialogBuilder@@UEAA@XZ 0000000180012900 f i IntChecker2-Far3.obj
 0001:00011990       ?AddIntEditField@PluginDialogBuilder@@UEAAPEAUFarDialogItem@@PEAHH@Z 0000000180012990 f i IntChecker2-Far3.obj
 0001:00011ae0       ?AddUIntEditField@PluginDialogBuilder@@UEAAPEAUFarDialogItem@@PEAIH@Z 0000000180012ae0 f i IntChecker2-Far3.obj
 0001:00011c30       ??_GPluginDialogBuilder@@UEAAPEAXI@Z 0000000180012c30 f i IntChecker2-Far3.obj
 0001:00011c30       ??_EPluginDialogBuilder@@UEAAPEAXI@Z 0000000180012c30 f i * CIL library *:* CIL module *
 0001:00011ce0       ??1PluginSettings@@QEAA@XZ 0000000180012ce0 f i IntChecker2-Far3.obj
 0001:00011d00       ??1FarScreenSave@@QEAA@XZ  0000000180012d00 f i IntChecker2-Far3.obj
 0001:00011d20       ??0ProgressContext@@QEAA@H_J@Z 0000000180012d20 f i IntChecker2-Far3.obj
 0001:00012450       ??0FarMenu@@QEAA@PEBUPluginStartupInfo@@PEBU_GUID@@1PEB_W2@Z 0000000180013450 f i IntChecker2-Far3.obj
 0001:00012550       ?AddItemEx@FarMenu@@QEAAXPEB_WV?$function@$$A6AX_J@Z@std@@_K_J@Z 0000000180013550 f i IntChecker2-Far3.obj
 0001:00012660       ?Run@FarMenu@@QEAA_JXZ     0000000180013660 f i IntChecker2-Far3.obj
 0001:00012760       ??1?$function@$$A6AX_J@Z@std@@QEAA@XZ 0000000180013760 f i IntChecker2-Far3.obj
 0001:00012760       ??1?$function@$$A6AHPEB_W@Z@std@@QEAA@XZ 0000000180013760 f i IntChecker2-Far3.obj
 0001:00012760       ??1?$_Func_class@X_J@std@@QEAA@XZ 0000000180013760 f i IntChecker2-Far3.obj
 0001:00012790       ?_Make_ec@filesystem@std@@YA?AVerror_code@2@W4__std_win_error@@@Z 0000000180013790 f i IntChecker2-Far3.obj
 0001:000127b0       ?_Throw_system_error_from_std_win_error@filesystem@std@@YAXW4__std_win_error@@@Z 00000001800137b0 f i IntChecker2-Far3.obj
 0001:000127f0       ?_Find_root_name_end@filesystem@std@@YAPEB_WQEB_W0@Z 00000001800137f0 f i IntChecker2-Far3.obj
 0001:000128e0       ?_Is_dot_or_dotdot@filesystem@std@@YA_NAEBU__std_fs_find_data@@@Z 00000001800138e0 f i IntChecker2-Far3.obj
 0001:00012910       ??1_Find_file_handle@filesystem@std@@QEAA@XZ 0000000180013910 f i IntChecker2-Far3.obj
 0001:00012920       ??_0path@filesystem@std@@QEAAAEAV012@AEBV012@@Z 0000000180013920 f i IntChecker2-Far3.obj
 0001:00012bf0       ??0filesystem_error@filesystem@std@@QEAA@AEBV?$basic_string@DU?$char_traits@D@std@@V?$allocator@D@2@@2@Verror_code@2@@Z 0000000180013bf0 f i IntChecker2-Far3.obj
 0001:00012ca0       ??0filesystem_error@filesystem@std@@QEAA@AEBV?$basic_string@DU?$char_traits@D@std@@V?$allocator@D@2@@2@AEBVpath@12@Verror_code@2@@Z 0000000180013ca0 f i IntChecker2-Far3.obj
 0001:00012de0       ?what@filesystem_error@filesystem@std@@UEBAPEBDXZ 0000000180013de0 f i IntChecker2-Far3.obj
 0001:00012df0       ?_Pretty_message@filesystem_error@filesystem@std@@CA?AV?$basic_string@DU?$char_traits@D@std@@V?$allocator@D@2@@3@V?$basic_string_view@DU?$char_traits@D@std@@@3@AEBVpath@23@1@Z 0000000180013df0 f i IntChecker2-Far3.obj
 0001:000130d0       ??_Gfilesystem_error@filesystem@std@@UEAAPEAXI@Z 00000001800140d0 f i IntChecker2-Far3.obj
 0001:000130d0       ??_Efilesystem_error@filesystem@std@@UEAAPEAXI@Z 00000001800140d0 f i * CIL library *:* CIL module *
 0001:00013220       ??1filesystem_error@filesystem@std@@UEAA@XZ 0000000180014220 f i IntChecker2-Far3.obj
 0001:00013340       ?_Throw_fs_error@filesystem@std@@YAXPEBDW4__std_win_error@@@Z 0000000180014340 f i IntChecker2-Far3.obj
 0001:000133a0       ??0filesystem_error@filesystem@std@@QEAA@AEBV012@@Z 00000001800143a0 f i IntChecker2-Far3.obj
 0001:00013430       ?_Throw_fs_error@filesystem@std@@YAXPEBDW4__std_win_error@@AEBVpath@12@@Z 0000000180014430 f i IntChecker2-Far3.obj
 0001:000134a0       ?_Get_any_status@directory_entry@filesystem@std@@AEBA?AU_File_status_and_error@23@W4__std_fs_stats_flags@@@Z 00000001800144a0 f i IntChecker2-Far3.obj
 0001:00013610       ?_Open_dir@_Dir_enum_impl@filesystem@std@@SA?AW4__std_win_error@@AEAVpath@23@W4directory_options@23@AEAU_Find_file_handle@23@AEAU__std_fs_find_data@@@Z 0000000180014610 f i IntChecker2-Far3.obj
 0001:00013770       ?_Refresh@_Dir_enum_impl@filesystem@std@@QEAAXAEBU__std_fs_find_data@@@Z 0000000180014770 f i IntChecker2-Far3.obj
 0001:00013910       ??1directory_entry@filesystem@std@@QEAA@XZ 0000000180014910 f i IntChecker2-Far3.obj
 0001:00013980       ?_Advance_and_reset_if_no_more_files@_Recursive_dir_enum_impl@filesystem@std@@SA?AW4__std_win_error@@AEAV?$shared_ptr@U_Recursive_dir_enum_impl@filesystem@std@@@3@@Z 0000000180014980 f i IntChecker2-Far3.obj
 0001:00013d20       ??1_Dir_enum_impl@filesystem@std@@QEAA@XZ 0000000180014d20 f i IntChecker2-Far3.obj
 0001:00013d90       ??1recursive_directory_iterator@filesystem@std@@QEAA@XZ 0000000180014d90 f i IntChecker2-Far3.obj
 0001:00013d90       ??1?$shared_ptr@U_Recursive_dir_enum_impl@filesystem@std@@@std@@QEAA@XZ 0000000180014d90 f i IntChecker2-Far3.obj
 0001:00014010       ?GetPanelDirectory@Far3Panel@@QEAA?AV?$basic_string@_WU?$char_traits@_W@std@@V?$allocator@_W@2@@std@@XZ 0000000180015010 f i IntChecker2-Far3.obj
 0001:00014140       ?GetSelectedItemPath@Far3Panel@@QEAA?AV?$basic_string@_WU?$char_traits@_W@std@@V?$allocator@_W@2@@std@@XZ 0000000180015140 f i IntChecker2-Far3.obj
 0001:00014370       ?GetSelectedFiles@Far3Panel@@QEAAX_NPEAXAEAV?$vector@UPanelFileInfo@@V?$allocator@UPanelFileInfo@@@std@@@std@@@Z 0000000180015370 f i IntChecker2-Far3.obj
 0001:00014ec0       ?SetItemsSelection@Far3Panel@@QEAAXV?$function@$$A6AHPEB_W@Z@std@@@Z 0000000180015ec0 f i IntChecker2-Far3.obj
 0001:00015030       ?ClearSelection@Far3Panel@@QEAAXXZ 0000000180016030 f i IntChecker2-Far3.obj
 0001:000150b0       ??1PanelFileInfo@@QEAA@XZ  00000001800160b0 f i IntChecker2-Far3.obj
 0001:00018310       ??1ProgressContext@@QEAA@XZ 0000000180019310 f i IntChecker2-Far3.obj
 0001:00019e30       ??1HashGenerationParams@@QEAA@XZ 000000018001ae30 f i IntChecker2-Far3.obj
 0001:0001b7c0       ??1FarMenu@@QEAA@XZ        000000018001c7c0 f i IntChecker2-Far3.obj
 0001:0001d820       GetGlobalInfoW             000000018001e820 f   IntChecker2-Far3.obj
 0001:0001d8a0       SetStartupInfoW            000000018001e8a0 f   IntChecker2-Far3.obj
 0001:0001d990       GetPluginInfoW             000000018001e990 f   IntChecker2-Far3.obj
 0001:0001da30       ConfigureW                 000000018001ea30 f   IntChecker2-Far3.obj
 0001:0001e170       OpenW                      000000018001f170 f   IntChecker2-Far3.obj
 0001:0001eb00       ??1?$vector@_KV?$allocator@_K@std@@@std@@QEAA@XZ 000000018001fb00 f i IntChecker2-Far3.obj
 0001:0001eb60       ??1?$vector@UPanelFileInfo@@V?$allocator@UPanelFileInfo@@@std@@@std@@QEAA@XZ 000000018001fb60 f i IntChecker2-Far3.obj
 0001:0001ec20       ??1?$vector@U_Find_file_handle@filesystem@std@@V?$allocator@U_Find_file_handle@filesystem@std@@@3@@std@@QEAA@XZ 000000018001fc20 f i IntChecker2-Far3.obj
 0001:0001ecb0       ??1?$vector@V?$function@$$A6AX_J@Z@std@@V?$allocator@V?$function@$$A6AX_J@Z@std@@@2@@std@@QEAA@XZ 000000018001fcb0 f i IntChecker2-Far3.obj
 0001:0001ed60       ??1?$vector@UFarMenuItem@@V?$allocator@UFarMenuItem@@@std@@@std@@QEAA@XZ 000000018001fd60 f i IntChecker2-Far3.obj
 0001:0001ede0       ??1?$vector@_WV?$allocator@_W@std@@@std@@QEAA@XZ 000000018001fde0 f i IntChecker2-Far3.obj
 0001:0001ee40       ??1?$vector@V?$basic_string@_WU?$char_traits@_W@std@@V?$allocator@_W@2@@std@@V?$allocator@V?$basic_string@_WU?$char_traits@_W@std@@V?$allocator@_W@2@@std@@@2@@std@@QEAA@XZ 000000018001fe40 f i IntChecker2-Far3.obj
 0001:0001ee50       ?ShowDialogEx@?$DialogBuilderBase@UFarDialogItem@@@@QEAA_JXZ 000000018001fe50 f i IntChecker2-Far3.obj
 0001:0001ef90       ?AddButtons@?$DialogBuilderBase@UFarDialogItem@@@@QEAAPEAUFarDialogItem@@HPEBHHH@Z 000000018001ff90 f i IntChecker2-Far3.obj
 0001:0001f140       ?AddTextBefore@?$DialogBuilderBase@UFarDialogItem@@@@QEAAPEAUFarDialogItem@@PEAU2@PEB_W@Z 0000000180020140 f i IntChecker2-Far3.obj
 0001:0001f2b0       ?AddRadioButtons@?$DialogBuilderBase@UFarDialogItem@@@@QEAAPEAUFarDialogItem@@PEAHHQEBH_N@Z 00000001800202b0 f i IntChecker2-Far3.obj
 0001:0001f430       ?AddCheckbox@?$DialogBuilderBase@UFarDialogItem@@@@QEAAPEAUFarDialogItem@@PEB_WPEAHH_N@Z 0000000180020430 f i IntChecker2-Far3.obj
 0001:0001f550       ??1?$DialogBuilderBase@UFarDialogItem@@@@MEAA@XZ 0000000180020550 f i IntChecker2-Far3.obj
 0001:0001f5d0       ?DoShowDialog@?$DialogBuilderBase@UFarDialogItem@@@@MEAA_JXZ 00000001800205d0 f i IntChecker2-Far3.obj
 0001:0001f5e0       ?AddDialogItem@?$DialogBuilderBase@UFarDialogItem@@@@IEAAPEAUFarDialogItem@@W4FARDIALOGITEMTYPES@@PEB_W@Z 00000001800205e0 f i IntChecker2-Far3.obj
 0001:0001f790       ??_E?$DialogBuilderBase@UFarDialogItem@@@@MEAAPEAXI@Z 0000000180020790 f i * CIL library *:* CIL module *
 0001:0001f790       ??_G?$DialogBuilderBase@UFarDialogItem@@@@MEAAPEAXI@Z 0000000180020790 f i IntChecker2-Far3.obj
 0001:0001f820       ??_G?$DialogItemBinding@UFarDialogItem@@@@UEAAPEAXI@Z 0000000180020820 f i IntChecker2-Far3.obj
 0001:0001f820       ??_E?$DialogItemBinding@UFarDialogItem@@@@UEAAPEAXI@Z 0000000180020820 f i * CIL library *:* CIL module *
 0001:0001f850       ??1?$_Tidy_guard@V?$vector@V?$basic_string@_WU?$char_traits@_W@std@@V?$allocator@_W@2@@std@@V?$allocator@V?$basic_string@_WU?$char_traits@_W@std@@V?$allocator@_W@2@@std@@@2@@std@@@std@@QEAA@XZ 0000000180020850 f i IntChecker2-Far3.obj
 0001:0001f860       ?_Destroy@?$vector@UPanelFileInfo@@V?$allocator@UPanelFileInfo@@@std@@@std@@AEAAXPEAUPanelFileInfo@@0@Z 0000000180020860 f i IntChecker2-Far3.obj
 0001:0001f8a0       ?_Destroy@?$vector@V?$function@$$A6AX_J@Z@std@@V?$allocator@V?$function@$$A6AX_J@Z@std@@@2@@std@@AEAAXPEAV?$function@$$A6AX_J@Z@2@0@Z 00000001800208a0 f i IntChecker2-Far3.obj
 0001:0001f900       ?_Tidy@?$vector@V?$basic_string@_WU?$char_traits@_W@std@@V?$allocator@_W@2@@std@@V?$allocator@V?$basic_string@_WU?$char_traits@_W@std@@V?$allocator@_W@2@@std@@@2@@std@@AEAAXXZ 0000000180020900 f i IntChecker2-Far3.obj
 0001:0001f970       ?_Xrange@?$vector@UFileHashInfo@@V?$allocator@UFileHashInfo@@@std@@@std@@CAXXZ 0000000180020970 f i IntChecker2-Far3.obj
 0001:0001f990       ?UpdateBorderSize@?$DialogBuilderBase@UFarDialogItem@@@@IEAAXXZ 0000000180020990 f i IntChecker2-Far3.obj
 0001:0001fb70       ?deallocate@?$allocator@V?$function@$$A6AX_J@Z@std@@@std@@QEAAXQEAV?$function@$$A6AX_J@Z@2@_K@Z 0000000180020b70 f i IntChecker2-Far3.obj
 0001:0001fbc0       ?_Destroy@?$vector@V?$basic_string@_WU?$char_traits@_W@std@@V?$allocator@_W@2@@std@@V?$allocator@V?$basic_string@_WU?$char_traits@_W@std@@V?$allocator@_W@2@@std@@@2@@std@@AEAAXPEAV?$basic_string@_WU?$char_traits@_W@std@@V?$allocator@_W@2@@2@0@Z 0000000180020bc0 f i IntChecker2-Far3.obj
 0001:0001fbd0       ?deallocate@?$allocator@V?$basic_string@_WU?$char_traits@_W@std@@V?$allocator@_W@2@@std@@@std@@QEAAXQEAV?$basic_string@_WU?$char_traits@_W@std@@V?$allocator@_W@2@@2@_K@Z 0000000180020bd0 f i IntChecker2-Far3.obj
 0001:0001fc20       ??$_Convert_wide_to_narrow_replace_chars@U?$char_traits@D@std@@V?$allocator@D@2@@filesystem@std@@YA?AV?$basic_string@DU?$char_traits@D@std@@V?$allocator@D@2@@1@W4__std_code_page@@V?$basic_string_view@_WU?$char_traits@_W@std@@@1@AEBV?$allocator@D@1@@Z 0000000180020c20 f i IntChecker2-Far3.obj
 0001:0001fcf0       ??$_Initialize_dir_enum@U_Recursive_dir_enum_impl@filesystem@std@@@_Dir_enum_impl@filesystem@std@@SA?AW4__std_win_error@@AEAV?$shared_ptr@U_Recursive_dir_enum_impl@filesystem@std@@@2@AEBVpath@12@W4directory_options@12@@Z 0000000180020cf0 f i IntChecker2-Far3.obj
 0001:0001fed0       ??$_Emplace_reallocate@AEB_K@?$vector@_KV?$allocator@_K@std@@@std@@QEAAPEA_KQEA_KAEB_K@Z 0000000180020ed0 f i IntChecker2-Far3.obj
 0001:0001fed0       ??$_Emplace_reallocate@PEB_W@?$vector@PEB_WV?$allocator@PEB_W@std@@@std@@QEAAPEAPEB_WQEAPEB_W$$QEAPEB_W@Z 0000000180020ed0 f i IntChecker2-Far3.obj
 0001:00020070       ??$_Emplace_reallocate@AEBUPanelFileInfo@@@?$vector@UPanelFileInfo@@V?$allocator@UPanelFileInfo@@@std@@@std@@QEAAPEAUPanelFileInfo@@QEAU2@AEBU2@@Z 0000000180021070 f i IntChecker2-Far3.obj
 0001:000202f0       ??$_Emplace_reallocate@U_Find_file_handle@filesystem@std@@@?$vector@U_Find_file_handle@filesystem@std@@V?$allocator@U_Find_file_handle@filesystem@std@@@3@@std@@QEAAPEAU_Find_file_handle@filesystem@1@QEAU231@$$QEAU231@@Z 00000001800212f0 f i IntChecker2-Far3.obj
 0001:00020500       ??$_Emplace_reallocate@AEBV?$function@$$A6AX_J@Z@std@@@?$vector@V?$function@$$A6AX_J@Z@std@@V?$allocator@V?$function@$$A6AX_J@Z@std@@@2@@std@@QEAAPEAV?$function@$$A6AX_J@Z@1@QEAV21@AEBV21@@Z 0000000180021500 f i IntChecker2-Far3.obj
 0001:00020730       ??$_Emplace_reallocate@AEBUFarMenuItem@@@?$vector@UFarMenuItem@@V?$allocator@UFarMenuItem@@@std@@@std@@QEAAPEAUFarMenuItem@@QEAU2@AEBU2@@Z 0000000180021730 f i IntChecker2-Far3.obj
 0001:00020950       ??$_Emplace_reallocate@V?$basic_string@_WU?$char_traits@_W@std@@V?$allocator@_W@2@@std@@@?$vector@V?$basic_string@_WU?$char_traits@_W@std@@V?$allocator@_W@2@@std@@V?$allocator@V?$basic_string@_WU?$char_traits@_W@std@@V?$allocator@_W@2@@std@@@2@@std@@QEAAPEAV?$basic_string@_WU?$char_traits@_W@std@@V?$allocator@_W@2@@1@QEAV21@$$QEAV21@@Z 0000000180021950 f i IntChecker2-Far3.obj
 0001:00020b10       ??$_Emplace_reallocate@AEBV?$basic_string@_WU?$char_traits@_W@std@@V?$allocator@_W@2@@std@@@?$vector@V?$basic_string@_WU?$char_traits@_W@std@@V?$allocator@_W@2@@std@@V?$allocator@V?$basic_string@_WU?$char_traits@_W@std@@V?$allocator@_W@2@@std@@@2@@std@@QEAAPEAV?$basic_string@_WU?$char_traits@_W@std@@V?$allocator@_W@2@@1@QEAV21@AEBV21@@Z 0000000180021b10 f i IntChecker2-Far3.obj
 0001:00020cd0       ??$_Reallocate_grow_by@V<lambda_25953b27f3c43b57ba59f021c7f225c5>@@_W@?$basic_string@_WU?$char_traits@_W@std@@V?$allocator@_W@2@@std@@AEAAAEAV01@_KV<lambda_25953b27f3c43b57ba59f021c7f225c5>@@_W@Z 0000000180021cd0 f i IntChecker2-Far3.obj
 0001:00020e70       ??$_Reallocate_grow_by@V<lambda_9013ee9e23efe4882b67eff5b0ecf103>@@$$V@?$basic_string@DU?$char_traits@D@std@@V?$allocator@D@2@@std@@AEAAAEAV01@_KV<lambda_9013ee9e23efe4882b67eff5b0ecf103>@@@Z 0000000180021e70 f i IntChecker2-Far3.obj
 0001:00020fc0       ??$_Destroy_range@V?$allocator@V?$basic_string@_WU?$char_traits@_W@std@@V?$allocator@_W@2@@std@@@std@@@std@@YAXPEAV?$basic_string@_WU?$char_traits@_W@std@@V?$allocator@_W@2@@0@QEAV10@AEAV?$allocator@V?$basic_string@_WU?$char_traits@_W@std@@V?$allocator@_W@2@@std@@@0@@Z 0000000180021fc0 f i IntChecker2-Far3.obj
 0001:00021050       ??1_Creator@_Dir_enum_impl@filesystem@std@@QEAA@XZ 0000000180022050 f i IntChecker2-Far3.obj
 0001:000210c0       ?insert@?$basic_string@_WU?$char_traits@_W@std@@V?$allocator@_W@2@@std@@QEAAAEAV12@_KQEB_W0@Z 00000001800220c0 f i IntChecker2-Far3.obj
 0001:000211c0       ??0?$basic_string@_WU?$char_traits@_W@std@@V?$allocator@_W@2@@std@@QEAA@U_String_constructor_concat_tag@1@AEAV01@1@Z 00000001800221c0 f i IntChecker2-Far3.obj
 0001:000213e0       ??$_Resize_reallocate@U_Value_init_tag@std@@@?$vector@_WV?$allocator@_W@std@@@std@@AEAAX_KAEBU_Value_init_tag@1@@Z 00000001800223e0 f i IntChecker2-Far3.obj
 0001:00021540       ??$_Uninitialized_move@PEAUPanelFileInfo@@V?$allocator@UPanelFileInfo@@@std@@@std@@YAPEAUPanelFileInfo@@QEAU1@0PEAU1@AEAV?$allocator@UPanelFileInfo@@@0@@Z 0000000180022540 f i IntChecker2-Far3.obj
 0001:000215e0       ??$_Uninitialized_move@PEAV?$function@$$A6AX_J@Z@std@@V?$allocator@V?$function@$$A6AX_J@Z@std@@@2@@std@@YAPEAV?$function@$$A6AX_J@Z@0@QEAV10@0PEAV10@AEAV?$allocator@V?$function@$$A6AX_J@Z@std@@@0@@Z 00000001800225e0 f i IntChecker2-Far3.obj
 0001:00021690       ??$_Uninitialized_move@PEAV?$basic_string@_WU?$char_traits@_W@std@@V?$allocator@_W@2@@std@@V?$allocator@V?$basic_string@_WU?$char_traits@_W@std@@V?$allocator@_W@2@@std@@@2@@std@@YAPEAV?$basic_string@_WU?$char_traits@_W@std@@V?$allocator@_W@2@@0@QEAV10@0PEAV10@AEAV?$allocator@V?$basic_string@_WU?$char_traits@_W@std@@V?$allocator@_W@2@@std@@@0@@Z 0000000180022690 f i IntChecker2-Far3.obj
 0001:00021710       ??$_Reallocate_grow_by@V<lambda_967c2ed818824c5314a20ec3af46b793>@@_KPEB_W_K@?$basic_string@_WU?$char_traits@_W@std@@V?$allocator@_W@2@@std@@AEAAAEAV01@_KV<lambda_967c2ed818824c5314a20ec3af46b793>@@_KPEB_W2@Z 0000000180022710 f i IntChecker2-Far3.obj
 0001:000218b0       ??1?$_Uninitialized_backout_al@V?$allocator@V?$basic_string@_WU?$char_traits@_W@std@@V?$allocator@_W@2@@std@@@std@@@std@@QEAA@XZ 00000001800228b0 f i IntChecker2-Far3.obj
 0001:000218c0       ?_Delete_this@?$_Func_impl_no_alloc@V?$_Binder@U_Unforced@std@@A6AXAEBV?$basic_string@_WU?$char_traits@_W@std@@V?$allocator@_W@2@@2@@ZAEAV32@@std@@X_J@std@@EEAAX_N@Z 00000001800228c0 f i IntChecker2-Far3.obj
 0001:00021940       ?_Get@?$_Func_impl_no_alloc@V?$_Binder@U_Unforced@std@@A6AXXZ$$V@std@@X_J@std@@EEBAPEBXXZ 0000000180022940 f i IntChecker2-Far3.obj
 0001:00021940       ?_Get@?$_Func_impl_no_alloc@V?$_Binder@U_Unforced@std@@A6AXAEBV?$basic_string@_WU?$char_traits@_W@std@@V?$allocator@_W@2@@2@@ZAEAV32@@std@@X_J@std@@EEBAPEBXXZ 0000000180022940 f i IntChecker2-Far3.obj
 0001:00021940       ?_Get@?$_Func_impl_no_alloc@V?$_Binder@U_Unforced@std@@A6A_NPEB_W_N1@ZPEB_W_N_N@std@@X_J@std@@EEBAPEBXXZ 0000000180022940 f i IntChecker2-Far3.obj
 0001:00021940       ?_Get@?$_Func_impl_no_alloc@V?$_Binder@U_Unforced@std@@A6AXAEAVFar3Panel@@@ZAEAV3@@std@@X_J@std@@EEBAPEBXXZ 0000000180022940 f i IntChecker2-Far3.obj
 0001:00021950       ?_Target_type@?$_Func_impl_no_alloc@V?$_Binder@U_Unforced@std@@A6AXAEBV?$basic_string@_WU?$char_traits@_W@std@@V?$allocator@_W@2@@2@@ZAEAV32@@std@@X_J@std@@EEBAAEBVtype_info@@XZ 0000000180022950 f i IntChecker2-Far3.obj
 0001:00021960       ?_Do_call@?$_Func_impl_no_alloc@V?$_Binder@U_Unforced@std@@A6AXAEAVFar3Panel@@@ZAEAV3@@std@@X_J@std@@EEAAX$$QEA_J@Z 0000000180022960 f i IntChecker2-Far3.obj
 0001:00021960       ?_Do_call@?$_Func_impl_no_alloc@V?$_Binder@U_Unforced@std@@A6AXAEBV?$basic_string@_WU?$char_traits@_W@std@@V?$allocator@_W@2@@2@@ZAEAV32@@std@@X_J@std@@EEAAX$$QEA_J@Z 0000000180022960 f i IntChecker2-Far3.obj
 0001:00021970       ?_Move@?$_Func_impl_no_alloc@V?$_Binder@U_Unforced@std@@A6AXAEBV?$basic_string@_WU?$char_traits@_W@std@@V?$allocator@_W@2@@2@@ZAEAV32@@std@@X_J@std@@EEAAPEAV?$_Func_base@X_J@2@PEAX@Z 0000000180022970 f i IntChecker2-Far3.obj
 0001:000219c0       ?_Copy@?$_Func_impl_no_alloc@V?$_Binder@U_Unforced@std@@A6AXAEBV?$basic_string@_WU?$char_traits@_W@std@@V?$allocator@_W@2@@2@@ZAEAV32@@std@@X_J@std@@EEBAPEAV?$_Func_base@X_J@2@PEAX@Z 00000001800229c0 f i IntChecker2-Far3.obj
 0001:00021a00       ?_Delete_this@?$_Func_impl_no_alloc@V?$_Binder@U_Unforced@std@@A6A_NPEB_W_N1@ZPEB_W_N_N@std@@X_J@std@@EEAAX_N@Z 0000000180022a00 f i IntChecker2-Far3.obj
 0001:00021a10       ?_Target_type@?$_Func_impl_no_alloc@V?$_Binder@U_Unforced@std@@A6A_NPEB_W_N1@ZPEB_W_N_N@std@@X_J@std@@EEBAAEBVtype_info@@XZ 0000000180022a10 f i IntChecker2-Far3.obj
 0001:00021a20       ?_Do_call@?$_Func_impl_no_alloc@V?$_Binder@U_Unforced@std@@A6A_NPEB_W_N1@ZPEB_W_N_N@std@@X_J@std@@EEAAX$$QEA_J@Z 0000000180022a20 f i IntChecker2-Far3.obj
 0001:00021a40       ?_Copy@?$_Func_impl_no_alloc@V?$_Binder@U_Unforced@std@@A6A_NPEB_W_N1@ZPEB_W_N_N@std@@X_J@std@@EEBAPEAV?$_Func_base@X_J@2@PEAX@Z 0000000180022a40 f i IntChecker2-Far3.obj
 0001:00021a40       ?_Move@?$_Func_impl_no_alloc@V?$_Binder@U_Unforced@std@@A6A_NPEB_W_N1@ZPEB_W_N_N@std@@X_J@std@@EEAAPEAV?$_Func_base@X_J@2@PEAX@Z 0000000180022a40 f i IntChecker2-Far3.obj
 0001:00021a70       ?_Delete_this@?$_Func_impl_no_alloc@V?$_Binder@U_Unforced@std@@A6AXXZ$$V@std@@X_J@std@@EEAAX_N@Z 0000000180022a70 f i IntChecker2-Far3.obj
 0001:00021a80       ?_Target_type@?$_Func_impl_no_alloc@V?$_Binder@U_Unforced@std@@A6AXXZ$$V@std@@X_J@std@@EEBAAEBVtype_info@@XZ 0000000180022a80 f i IntChecker2-Far3.obj
 0001:00021a90       ?_Do_call@?$_Func_impl_no_alloc@V?$_Binder@U_Unforced@std@@A6AXXZ$$V@std@@X_J@std@@EEAAX$$QEA_J@Z 0000000180022a90 f i IntChecker2-Far3.obj
 0001:00021aa0       ?_Move@?$_Func_impl_no_alloc@V?$_Binder@U_Unforced@std@@A6AXXZ$$V@std@@X_J@std@@EEAAPEAV?$_Func_base@X_J@2@PEAX@Z 0000000180022aa0 f i IntChecker2-Far3.obj
 0001:00021aa0       ?_Copy@?$_Func_impl_no_alloc@V?$_Binder@U_Unforced@std@@A6AXXZ$$V@std@@X_J@std@@EEBAPEAV?$_Func_base@X_J@2@PEAX@Z 0000000180022aa0 f i IntChecker2-Far3.obj
 0001:00021ac0       ?_Delete_this@?$_Func_impl_no_alloc@V?$_Binder@U_Unforced@std@@A6AXAEAVFar3Panel@@@ZAEAV3@@std@@X_J@std@@EEAAX_N@Z 0000000180022ac0 f i IntChecker2-Far3.obj
 0001:00021ad0       ?_Target_type@?$_Func_impl_no_alloc@V?$_Binder@U_Unforced@std@@A6AXAEAVFar3Panel@@@ZAEAV3@@std@@X_J@std@@EEBAAEBVtype_info@@XZ 0000000180022ad0 f i IntChecker2-Far3.obj
 0001:00021ae0       ?_Copy@?$_Func_impl_no_alloc@V?$_Binder@U_Unforced@std@@A6AXAEAVFar3Panel@@@ZAEAV3@@std@@X_J@std@@EEBAPEAV?$_Func_base@X_J@2@PEAX@Z 0000000180022ae0 f i IntChecker2-Far3.obj
 0001:00021c60       ?_Delete_this@?$_Ref_count_obj2@U_Recursive_dir_enum_impl@filesystem@std@@@std@@EEAAXXZ 0000000180022c60 f i IntChecker2-Far3.obj
 0001:00021c80       ?_Destroy@?$_Ref_count_obj2@U_Recursive_dir_enum_impl@filesystem@std@@@std@@EEAAXXZ 0000000180022c80 f i IntChecker2-Far3.obj
 0001:00021ca0       ??_G?$_Ref_count_obj2@U_Recursive_dir_enum_impl@filesystem@std@@@std@@UEAAPEAXI@Z 0000000180022ca0 f i IntChecker2-Far3.obj
 0001:00021ca0       ??_E?$_Ref_count_obj2@U_Recursive_dir_enum_impl@filesystem@std@@@std@@UEAAPEAXI@Z 0000000180022ca0 f i * CIL library *:* CIL module *
 0001:00021cd0       __local_stdio_printf_options 0000000180022cd0 f i IntChecker2-Far3.obj
 0001:00021ce0       swprintf_s                 0000000180022ce0 f i IntChecker2-Far3.obj
 0001:00021d40       ?make_error_code@std@@YA?AVerror_code@1@W4errc@1@@Z 0000000180022d40 f i IntChecker2-Far3.obj
 0001:00021d60       ?_Throw_system_error@std@@YAXW4errc@1@@Z 0000000180022d60 f i IntChecker2-Far3.obj
 0001:00021da0       ??0system_error@std@@QEAA@Verror_code@1@@Z 0000000180022da0 f i IntChecker2-Far3.obj
 0001:00021e80       ?name@_System_error_category@std@@UEBAPEBDXZ 0000000180022e80 f i IntChecker2-Far3.obj
 0001:00021e90       ??1_System_error_message@std@@QEAA@XZ 0000000180022e90 f i IntChecker2-Far3.obj
 0001:00021ea0       ?message@_System_error_category@std@@UEBA?AV?$basic_string@DU?$char_traits@D@std@@V?$allocator@D@2@@2@H@Z 0000000180022ea0 f i IntChecker2-Far3.obj
 0001:00021f20       ?name@_Generic_error_category@std@@UEBAPEBDXZ 0000000180022f20 f i IntChecker2-Far3.obj
 0001:00021f30       ?message@_Generic_error_category@std@@UEBA?AV?$basic_string@DU?$char_traits@D@std@@V?$allocator@D@2@@2@H@Z 0000000180022f30 f i IntChecker2-Far3.obj
 0001:00021f80       ?default_error_condition@_System_error_category@std@@UEBA?AVerror_condition@2@H@Z 0000000180022f80 f i IntChecker2-Far3.obj
 0001:00021fe0       ?assign@?$basic_string@_WU?$char_traits@_W@std@@V?$allocator@_W@2@@std@@QEAAAEAV12@_K_W@Z 0000000180022fe0 f i IntChecker2-Far3.obj
 0001:00022180       ?CheckEsc@@YA_NXZ          0000000180023180 f   Utils.obj
 0001:00022250       ?GetFileSize_i64@@YA_JPEB_W@Z 0000000180023250 f   Utils.obj
 0001:00022350       ?IsFile@@YA_NAEBV?$basic_string@_WU?$char_traits@_W@std@@V?$allocator@_W@2@@std@@PEA_J@Z 0000000180023350 f   Utils.obj
 0001:00022440       ?CopyTextToClipboard@@YA_NAEAV?$vector@V?$basic_string@_WU?$char_traits@_W@std@@V?$allocator@_W@2@@std@@V?$allocator@V?$basic_string@_WU?$char_traits@_W@std@@V?$allocator@_W@2@@std@@@2@@std@@@Z 0000000180023440 f   Utils.obj
 0001:000226a0       ?ExtractFileName@@YA?AV?$basic_string@_WU?$char_traits@_W@std@@V?$allocator@_W@2@@std@@AEBV12@@Z 00000001800236a0 f   Utils.obj
 0001:00022860       ?ExtractFileExt@@YA?AV?$basic_string@_WU?$char_traits@_W@std@@V?$allocator@_W@2@@std@@AEBV12@@Z 0000000180023860 f   Utils.obj
 0001:00022a90       ?FormatString@@YA?AV?$basic_string@_WU?$char_traits@_W@std@@V?$allocator@_W@2@@std@@V12@ZZ 0000000180023a90 f   Utils.obj
 0001:00022be0       ?ConvertToUnicode@@YA?AV?$basic_string@_WU?$char_traits@_W@std@@V?$allocator@_W@2@@std@@AEBV?$basic_string@DU?$char_traits@D@std@@V?$allocator@D@2@@2@H@Z 0000000180023be0 f   Utils.obj
 0001:00022cd0       ?PrependLongPrefix@@YA?AV?$basic_string@_WU?$char_traits@_W@std@@V?$allocator@_W@2@@std@@AEBV12@@Z 0000000180023cd0 f   Utils.obj
 0001:00022d50       ??1?$unique_ptr@$$BY0A@_WU?$default_delete@$$BY0A@_W@std@@@std@@QEAA@XZ 0000000180023d50 f i Utils.obj
 0001:00022d60       ??$?6_WU?$char_traits@_W@std@@@std@@YAAEAV?$basic_ostream@_WU?$char_traits@_W@std@@@0@AEAV10@D@Z 0000000180023d60 f i Utils.obj
 0001:000231c0       rhash_init                 00000001800241c0 f   rhash:rhash.obj
 0001:00023280       rhash_final                0000000180024280 f   rhash:rhash.obj
 0001:00023520       rhash_print_bytes          0000000180024520 f   rhash:rhash.obj
 0001:000237c0       rhash_print                00000001800247c0 f   rhash:rhash.obj
 0001:00023950       rhash_byte_to_base64       0000000180024950 f   rhash:hex.obj
 0001:00023a30       rhash_urlencode            0000000180024a30 f   rhash:hex.obj
 0001:00023b70       rhash_sprintI64            0000000180024b70 f   rhash:hex.obj
 0001:00023d00       rhash_swap_copy_str_to_u32 0000000180024d00 f   rhash:byte_order.obj
 0001:00023e10       rhash_swap_copy_str_to_u64 0000000180024e10 f   rhash:byte_order.obj
 0001:00023f20       rhash_sha1_init            0000000180024f20 f   rhash:sha1.obj
 0001:00023f20       rhash_ripemd160_init       0000000180024f20 f   rhash:ripemd-160.obj
 0001:00023f20       rhash_has160_init          0000000180024f20 f   rhash:has160.obj
 0001:00025140       rhash_has160_update        0000000180026140 f   rhash:has160.obj
 0001:00025230       rhash_has160_final         0000000180026230 f   rhash:has160.obj
 0001:00025310       rhash_sha3_224_init        0000000180026310 f   rhash:sha3.obj
 0001:00025340       rhash_sha3_256_init        0000000180026340 f   rhash:sha3.obj
 0001:00025370       rhash_sha3_384_init        0000000180026370 f   rhash:sha3.obj
 0001:000253a0       rhash_sha3_512_init        00000001800263a0 f   rhash:sha3.obj
 0001:00025c90       rhash_sha3_update          0000000180026c90 f   rhash:sha3.obj
 0001:00025d90       rhash_sha3_final           0000000180026d90 f   rhash:sha3.obj
 0001:00025e40       bt_init                    0000000180026e40 f   rhash:torrent.obj
 0001:00025ed0       bt_cleanup                 0000000180026ed0 f   rhash:torrent.obj
 0001:000260e0       bt_update                  00000001800270e0 f   rhash:torrent.obj
 0001:000261b0       bt_final                   00000001800271b0 f   rhash:torrent.obj
 0001:00027000       rhash_sha512_init          0000000180028000 f   rhash:sha512.obj
 0001:00027050       rhash_sha384_init          0000000180028050 f   rhash:sha512.obj
 0001:00028b70       rhash_sha512_update        0000000180029b70 f   rhash:sha512.obj
 0001:00028ca0       rhash_sha512_final         0000000180029ca0 f   rhash:sha512.obj
 0001:00028d90       rhash_gost12_256_init      0000000180029d90 f   rhash:gost12.obj
 0001:00028de0       rhash_gost12_512_init      0000000180029de0 f   rhash:gost12.obj
 0001:00029560       rhash_gost12_update        000000018002a560 f   rhash:gost12.obj
 0001:00029730       rhash_gost12_final         000000018002a730 f   rhash:gost12.obj
 0001:00029880       rhash_ed2k_init            000000018002a880 f   rhash:ed2k.obj
 0001:000298d0       rhash_ed2k_update          000000018002a8d0 f   rhash:ed2k.obj
 0001:00029b70       rhash_ed2k_final           000000018002ab70 f   rhash:ed2k.obj
 0001:00029cd0       rhash_whirlpool_init       000000018002acd0 f   rhash:whirlpool.obj
 0001:0002a7a0       rhash_whirlpool_update     000000018002b7a0 f   rhash:whirlpool.obj
 0001:0002a890       rhash_whirlpool_final      000000018002b890 f   rhash:whirlpool.obj
 0001:0002a950       rhash_blake2b_init         000000018002b950 f   rhash:blake2b.obj
 0001:0002d7f0       rhash_blake2b_update       000000018002e7f0 f   rhash:blake2b.obj
 0001:0002d930       rhash_blake2b_final        000000018002e930 f   rhash:blake2b.obj
 0001:0002d9d0       rhash_md4_init             000000018002e9d0 f   rhash:md4.obj
 0001:0002e130       rhash_md4_update           000000018002f130 f   rhash:md4.obj
 0001:0002e210       rhash_md4_final            000000018002f210 f   rhash:md4.obj
 0001:0002e2f0       rhash_edonr256_init        000000018002f2f0 f   rhash:edonr.obj
 0001:0002e340       rhash_edonr512_init        000000018002f340 f   rhash:edonr.obj
 0001:00032d10       rhash_edonr256_update      0000000180033d10 f   rhash:edonr.obj
 0001:00032de0       rhash_edonr256_final       0000000180033de0 f   rhash:edonr.obj
 0001:00032f00       rhash_edonr512_update      0000000180033f00 f   rhash:edonr.obj
 0001:00032fe0       rhash_edonr512_final       0000000180033fe0 f   rhash:edonr.obj
 0001:000350d0       rhash_ripemd160_update     00000001800360d0 f   rhash:ripemd-160.obj
 0001:000351c0       rhash_ripemd160_final      00000001800361c0 f   rhash:ripemd-160.obj
 0001:000352a0       rhash_sha256_init          00000001800362a0 f   rhash:sha256.obj
 0001:000352d0       rhash_sha224_init          00000001800362d0 f   rhash:sha256.obj
 0001:00036960       rhash_sha256_update        0000000180037960 f   rhash:sha256.obj
 0001:00036a50       rhash_sha256_final         0000000180037a50 f   rhash:sha256.obj
 0001:00036b50       rhash_tiger_init           0000000180037b50 f   rhash:tiger.obj
 0001:00037be0       rhash_tiger_update         0000000180038be0 f   rhash:tiger.obj
 0001:00037cc0       rhash_tiger_final          0000000180038cc0 f   rhash:tiger.obj
 0001:00037d90       rhash_blake2s_init         0000000180038d90 f   rhash:blake2s.obj
 0001:00039e30       rhash_blake2s_update       000000018003ae30 f   rhash:blake2s.obj
 0001:00039f40       rhash_blake2s_final        000000018003af40 f   rhash:blake2s.obj
 0001:00039fd0       rhash_aich_init            000000018003afd0 f   rhash:aich.obj
 0001:0003a020       rhash_aich_cleanup         000000018003b020 f   rhash:aich.obj
 0001:0003a510       rhash_aich_update          000000018003b510 f   rhash:aich.obj
 0001:0003a600       rhash_aich_final           000000018003b600 f   rhash:aich.obj
 0001:0003aac0       rhash_sha1_update          000000018003bac0 f   rhash:sha1.obj
 0001:0003abb0       rhash_sha1_final           000000018003bbb0 f   rhash:sha1.obj
 0001:0003ac80       rhash_gost94_init          000000018003bc80 f   rhash:gost94.obj
 0001:0003aca0       rhash_gost94_cryptopro_init 000000018003bca0 f   rhash:gost94.obj
 0001:0003bfe0       rhash_gost94_update        000000018003cfe0 f   rhash:gost94.obj
 0001:0003c0b0       rhash_gost94_final         000000018003d0b0 f   rhash:gost94.obj
 0001:0003c270       rhash_tth_init             000000018003d270 f   rhash:tth.obj
 0001:0003c450       rhash_tth_update           000000018003d450 f   rhash:tth.obj
 0001:0003c510       rhash_tth_final            000000018003d510 f   rhash:tth.obj
 0001:0003c730       rhash_md5_init             000000018003d730 f   rhash:md5.obj
 0001:0003d1b0       rhash_md5_update           000000018003e1b0 f   rhash:md5.obj
 0001:0003d2a0       rhash_md5_final            000000018003e2a0 f   rhash:md5.obj
 0001:0003d380       rhash_snefru128_init       000000018003e380 f   rhash:snefru.obj
 0001:0003d3b0       rhash_snefru256_init       000000018003e3b0 f   rhash:snefru.obj
 0001:0003d820       rhash_snefru_update        000000018003e820 f   rhash:snefru.obj
 0001:0003d900       rhash_snefru_final         000000018003e900 f   rhash:snefru.obj
 0001:0003d9c8       ??0bad_alloc@std@@QEAA@XZ  000000018003e9c8 f i libcpmt:xthrow.obj
 0001:0003d9e8       ??0bad_function_call@std@@QEAA@AEBV01@@Z 000000018003e9e8 f i libcpmt:xthrow.obj
 0001:0003da24       ??0bad_function_call@std@@QEAA@XZ 000000018003ea24 f i libcpmt:xthrow.obj
 0001:0003da3c       ??0length_error@std@@QEAA@AEBV01@@Z 000000018003ea3c f i libcpmt:xthrow.obj
 0001:0003da78       ??0length_error@std@@QEAA@PEBD@Z 000000018003ea78 f i libcpmt:xthrow.obj
 0001:0003dac0       ??0logic_error@std@@QEAA@AEBV01@@Z 000000018003eac0 f i libcpmt:xthrow.obj
 0001:0003dafc       ??0out_of_range@std@@QEAA@AEBV01@@Z 000000018003eafc f i libcpmt:xthrow.obj
 0001:0003db38       ??0out_of_range@std@@QEAA@PEBD@Z 000000018003eb38 f i libcpmt:xthrow.obj
 0001:0003db80       ??0regex_error@std@@QEAA@AEBV01@@Z 000000018003eb80 f i libcpmt:xthrow.obj
 0001:0003dbcc       ??0regex_error@std@@QEAA@W4error_type@regex_constants@1@@Z 000000018003ebcc f i libcpmt:xthrow.obj
 0001:0003dc30       ??0runtime_error@std@@QEAA@PEBD@Z 000000018003ec30 f i libcpmt:xthrow.obj
 0001:0003dc78       ??_Eregex_error@std@@UEAAPEAXI@Z 000000018003ec78 f i libcpmt:xthrow.obj
 0001:0003dc78       ??_Gregex_error@std@@UEAAPEAXI@Z 000000018003ec78 f i libcpmt:xthrow.obj
 0001:0003dcbc       ?_Stringify@regex_error@std@@CAPEBDW4error_type@regex_constants@2@@Z 000000018003ecbc f i libcpmt:xthrow.obj
 0001:0003dd88       ?__scrt_throw_std_bad_alloc@@YAXXZ 000000018003ed88 f   LIBCMT:throw_bad_alloc.obj
 0001:0003dd88       ?_Xbad_alloc@std@@YAXXZ    000000018003ed88 f   libcpmt:xthrow.obj
 0001:0003dda8       ?_Xbad_function_call@std@@YAXXZ 000000018003eda8 f   libcpmt:xthrow.obj
 0001:0003ddc8       ?_Xlength_error@std@@YAXPEBD@Z 000000018003edc8 f   libcpmt:xthrow.obj
 0001:0003ddec       ?_Xout_of_range@std@@YAXPEBD@Z 000000018003edec f   libcpmt:xthrow.obj
 0001:0003de10       ?_Xregex_error@std@@YAXW4error_type@regex_constants@1@@Z 000000018003ee10 f   libcpmt:xthrow.obj
 0001:0003de34       ?_Xruntime_error@std@@YAXPEBD@Z 000000018003ee34 f   libcpmt:xthrow.obj
 0001:0003de58       ?what@bad_function_call@std@@UEBAPEBDXZ 000000018003ee58 f i libcpmt:xthrow.obj
 0001:0003de60       ?_Random_device@std@@YAIXZ 000000018003ee60 f   libcpmt:xrngdev.obj
 0001:0003de88       _Query_perf_counter        000000018003ee88 f   libcpmt:xtime.obj
 0001:0003dea4       _Query_perf_frequency      000000018003eea4 f   libcpmt:xtime.obj
 0001:0003ded0       _Xtime_get_ticks           000000018003eed0 f   libcpmt:xtime.obj
 0001:0003df00       ?_Ios_base_dtor@ios_base@std@@CAXPEAV12@@Z 000000018003ef00 f   libcpmt:ios.obj
 0001:0003df78       ?_Tidy@ios_base@std@@AEAAXXZ 000000018003ef78 f i libcpmt:ios.obj
 0001:0003dff8       ??0_Locimp@locale@std@@AEAA@_N@Z 000000018003eff8 f i libcpmt:locale0.obj
 0001:0003e080       ??4?$_Yarn@D@std@@QEAAAEAV01@PEBD@Z 000000018003f080 f i libcpmt:locale0.obj
 0001:0003e0f8       ??_G_Locimp@locale@std@@MEAAPEAXI@Z 000000018003f0f8 f i libcpmt:locale0.obj
 0001:0003e0f8       ??_E_Locimp@locale@std@@MEAAPEAXI@Z 000000018003f0f8 f i libcpmt:locale0.obj
 0001:0003e154       ?_Facet_Register@std@@YAXPEAV_Facet_base@1@@Z 000000018003f154 f   libcpmt:locale0.obj
 0001:0003e18c       ?_Getgloballocale@locale@std@@CAPEAV_Locimp@12@XZ 000000018003f18c f   libcpmt:locale0.obj
 0001:0003e194       ?_Init@locale@std@@CAPEAV_Locimp@12@_N@Z 000000018003f194 f   libcpmt:locale0.obj
 0001:0003e28c       ?_Locimp_dtor@_Locimp@locale@std@@CAXPEAV123@@Z 000000018003f28c f   libcpmt:locale0.obj
 0001:0003e308       ?_Locinfo_ctor@_Locinfo@std@@SAXPEAV12@PEBD@Z 000000018003f308 f   libcpmt:locale0.obj
 0001:0003e374       ?_Locinfo_dtor@_Locinfo@std@@SAXPEAV12@@Z 000000018003f374 f   libcpmt:locale0.obj
 0001:0003e390       ?_New_Locimp@_Locimp@locale@std@@CAPEAV123@_N@Z 000000018003f390 f   libcpmt:locale0.obj
 0001:0003e3c0       ?_Setgloballocale@locale@std@@CAXPEAX@Z 000000018003f3c0 f   libcpmt:locale0.obj
 0001:0003e3f4       _Deletegloballocale        000000018003f3f4 f   libcpmt:locale0.obj
 0001:0003e464       ??0_Init_locks@std@@QEAA@XZ 000000018003f464 f   libcpmt:xlock.obj
 0001:0003e4a8       ??0_Lockit@std@@QEAA@H@Z   000000018003f4a8 f   libcpmt:xlock.obj
 0001:0003e4e4       ??1_Init_locks@std@@QEAA@XZ 000000018003f4e4 f   libcpmt:xlock.obj
 0001:0003e520       ??1_Lockit@std@@QEAA@XZ    000000018003f520 f   libcpmt:xlock.obj
 0001:0003e554       _Getctype                  000000018003f554 f   libcpmt:_tolower.obj
 0001:0003e614       _Tolower                   000000018003f614 f   libcpmt:_tolower.obj
 0001:0003e744       _Toupper                   000000018003f744 f   libcpmt:_toupper.obj
 0001:0003e884       ?_Syserror_map@std@@YAPEBDH@Z 000000018003f884 f   libcpmt:syserror.obj
 0001:0003e8ac       ?_Winerror_map@std@@YAHH@Z 000000018003f8ac f   libcpmt:syserror.obj
 0001:0003e8d0       _Mbrtowc                   000000018003f8d0 f   libcpmt:xmbtowc.obj
 0001:0003ea6c       _Getcvt                    000000018003fa6c f   libcpmt:xwctomb.obj
 0001:0003eb04       _Wcrtomb                   000000018003fb04 f   libcpmt:xwctomb.obj
 0001:0003eb80       _Towupper                  000000018003fb80 f   libcpmt:xtowupper.obj
 0001:0003ebf8       _Towlower                  000000018003fbf8 f   libcpmt:xtowlower.obj
 0001:0003ec6c       _Getwctype                 000000018003fc6c f   libcpmt:xgetwctype.obj
 0001:0003ec9c       _Getwctypes                000000018003fc9c f   libcpmt:xgetwctype.obj
 0001:0003eccc       _Strxfrm                   000000018003fccc f   libcpmt:xstrxfrm.obj
 0001:0003edcc       _Getcoll                   000000018003fdcc f   libcpmt:xstrcoll.obj
 0001:0003ee00       _Strcoll                   000000018003fe00 f   libcpmt:xstrcoll.obj
 0001:0003eed0       ?uncaught_exception@std@@YA_NXZ 000000018003fed0 f   libcpmt:uncaught_exception.obj
 0001:0003eed8       __std_system_error_allocate_message 000000018003fed8 f   libcpmt:syserror_import_lib.obj
 0001:0003ef38       __std_system_error_deallocate_message 000000018003ff38 f   libcpmt:syserror_import_lib.obj
 0001:0003ef40       __std_fs_code_page         000000018003ff40 f   libcpmt:filesystem.obj
 0001:0003ef68       __std_fs_convert_wide_to_narrow_replace_chars 000000018003ff68 f   libcpmt:filesystem.obj
 0001:0003f034       __std_fs_directory_iterator_advance 0000000180040034 f   libcpmt:filesystem.obj
 0001:0003f054       __std_fs_directory_iterator_close 0000000180040054 f   libcpmt:filesystem.obj
 0001:0003f074       __std_fs_directory_iterator_open 0000000180040074 f   libcpmt:filesystem.obj
 0001:0003f11c       __std_fs_get_stats         000000018004011c f   libcpmt:filesystem.obj
 0001:0003f3b8       __std_fs_open_handle       00000001800403b8 f   libcpmt:filesystem.obj
 0001:0003f7c8       __crtGetSystemTimePreciseAsFileTime 00000001800407c8 f   libcpmt:winapisupp.obj
 0001:0003f7e4       ?_Atexit@@YAXP6AXXZ@Z      00000001800407e4 f   libcpmt:iosptrs.obj
 0001:0003f820       _Mtxdst                    0000000180040820 f   libcpmt:xmtx.obj
 0001:0003f828       _Mtxinit                   0000000180040828 f   libcpmt:xmtx.obj
 0001:0003f838       _Mtxlock                   0000000180040838 f   libcpmt:xmtx.obj
 0001:0003f840       _Mtxunlock                 0000000180040840 f   libcpmt:xmtx.obj
 0001:0003f848       __crtLCMapStringA          0000000180040848 f   libcpmt:StlLCMapStringA.obj
 0001:0003fb48       __crtLCMapStringW          0000000180040b48 f   libcpmt:StlLCMapStringW.obj
 0001:0003fbd0       __crtCompareStringA        0000000180040bd0 f   libcpmt:StlCompareStringA.obj
 0001:0003ff60       __security_check_cookie    0000000180040f60 f   LIBCMT:amdsecgs.obj
 0001:0003ff80       ??3@YAXPEAX_K@Z            0000000180040f80 f   LIBCMT:delete_scalar_size.obj
 0001:0003ff80       ??_V@YAXPEAX@Z             0000000180040f80 f   LIBCMT:delete_array.obj
 0001:0003ff88       ??_Etype_info@@UEAAPEAXI@Z 0000000180040f88 f i LIBCMT:std_type_info_static.obj
 0001:0003ff88       ??_Gtype_info@@UEAAPEAXI@Z 0000000180040f88 f i LIBCMT:std_type_info_static.obj
 0001:0003ffb4       ??2@YAPEAX_K@Z             0000000180040fb4 f   LIBCMT:new_scalar.obj
 0001:0003fff0       __scrt_acquire_startup_lock 0000000180040ff0 f   LIBCMT:utility.obj
 0001:0004002c       __scrt_dllmain_after_initialize_c 000000018004102c f   LIBCMT:utility.obj
 0001:00040060       __scrt_dllmain_before_initialize_c 0000000180041060 f   LIBCMT:utility.obj
 0001:00040078       __scrt_dllmain_crt_thread_attach 0000000180041078 f   LIBCMT:utility.obj
 0001:000400a0       __scrt_dllmain_crt_thread_detach 00000001800410a0 f   LIBCMT:utility.obj
 0001:000400b8       __scrt_dllmain_exception_filter 00000001800410b8 f   LIBCMT:utility.obj
 0001:00040118       __scrt_dllmain_uninitialize_c 0000000180041118 f   LIBCMT:utility.obj
 0001:00040148       __scrt_dllmain_uninitialize_critical 0000000180041148 f   LIBCMT:utility.obj
 0001:0004015c       __scrt_initialize_crt      000000018004115c f   LIBCMT:utility.obj
 0001:000401a8       __scrt_initialize_onexit_tables 00000001800411a8 f   LIBCMT:utility.obj
 0001:00040234       __scrt_is_nonwritable_in_current_image 0000000180041234 f   LIBCMT:utility.obj
 0001:000402cc       __scrt_release_startup_lock 00000001800412cc f   LIBCMT:utility.obj
 0001:000402f0       __scrt_uninitialize_crt    00000001800412f0 f   LIBCMT:utility.obj
 0001:0004031c       _onexit                    000000018004131c f   LIBCMT:utility.obj
 0001:00040358       atexit                     0000000180041358 f   LIBCMT:utility.obj
 0001:00040370       ??_M@YAXPEAX_K1P6AX0@Z@Z   0000000180041370 f   LIBCMT:ehvecdtr.obj
 0001:000403dc       ?__ArrayUnwind@@YAXPEAX_K1P6AX0@Z@Z 00000001800413dc f   LIBCMT:ehvecdtr.obj
 0001:00040440       ??_U@YAPEAX_K@Z            0000000180041440 f   LIBCMT:new_array.obj
 0001:00040768       _DllMainCRTStartup         0000000180041768 f   LIBCMT:dll_dllmain.obj
 0001:000407a8       __GSHandlerCheck           00000001800417a8 f   LIBCMT:gshandler.obj
 0001:000407c8       __GSHandlerCheckCommon     00000001800417c8 f   LIBCMT:gshandler.obj
 0001:00040824       __GSHandlerCheck_EH4       0000000180041824 f   LIBCMT:gshandlereh4.obj
 0001:000408c0       _alloca_probe              00000001800418c0 f   LIBCMT:chkstk.obj
 0001:000408c0       __chkstk                   00000001800418c0 f   LIBCMT:chkstk.obj
 0001:00040910       __raise_securityfailure    0000000180041910 f   LIBCMT:gs_report.obj
 0001:00040944       __report_gsfailure         0000000180041944 f   LIBCMT:gs_report.obj
 0001:00040a18       __report_rangecheckfailure 0000000180041a18 f   LIBCMT:gs_report.obj
 0001:00040a2c       __report_securityfailure   0000000180041a2c f   LIBCMT:gs_report.obj
 0001:00040bac       ??3@YAXPEAX@Z              0000000180041bac f   LIBCMT:delete_scalar.obj
 0001:00040bb4       __isa_available_init       0000000180041bb4 f   LIBCMT:cpu_disp.obj
 0001:00040d58       __scrt_is_ucrt_dll_in_use  0000000180041d58 f   LIBCMT:ucrt_detection.obj
 0001:00040d64       __crt_debugger_hook        0000000180041d64 f   LIBCMT:utility_desktop.obj
 0001:00040d6c       __scrt_fastfail            0000000180041d6c f   LIBCMT:utility_desktop.obj
 0001:00040eb8       __security_init_cookie     0000000180041eb8 f   LIBCMT:gs_support.obj
 0001:00040f64       ?__scrt_initialize_type_info@@YAXXZ 0000000180041f64 f   LIBCMT:tncleanup.obj
 0001:00040f74       ?__scrt_uninitialize_type_info@@YAXXZ 0000000180041f74 f   LIBCMT:tncleanup.obj
 0001:00040f80       __local_stdio_scanf_options 0000000180041f80 f i LIBCMT:default_local_stdio_options.obj
 0001:00040f88       __scrt_initialize_default_local_stdio_options 0000000180041f88 f   LIBCMT:default_local_stdio_options.obj
 0001:00040fa4       __scrt_get_dyn_tls_init_callback 0000000180041fa4 f   LIBCMT:dyn_tls_init.obj
 0001:00040fac       _RTC_Initialize            0000000180041fac f   LIBCMT:initsect.obj
 0001:00040fe8       _RTC_Terminate             0000000180041fe8 f   LIBCMT:initsect.obj
 0001:00041030       ??$_CallSETranslator@V__FrameHandler3@@@@YAHPEAUEHExceptionRecord@@PEA_KPEAU_CONTEXT@@PEAU_xDISPATCHER_CONTEXT@@PEBU_s_FuncInfo@@K1H@Z 0000000180042030 f i libvcruntime:risctrnsctrl.obj
 0001:00041084       ??$_CallSETranslator@V__FrameHandler4@@@@YAHPEAUEHExceptionRecord@@PEA_KPEAU_CONTEXT@@PEAU_xDISPATCHER_CONTEXT@@PEAUFuncInfo4@FH4@@K1H@Z 0000000180042084 f i libvcruntime:risctrnsctrl.obj
 0001:000410d8       ?CatchTryBlock@__FrameHandler3@@SAPEBU_s_TryBlockMapEntry@@PEBU_s_FuncInfo@@H@Z 00000001800420d8 f   libvcruntime:risctrnsctrl.obj
 0001:0004112c       ?DecompFuncInfo@FH4@@YA_JPEAEAEAUFuncInfo4@1@_KH_N@Z 000000018004212c f i libvcruntime:risctrnsctrl.obj
 0001:00041250       ?ExecutionInCatch@__FrameHandler3@@SA_NPEAU_xDISPATCHER_CONTEXT@@PEBU_s_FuncInfo@@@Z 0000000180042250 f   libvcruntime:risctrnsctrl.obj
 0001:0004127c       ?ExecutionInCatch@__FrameHandler4@@SA_NPEAU_xDISPATCHER_CONTEXT@@PEAUFuncInfo4@FH4@@@Z 000000018004227c f   libvcruntime:risctrnsctrl.obj
 0001:00041284       ?FrameUnwindToEmptyState@__FrameHandler3@@SAXPEA_KPEAU_xDISPATCHER_CONTEXT@@PEBU_s_FuncInfo@@@Z 0000000180042284 f   libvcruntime:risctrnsctrl.obj
 0001:000412e8       ?FrameUnwindToEmptyState@__FrameHandler4@@SAXPEA_KPEAU_xDISPATCHER_CONTEXT@@PEAUFuncInfo4@FH4@@@Z 00000001800422e8 f   libvcruntime:risctrnsctrl.obj
 0001:0004131c       ?GetEstablisherFrame@__FrameHandler3@@SAPEA_KPEA_KPEAU_xDISPATCHER_CONTEXT@@PEBU_s_FuncInfo@@0@Z 000000018004231c f   libvcruntime:risctrnsctrl.obj
 0001:000413e8       ?GetEstablisherFrame@__FrameHandler4@@SAPEA_KPEA_KPEAU_xDISPATCHER_CONTEXT@@PEAUFuncInfo4@FH4@@0@Z 00000001800423e8 f   libvcruntime:risctrnsctrl.obj
 0001:0004140c       ?GetRangeOfTrysToCheck@__FrameHandler3@@SA?AU?$pair@Viterator@TryBlockMap@__FrameHandler3@@V123@@std@@AEAVTryBlockMap@1@HPEAU_xDISPATCHER_CONTEXT@@PEBU_s_FuncInfo@@H@Z 000000018004240c f   libvcruntime:risctrnsctrl.obj
 0001:0004154c       ?GetRangeOfTrysToCheck@__FrameHandler4@@SA?AU?$pair@Viterator@TryBlockMap4@FH4@@V123@@std@@AEAVTryBlockMap4@FH4@@HPEAU_xDISPATCHER_CONTEXT@@PEAUFuncInfo4@5@H@Z 000000018004254c f   libvcruntime:risctrnsctrl.obj
 0001:000416b4       ?UnwindNestedFrames@__FrameHandler3@@SAXPEA_KPEAUEHExceptionRecord@@PEAU_CONTEXT@@0PEAXPEBU_s_FuncInfo@@HHPEBU_s_HandlerType@@PEAU_xDISPATCHER_CONTEXT@@E@Z 00000001800426b4 f   libvcruntime:risctrnsctrl.obj
 0001:000417b8       ?UnwindNestedFrames@__FrameHandler4@@SAXPEA_KPEAUEHExceptionRecord@@PEAU_CONTEXT@@0PEAXPEAUFuncInfo4@FH4@@HHPEAUHandlerType4@5@PEAU_xDISPATCHER_CONTEXT@@E@Z 00000001800427b8 f   libvcruntime:risctrnsctrl.obj
 0001:000418d8       ?setBuffer@TryBlockMap4@FH4@@QEAAXViterator@12@@Z 00000001800428d8 f i libvcruntime:risctrnsctrl.obj
 0001:00041a98       _CreateFrameInfo           0000000180042a98 f   libvcruntime:risctrnsctrl.obj
 0001:00041ad4       _FindAndUnlinkFrame        0000000180042ad4 f   libvcruntime:risctrnsctrl.obj
 0001:00041b28       _GetImageBase              0000000180042b28 f   libvcruntime:risctrnsctrl.obj
 0001:00041b3c       _GetThrowImageBase         0000000180042b3c f   libvcruntime:risctrnsctrl.obj
 0001:00041b50       _SetImageBase              0000000180042b50 f   libvcruntime:risctrnsctrl.obj
 0001:00041b68       _SetThrowImageBase         0000000180042b68 f   libvcruntime:risctrnsctrl.obj
 0001:00041b80       __CxxFrameHandler3         0000000180042b80 f   libvcruntime:risctrnsctrl.obj
 0001:00041c08       __CxxFrameHandler4         0000000180042c08 f   libvcruntime:risctrnsctrl.obj
 0001:00041cc8       __DestructExceptionObject  0000000180042cc8 f   libvcruntime:ehhelpers.obj
 0001:00041d38       ?_CallMemberFunction0@@YAXQEAX0@Z 0000000180042d38 f i libvcruntime:ehhelpers.obj
 0001:00041d3c       _IsExceptionObjectToBeDestroyed 0000000180042d3c f   libvcruntime:ehhelpers.obj
 0001:00041d6c       __AdjustPointer            0000000180042d6c f   libvcruntime:ehhelpers.obj
 0001:00041d90       __FrameUnwindFilter        0000000180042d90 f   libvcruntime:ehhelpers.obj
 0001:00041df8       __current_exception        0000000180042df8 f   libvcruntime:ehhelpers.obj
 0001:00041e0c       __current_exception_context 0000000180042e0c f   libvcruntime:ehhelpers.obj
 0001:00041e20       __std_terminate            0000000180042e20 f   libvcruntime:ehhelpers.obj
 0001:00041e2c       __std_exception_copy       0000000180042e2c f   libvcruntime:std_exception.obj
 0001:00041ebc       __std_exception_destroy    0000000180042ebc f   libvcruntime:std_exception.obj
 0001:00041ee4       _get_purecall_handler      0000000180042ee4 f   libvcruntime:purevirt.obj
 0001:00041ef0       _purecall                  0000000180042ef0 f   libvcruntime:purevirt.obj
 0001:00041f0c       wcsrchr                    0000000180042f0c f   libvcruntime:wcsrchr.obj
 0001:00041fbc       strchr                     0000000180042fbc f   libvcruntime:strchr.obj
 0001:0004203c       _CxxThrowException         000000018004303c f   libvcruntime:throw.obj
 0001:000420f0       memcpy_repmovs             00000001800430f0 f   libvcruntime:memcpy.obj
 0001:00042110       memmove                    0000000180043110 f   libvcruntime:memcpy.obj
 0001:00042110       memcpy                     0000000180043110 f   libvcruntime:memcpy.obj
 0001:000427a0       memcmp                     00000001800437a0 f   libvcruntime:memcmp.obj
 0001:00042868       __uncaught_exception       0000000180043868 f   libvcruntime:uncaught_exception.obj
 0001:000428a0       memchr                     00000001800438a0 f   libvcruntime:memchr.obj
 0001:00042920       memset_repmovs             0000000180043920 f   libvcruntime:memset.obj
 0001:00042940       memset                     0000000180043940 f   libvcruntime:memset.obj
 0001:00042ad0       __vcrt_initialize          0000000180043ad0 f   libvcruntime:initialization.obj
 0001:00042af8       __vcrt_thread_attach       0000000180043af8 f   libvcruntime:initialization.obj
 0001:00042b0c       __vcrt_thread_detach       0000000180043b0c f   libvcruntime:initialization.obj
 0001:00042b20       __vcrt_uninitialize        0000000180043b20 f   libvcruntime:initialization.obj
 0001:00042b3c       __vcrt_uninitialize_critical 0000000180043b3c f   libvcruntime:initialization.obj
 0001:00042b4c       __C_specific_handler       0000000180043b4c f   libvcruntime:riscchandler.obj
 0001:00042d58       __std_type_info_compare    0000000180043d58 f   libvcruntime:std_type_info.obj
 0001:00042d80       __std_type_info_destroy_list 0000000180043d80 f   libvcruntime:std_type_info.obj
 0001:00042dac       __vcrt_freefls             0000000180043dac f   libvcruntime:per_thread_data.obj
 0001:00042dcc       __vcrt_freeptd             0000000180043dcc f   libvcruntime:per_thread_data.obj
 0001:00042e1c       __vcrt_getptd              0000000180043e1c f   libvcruntime:per_thread_data.obj
 0001:00042e38       __vcrt_getptd_noexit       0000000180043e38 f   libvcruntime:per_thread_data.obj
 0001:00042ef8       __vcrt_getptd_noinit       0000000180043ef8 f   libvcruntime:per_thread_data.obj
 0001:00042f48       __vcrt_initialize_ptd      0000000180043f48 f   libvcruntime:per_thread_data.obj
 0001:00042f90       __vcrt_uninitialize_ptd    0000000180043f90 f   libvcruntime:per_thread_data.obj
 0001:00042fb4       ?GetCurrentState@__FrameHandler3@@SAHPEA_KPEAU_xDISPATCHER_CONTEXT@@PEBU_s_FuncInfo@@@Z 0000000180043fb4 f   libvcruntime:ehstate.obj
 0001:00042fdc       ?GetUnwindTryBlock@__FrameHandler3@@SAHPEA_KPEAU_xDISPATCHER_CONTEXT@@PEBU_s_FuncInfo@@@Z 0000000180043fdc f   libvcruntime:ehstate.obj
 0001:00043008       ?SetState@__FrameHandler3@@SAXPEA_KPEBU_s_FuncInfo@@H@Z 0000000180044008 f   libvcruntime:ehstate.obj
 0001:00043014       ?SetUnwindTryBlock@__FrameHandler3@@SAXPEA_KPEAU_xDISPATCHER_CONTEXT@@PEBU_s_FuncInfo@@H@Z 0000000180044014 f   libvcruntime:ehstate.obj
 0001:00043050       ?StateFromControlPc@__FrameHandler3@@SAHPEBU_s_FuncInfo@@PEAU_xDISPATCHER_CONTEXT@@@Z 0000000180044050 f   libvcruntime:ehstate.obj
 0001:00043058       ?StateFromControlPc@__FrameHandler4@@SAHPEAUFuncInfo4@FH4@@PEAU_xDISPATCHER_CONTEXT@@@Z 0000000180044058 f   libvcruntime:ehstate.obj
 0001:00043060       ?StateFromIp@__FrameHandler3@@SAHPEBU_s_FuncInfo@@PEAU_xDISPATCHER_CONTEXT@@_K@Z 0000000180044060 f   libvcruntime:ehstate.obj
 0001:000430c8       ?StateFromIp@__FrameHandler4@@SAHPEAUFuncInfo4@FH4@@PEAU_xDISPATCHER_CONTEXT@@_K@Z 00000001800440c8 f   libvcruntime:ehstate.obj
 0001:000447ac       ??$TypeMatchHelper@V__FrameHandler3@@@@YAHPEBU_s_HandlerType@@PEBU_s_CatchableType@@PEBU_s_ThrowInfo@@@Z 00000001800457ac f i libvcruntime:frame.obj
 0001:000448ec       ??$TypeMatchHelper@V__FrameHandler4@@@@YAHPEAUHandlerType4@FH4@@PEBU_s_CatchableType@@PEBU_s_ThrowInfo@@@Z 00000001800458ec f i libvcruntime:frame.obj
 0001:00044a30       ??$__InternalCxxFrameHandler@V__FrameHandler3@@@@YA?AW4_EXCEPTION_DISPOSITION@@PEAUEHExceptionRecord@@PEA_KPEAU_CONTEXT@@PEAU_xDISPATCHER_CONTEXT@@PEBU_s_FuncInfo@@H1E@Z 0000000180045a30 f i libvcruntime:frame.obj
 0001:00044c68       ??$__InternalCxxFrameHandler@V__FrameHandler4@@@@YA?AW4_EXCEPTION_DISPOSITION@@PEAUEHExceptionRecord@@PEA_KPEAU_CONTEXT@@PEAU_xDISPATCHER_CONTEXT@@PEAUFuncInfo4@FH4@@H1E@Z 0000000180045c68 f i libvcruntime:frame.obj
 0001:00044efc       ??0HandlerMap4@FH4@@QEAA@PEBUTryBlockMapEntry4@1@_KH@Z 0000000180045efc f i libvcruntime:frame.obj
 0001:00044f78       ??0TryBlockMap4@FH4@@QEAA@PEBUFuncInfo4@1@_K@Z 0000000180045f78 f i libvcruntime:frame.obj
 0001:00045050       ??0bad_exception@std@@QEAA@AEBV01@@Z 0000000180046050 f i libvcruntime:frame.obj
 0001:0004508c       ??0bad_exception@std@@QEAA@XZ 000000018004608c f i libvcruntime:frame.obj
 0001:000450ac       ?CxxCallCatchBlock@__FrameHandler3@@SAPEAXPEAU_EXCEPTION_RECORD@@@Z 00000001800460ac f   libvcruntime:frame.obj
 0001:00045298       ?CxxCallCatchBlock@__FrameHandler4@@SAPEAXPEAU_EXCEPTION_RECORD@@@Z 0000000180046298 f   libvcruntime:frame.obj
 0001:000454e8       ?DecompHandler@HandlerMap4@FH4@@AEAAXXZ 00000001800464e8 f i libvcruntime:frame.obj
 0001:00045728       ?FrameUnwindToState@__FrameHandler3@@SAXPEA_KPEAU_xDISPATCHER_CONTEXT@@PEBU_s_FuncInfo@@H@Z 0000000180046728 f   libvcruntime:frame.obj
 0001:000458b4       ?FrameUnwindToState@__FrameHandler4@@SAXPEA_KPEAU_xDISPATCHER_CONTEXT@@PEAUFuncInfo4@FH4@@H@Z 00000001800468b4 f   libvcruntime:frame.obj
 0001:00045b9c       ?GetHandlerSearchState@__FrameHandler3@@SAHPEA_KPEAU_xDISPATCHER_CONTEXT@@PEBU_s_FuncInfo@@@Z 0000000180046b9c f i libvcruntime:frame.obj
 0001:00045dac       ?ReadEntry@UWMap4@FH4@@AEAAXPEAPEAE@Z 0000000180046dac f i libvcruntime:frame.obj
 0001:00045e4c       ?_CallMemberFunction1@@YAXQEAX00@Z 0000000180046e4c f i libvcruntime:frame.obj
 0001:00045e58       ?_CallMemberFunction2@@YAXQEAX00H@Z 0000000180046e58 f i libvcruntime:frame.obj
 0001:00045e68       ?getStartStop@UWMap4@FH4@@QEAAXHHAEAViterator@12@0@Z 0000000180046e68 f i libvcruntime:frame.obj
 0001:00045f38       ?getStateFromIterators@UWMap4@FH4@@SAHAEBViterator@12@H0H0@Z 0000000180046f38 f i libvcruntime:frame.obj
 0001:00046000       __vcrt_initialize_locks    0000000180047000 f   libvcruntime:locks.obj
 0001:00046034       __vcrt_uninitialize_locks  0000000180047034 f   libvcruntime:locks.obj
 0001:00046080       _NLG_Notify                0000000180047080 f   libvcruntime:notify.obj
 0001:000460a0       __NLG_Dispatch2            00000001800470a0 f   libvcruntime:notify.obj
 0001:000460b0       __NLG_Return2              00000001800470b0 f   libvcruntime:notify.obj
 0001:000460b4       __except_validate_context_record 00000001800470b4 f   libvcruntime:jbcxrval.obj
 0001:0004623c       __vcrt_FlsAlloc            000000018004723c f   libvcruntime:winapi_downlevel.obj
 0001:00046284       __vcrt_FlsFree             0000000180047284 f   libvcruntime:winapi_downlevel.obj
 0001:000462cc       __vcrt_FlsGetValue         00000001800472cc f   libvcruntime:winapi_downlevel.obj
 0001:00046314       __vcrt_FlsSetValue         0000000180047314 f   libvcruntime:winapi_downlevel.obj
 0001:00046368       __vcrt_InitializeCriticalSectionEx 0000000180047368 f   libvcruntime:winapi_downlevel.obj
 0001:000463e0       _CallSettingFrame          00000001800473e0 f   libvcruntime:handlers.obj
 0001:00046430       _CallSettingFrame_LookupContinuationIndex 0000000180047430 f   libvcruntime:handlers.obj
 0001:00046460       _CallSettingFrame_NotifyContinuationAddr 0000000180047460 f   libvcruntime:handlers.obj
 0001:00046490       _CallSettingFrameEncoded   0000000180047490 f   libvcruntime:handlers.obj
 0001:000464d8       ??0_LocaleUpdate@@QEAA@QEAU__crt_locale_pointers@@@Z 00000001800474d8 f i libucrt:wcsicmp.obj
 0001:00046574       __ascii_wcsicmp            0000000180047574 f   libucrt:wcsicmp.obj
 0001:000465b4       _wcsicmp                   00000001800475b4 f   libucrt:wcsicmp.obj
 0001:000465fc       _wcsicmp_l                 00000001800475fc f   libucrt:wcsicmp.obj
 0001:00046724       ?get_raw_ptd@__crt_cached_ptd_host@@QEAAPEAU__acrt_ptd@@XZ 0000000180047724 f i libucrt:invalid_parameter.obj
 0001:0004678c       ?get_raw_ptd_noexit@__crt_cached_ptd_host@@QEAAPEAU__acrt_ptd@@XZ 000000018004778c f i libucrt:invalid_parameter.obj
 0001:000467f8       ?value@?$dual_state_global@P6AXPEB_W00I_K@Z@__crt_state_management@@QEAAAEAP6AXPEB_W00I_K@ZAEAV__crt_cached_ptd_host@@@Z 00000001800477f8 f i libucrt:invalid_parameter.obj
 0001:00046844       __acrt_call_reportfault    0000000180047844 f   libucrt:invalid_parameter.obj
 0001:000469a0       __acrt_initialize_invalid_parameter_handler 00000001800479a0 f   libucrt:invalid_parameter.obj
 0001:000469a8       _invalid_parameter         00000001800479a8 f   libucrt:invalid_parameter.obj
 0001:00046a44       _invalid_parameter_internal 0000000180047a44 f   libucrt:invalid_parameter.obj
 0001:00046b14       _invalid_parameter_noinfo  0000000180047b14 f   libucrt:invalid_parameter.obj
 0001:00046b34       _invalid_parameter_noinfo_noreturn 0000000180047b34 f   libucrt:invalid_parameter.obj
 0001:00046b64       _invoke_watson             0000000180047b64 f   libucrt:invalid_parameter.obj
 0001:00046bb0       islower                    0000000180047bb0 f   libucrt:_ctype.obj
 0001:00046c60       isspace                    0000000180047c60 f   libucrt:_ctype.obj
 0001:00046d10       isupper                    0000000180047d10 f   libucrt:_ctype.obj
 0001:00046dc0       isxdigit                   0000000180047dc0 f   libucrt:_ctype.obj
 0001:00046f38       _wfopen_s                  0000000180047f38 f   libucrt:fopen.obj
 0001:0004705c       ?validate_stream_is_ansi_if_required@?$__acrt_stdio_char_traits@D@@SA_NQEAU_iobuf@@@Z 000000018004805c f i libucrt:fgets.obj
 0001:000470f8       fgets                      00000001800480f8 f   libucrt:fgets.obj
 0001:00047220       fclose                     0000000180048220 f   libucrt:fclose.obj
 0001:000472b8       __ascii_stricmp            00000001800482b8 f   libucrt:stricmp.obj
 0001:000472f4       _stricmp                   00000001800482f4 f   libucrt:stricmp.obj
 0001:0004733c       _stricmp_l                 000000018004833c f   libucrt:stricmp.obj
 0001:000473c4       malloc                     00000001800483c4 f   libucrt:malloc.obj
 0001:000473cc       free                       00000001800483cc f   libucrt:free.obj
 0001:000473e0       realloc                    00000001800483e0 f   libucrt:realloc.obj
 0001:000473e8       _wcsdup                    00000001800483e8 f   libucrt:wcsdup.obj
 0001:0004746c       wcscpy_s                   000000018004846c f   libucrt:wcscpy_s.obj
 0001:0004768c       ??$ensure_buffer_is_big_enough@D@formatting_buffer@__crt_stdio_output@@QEAA_N_KAEAV__crt_cached_ptd_host@@@Z 000000018004868c f i libucrt:output.obj
 0001:00047734       ??$ensure_buffer_is_big_enough@_W@formatting_buffer@__crt_stdio_output@@QEAA_N_KAEAV__crt_cached_ptd_host@@@Z 0000000180048734 f i libucrt:output.obj
 0001:000477e0       ??$is_wide_character_specifier@_W@__crt_stdio_output@@YA_N_K_WW4length_modifier@0@@Z 00000001800487e0 f i libucrt:output.obj
 0001:00047820       ??$parse_integer@KV?$c_string_character_source@_W@__crt_strtox@@$0A@@__crt_strtox@@YAKAEAV__crt_cached_ptd_host@@V?$c_string_character_source@_W@0@H_N@Z 0000000180048820 f i libucrt:output.obj
 0001:00047f78       ??$type_case_integer@$07@?$output_processor@_WV?$string_output_adapter@_W@__crt_stdio_output@@V?$format_validation_base@_WV?$string_output_adapter@_W@__crt_stdio_output@@@2@@__crt_stdio_output@@AEAA_N_N@Z 0000000180048f78 f i libucrt:output.obj
 0001:00048164       ??$type_case_integer@$09@?$output_processor@_WV?$string_output_adapter@_W@__crt_stdio_output@@V?$format_validation_base@_WV?$string_output_adapter@_W@__crt_stdio_output@@@2@@__crt_stdio_output@@AEAA_N_N@Z 0000000180049164 f i libucrt:output.obj
 0001:00048350       ??$type_case_integer@$0BA@@?$output_processor@_WV?$string_output_adapter@_W@__crt_stdio_output@@V?$format_validation_base@_WV?$string_output_adapter@_W@__crt_stdio_output@@@2@@__crt_stdio_output@@AEAA_N_N@Z 0000000180049350 f i libucrt:output.obj
 0001:0004853c       ??$type_case_integer_parse_into_buffer@I$07@?$output_processor@_WV?$string_output_adapter@_W@__crt_stdio_output@@V?$format_validation_base@_WV?$string_output_adapter@_W@__crt_stdio_output@@@2@@__crt_stdio_output@@AEAAXI_N@Z 000000018004953c f i libucrt:output.obj
 0001:000485c4       ??$type_case_integer_parse_into_buffer@I$09@?$output_processor@_WV?$string_output_adapter@_W@__crt_stdio_output@@V?$format_validation_base@_WV?$string_output_adapter@_W@__crt_stdio_output@@@2@@__crt_stdio_output@@AEAAXI_N@Z 00000001800495c4 f i libucrt:output.obj
 0001:0004867c       ??$type_case_integer_parse_into_buffer@I$0BA@@?$output_processor@_WV?$string_output_adapter@_W@__crt_stdio_output@@V?$format_validation_base@_WV?$string_output_adapter@_W@__crt_stdio_output@@@2@@__crt_stdio_output@@AEAAXI_N@Z 000000018004967c f i libucrt:output.obj
 0001:00048720       ??$type_case_integer_parse_into_buffer@_K$07@?$output_processor@_WV?$string_output_adapter@_W@__crt_stdio_output@@V?$format_validation_base@_WV?$string_output_adapter@_W@__crt_stdio_output@@@2@@__crt_stdio_output@@AEAAX_K_N@Z 0000000180049720 f i libucrt:output.obj
 0001:000487a8       ??$type_case_integer_parse_into_buffer@_K$09@?$output_processor@_WV?$string_output_adapter@_W@__crt_stdio_output@@V?$format_validation_base@_WV?$string_output_adapter@_W@__crt_stdio_output@@@2@@__crt_stdio_output@@AEAAX_K_N@Z 00000001800497a8 f i libucrt:output.obj
 0001:00048868       ??$type_case_integer_parse_into_buffer@_K$0BA@@?$output_processor@_WV?$string_output_adapter@_W@__crt_stdio_output@@V?$format_validation_base@_WV?$string_output_adapter@_W@__crt_stdio_output@@@2@@__crt_stdio_output@@AEAAX_K_N@Z 0000000180049868 f i libucrt:output.obj
 0001:0004890c       ?crop_zeroes@__crt_stdio_output@@YAXPEADQEAU__crt_locale_pointers@@@Z 000000018004990c f i libucrt:output.obj
 0001:00048978       ?parse_int_from_format_string@?$output_processor@_WV?$string_output_adapter@_W@__crt_stdio_output@@V?$format_validation_base@_WV?$string_output_adapter@_W@__crt_stdio_output@@@2@@__crt_stdio_output@@AEAA_NQEAH@Z 0000000180049978 f i libucrt:output.obj
 0001:00048a08       ?process@?$output_processor@_WV?$string_output_adapter@_W@__crt_stdio_output@@V?$format_validation_base@_WV?$string_output_adapter@_W@__crt_stdio_output@@@2@@__crt_stdio_output@@QEAAHXZ 0000000180049a08 f i libucrt:output.obj
 0001:00048ce4       ?state_case_size@?$output_processor@_WV?$string_output_adapter@_W@__crt_stdio_output@@V?$format_validation_base@_WV?$string_output_adapter@_W@__crt_stdio_output@@@2@@__crt_stdio_output@@AEAA_NXZ 0000000180049ce4 f i libucrt:output.obj
 0001:00048e90       ?state_case_type@?$output_processor@_WV?$string_output_adapter@_W@__crt_stdio_output@@V?$format_validation_base@_WV?$string_output_adapter@_W@__crt_stdio_output@@@2@@__crt_stdio_output@@AEAA_NXZ 0000000180049e90 f i libucrt:output.obj
 0001:000492ec       ?type_case_Z@?$output_processor@_WV?$string_output_adapter@_W@__crt_stdio_output@@V?$format_validation_base@_WV?$string_output_adapter@_W@__crt_stdio_output@@@2@@__crt_stdio_output@@AEAA_NXZ 000000018004a2ec f i libucrt:output.obj
 0001:00049368       ?type_case_a@?$output_processor@_WV?$string_output_adapter@_W@__crt_stdio_output@@V?$format_validation_base@_WV?$string_output_adapter@_W@__crt_stdio_output@@@2@@__crt_stdio_output@@AEAA_NXZ 000000018004a368 f i libucrt:output.obj
 0001:000495c8       ?type_case_c_tchar@?$output_processor@_WV?$string_output_adapter@_W@__crt_stdio_output@@V?$format_validation_base@_WV?$string_output_adapter@_W@__crt_stdio_output@@@2@@__crt_stdio_output@@AEAA_N_W@Z 000000018004a5c8 f i libucrt:output.obj
 0001:0004968c       ?type_case_n@?$output_processor@_WV?$string_output_adapter@_W@__crt_stdio_output@@V?$format_validation_base@_WV?$string_output_adapter@_W@__crt_stdio_output@@@2@@__crt_stdio_output@@AEAA_NXZ 000000018004a68c f i libucrt:output.obj
 0001:00049740       ?type_case_s@?$output_processor@_WV?$string_output_adapter@_W@__crt_stdio_output@@V?$format_validation_base@_WV?$string_output_adapter@_W@__crt_stdio_output@@@2@@__crt_stdio_output@@AEAA_NXZ 000000018004a740 f i libucrt:output.obj
 0001:000497d8       ?type_case_s_compute_narrow_string_length@?$output_processor@_WV?$string_output_adapter@_W@__crt_stdio_output@@V?$format_validation_base@_WV?$string_output_adapter@_W@__crt_stdio_output@@@2@@__crt_stdio_output@@AEAAHH_W@Z 000000018004a7d8 f i libucrt:output.obj
 0001:00049850       ?update_locale_slow@__crt_cached_ptd_host@@AEAAXXZ 000000018004a850 f i libucrt:output.obj
 0001:000498c8       ?write_string@?$string_output_adapter@_W@__crt_stdio_output@@QEBAXQEB_WHQEAHAEAV__crt_cached_ptd_host@@@Z 000000018004a8c8 f i libucrt:output.obj
 0001:00049970       __stdio_common_vsnwprintf_s 000000018004a970 f   libucrt:output.obj
 0001:00049b4c       __stdio_common_vswprintf_s 000000018004ab4c f   libucrt:output.obj
 0001:00049c60       wcscat_s                   000000018004ac60 f   libucrt:wcscat_s.obj
 0001:00049ce4       iswspace                   000000018004ace4 f i libucrt:_wctype.obj
 0001:00049cf0       _aligned_free              000000018004acf0 f   libucrt:align.obj
 0001:00049d0c       _aligned_malloc            000000018004ad0c f   libucrt:align.obj
 0001:00049d8c       __acrt_errno_from_os_error 000000018004ad8c f   libucrt:errno.obj
 0001:00049dd4       __acrt_errno_map_os_error  000000018004add4 f   libucrt:errno.obj
 0001:00049e1c       __acrt_errno_map_os_error_ptd 000000018004ae1c f   libucrt:errno.obj
 0001:00049e40       __doserrno                 000000018004ae40 f   libucrt:errno.obj
 0001:00049e60       _errno                     000000018004ae60 f   libucrt:errno.obj
 0001:00049e80       _time64                    000000018004ae80 f   libucrt:time.obj
 0001:00049ef0       rand_s                     000000018004aef0 f   libucrt:rand_s.obj
 0001:0004a218       setlocale                  000000018004b218 f   libucrt:setlocale.obj
 0001:0004a264       __acrt_initialize_locks    000000018004b264 f   libucrt:locks.obj
 0001:0004a2ac       __acrt_lock                000000018004b2ac f   libucrt:locks.obj
 0001:0004a2c8       __acrt_uninitialize_locks  000000018004b2c8 f   libucrt:locks.obj
 0001:0004a300       __acrt_unlock              000000018004b300 f   libucrt:locks.obj
 0001:0004a31c       _lock_locales              000000018004b31c f   libucrt:locks.obj
 0001:0004a338       _unlock_locales            000000018004b338 f   libucrt:locks.obj
 0001:0004a348       __pctype_func              000000018004b348 f   libucrt:ctype.obj
 0001:0004a378       ___lc_codepage_func        000000018004b378 f   libucrt:initctype.obj
 0001:0004a3a8       ___lc_collate_cp_func      000000018004b3a8 f   libucrt:initctype.obj
 0001:0004a3d8       ___lc_locale_name_func     000000018004b3d8 f   libucrt:initctype.obj
 0001:0004a40c       ___mb_cur_max_func         000000018004b40c f   libucrt:initctype.obj
 0001:0004a43c       __acrt_locale_initialize_ctype 000000018004b43c f   libucrt:initctype.obj
 0001:0004aaa0       calloc                     000000018004baa0 f   libucrt:calloc.obj
 0001:0004aaa8       terminate                  000000018004baa8 f   libucrt:terminate.obj
 0001:0004aae0       ?divide@__crt_strtox@@YA_KAEAUbig_integer@1@AEBU21@@Z 000000018004bae0 f i libucrt:strtod.obj
 0001:0004b000       pow                        000000018004c000 f   libucrt:pow.obj
 0001:0004c6a0       powf                       000000018004d6a0 f   libucrt:powf.obj
 0001:0004d568       abort                      000000018004e568 f   libucrt:abort.obj
 0001:0004d5c0       __strncnt                  000000018004e5c0 f   libucrt:strncnt.obj
 0001:0004d5d8       wcsnlen                    000000018004e5d8 f   libucrt:strnlen.obj
 0001:0004d7b0       ??$__acrt_convert_wcs_mbs_cp@D_WV<lambda_7c9dea7b4ca7285d2cdb541a38da6275>@@U__crt_win32_buffer_internal_dynamic_resizing@@@@YAHQEBDAEAV?$__crt_win32_buffer@_WU__crt_win32_buffer_internal_dynamic_resizing@@@@AEBV<lambda_7c9dea7b4ca7285d2cdb541a38da6275>@@I@Z 000000018004e7b0 f i libucrt:strftime.obj
 0001:0004d92c       ??$__acrt_convert_wcs_mbs_cp@_WDV<lambda_f788ae46380686e8b737efdd8c720d07>@@U__crt_win32_buffer_no_resizing@@@@YAHQEB_WAEAV?$__crt_win32_buffer@DU__crt_win32_buffer_no_resizing@@@@AEBV<lambda_f788ae46380686e8b737efdd8c720d07>@@I@Z 000000018004e92c f i libucrt:strftime.obj
 0001:0004da48       __acrt_initialize_new_handler 000000018004ea48 f   libucrt:new_handler.obj
 0001:0004da50       _callnewh                  000000018004ea50 f   libucrt:new_handler.obj
 0001:0004da8c       _query_new_handler         000000018004ea8c f   libucrt:new_handler.obj
 0001:0004dac0       _seh_filter_dll            000000018004eac0 f   libucrt:exception_filter.obj
 0001:0004dad4       _seh_filter_exe            000000018004ead4 f   libucrt:exception_filter.obj
 0001:0004def8       __acrt_initialize_thread_local_exit_callback 000000018004eef8 f   libucrt:exit.obj
 0001:0004df00       _cexit                     000000018004ef00 f   libucrt:exit.obj
 0001:0004df10       _exit                      000000018004ef10 f   libucrt:exit.obj
 0001:0004df1c       _is_c_termination_complete 000000018004ef1c f   libucrt:exit.obj
 0001:0004e0e4       __acrt_allocate_buffer_for_argv 000000018004f0e4 f   libucrt:argv_parsing.obj
 0001:0004e144       _configure_narrow_argv     000000018004f144 f   libucrt:argv_parsing.obj
 0001:0004e4cc       __dcrt_uninitialize_environments_nolock 000000018004f4cc f   libucrt:environment_initialization.obj
 0001:0004e510       _initialize_narrow_environment 000000018004f510 f   libucrt:environment_initialization.obj
 0001:0004e860       _crt_atexit                000000018004f860 f   libucrt:onexit.obj
 0001:0004e870       _execute_onexit_table      000000018004f870 f   libucrt:onexit.obj
 0001:0004e8b4       _initialize_onexit_table   000000018004f8b4 f   libucrt:onexit.obj
 0001:0004e8dc       _register_onexit_function  000000018004f8dc f   libucrt:onexit.obj
 0001:0004e95c       __acrt_uninitialize_command_line 000000018004f95c f   libucrt:argv_data.obj
 0001:0004ea54       __acrt_initialize          000000018004fa54 f   libucrt:initialization.obj
 0001:0004ea68       __acrt_thread_attach       000000018004fa68 f   libucrt:initialization.obj
 0001:0004ea7c       __acrt_thread_detach       000000018004fa7c f   libucrt:initialization.obj
 0001:0004ea8c       __acrt_uninitialize        000000018004fa8c f   libucrt:initialization.obj
 0001:0004eac4       __acrt_uninitialize_critical 000000018004fac4 f   libucrt:initialization.obj
 0001:0004ead4       _initterm                  000000018004fad4 f   libucrt:initterm.obj
 0001:0004eb18       _initterm_e                000000018004fb18 f   libucrt:initterm.obj
 0001:0004eb60       strcpy_s                   000000018004fb60 f   libucrt:strcpy_s.obj
 0001:0004ebc0       ??$parse_integer@KV?$c_string_character_source@_W@__crt_strtox@@$00@__crt_strtox@@YAKAEAV__crt_cached_ptd_host@@V?$c_string_character_source@_W@0@H_N@Z 000000018004fbc0 f i libucrt:atox.obj
 0001:0004f348       _wtol                      0000000180050348 f   libucrt:atox.obj
 0001:0004f410       strncmp                    0000000180050410 f   libucrt:strncmp.obj
 0001:0004f490       wcsncmp                    0000000180050490 f   libucrt:wcsncmp.obj
 0001:0004f4bc       _towlower_l                00000001800504bc f   libucrt:towlower.obj
 0001:0004f92c       __acrt_freeptd             000000018005092c f   libucrt:per_thread_data.obj
 0001:0004f970       __acrt_getptd              0000000180050970 f   libucrt:per_thread_data.obj
 0001:0004fa44       __acrt_getptd_head         0000000180050a44 f   libucrt:per_thread_data.obj
 0001:0004fae8       __acrt_getptd_noexit       0000000180050ae8 f   libucrt:per_thread_data.obj
 0001:0004fbb0       __acrt_getptd_noexit_explicit 0000000180050bb0 f   libucrt:per_thread_data.obj
 0001:0004fc70       __acrt_initialize_ptd      0000000180050c70 f   libucrt:per_thread_data.obj
 0001:0004fcac       __acrt_uninitialize_ptd    0000000180050cac f   libucrt:per_thread_data.obj
 0001:0004fcd0       __acrt_update_locale_info  0000000180050cd0 f   libucrt:locale_update.obj
 0001:0004fd04       __acrt_update_locale_info_explicit 0000000180050d04 f   libucrt:locale_update.obj
 0001:0004fd3c       __acrt_update_multibyte_info 0000000180050d3c f   libucrt:locale_update.obj
 0001:0004fd70       __acrt_update_multibyte_info_explicit 0000000180050d70 f   libucrt:locale_update.obj
 0001:00050010       ?commit_locale_name@_expandlocale_locale_name_cache@@QEAAXQEB_W_K@Z 0000000180051010 f i libucrt:wsetlocale.obj
 0001:00050088       __acrt_copy_locale_name    0000000180051088 f   libucrt:wsetlocale.obj
 0001:0005010c       __acrt_set_locale_changed  000000018005110c f   libucrt:wsetlocale.obj
 0001:00050118       __acrt_uninitialize_locale 0000000180051118 f   libucrt:wsetlocale.obj
 0001:00050148       __lc_lctowcs               0000000180051148 f   libucrt:wsetlocale.obj
 0001:000501ec       __lc_wcstolc               00000001800511ec f   libucrt:wsetlocale.obj
 0001:00050894       _wcscats                   0000000180051894 f   libucrt:wsetlocale.obj
 0001:000508fc       _wsetlocale                00000001800518fc f   libucrt:wsetlocale.obj
 0001:00051638       _isctype_l                 0000000180052638 f   libucrt:isctype.obj
 0001:00051740       __acrt_initialize_stdio    0000000180052740 f   libucrt:_file.obj
 0001:00051860       __acrt_uninitialize_stdio  0000000180052860 f   libucrt:_file.obj
 0001:000518bc       _lock_file                 00000001800528bc f   libucrt:_file.obj
 0001:000518c8       _unlock_file               00000001800528c8 f   libucrt:_file.obj
 0001:000518d4       ?__acrt_stdio_allocate_stream@@YA?AV__crt_stdio_stream@@XZ 00000001800528d4 f   libucrt:stream.obj
 0001:0005192c       ?__acrt_stdio_free_stream@@YAXV__crt_stdio_stream@@@Z 000000018005292c f   libucrt:stream.obj
 0001:00051a34       ??$__acrt_stdio_parse_mode@_W@@YA?AU__acrt_stdio_stream_mode@@QEB_W@Z 0000000180052a34 f i libucrt:openfile.obj
 0001:00051d38       _wopenfile                 0000000180052d38 f   libucrt:openfile.obj
 0001:00051dd4       _fileno                    0000000180052dd4 f   libucrt:fileno.obj
 0001:00051dfc       _fgetc_nolock              0000000180052dfc f   libucrt:fgetc.obj
 0001:00051e40       _getc_nolock               0000000180052e40 f   libucrt:fgetc.obj
 0001:00052040       __acrt_initialize_lowio    0000000180053040 f   libucrt:ioinit.obj
 0001:0005207c       __acrt_uninitialize_lowio  000000018005307c f   libucrt:ioinit.obj
 0001:000520bc       _free_base                 00000001800530bc f   libucrt:free_base.obj
 0001:00052170       _close_internal            0000000180053170 f   libucrt:close.obj
 0001:00052234       _close_nolock              0000000180053234 f   libucrt:close.obj
 0001:000522cc       _close_nolock_internal     00000001800532cc f   libucrt:close.obj
 0001:0005239c       __acrt_stdio_free_buffer_nolock 000000018005339c f   libucrt:_freebuf.obj
 0001:000525b8       __acrt_stdio_flush_nolock  00000001800535b8 f   libucrt:fflush.obj
 0001:00052644       _fflush_nolock             0000000180053644 f   libucrt:fflush.obj
 0001:00052718       _flushall                  0000000180053718 f   libucrt:fflush.obj
 0001:00052720       _malloc_base               0000000180053720 f   libucrt:malloc_base.obj
 0001:00052780       _realloc_base              0000000180053780 f   libucrt:realloc_base.obj
 0001:0005332c       __acrt_fp_format           000000018005432c f   libucrt:cvt.obj
 0001:00053614       _mbtowc_internal           0000000180054614 f   libucrt:mbtowc.obj
 0001:0005378c       _get_printf_count_output   000000018005478c f   libucrt:printf_count_output.obj
 0001:000537a4       iswctype                   00000001800547a4 f   libucrt:iswctype.obj
 0001:00053810       _msize_base                0000000180054810 f   libucrt:msize.obj
 0001:00053cf8       _read                      0000000180054cf8 f   libucrt:read.obj
 0001:00053e14       _read_nolock               0000000180054e14 f   libucrt:read.obj
 0001:00054260       __acrt_stdio_refill_and_read_narrow_nolock 0000000180055260 f   libucrt:_filbuf.obj
 0001:0005463c       __acrt_AppPolicyGetProcessTerminationMethodInternal 000000018005563c f   libucrt:winapi_thunks.obj
 0001:00054694       __acrt_AreFileApisANSI     0000000180055694 f   libucrt:winapi_thunks.obj
 0001:000546d8       __acrt_EnumSystemLocalesEx 00000001800556d8 f   libucrt:winapi_thunks.obj
 0001:00054778       __acrt_FlsAlloc            0000000180055778 f   libucrt:winapi_thunks.obj
 0001:00054780       __acrt_FlsFree             0000000180055780 f   libucrt:winapi_thunks.obj
 0001:00054788       __acrt_FlsGetValue         0000000180055788 f   libucrt:winapi_thunks.obj
 0001:00054790       __acrt_FlsSetValue         0000000180055790 f   libucrt:winapi_thunks.obj
 0001:00054798       __acrt_GetLocaleInfoEx     0000000180055798 f   libucrt:winapi_thunks.obj
 0001:00054828       __acrt_GetUserDefaultLocaleName 0000000180055828 f   libucrt:winapi_thunks.obj
 0001:00054894       __acrt_InitializeCriticalSectionEx 0000000180055894 f   libucrt:winapi_thunks.obj
 0001:00054904       __acrt_IsValidLocaleName   0000000180055904 f   libucrt:winapi_thunks.obj
 0001:00054968       __acrt_LCIDToLocaleName    0000000180055968 f   libucrt:winapi_thunks.obj
 0001:000549ec       __acrt_LCMapStringEx       00000001800559ec f   libucrt:winapi_thunks.obj
 0001:00054ad8       __acrt_LocaleNameToLCID    0000000180055ad8 f   libucrt:winapi_thunks.obj
 0001:00054b38       __acrt_RtlGenRandom        0000000180055b38 f   libucrt:winapi_thunks.obj
 0001:00054b94       __acrt_can_use_vista_locale_apis 0000000180055b94 f   libucrt:winapi_thunks.obj
 0001:00054bc4       __acrt_eagerly_load_locale_apis 0000000180055bc4 f   libucrt:winapi_thunks.obj
 0001:00054d20       __acrt_initialize_winapi_thunks 0000000180055d20 f   libucrt:winapi_thunks.obj
 0001:00054d44       __acrt_uninitialize_winapi_thunks 0000000180055d44 f   libucrt:winapi_thunks.obj
 0001:00054d88       _calloc_base               0000000180055d88 f   libucrt:calloc_base.obj
 0001:00055120       mbstowcs_s                 0000000180056120 f   libucrt:mbstowcs.obj
 0001:00055628       _wcstombs_s_l              0000000180056628 f   libucrt:wcstombs.obj
 0001:00055864       __acrt_GetLocaleInfoA      0000000180056864 f   libucrt:getlocaleinfoa.obj
 0001:00055a2c       __acrt_GetStringTypeA      0000000180056a2c f   libucrt:getstringtypea.obj
 0001:00055ee8       __acrt_LCMapStringA        0000000180056ee8 f   libucrt:lcmapstringa.obj
 0001:00055f80       _raise_exc                 0000000180056f80 f   libucrt:fpexcept.obj
 0001:00055fa8       _raise_exc_ex              0000000180056fa8 f   libucrt:fpexcept.obj
 0001:000562b8       _raise_excf                00000001800572b8 f   libucrt:fpexcept.obj
 0001:000562e4       _set_errno_from_matherr    00000001800572e4 f   libucrt:fpexcept.obj
 0001:00056314       _clrfp                     0000000180057314 f   libucrt:fpctrl.obj
 0001:00056334       _ctrlfp                    0000000180057334 f   libucrt:fpctrl.obj
 0001:000563b0       _set_statfp                00000001800573b0 f   libucrt:fpctrl.obj
 0001:000563d0       _statfp                    00000001800573d0 f   libucrt:fpctrl.obj
 0001:000563e4       fegetround                 00000001800573e4 f   libucrt:fegetround.obj
 0001:00056400       __acrt_initialize_fma3     0000000180057400 f   libucrt:fma3_available.obj
 0001:00056470       _pow_special               0000000180057470 f   libucrt:pow_special.obj
 0001:00056594       _powf_special              0000000180057594 f   libucrt:pow_special.obj
 0001:00056738       __acrt_get_sigabrt_handler 0000000180057738 f   libucrt:signal.obj
 0001:00056768       __acrt_initialize_signal_handlers 0000000180057768 f   libucrt:signal.obj
 0001:00056788       raise                      0000000180057788 f   libucrt:signal.obj
 0001:00056a08       __acrt_MultiByteToWideChar 0000000180057a08 f   libucrt:multibytetowidechar.obj
 0001:00056a64       __acrt_WideCharToMultiByte 0000000180057a64 f   libucrt:widechartomultibyte.obj
 0001:00056b14       __acrt_initialize_timeset  0000000180057b14 f   libucrt:timeset.obj
 0001:00056b64       __acrt_get_process_end_policy 0000000180057b64 f   libucrt:win_policies.obj
 0001:00056bb4       ??$__acrt_convert_wcs_mbs_cp@_WDV<lambda_d8593a27d1aa8c02be35c86a17d324c4>@@U__crt_win32_buffer_internal_dynamic_resizing@@@@YAHQEB_WAEAV?$__crt_win32_buffer@DU__crt_win32_buffer_internal_dynamic_resizing@@@@AEBV<lambda_d8593a27d1aa8c02be35c86a17d324c4>@@I@Z 0000000180057bb4 f i libucrt:argv_wildcards.obj
 0001:0005745c       __acrt_expand_narrow_argv_wildcards 000000018005845c f   libucrt:argv_wildcards.obj
 0001:00057464       __acrt_GetModuleFileNameA  0000000180058464 f   libucrt:getmodulefilenamea.obj
 0001:00057d80       __acrt_initialize_multibyte 0000000180058d80 f   libucrt:mbctype.obj
 0001:00057de0       __acrt_update_thread_multibyte_data 0000000180058de0 f   libucrt:mbctype.obj
 0001:00057dfc       _setmbcp_nolock            0000000180058dfc f   libucrt:mbctype.obj
 0001:00058130       _ismbblead                 0000000180059130 f   libucrt:ismbbyte.obj
 0001:00058144       __acrt_initialize_command_line 0000000180059144 f   libucrt:argv_data.obj
 0001:0005816c       __dcrt_get_narrow_environment_from_os 000000018005916c f   libucrt:get_environment_from_os.obj
 0001:0005827c       _recalloc_base             000000018005927c f   libucrt:recalloc.obj
 0001:00058314       __acrt_initialize_heap     0000000180059314 f   libucrt:heap_handle.obj
 0001:00058330       __acrt_uninitialize_heap   0000000180059330 f   libucrt:heap_handle.obj
 0001:0005833c       __acrt_execute_initializers 000000018005933c f   libucrt:shared_initialization.obj
 0001:000583d0       __acrt_execute_uninitializers 00000001800593d0 f   libucrt:shared_initialization.obj
 0001:00058418       __acrt_has_user_matherr    0000000180059418 f   libucrt:matherr.obj
 0001:00058438       __acrt_initialize_user_matherr 0000000180059438 f   libucrt:matherr.obj
 0001:00058440       __acrt_invoke_user_matherr 0000000180059440 f   libucrt:matherr.obj
 0001:00058478       __acrt_LCMapStringW        0000000180059478 f   libucrt:lcmapstringw.obj
 0001:00058500       __acrt_add_locale_ref      0000000180059500 f   libucrt:locale_refcounting.obj
 0001:0005858c       __acrt_free_locale         000000018005958c f   libucrt:locale_refcounting.obj
 0001:00058704       __acrt_locale_add_lc_time_reference 0000000180059704 f   libucrt:locale_refcounting.obj
 0001:0005872c       __acrt_locale_free_lc_time_if_unreferenced 000000018005972c f   libucrt:locale_refcounting.obj
 0001:00058764       __acrt_locale_release_lc_time_reference 0000000180059764 f   libucrt:locale_refcounting.obj
 0001:0005878c       __acrt_release_locale_ref  000000018005978c f   libucrt:locale_refcounting.obj
 0001:00058834       __acrt_update_thread_locale_data 0000000180059834 f   libucrt:locale_refcounting.obj
 0001:000588a4       _updatetlocinfoEx_nolock   00000001800598a4 f   libucrt:locale_refcounting.obj
 0001:0005890c       __acrt_locale_free_monetary 000000018005990c f   libucrt:initmon.obj
 0001:00058a18       __acrt_locale_initialize_monetary 0000000180059a18 f   libucrt:initmon.obj
 0001:00058f4c       __acrt_locale_free_numeric 0000000180059f4c f   libucrt:initnum.obj
 0001:00058fb8       __acrt_locale_initialize_numeric 0000000180059fb8 f   libucrt:initnum.obj
 0001:00059610       __acrt_locale_free_time    000000018005a610 f   libucrt:inittime.obj
 0001:00059718       __acrt_locale_initialize_time 000000018005a718 f   libucrt:inittime.obj
 0001:000597b4       wcsncat_s                  000000018005a7b4 f   libucrt:wcsncat_s.obj
 0001:000598b8       wcsncpy_s                  000000018005a8b8 f   libucrt:wcsncpy_s.obj
 0001:000599b4       wcscspn                    000000018005a9b4 f   libucrt:wcscspn.obj
 0001:000599f4       wcspbrk                    000000018005a9f4 f   libucrt:wcspbrk.obj
 0001:0005a1dc       __acrt_get_qualified_locale 000000018005b1dc f   libucrt:get_qualified_locale.obj
 0001:0005ac10       __acrt_get_qualified_locale_downlevel 000000018005bc10 f   libucrt:getqloc_downlevel.obj
 0001:0005ae90       _fcloseall                 000000018005be90 f   libucrt:closeall.obj
 0001:0005af44       __ascii_wcsnicmp           000000018005bf44 f   libucrt:wcsnicmp.obj
 0001:0005af90       _wcsnicmp                  000000018005bf90 f   libucrt:wcsnicmp.obj
 0001:0005afd8       _wcsnicmp_l                000000018005bfd8 f   libucrt:wcsnicmp.obj
 0001:0005b734       _wsopen_nolock             000000018005c734 f   libucrt:open.obj
 0001:0005bb24       _wsopen_s                  000000018005cb24 f   libucrt:open.obj
 0001:0005bb58       __acrt_lowio_create_handle_array 000000018005cb58 f   libucrt:osfinfo.obj
 0001:0005bc00       __acrt_lowio_destroy_handle_array 000000018005cc00 f   libucrt:osfinfo.obj
 0001:0005bc50       __acrt_lowio_ensure_fh_exists 000000018005cc50 f   libucrt:osfinfo.obj
 0001:0005bcf8       __acrt_lowio_lock_fh       000000018005ccf8 f   libucrt:osfinfo.obj
 0001:0005bd20       __acrt_lowio_set_os_handle 000000018005cd20 f   libucrt:osfinfo.obj
 0001:0005bde0       __acrt_lowio_unlock_fh     000000018005cde0 f   libucrt:osfinfo.obj
 0001:0005be08       _alloc_osfhnd              000000018005ce08 f   libucrt:osfinfo.obj
 0001:0005bf48       _free_osfhnd               000000018005cf48 f   libucrt:osfinfo.obj
 0001:0005c004       _get_osfhandle             000000018005d004 f   libucrt:osfinfo.obj
 0001:0005c108       _commit                    000000018005d108 f   libucrt:commit.obj
 0001:0005c9b8       _write                     000000018005d9b8 f   libucrt:write.obj
 0001:0005ca50       _write_internal            000000018005da50 f   libucrt:write.obj
 0001:0005cb78       _write_nolock              000000018005db78 f   libucrt:write.obj
 0001:0005ce88       _query_new_mode            000000018005de88 f   libucrt:new_mode.obj
 0001:0005ce90       __acrt_fp_strflt_to_string 000000018005de90 f   libucrt:_fptostr.obj
 0001:0005d014       __acrt_fltout              000000018005e014 f   libucrt:cfout.obj
 0001:0005e254       ?__c32rtomb_utf8@__crt_mbstring@@YA_KPEAD_UPEAU_Mbstatet@@AEAV__crt_cached_ptd_host@@@Z 000000018005f254 f   libucrt:c32rtomb.obj
 0001:0005e2f8       ?__mbrtowc_utf8@__crt_mbstring@@YA_KPEA_WPEBD_KPEAU_Mbstatet@@AEAV__crt_cached_ptd_host@@@Z 000000018005f2f8 f   libucrt:mbrtowc.obj
 0001:0005e33c       ?__mbsrtowcs_utf8@__crt_mbstring@@YA_KPEA_WPEAPEBD_KPEAU_Mbstatet@@AEAV__crt_cached_ptd_host@@@Z 000000018005f33c f   libucrt:mbrtowc.obj
 0001:0005e4e0       _isatty                    000000018005f4e0 f   libucrt:isatty.obj
 0001:0005e540       __acrt_GetStringTypeW      000000018005f540 f   libucrt:getstringtypew.obj
 0001:0005e5f4       _lseeki64_nolock           000000018005f5f4 f   libucrt:lseek.obj
 0001:0005e690       _lseeki64_nolock_internal  000000018005f690 f   libucrt:lseek.obj
 0001:0005e698       __acrt_stdio_allocate_buffer_nolock 000000018005f698 f   libucrt:_getbuf.obj
 0001:0005e704       __acrt_DownlevelLCIDToLocaleName 000000018005f704 f   libucrt:lcidtoname_downlevel.obj
 0001:0005e7ec       __acrt_DownlevelLocaleNameToLCID 000000018005f7ec f   libucrt:lcidtoname_downlevel.obj
 0001:0005e894       ?__wcsrtombs_utf8@__crt_mbstring@@YA_KPEADPEAPEB_W_KPEAU_Mbstatet@@AEAV__crt_cached_ptd_host@@@Z 000000018005f894 f   libucrt:wcrtomb.obj
 0001:0005e9e8       strncpy_s                  000000018005f9e8 f   libucrt:strncpy_s.obj
 0001:0005eaf0       _get_fpsr                  000000018005faf0 f   libucrt:fpsr.obj
 0001:0005eb00       _set_fpsr                  000000018005fb00 f   libucrt:fpsr.obj
 0001:0005eb0a       _fclrf                     000000018005fb0a f   libucrt:fpsr.obj
 0001:0005eb1e       _frnd                      000000018005fb1e f   libucrt:fpsr.obj
 0001:0005eb40       __acrt_fenv_get_common_round_control 000000018005fb40 f   libucrt:_fenvutils.obj
 0001:0005eb4c       __acrt_fenv_get_control    000000018005fb4c f   libucrt:_fenvutils.obj
 0001:0005ec30       __acrt_fenv_get_status     000000018005fc30 f   libucrt:_fenvutils.obj
 0001:0005ec88       __acrt_fenv_set_control    000000018005fc88 f   libucrt:_fenvutils.obj
 0001:0005edc4       __acrt_fenv_set_status     000000018005fdc4 f   libucrt:_fenvutils.obj
 0001:0005ef5c       _handle_error              000000018005ff5c f   libucrt:libm_error.obj
 0001:0005f084       _handle_errorf             0000000180060084 f   libucrt:libm_error.obj
 0001:0005f1b8       _handle_nan                00000001800601b8 f   libucrt:libm_error.obj
 0001:0005f1d4       _handle_nanf               00000001800601d4 f   libucrt:libm_error.obj
 0001:0005f1f0       qsort                      00000001800601f0 f   libucrt:qsort.obj
 0001:0005f6a0       strpbrk                    00000001800606a0 f   libucrt:strpbrk.obj
 0001:0005fa68       _mbsdec                    0000000180060a68 f   libucrt:mbsdec.obj
 0001:0005fa70       _mbsdec_l                  0000000180060a70 f   libucrt:mbsdec.obj
 0001:0005fc5c       _itow_s                    0000000180060c5c f   libucrt:xtoa.obj
 0001:0005fc7c       wcscmp                     0000000180060c7c f   libucrt:wcscmp.obj
 0001:0005fcb4       _get_fmode                 0000000180060cb4 f   libucrt:setmode.obj
 0001:0005fce4       _setmode_nolock            0000000180060ce4 f   libucrt:setmode.obj
 0001:0005fdc4       _chsize_nolock             0000000180060dc4 f   libucrt:chsize.obj
 0001:0005fe5c       _chsize_nolock_internal    0000000180060e5c f   libucrt:chsize.obj
 0001:0005fff0       _query_app_type            0000000180060ff0 f   libucrt:report_runtime_error.obj
 0001:0005fff8       _putwch_nolock             0000000180060ff8 f   libucrt:putwch.obj
 0001:00060034       _controlfp_s               0000000180061034 f   libucrt:contrlfp.obj
 0001:00060098       fegetenv                   0000000180061098 f   libucrt:fegetenv.obj
 0001:000600b8       fesetenv                   00000001800610b8 f   libucrt:fesetenv.obj
 0001:00060104       feholdexcept               0000000180061104 f   libucrt:feholdexcept.obj
 0001:00060154       ceil                       0000000180061154 f   libucrt:ceil.obj
 0001:00060220       log10                      0000000180061220 f   libucrt:log10.obj
 0001:000607cc       ?reset_and_return@__crt_mbstring@@YA_K_KPEAU_Mbstatet@@@Z 00000001800617cc f   libucrt:common_utf8.obj
 0001:000607d4       ?return_illegal_sequence@__crt_mbstring@@YA_KPEAU_Mbstatet@@AEAV__crt_cached_ptd_host@@@Z 00000001800617d4 f   libucrt:common_utf8.obj
 0001:000607e8       ?__mbrtoc32_utf8@__crt_mbstring@@YA_KPEA_UPEBD_KPEAU_Mbstatet@@AEAV__crt_cached_ptd_host@@@Z 00000001800617e8 f   libucrt:mbrtoc32.obj
 0001:000609c4       ?__c16rtomb_utf8@__crt_mbstring@@YA_KPEAD_SPEAU_Mbstatet@@AEAV__crt_cached_ptd_host@@@Z 00000001800619c4 f   libucrt:c16rtomb.obj
 0001:00060a68       __acrt_initialize_fmode    0000000180061a68 f   libucrt:txtmode.obj
 0001:00060a84       __dcrt_lowio_ensure_console_output_initialized 0000000180061a84 f   libucrt:initcon.obj
 0001:00060ad8       __dcrt_terminate_console_output 0000000180061ad8 f   libucrt:initcon.obj
 0001:00060af4       __dcrt_write_console       0000000180061af4 f   libucrt:initcon.obj
 0001:00060bb4       _clearfp                   0000000180061bb4 f   libucrt:ieee.obj
 0001:00060c24       _control87                 0000000180061c24 f   libucrt:ieee.obj
 0001:00060ef0       _log10_special             0000000180061ef0 f   libucrt:log_special.obj
 0001:00060fb0       _FindPESection             0000000180061fb0 f   LIBCMT:pesect.obj
 0001:00061000       _IsNonwritableInCurrentImage 0000000180062000 f   LIBCMT:pesect.obj
 0001:00061050       _ValidateImageBase         0000000180062050 f   LIBCMT:pesect.obj
 0001:00061080       __GSHandlerCheck_SEH       0000000180062080 f   LIBCMT:gshandlerseh.obj
 0001:00061108       __GSHandlerCheck_EH        0000000180062108 f   LIBCMT:gshandlereh.obj
 0001:00061188       __C_specific_handler_noexcept 0000000180062188 f   libvcruntime:chandler_noexcept.obj
 0001:000611d4       strrchr                    00000001800621d4 f   libvcruntime:strrchr.obj
 0001:00061300       wcschr                     0000000180062300 f   libvcruntime:wcschr.obj
 0001:00061390       _guard_dispatch_icall_nop  0000000180062390 f   LIBCMT:guard_dispatch.obj
 0001:000613b0       _guard_xfg_dispatch_icall_nop 00000001800623b0 f   LIBCMT:guard_xfg_dispatch.obj
 0002:00000000       __imp_CloseHandle          0000000180065000     kernel32:KERNEL32.dll
 0002:00000008       __imp_WideCharToMultiByte  0000000180065008     kernel32:KERNEL32.dll
 0002:00000010       __imp_ReadFile             0000000180065010     kernel32:KERNEL32.dll
 0002:00000018       __imp_lstrcpynW            0000000180065018     kernel32:KERNEL32.dll
 0002:00000020       __imp_lstrlenW             0000000180065020     kernel32:KERNEL32.dll
 0002:00000028       __imp_FindFirstFileW       0000000180065028     kernel32:KERNEL32.dll
 0002:00000030       __imp_FindClose            0000000180065030     kernel32:KERNEL32.dll
 0002:00000038       __imp_CreateFileW          0000000180065038     kernel32:KERNEL32.dll
 0002:00000040       __imp_GetStdHandle         0000000180065040     kernel32:KERNEL32.dll
 0002:00000048       __imp_PeekConsoleInputW    0000000180065048     kernel32:KERNEL32.dll
 0002:00000050       __imp_ReadConsoleInputW    0000000180065050     kernel32:KERNEL32.dll
 0002:00000058       __imp_GetFileSizeEx        0000000180065058     kernel32:KERNEL32.dll
 0002:00000060       __imp_FindNextFileW        0000000180065060     kernel32:KERNEL32.dll
 0002:00000068       __imp_GetConsoleWindow     0000000180065068     kernel32:KERNEL32.dll
 0002:00000070       __imp_GlobalAlloc          0000000180065070     kernel32:KERNEL32.dll
 0002:00000078       __imp_GlobalLock           0000000180065078     kernel32:KERNEL32.dll
 0002:00000080       __imp_GlobalUnlock         0000000180065080     kernel32:KERNEL32.dll
 0002:00000088       __imp_FlushFileBuffers     0000000180065088     kernel32:KERNEL32.dll
 0002:00000090       __imp_SetStdHandle         0000000180065090     kernel32:KERNEL32.dll
 0002:00000098       __imp_GetProcessHeap       0000000180065098     kernel32:KERNEL32.dll
 0002:000000a0       __imp_FreeEnvironmentStringsW 00000001800650a0     kernel32:KERNEL32.dll
 0002:000000a8       __imp_GetEnvironmentStringsW 00000001800650a8     kernel32:KERNEL32.dll
 0002:000000b0       __imp_GetCommandLineW      00000001800650b0     kernel32:KERNEL32.dll
 0002:000000b8       __imp_LocalFree            00000001800650b8     kernel32:KERNEL32.dll
 0002:000000c0       __imp_WriteFile            00000001800650c0     kernel32:KERNEL32.dll
 0002:000000c8       __imp_GetNumberOfConsoleInputEvents 00000001800650c8     kernel32:KERNEL32.dll
 0002:000000d0       __imp_GetConsoleOutputCP   00000001800650d0     kernel32:KERNEL32.dll
 0002:000000d8       __imp_WriteConsoleW        00000001800650d8     kernel32:KERNEL32.dll
 0002:000000e0       __imp_MultiByteToWideChar  00000001800650e0     kernel32:KERNEL32.dll
 0002:000000e8       __imp_QueryPerformanceCounter 00000001800650e8     kernel32:KERNEL32.dll
 0002:000000f0       __imp_QueryPerformanceFrequency 00000001800650f0     kernel32:KERNEL32.dll
 0002:000000f8       __imp_FormatMessageA       00000001800650f8     kernel32:KERNEL32.dll
 0002:00000100       __imp_GetStringTypeW       0000000180065100     kernel32:KERNEL32.dll
 0002:00000108       __imp_FindFirstFileExW     0000000180065108     kernel32:KERNEL32.dll
 0002:00000110       __imp_GetFileAttributesExW 0000000180065110     kernel32:KERNEL32.dll
 0002:00000118       __imp_SetEndOfFile         0000000180065118     kernel32:KERNEL32.dll
 0002:00000120       __imp_SetFilePointerEx     0000000180065120     kernel32:KERNEL32.dll
 0002:00000128       __imp_AreFileApisANSI      0000000180065128     kernel32:KERNEL32.dll
 0002:00000130       __imp_GetLastError         0000000180065130     kernel32:KERNEL32.dll
 0002:00000138       __imp_GetFileInformationByHandleEx 0000000180065138     kernel32:KERNEL32.dll
 0002:00000140       __imp_FlsAlloc             0000000180065140     kernel32:KERNEL32.dll
 0002:00000148       __imp_FlsGetValue          0000000180065148     kernel32:KERNEL32.dll
 0002:00000150       __imp_FlsSetValue          0000000180065150     kernel32:KERNEL32.dll
 0002:00000158       __imp_FlsFree              0000000180065158     kernel32:KERNEL32.dll
 0002:00000160       __imp_InitializeCriticalSectionEx 0000000180065160     kernel32:KERNEL32.dll
 0002:00000168       __imp_GetSystemTimeAsFileTime 0000000180065168     kernel32:KERNEL32.dll
 0002:00000170       __imp_GetModuleHandleW     0000000180065170     kernel32:KERNEL32.dll
 0002:00000178       __imp_GetProcAddress       0000000180065178     kernel32:KERNEL32.dll
 0002:00000180       __imp_EncodePointer        0000000180065180     kernel32:KERNEL32.dll
 0002:00000188       __imp_DecodePointer        0000000180065188     kernel32:KERNEL32.dll
 0002:00000190       __imp_EnterCriticalSection 0000000180065190     kernel32:KERNEL32.dll
 0002:00000198       __imp_LeaveCriticalSection 0000000180065198     kernel32:KERNEL32.dll
 0002:000001a0       __imp_DeleteCriticalSection 00000001800651a0     kernel32:KERNEL32.dll
 0002:000001a8       __imp_LCMapStringEx        00000001800651a8     kernel32:KERNEL32.dll
 0002:000001b0       __imp_CompareStringEx      00000001800651b0     kernel32:KERNEL32.dll
 0002:000001b8       __imp_GetCPInfo            00000001800651b8     kernel32:KERNEL32.dll
 0002:000001c0       __imp_RtlCaptureContext    00000001800651c0     kernel32:KERNEL32.dll
 0002:000001c8       __imp_RtlLookupFunctionEntry 00000001800651c8     kernel32:KERNEL32.dll
 0002:000001d0       __imp_RtlVirtualUnwind     00000001800651d0     kernel32:KERNEL32.dll
 0002:000001d8       __imp_UnhandledExceptionFilter 00000001800651d8     kernel32:KERNEL32.dll
 0002:000001e0       __imp_SetUnhandledExceptionFilter 00000001800651e0     kernel32:KERNEL32.dll
 0002:000001e8       __imp_GetCurrentProcess    00000001800651e8     kernel32:KERNEL32.dll
 0002:000001f0       __imp_TerminateProcess     00000001800651f0     kernel32:KERNEL32.dll
 0002:000001f8       __imp_IsProcessorFeaturePresent 00000001800651f8     kernel32:KERNEL32.dll
 0002:00000200       __imp_IsDebuggerPresent    0000000180065200     kernel32:KERNEL32.dll
 0002:00000208       __imp_GetStartupInfoW      0000000180065208     kernel32:KERNEL32.dll
 0002:00000210       __imp_GetCurrentProcessId  0000000180065210     kernel32:KERNEL32.dll
 0002:00000218       __imp_GetCurrentThreadId   0000000180065218     kernel32:KERNEL32.dll
 0002:00000220       __imp_InitializeSListHead  0000000180065220     kernel32:KERNEL32.dll
 0002:00000228       __imp_RtlUnwindEx          0000000180065228     kernel32:KERNEL32.dll
 0002:00000230       __imp_RtlPcToFileHeader    0000000180065230     kernel32:KERNEL32.dll
 0002:00000238       __imp_RaiseException       0000000180065238     kernel32:KERNEL32.dll
 0002:00000240       __imp_InterlockedFlushSList 0000000180065240     kernel32:KERNEL32.dll
 0002:00000248       __imp_SetLastError         0000000180065248     kernel32:KERNEL32.dll
 0002:00000250       __imp_InitializeCriticalSectionAndSpinCount 0000000180065250     kernel32:KERNEL32.dll
 0002:00000258       __imp_TlsAlloc             0000000180065258     kernel32:KERNEL32.dll
 0002:00000260       __imp_TlsGetValue          0000000180065260     kernel32:KERNEL32.dll
 0002:00000268       __imp_TlsSetValue          0000000180065268     kernel32:KERNEL32.dll
 0002:00000270       __imp_TlsFree              0000000180065270     kernel32:KERNEL32.dll
 0002:00000278       __imp_FreeLibrary          0000000180065278     kernel32:KERNEL32.dll
 0002:00000280       __imp_LoadLibraryExW       0000000180065280     kernel32:KERNEL32.dll
 0002:00000288       __imp_ExitProcess          0000000180065288     kernel32:KERNEL32.dll
 0002:00000290       __imp_GetModuleHandleExW   0000000180065290     kernel32:KERNEL32.dll
 0002:00000298       __imp_GetModuleFileNameW   0000000180065298     kernel32:KERNEL32.dll
 0002:000002a0       __imp_GetFileType          00000001800652a0     kernel32:KERNEL32.dll
 0002:000002a8       __imp_HeapFree             00000001800652a8     kernel32:KERNEL32.dll
 0002:000002b0       __imp_HeapAlloc            00000001800652b0     kernel32:KERNEL32.dll
 0002:000002b8       __imp_HeapReAlloc          00000001800652b8     kernel32:KERNEL32.dll
 0002:000002c0       __imp_HeapSize             00000001800652c0     kernel32:KERNEL32.dll
 0002:000002c8       __imp_GetConsoleMode       00000001800652c8     kernel32:KERNEL32.dll
 0002:000002d0       __imp_ReadConsoleW         00000001800652d0     kernel32:KERNEL32.dll
 0002:000002d8       __imp_LCMapStringW         00000001800652d8     kernel32:KERNEL32.dll
 0002:000002e0       __imp_GetLocaleInfoW       00000001800652e0     kernel32:KERNEL32.dll
 0002:000002e8       __imp_IsValidLocale        00000001800652e8     kernel32:KERNEL32.dll
 0002:000002f0       __imp_GetUserDefaultLCID   00000001800652f0     kernel32:KERNEL32.dll
 0002:000002f8       __imp_EnumSystemLocalesW   00000001800652f8     kernel32:KERNEL32.dll
 0002:00000300       __imp_IsValidCodePage      0000000180065300     kernel32:KERNEL32.dll
 0002:00000308       __imp_GetACP               0000000180065308     kernel32:KERNEL32.dll
 0002:00000310       __imp_GetOEMCP             0000000180065310     kernel32:KERNEL32.dll
 0002:00000318       __imp_GetCommandLineA      0000000180065318     kernel32:KERNEL32.dll
 0002:00000320       \177KERNEL32_NULL_THUNK_DATA 0000000180065320     kernel32:KERNEL32.dll
 0002:00000328       __imp_PathFindExtensionW   0000000180065328     Shlwapi:SHLWAPI.dll
 0002:00000330       \177SHLWAPI_NULL_THUNK_DATA 0000000180065330     Shlwapi:SHLWAPI.dll
 0002:00000338       __imp_EmptyClipboard       0000000180065338     user32:USER32.dll
 0002:00000340       __imp_OpenClipboard        0000000180065340     user32:USER32.dll
 0002:00000348       __imp_SetClipboardData     0000000180065348     user32:USER32.dll
 0002:00000350       __imp_CloseClipboard       0000000180065350     user32:USER32.dll
 0002:00000358       __imp_GetClipboardData     0000000180065358     user32:USER32.dll
 0002:00000360       \177USER32_NULL_THUNK_DATA 0000000180065360     user32:USER32.dll
 0002:00000368       __imp_WinVerifyTrust       0000000180065368     wintrust:WINTRUST.dll
 0002:00000370       \177WINTRUST_NULL_THUNK_DATA 0000000180065370     wintrust:WINTRUST.dll
 0002:00000378       __guard_check_icall_fptr   0000000180065378     LIBCMT:guard_support.obj
 0002:00000380       __guard_xfg_check_icall_fptr 0000000180065380     LIBCMT:guard_support.obj
 0002:00000388       __guard_dispatch_icall_fptr 0000000180065388     LIBCMT:guard_support.obj
 0002:00000390       __guard_xfg_dispatch_icall_fptr 0000000180065390     LIBCMT:guard_support.obj
 0002:00000398       __guard_xfg_table_dispatch_icall_fptr 0000000180065398     LIBCMT:guard_support.obj
 0002:000003a0       __xc_a                     00000001800653a0     LIBCMT:initializers.obj
 0002:000003d8       __xc_z                     00000001800653d8     LIBCMT:initializers.obj
 0002:000003e0       __xi_a                     00000001800653e0     LIBCMT:initializers.obj
 0002:000003f0       __acrt_stdio_initializer   00000001800653f0     libucrt:stdio_initializer.obj
 0002:000003f8       __acrt_tran_fma3_initializer 00000001800653f8     libucrt:fma3_initializer.obj
 0002:00000400       __acrt_timeset_initializer 0000000180065400     libucrt:timeset_initializer.obj
 0002:00000408       __acrt_multibyte_initializer 0000000180065408     libucrt:multibyte_initializer.obj
 0002:00000410       __acrt_fmode_initializer   0000000180065410     libucrt:fmode_initializer.obj
 0002:00000418       __xi_z                     0000000180065418     LIBCMT:initializers.obj
 0002:00000420       __xp_a                     0000000180065420     LIBCMT:initializers.obj
 0002:00000428       __acrt_locale_terminator   0000000180065428     libucrt:locale_initializer.obj
 0002:00000430       __dcrt_console_output_terminator 0000000180065430     libucrt:console_output_initializer.obj
 0002:00000438       __acrt_stdio_terminator    0000000180065438     libucrt:stdio_initializer.obj
 0002:00000440       __xp_z                     0000000180065440     LIBCMT:initializers.obj
 0002:00000448       __xt_a                     0000000180065448     LIBCMT:initializers.obj
 0002:00000450       __xt_z                     0000000180065450     LIBCMT:initializers.obj
 0002:00000488       ??_7exception@std@@6B@     0000000180065488     libcpmt:xthrow.obj
 0002:000004a0       ??_7bad_alloc@std@@6B@     00000001800654a0     libcpmt:xthrow.obj
 0002:000004b0       ??_C@_0P@GHFPNOJB@bad?5allocation@ 00000001800654b0     libcpmt:xthrow.obj
 0002:000004c8       ??_7bad_function_call@std@@6B@ 00000001800654c8     libcpmt:xthrow.obj
 0002:000004d8       ??_C@_0BC@DPJNKNAF@bad?5function?5call@ 00000001800654d8     libcpmt:xthrow.obj
 0002:000004f8       ??_7logic_error@std@@6B@   00000001800654f8     libcpmt:xthrow.obj
 0002:00000510       ??_7length_error@std@@6B@  0000000180065510     libcpmt:xthrow.obj
 0002:00000528       ??_7out_of_range@std@@6B@  0000000180065528     libcpmt:xthrow.obj
 0002:00000540       ??_7runtime_error@std@@6B@ 0000000180065540     libcpmt:xthrow.obj
 0002:00000558       ??_7regex_error@std@@6B@   0000000180065558     libcpmt:xthrow.obj
 0002:00000570       ??_C@_0FI@CMNGHIFF@regex_error?$CIerror_collate?$CJ?3?5The@ 0000000180065570     libcpmt:xthrow.obj
 0002:000005d0       ??_C@_0FE@LJMHKIOC@regex_error?$CIerror_ctype?$CJ?3?5The?5e@ 00000001800655d0     libcpmt:xthrow.obj
 0002:00000630       ??_C@_0GI@HEGGMMDL@regex_error?$CIerror_escape?$CJ?3?5The?5@ 0000000180065630     libcpmt:xthrow.obj
 0002:000006a0       ??_C@_0FA@HFMLPGNN@regex_error?$CIerror_backref?$CJ?3?5The@ 00000001800656a0     libcpmt:xthrow.obj
 0002:000006f0       ??_C@_0EH@LGEANNAL@regex_error?$CIerror_brack?$CJ?3?5The?5e@ 00000001800656f0     libcpmt:xthrow.obj
 0002:00000740       ??_C@_0EH@CAGOJGLE@regex_error?$CIerror_paren?$CJ?3?5The?5e@ 0000000180065740     libcpmt:xthrow.obj
 0002:00000790       ??_C@_0EH@DICJJKLO@regex_error?$CIerror_brace?$CJ?3?5The?5e@ 0000000180065790     libcpmt:xthrow.obj
 0002:000007e0       ??_C@_0FM@BLDIHIBB@regex_error?$CIerror_badbrace?$CJ?3?5Th@ 00000001800657e0     libcpmt:xthrow.obj
 0002:00000840       ??_C@_0HA@ICNJLCMC@regex_error?$CIerror_range?$CJ?3?5The?5e@ 0000000180065840     libcpmt:xthrow.obj
 0002:000008b0       ??_C@_0GP@PICOBCHA@regex_error?$CIerror_space?$CJ?3?5There@ 00000001800658b0     libcpmt:xthrow.obj
 0002:00000920       ??_C@_0FK@LCHHHEOA@regex_error?$CIerror_badrepeat?$CJ?3?5O@ 0000000180065920     libcpmt:xthrow.obj
 0002:00000980       ??_C@_0HL@NEKOFBJA@regex_error?$CIerror_complexity?$CJ?3?5@ 0000000180065980     libcpmt:xthrow.obj
 0002:00000a00       ??_C@_0JC@HCDLJLGO@regex_error?$CIerror_stack?$CJ?3?5There@ 0000000180065a00     libcpmt:xthrow.obj
 0002:00000a98       ??_C@_0BJ@CHBLKGNM@regex_error?$CIerror_parse?$CJ@ 0000000180065a98     libcpmt:xthrow.obj
 0002:00000ab8       ??_C@_0BK@DFJCACNI@regex_error?$CIerror_syntax?$CJ@ 0000000180065ab8     libcpmt:xthrow.obj
 0002:00000ad8       ??_C@_0M@KGKAAGCA@regex_error@ 0000000180065ad8     libcpmt:xthrow.obj
 0002:00000ae8       ??_C@_0BM@EEBBMCOD@invalid?5random_device?5value@ 0000000180065ae8     libcpmt:xrngdev.obj
 0002:00000b08       ?_BADOFF@std@@3_JB         0000000180065b08     libcpmt:ios.obj
 0002:00000b18       ??_7_Facet_base@std@@6B@   0000000180065b18     libcpmt:locale0.obj
 0002:00000b38       ??_7_Locimp@locale@std@@6B@ 0000000180065b38     libcpmt:locale0.obj
 0002:00000b50       ??_C@_01NBENCBCI@?$CK@     0000000180065b50     libcpmt:locale0.obj
 0002:00000b54       ??_C@_01GFHCPBMG@C@        0000000180065b54     libcpmt:locale0.obj
 0002:000012c0       ??_C@_0BN@LKKBCCDB@address?5family?5not?5supported@ 00000001800662c0     libcpmt:syserror.obj
 0002:000012e0       ??_C@_0P@LDMLAFHI@address?5in?5use@ 00000001800662e0     libcpmt:syserror.obj
 0002:000012f0       ??_C@_0BG@DHPCNBJB@address?5not?5available@ 00000001800662f0     libcpmt:syserror.obj
 0002:00001308       ??_C@_0BC@DFIBIBIL@already?5connected@ 0000000180066308     libcpmt:syserror.obj
 0002:00001320       ??_C@_0BH@CAKOHOMI@argument?5list?5too?5long@ 0000000180066320     libcpmt:syserror.obj
 0002:00001338       ??_C@_0BH@CGIMPKIM@argument?5out?5of?5domain@ 0000000180066338     libcpmt:syserror.obj
 0002:00001350       ??_C@_0M@KGHGGJGL@bad?5address@ 0000000180066350     libcpmt:syserror.obj
 0002:00001360       ??_C@_0BE@MPJPGCEO@bad?5file?5descriptor@ 0000000180066360     libcpmt:syserror.obj
 0002:00001378       ??_C@_0M@PMMIEFCP@bad?5message@ 0000000180066378     libcpmt:syserror.obj
 0002:00001388       ??_C@_0M@KPHOFDBE@broken?5pipe@ 0000000180066388     libcpmt:syserror.obj
 0002:00001398       ??_C@_0BD@MGNDDEGM@connection?5aborted@ 0000000180066398     libcpmt:syserror.obj
 0002:000013b0       ??_C@_0BP@KAIHPOGN@connection?5already?5in?5progress@ 00000001800663b0     libcpmt:syserror.obj
 0002:000013d0       ??_C@_0BD@PJLIIJEL@connection?5refused@ 00000001800663d0     libcpmt:syserror.obj
 0002:000013e8       ??_C@_0BB@IECNJNOI@connection?5reset@ 00000001800663e8     libcpmt:syserror.obj
 0002:00001400       ??_C@_0BC@PPHBOELF@cross?5device?5link@ 0000000180066400     libcpmt:syserror.obj
 0002:00001418       ??_C@_0BN@KDMIFEIP@destination?5address?5required@ 0000000180066418     libcpmt:syserror.obj
 0002:00001438       ??_C@_0BI@NGCEHDD@device?5or?5resource?5busy@ 0000000180066438     libcpmt:syserror.obj
 0002:00001450       ??_C@_0BE@JIDOCPHM@directory?5not?5empty@ 0000000180066450     libcpmt:syserror.obj
 0002:00001468       ??_C@_0BI@BNCLIGPB@executable?5format?5error@ 0000000180066468     libcpmt:syserror.obj
 0002:00001480       ??_C@_0M@MIDIAGJP@file?5exists@ 0000000180066480     libcpmt:syserror.obj
 0002:00001490       ??_C@_0P@DNAJLBJK@file?5too?5large@ 0000000180066490     libcpmt:syserror.obj
 0002:000014a0       ??_C@_0BC@EJHOMAAK@filename?5too?5long@ 00000001800664a0     libcpmt:syserror.obj
 0002:000014b8       ??_C@_0BH@KEFGLDAF@function?5not?5supported@ 00000001800664b8     libcpmt:syserror.obj
 0002:000014d0       ??_C@_0BB@DHFDFGDM@host?5unreachable@ 00000001800664d0     libcpmt:syserror.obj
 0002:000014e8       ??_C@_0BD@JPHBMONG@identifier?5removed@ 00000001800664e8     libcpmt:syserror.obj
 0002:00001500       ??_C@_0BG@CDNPAGJK@illegal?5byte?5sequence@ 0000000180066500     libcpmt:syserror.obj
 0002:00001518       ??_C@_0CD@BNPLBMNA@inappropriate?5io?5control?5operat@ 0000000180066518     libcpmt:syserror.obj
 0002:00001540       ??_C@_0M@EGEKIIMP@interrupted@ 0000000180066540     libcpmt:syserror.obj
 0002:00001550       ??_C@_0BB@FCMFBGOM@invalid?5argument@ 0000000180066550     libcpmt:syserror.obj
 0002:00001568       ??_C@_0N@OHAFKDEK@invalid?5seek@ 0000000180066568     libcpmt:syserror.obj
 0002:00001578       ??_C@_08GLNPIFBN@io?5error@ 0000000180066578     libcpmt:syserror.obj
 0002:00001588       ??_C@_0P@FLLDBIDK@is?5a?5directory@ 0000000180066588     libcpmt:syserror.obj
 0002:00001598       ??_C@_0N@IFLPBIOP@message?5size@ 0000000180066598     libcpmt:syserror.obj
 0002:000015a8       ??_C@_0N@KIIEAAIO@network?5down@ 00000001800665a8     libcpmt:syserror.obj
 0002:000015b8       ??_C@_0O@FNPDBHEE@network?5reset@ 00000001800665b8     libcpmt:syserror.obj
 0002:000015c8       ??_C@_0BE@IFNCKGE@network?5unreachable@ 00000001800665c8     libcpmt:syserror.obj
 0002:000015e0       ??_C@_0BA@PFFCAOFK@no?5buffer?5space@ 00000001800665e0     libcpmt:syserror.obj
 0002:000015f0       ??_C@_0BB@IEPBLJHK@no?5child?5process@ 00000001800665f0     libcpmt:syserror.obj
 0002:00001608       ??_C@_07PLECNNKG@no?5link@ 0000000180066608     libcpmt:syserror.obj
 0002:00001610       ??_C@_0BC@NJECKMKE@no?5lock?5available@ 0000000180066610     libcpmt:syserror.obj
 0002:00001628       ??_C@_0BF@PBGGPKKE@no?5message?5available@ 0000000180066628     libcpmt:syserror.obj
 0002:00001640       ??_C@_0L@EDOLMPAK@no?5message@ 0000000180066640     libcpmt:syserror.obj
 0002:00001650       ??_C@_0BD@EAMBFIDF@no?5protocol?5option@ 0000000180066650     libcpmt:syserror.obj
 0002:00001668       ??_C@_0BD@IJDJKDEA@no?5space?5on?5device@ 0000000180066668     libcpmt:syserror.obj
 0002:00001680       ??_C@_0BE@MKFDAFMP@no?5stream?5resources@ 0000000180066680     libcpmt:syserror.obj
 0002:00001698       ??_C@_0BK@IMCPHCBI@no?5such?5device?5or?5address@ 0000000180066698     libcpmt:syserror.obj
 0002:000016b8       ??_C@_0P@FDINDDOK@no?5such?5device@ 00000001800666b8     libcpmt:syserror.obj
 0002:000016c8       ??_C@_0BK@NDOCBPGE@no?5such?5file?5or?5directory@ 00000001800666c8     libcpmt:syserror.obj
 0002:000016e8       ??_C@_0BA@ENLPPKBN@no?5such?5process@ 00000001800666e8     libcpmt:syserror.obj
 0002:000016f8       ??_C@_0BA@DOCPFFJG@not?5a?5directory@ 00000001800666f8     libcpmt:syserror.obj
 0002:00001708       ??_C@_0N@POEIPGGF@not?5a?5socket@ 0000000180066708     libcpmt:syserror.obj
 0002:00001718       ??_C@_0N@LGAPMMPI@not?5a?5stream@ 0000000180066718     libcpmt:syserror.obj
 0002:00001728       ??_C@_0O@GLMIBBEG@not?5connected@ 0000000180066728     libcpmt:syserror.obj
 0002:00001738       ??_C@_0BC@ENOOLCNF@not?5enough?5memory@ 0000000180066738     libcpmt:syserror.obj
 0002:00001750       ??_C@_0O@NHEDABJP@not?5supported@ 0000000180066750     libcpmt:syserror.obj
 0002:00001760       ??_C@_0BD@MOLBPMEA@operation?5canceled@ 0000000180066760     libcpmt:syserror.obj
 0002:00001778       ??_C@_0BG@KDKHOPCO@operation?5in?5progress@ 0000000180066778     libcpmt:syserror.obj
 0002:00001790       ??_C@_0BI@OHIEJAAB@operation?5not?5permitted@ 0000000180066790     libcpmt:syserror.obj
 0002:000017a8       ??_C@_0BI@LNEGIFLN@operation?5not?5supported@ 00000001800667a8     libcpmt:syserror.obj
 0002:000017c0       ??_C@_0BG@OEMDKMEE@operation?5would?5block@ 00000001800667c0     libcpmt:syserror.obj
 0002:000017d8       ??_C@_0L@BLPOFLNJ@owner?5dead@ 00000001800667d8     libcpmt:syserror.obj
 0002:000017e8       ??_C@_0BC@CIJDGCDI@permission?5denied@ 00000001800667e8     libcpmt:syserror.obj
 0002:00001800       ??_C@_0P@FNPOCJBE@protocol?5error@ 0000000180066800     libcpmt:syserror.obj
 0002:00001810       ??_C@_0BH@JPPPLHJB@protocol?5not?5supported@ 0000000180066810     libcpmt:syserror.obj
 0002:00001828       ??_C@_0BG@EICBIHDP@read?5only?5file?5system@ 0000000180066828     libcpmt:syserror.obj
 0002:00001840       ??_C@_0BO@BJBOMOEJ@resource?5deadlock?5would?5occur@ 0000000180066840     libcpmt:syserror.obj
 0002:00001860       ??_C@_0BP@LKNGHENJ@resource?5unavailable?5try?5again@ 0000000180066860     libcpmt:syserror.obj
 0002:00001880       ??_C@_0BE@GOIPJJHG@result?5out?5of?5range@ 0000000180066880     libcpmt:syserror.obj
 0002:00001898       ??_C@_0BG@MPLKFPAE@state?5not?5recoverable@ 0000000180066898     libcpmt:syserror.obj
 0002:000018b0       ??_C@_0P@DIIFGFCG@stream?5timeout@ 00000001800668b0     libcpmt:syserror.obj
 0002:000018c0       ??_C@_0P@IPFDMIFL@text?5file?5busy@ 00000001800668c0     libcpmt:syserror.obj
 0002:000018d0       ??_C@_09KJPPMAOI@timed?5out@ 00000001800668d0     libcpmt:syserror.obj
 0002:000018e0       ??_C@_0BO@HACHBEKI@too?5many?5files?5open?5in?5system@ 00000001800668e0     libcpmt:syserror.obj
 0002:00001900       ??_C@_0BE@GHAFMPAH@too?5many?5files?5open@ 0000000180066900     libcpmt:syserror.obj
 0002:00001918       ??_C@_0P@HCOMKFCC@too?5many?5links@ 0000000180066918     libcpmt:syserror.obj
 0002:00001928       ??_C@_0BO@EFGOJEF@too?5many?5symbolic?5link?5levels@ 0000000180066928     libcpmt:syserror.obj
 0002:00001948       ??_C@_0BA@KGKGOOJA@value?5too?5large@ 0000000180066948     libcpmt:syserror.obj
 0002:00001958       ??_C@_0BE@MIEJDDNH@wrong?5protocol?5type@ 0000000180066958     libcpmt:syserror.obj
 0002:00001970       ??_C@_0O@BFJCFAAK@unknown?5error@ 0000000180066970     libcpmt:syserror.obj
 0002:00001a80       ??_C@_1BK@MGMFAEKH@?$AAk?$AAe?$AAr?$AAn?$AAe?$AAl?$AA3?$AA2?$AA?4?$AAd?$AAl?$AAl@ 0000000180066a80     libcpmt:winapisupp.obj
 0002:00001aa0       ??_C@_08KNHFBNJ@FlsAlloc@  0000000180066aa0     libcpmt:winapisupp.obj
 0002:00001ab0       ??_C@_07PEJMOBNF@FlsFree@  0000000180066ab0     libcpmt:winapisupp.obj
 0002:00001ab8       ??_C@_0M@GDNOONDI@FlsGetValue@ 0000000180066ab8     libcpmt:winapisupp.obj
 0002:00001ac8       ??_C@_0M@JCPCPOEF@FlsSetValue@ 0000000180066ac8     libcpmt:winapisupp.obj
 0002:00001ad8       ??_C@_0BM@HCFOFFN@InitializeCriticalSectionEx@ 0000000180066ad8     libcpmt:winapisupp.obj
 0002:00001af8       ??_C@_0BE@GPLMMCMH@InitOnceExecuteOnce@ 0000000180066af8     libcpmt:winapisupp.obj
 0002:00001b10       ??_C@_0P@DLHPPCNH@CreateEventExW@ 0000000180066b10     libcpmt:winapisupp.obj
 0002:00001b20       ??_C@_0BB@MEFPJLHN@CreateSemaphoreW@ 0000000180066b20     libcpmt:winapisupp.obj
 0002:00001b38       ??_C@_0BD@KIEEOEEH@CreateSemaphoreExW@ 0000000180066b38     libcpmt:winapisupp.obj
 0002:00001b50       ??_C@_0BG@OGFAJCKC@CreateThreadpoolTimer@ 0000000180066b50     libcpmt:winapisupp.obj
 0002:00001b68       ??_C@_0BD@LPLEMMDI@SetThreadpoolTimer@ 0000000180066b68     libcpmt:winapisupp.obj
 0002:00001b80       ??_C@_0CA@FMNJENH@WaitForThreadpoolTimerCallbacks@ 0000000180066b80     libcpmt:winapisupp.obj
 0002:00001ba0       ??_C@_0BF@DCFCCNOC@CloseThreadpoolTimer@ 0000000180066ba0     libcpmt:winapisupp.obj
 0002:00001bb8       ??_C@_0BF@FLABGKKM@CreateThreadpoolWait@ 0000000180066bb8     libcpmt:winapisupp.obj
 0002:00001bd0       ??_C@_0BC@MGCOHNA@SetThreadpoolWait@ 0000000180066bd0     libcpmt:winapisupp.obj
 0002:00001be8       ??_C@_0BE@OCIOMIMP@CloseThreadpoolWait@ 0000000180066be8     libcpmt:winapisupp.obj
 0002:00001c00       ??_C@_0BJ@LKGHFHBO@FlushProcessWriteBuffers@ 0000000180066c00     libcpmt:winapisupp.obj
 0002:00001c20       ??_C@_0BP@KALKKPMO@FreeLibraryWhenCallbackReturns@ 0000000180066c20     libcpmt:winapisupp.obj
 0002:00001c40       ??_C@_0BK@DFNBACLA@GetCurrentProcessorNumber@ 0000000180066c40     libcpmt:winapisupp.obj
 0002:00001c60       ??_C@_0BE@FKKLLFLM@CreateSymbolicLinkW@ 0000000180066c60     libcpmt:winapisupp.obj
 0002:00001c78       ??_C@_0BE@JOGNEJCI@GetCurrentPackageId@ 0000000180066c78     libcpmt:winapisupp.obj
 0002:00001c90       ??_C@_0P@CDHHOHKP@GetTickCount64@ 0000000180066c90     libcpmt:winapisupp.obj
 0002:00001ca0       ??_C@_0BN@NEEHBBPO@GetFileInformationByHandleEx@ 0000000180066ca0     libcpmt:winapisupp.obj
 0002:00001cc0       ??_C@_0BL@KBBHGKCM@SetFileInformationByHandle@ 0000000180066cc0     libcpmt:winapisupp.obj
 0002:00001ce0       ??_C@_0BP@FPNJPEJC@GetSystemTimePreciseAsFileTime@ 0000000180066ce0     libcpmt:winapisupp.obj
 0002:00001d00       ??_C@_0BM@HLJJNPAH@InitializeConditionVariable@ 0000000180066d00     libcpmt:winapisupp.obj
 0002:00001d20       ??_C@_0BG@BFNILBLN@WakeConditionVariable@ 0000000180066d20     libcpmt:winapisupp.obj
 0002:00001d38       ??_C@_0BJ@PGPPEPCC@WakeAllConditionVariable@ 0000000180066d38     libcpmt:winapisupp.obj
 0002:00001d58       ??_C@_0BJ@JEBJOJFJ@SleepConditionVariableCS@ 0000000180066d58     libcpmt:winapisupp.obj
 0002:00001d78       ??_C@_0BC@MMLHEBPB@InitializeSRWLock@ 0000000180066d78     libcpmt:winapisupp.obj
 0002:00001d90       ??_C@_0BI@OMNLIJDB@AcquireSRWLockExclusive@ 0000000180066d90     libcpmt:winapisupp.obj
 0002:00001da8       ??_C@_0BL@OGHFEMNA@TryAcquireSRWLockExclusive@ 0000000180066da8     libcpmt:winapisupp.obj
 0002:00001dc8       ??_C@_0BI@HMIEPCNJ@ReleaseSRWLockExclusive@ 0000000180066dc8     libcpmt:winapisupp.obj
 0002:00001de0       ??_C@_0BK@LGACAGIC@SleepConditionVariableSRW@ 0000000180066de0     libcpmt:winapisupp.obj
 0002:00001e00       ??_C@_0BF@GGPHFPJA@CreateThreadpoolWork@ 0000000180066e00     libcpmt:winapisupp.obj
 0002:00001e18       ??_C@_0BF@NHDAIMMO@SubmitThreadpoolWork@ 0000000180066e18     libcpmt:winapisupp.obj
 0002:00001e30       ??_C@_0BE@NPHIPNPD@CloseThreadpoolWork@ 0000000180066e30     libcpmt:winapisupp.obj
 0002:00001e48       ??_C@_0BA@IHGNDAEB@CompareStringEx@ 0000000180066e48     libcpmt:winapisupp.obj
 0002:00001e58       ??_C@_0BA@ONOKGCMP@GetLocaleInfoEx@ 0000000180066e58     libcpmt:winapisupp.obj
 0002:00001e68       ??_C@_0O@KKBNKAPF@LCMapStringEx@ 0000000180066e68     libcpmt:winapisupp.obj
 0002:00001e80       ??_7bad_array_new_length@std@@6B@ 0000000180066e80     libcpmt:locale.obj
 0002:00001e98       ??_7bad_cast@std@@6B@      0000000180066e98     libcpmt:locale.obj
 0002:00001eb0       ??_7?$ctype@D@std@@6B@     0000000180066eb0     libcpmt:locale.obj
 0002:00001f10       ??_7?$ctype@_W@std@@6B@    0000000180066f10     libcpmt:wlocale.obj
 0002:00001f88       ??_C@_13IMODFHAA@?$AA?9@   0000000180066f88     libcpmt:wlocale.obj
 0002:00001f8c       ??_C@_01JOAMLHOP@?9@       0000000180066f8c     libcpmt:wlocale.obj
 0002:00001f98       ??_7?$collate@D@std@@6B@   0000000180066f98     libcpmt:xlocale.obj
 0002:00002070       ??_7type_info@@6B@         0000000180067070     LIBCMT:std_type_info_static.obj
 0002:00002078       _pRawDllMain               0000000180067078     LIBCMT:dll_dllmain.obj
 0002:00002078       _pDefaultRawDllMain        0000000180067078     LIBCMT:dll_dllmain.obj
 0002:00002090       ?s_negLengthTab@FH4@@3QBCB 0000000180067090     libvcruntime:risctrnsctrl.obj
 0002:000020a0       ?s_shiftTab@FH4@@3QBEB     00000001800670a0     libvcruntime:risctrnsctrl.obj
 0002:000021e8       _pDestructExceptionObject  00000001800671e8     libvcruntime:ehhelpers.obj
 0002:000021f8       ??_7bad_exception@std@@6B@ 00000001800671f8     libvcruntime:frame.obj
 0002:00002208       ??_C@_0O@DPKOEFFH@bad?5exception@ 0000000180067208     libvcruntime:frame.obj
 0002:00002920       ??_C@_08EHJDFFNH@__based?$CI@ 0000000180067920     libvcruntime:undname.obj
 0002:00002930       ??_C@_07KOLFKCDI@__cdecl@  0000000180067930     libvcruntime:undname.obj
 0002:00002938       ??_C@_08GHMPAG@__pascal@   0000000180067938     libvcruntime:undname.obj
 0002:00002948       ??_C@_09IFJBGAPI@__stdcall@ 0000000180067948     libvcruntime:undname.obj
 0002:00002958       ??_C@_0L@NPHFGOKO@__thiscall@ 0000000180067958     libvcruntime:undname.obj
 0002:00002968       ??_C@_0L@JMKHOMEK@__fastcall@ 0000000180067968     libvcruntime:undname.obj
 0002:00002978       ??_C@_0N@BCKKPABJ@__vectorcall@ 0000000180067978     libvcruntime:undname.obj
 0002:00002988       ??_C@_09HIJEGCPM@__clrcall@ 0000000180067988     libvcruntime:undname.obj
 0002:00002994       ??_C@_06GHPCKEAG@__eabi@   0000000180067994     libvcruntime:undname.obj
 0002:000029a0       ??_C@_09IOPIDJLG@__swift_1@ 00000001800679a0     libvcruntime:undname.obj
 0002:000029b0       ??_C@_09KFNFGKHF@__swift_2@ 00000001800679b0     libvcruntime:undname.obj
 0002:000029c0       ??_C@_07JOMMBBKO@__ptr64@  00000001800679c0     libvcruntime:undname.obj
 0002:000029c8       ??_C@_0L@PILCLIHE@__restrict@ 00000001800679c8     libvcruntime:undname.obj
 0002:000029d8       ??_C@_0M@GFIIJFMG@__unaligned@ 00000001800679d8     libvcruntime:undname.obj
 0002:000029e8       ??_C@_09DHDLOLLB@restrict?$CI@ 00000001800679e8     libvcruntime:undname.obj
 0002:000029f4       ??_C@_04NIHEBCM@?5new@     00000001800679f4     libvcruntime:undname.obj
 0002:00002a00       ??_C@_07FPCDHGMM@?5delete@ 0000000180067a00     libvcruntime:undname.obj
 0002:00002a08       ??_C@_01NEMOKFLO@?$DN@     0000000180067a08     libvcruntime:undname.obj
 0002:00002a0c       ??_C@_02GPIOPFAK@?$DO?$DO@ 0000000180067a0c     libvcruntime:undname.obj
 0002:00002a10       ??_C@_02FODMEDOG@?$DM?$DM@ 0000000180067a10     libvcruntime:undname.obj
 0002:00002a14       ??_C@_01DCLJPIOD@?$CB@     0000000180067a14     libvcruntime:undname.obj
 0002:00002a18       ??_C@_02EGOFBIJA@?$DN?$DN@ 0000000180067a18     libvcruntime:undname.obj
 0002:00002a1c       ??_C@_02FDNJECIE@?$CB?$DN@ 0000000180067a1c     libvcruntime:undname.obj
 0002:00002a20       ??_C@_02GPECMEKF@?$FL?$FN@ 0000000180067a20     libvcruntime:undname.obj
 0002:00002a28       ??_C@_08LHJFAFGD@operator@ 0000000180067a28     libvcruntime:undname.obj
 0002:00002a34       ??_C@_02HBOOOICD@?9?$DO@   0000000180067a34     libvcruntime:undname.obj
 0002:00002a38       ??_C@_02ECNGHCIF@?$CL?$CL@ 0000000180067a38     libvcruntime:undname.obj
 0002:00002a3c       ??_C@_02BAABKJLB@?9?9@     0000000180067a3c     libvcruntime:undname.obj
 0002:00002a40       ??_C@_01MIFGBAGJ@?$CL@     0000000180067a40     libvcruntime:undname.obj
 0002:00002a44       ??_C@_01HNPIGOCE@?$CG@     0000000180067a44     libvcruntime:undname.obj
 0002:00002a48       ??_C@_03MNHNFDLC@?9?$DO?$CK@ 0000000180067a48     libvcruntime:undname.obj
 0002:00002a4c       ??_C@_01KMDKNFGN@?1@       0000000180067a4c     libvcruntime:undname.obj
 0002:00002a50       ??_C@_01FGNFDNOH@?$CF@     0000000180067a50     libvcruntime:undname.obj
 0002:00002a54       ??_C@_01MNNFJEPP@?$DM@     0000000180067a54     libvcruntime:undname.obj
 0002:00002a58       ??_C@_02EHCHHCKH@?$DM?$DN@ 0000000180067a58     libvcruntime:undname.obj
 0002:00002a5c       ??_C@_01PPODPGHN@?$DO@     0000000180067a5c     libvcruntime:undname.obj
 0002:00002a60       ??_C@_02EEKDKGMJ@?$DO?$DN@ 0000000180067a60     libvcruntime:undname.obj
 0002:00002a64       ??_C@_01IHBHIGKO@?0@       0000000180067a64     libvcruntime:undname.obj
 0002:00002a68       ??_C@_02HCKGKOFO@?$CI?$CJ@ 0000000180067a68     libvcruntime:undname.obj
 0002:00002a6c       ??_C@_01PJKLJHI@?$HO@      0000000180067a6c     libvcruntime:undname.obj
 0002:00002a70       ??_C@_01JKBOJNNK@?$FO@     0000000180067a70     libvcruntime:undname.obj
 0002:00002a74       ??_C@_01DNKMNLPK@?$HM@     0000000180067a74     libvcruntime:undname.obj
 0002:00002a78       ??_C@_02PPKAJPJL@?$CG?$CG@ 0000000180067a78     libvcruntime:undname.obj
 0002:00002a7c       ??_C@_02NONPIBCD@?$HM?$HM@ 0000000180067a7c     libvcruntime:undname.obj
 0002:00002a80       ??_C@_02FPIMKNGF@?$CK?$DN@ 0000000180067a80     libvcruntime:undname.obj
 0002:00002a84       ??_C@_02FOEOMHFC@?$CL?$DN@ 0000000180067a84     libvcruntime:undname.obj
 0002:00002a88       ??_C@_02FKMDLLOA@?9?$DN@   0000000180067a88     libvcruntime:undname.obj
 0002:00002a8c       ??_C@_02FJEHGPIO@?1?$DN@   0000000180067a8c     libvcruntime:undname.obj
 0002:00002a90       ??_C@_02FENAOKFI@?$CF?$DN@ 0000000180067a90     libvcruntime:undname.obj
 0002:00002a94       ??_C@_03IKFCCPFF@?$DO?$DO?$DN@ 0000000180067a94     libvcruntime:undname.obj
 0002:00002a98       ??_C@_03CDNPDDLA@?$DM?$DM?$DN@ 0000000180067a98     libvcruntime:undname.obj
 0002:00002a9c       ??_C@_02FGJGFEAB@?$CG?$DN@ 0000000180067a9c     libvcruntime:undname.obj
 0002:00002aa0       ??_C@_02DHLNPPGH@?$HM?$DN@ 0000000180067aa0     libvcruntime:undname.obj
 0002:00002aa4       ??_C@_02MHEGNOJ@?$FO?$DN@  0000000180067aa4     libvcruntime:undname.obj
 0002:00002aa8       ??_C@_09IFPLHPGF@?$GAvftable?8@ 0000000180067aa8     libvcruntime:undname.obj
 0002:00002ab8       ??_C@_09BLBHBJP@?$GAvbtable?8@ 0000000180067ab8     libvcruntime:undname.obj
 0002:00002ac8       ??_C@_07FEEIOKP@?$GAvcall?8@ 0000000180067ac8     libvcruntime:undname.obj
 0002:00002ad0       ??_C@_08LLFFHHDJ@?$GAtypeof?8@ 0000000180067ad0     libvcruntime:undname.obj
 0002:00002ae0       ??_C@_0BF@KDPPACIK@?$GAlocal?5static?5guard?8@ 0000000180067ae0     libvcruntime:undname.obj
 0002:00002af8       ??_C@_08OBABFOLI@?$GAstring?8@ 0000000180067af8     libvcruntime:undname.obj
 0002:00002b08       ??_C@_0BD@JDLKDPAB@?$GAvbase?5destructor?8@ 0000000180067b08     libvcruntime:undname.obj
 0002:00002b20       ??_C@_0BN@DEGPLNFK@?$GAvector?5deleting?5destructor?8@ 0000000180067b20     libvcruntime:undname.obj
 0002:00002b40       ??_C@_0BO@OBMKPJIG@?$GAdefault?5constructor?5closure?8@ 0000000180067b40     libvcruntime:undname.obj
 0002:00002b60       ??_C@_0BN@IMDCHIKM@?$GAscalar?5deleting?5destructor?8@ 0000000180067b60     libvcruntime:undname.obj
 0002:00002b80       ??_C@_0BO@PFGOCPJJ@?$GAvector?5constructor?5iterator?8@ 0000000180067b80     libvcruntime:undname.obj
 0002:00002ba0       ??_C@_0BN@LFPFMEDL@?$GAvector?5destructor?5iterator?8@ 0000000180067ba0     libvcruntime:undname.obj
 0002:00002bc0       ??_C@_0CE@IKBNEHA@?$GAvector?5vbase?5constructor?5itera@ 0000000180067bc0     libvcruntime:undname.obj
 0002:00002be8       ??_C@_0BL@NILFHHPC@?$GAvirtual?5displacement?5map?8@ 0000000180067be8     libvcruntime:undname.obj
 0002:00002c08       ??_C@_0CB@JONCMFFK@?$GAeh?5vector?5constructor?5iterator@ 0000000180067c08     libvcruntime:undname.obj
 0002:00002c30       ??_C@_0CA@GCEOPDGL@?$GAeh?5vector?5destructor?5iterator?8@ 0000000180067c30     libvcruntime:undname.obj
 0002:00002c50       ??_C@_0CH@OOJPLCPH@?$GAeh?5vector?5vbase?5constructor?5it@ 0000000180067c50     libvcruntime:undname.obj
 0002:00002c78       ??_C@_0BL@LLKPOHJI@?$GAcopy?5constructor?5closure?8@ 0000000180067c78     libvcruntime:undname.obj
 0002:00002c98       ??_C@_0BA@KBCDOMBN@?$GAudt?5returning?8@ 0000000180067c98     libvcruntime:undname.obj
 0002:00002ca8       ??_C@_03KLGMFNMG@?$GAEH@   0000000180067ca8     libvcruntime:undname.obj
 0002:00002cac       ??_C@_05KHLCHHI@?$GARTTI@  0000000180067cac     libvcruntime:undname.obj
 0002:00002cb8       ??_C@_0BA@KKLDJDLB@?$GAlocal?5vftable?8@ 0000000180067cb8     libvcruntime:undname.obj
 0002:00002cc8       ??_C@_0CE@IIHCMGGL@?$GAlocal?5vftable?5constructor?5clos@ 0000000180067cc8     libvcruntime:undname.obj
 0002:00002cec       ??_C@_06FHBGPFGH@?5new?$FL?$FN@ 0000000180067cec     libvcruntime:undname.obj
 0002:00002cf8       ??_C@_09LBNFPBCA@?5delete?$FL?$FN@ 0000000180067cf8     libvcruntime:undname.obj
 0002:00002d08       ??_C@_0P@HJKNJFNN@?$GAomni?5callsig?8@ 0000000180067d08     libvcruntime:undname.obj
 0002:00002d18       ??_C@_0BL@CNOONJFP@?$GAplacement?5delete?5closure?8@ 0000000180067d18     libvcruntime:undname.obj
 0002:00002d38       ??_C@_0BN@CKNJLHMB@?$GAplacement?5delete?$FL?$FN?5closure?8@ 0000000180067d38     libvcruntime:undname.obj
 0002:00002d58       ??_C@_0CG@CFDHKGGD@?$GAmanaged?5vector?5constructor?5ite@ 0000000180067d58     libvcruntime:undname.obj
 0002:00002d80       ??_C@_0CF@IMGKMJNO@?$GAmanaged?5vector?5destructor?5iter@ 0000000180067d80     libvcruntime:undname.obj
 0002:00002da8       ??_C@_0CG@HLDDJMAG@?$GAeh?5vector?5copy?5constructor?5ite@ 0000000180067da8     libvcruntime:undname.obj
 0002:00002dd0       ??_C@_0CM@FCBBDIGB@?$GAeh?5vector?5vbase?5copy?5construct@ 0000000180067dd0     libvcruntime:undname.obj
 0002:00002e00       ??_C@_0BL@CLIPGLGB@?$GAdynamic?5initializer?5for?5?8@ 0000000180067e00     libvcruntime:undname.obj
 0002:00002e20       ??_C@_0CB@PDBIFEP@?$GAdynamic?5atexit?5destructor?5for?5@ 0000000180067e20     libvcruntime:undname.obj
 0002:00002e48       ??_C@_0CD@CGAJBKEJ@?$GAvector?5copy?5constructor?5iterat@ 0000000180067e48     libvcruntime:undname.obj
 0002:00002e70       ??_C@_0CJ@GJELGAMM@?$GAvector?5vbase?5copy?5constructor?5@ 0000000180067e70     libvcruntime:undname.obj
 0002:00002ea0       ??_C@_0CL@FGIJHLCE@?$GAmanaged?5vector?5copy?5constructo@ 0000000180067ea0     libvcruntime:undname.obj
 0002:00002ed0       ??_C@_0BM@PMGGMLDN@?$GAlocal?5static?5thread?5guard?8@ 0000000180067ed0     libvcruntime:undname.obj
 0002:00002ef0       ??_C@_0N@BDNMDMOL@operator?5?$CC?$CC?5@ 0000000180067ef0     libvcruntime:undname.obj
 0002:00002f00       ??_C@_0BC@GGEBGALA@operator?5co_await@ 0000000180067f00     libvcruntime:undname.obj
 0002:00002f18       ??_C@_0M@GAAIMMOH@operator?$DM?$DN?$DO@ 0000000180067f18     libvcruntime:undname.obj
 0002:00002f28       ??_C@_0BC@DAFEJGAK@?5Type?5Descriptor?8@ 0000000180067f28     libvcruntime:undname.obj
 0002:00002f40       ??_C@_0BM@LDKODKLH@?5Base?5Class?5Descriptor?5at?5?$CI@ 0000000180067f40     libvcruntime:undname.obj
 0002:00002f60       ??_C@_0BD@LGICGFMM@?5Base?5Class?5Array?8@ 0000000180067f60     libvcruntime:undname.obj
 0002:00002f78       ??_C@_0BN@MECKDCOJ@?5Class?5Hierarchy?5Descriptor?8@ 0000000180067f78     libvcruntime:undname.obj
 0002:00002f98       ??_C@_0BK@CFCOFLF@?5Complete?5Object?5Locator?8@ 0000000180067f98     libvcruntime:undname.obj
 0002:00002fb8       ??_C@_0BG@JNJLAMPM@?$GAanonymous?5namespace?8@ 0000000180067fb8     libvcruntime:undname.obj
 0002:00002fe8       ??_C@_1DM@KHCHBNEB@?$AAa?$AAp?$AAi?$AA?9?$AAm?$AAs?$AA?9?$AAw?$AAi?$AAn?$AA?9?$AAc?$AAo?$AAr?$AAe@ 0000000180067fe8     libvcruntime:winapi_downlevel.obj
 0002:00003028       ??_C@_1DK@LPPGFMPP@?$AAa?$AAp?$AAi?$AA?9?$AAm?$AAs?$AA?9?$AAw?$AAi?$AAn?$AA?9?$AAc?$AAo?$AAr?$AAe@ 0000000180068028     libvcruntime:winapi_downlevel.obj
 0002:00003068       ??_C@_1BC@GDMECMAK@?$AAk?$AAe?$AAr?$AAn?$AAe?$AAl?$AA3?$AA2@ 0000000180068068     libvcruntime:winapi_downlevel.obj
 0002:00003080       ??_C@_1BA@PFFKHIOG@?$AAa?$AAp?$AAi?$AA?9?$AAm?$AAs?$AA?9@ 0000000180068080     libvcruntime:winapi_downlevel.obj
 0002:000030c0       ?format_validation_lookup_table_spectre@__crt_stdio_output@@3V?$spectre_mitigated_lookup_table@Ustate_transition_pair@__crt_stdio_output@@$0IA@@1@B 00000001800680c0     libucrt:output.obj
 0002:000031c0       ??_C@_1O@CEDCILHN@?$AA?$CI?$AAn?$AAu?$AAl?$AAl?$AA?$CJ@ 00000001800681c0     libucrt:output.obj
 0002:000031d0       ??_C@_06OJHGLDPL@?$CInull?$CJ@ 00000001800681d0     libucrt:output.obj
 0002:00003350       __newctype                 0000000180068350     libucrt:ctype.obj
 0002:00003650       __newclmap                 0000000180068650     libucrt:ctype.obj
 0002:000037d0       __newcumap                 00000001800687d0     libucrt:ctype.obj
 0002:00003950       _wctype                    0000000180068950     libucrt:ctype.obj
 0002:00003b58       __real@3ff0000000000000    0000000180068b58     libucrt:frexp.obj
 0002:00003b60       ?large_power_data@?1??multiply_by_power_of_ten@__crt_strtox@@YA_NAEAUbig_integer@2@I@Z@4QBIB 0000000180068b60     libucrt:strtod.obj
 0002:00004470       ?large_power_indices@?1??multiply_by_power_of_ten@__crt_strtox@@YA_NAEAUbig_integer@2@I@Z@4QBUunpack_index@?1??12@YA_N0I@Z@B 0000000180069470     libucrt:strtod.obj
 0002:00004508       ?small_powers_of_ten@?1??multiply_by_power_of_ten@__crt_strtox@@YA_NAEAUbig_integer@2@I@Z@4QBIB 0000000180069508     libucrt:strtod.obj
 0002:000061e0       __acrt_exception_action_table 000000018006b1e0     libucrt:exception_filter.obj
 0002:000062a0       __acrt_signal_action_table_count 000000018006b2a0     libucrt:exception_filter.obj
 0002:000062a8       __acrt_signal_action_first_fpe_index 000000018006b2a8     libucrt:exception_filter.obj
 0002:000062b0       __acrt_signal_action_fpe_count 000000018006b2b0     libucrt:exception_filter.obj
 0002:00006308       ??_C@_1BI@BGOHAHKC@?$AAm?$AAs?$AAc?$AAo?$AAr?$AAe?$AAe?$AA?4?$AAd?$AAl?$AAl@ 000000018006b308     libucrt:exit.obj
 0002:00006320       ??_C@_0P@MIGLKIOC@CorExitProcess@ 000000018006b320     libucrt:exit.obj
 0002:00006500       __lc_category              000000018006b500     libucrt:wsetlocale.obj
 0002:00006590       ??_C@_1O@GIFLHMA@?$AAL?$AAC?$AA_?$AAA?$AAL?$AAL@ 000000018006b590     libucrt:wsetlocale.obj
 0002:000065a0       ??_C@_1BG@PPOMIBNJ@?$AAL?$AAC?$AA_?$AAC?$AAO?$AAL?$AAL?$AAA?$AAT?$AAE@ 000000018006b5a0     libucrt:wsetlocale.obj
 0002:000065b8       ??_C@_1BC@FFJGAPJM@?$AAL?$AAC?$AA_?$AAC?$AAT?$AAY?$AAP?$AAE@ 000000018006b5b8     libucrt:wsetlocale.obj
 0002:000065d0       ??_C@_1BI@PCKFNJFB@?$AAL?$AAC?$AA_?$AAM?$AAO?$AAN?$AAE?$AAT?$AAA?$AAR?$AAY@ 000000018006b5d0     libucrt:wsetlocale.obj
 0002:000065e8       ??_C@_1BG@ENIEDKID@?$AAL?$AAC?$AA_?$AAN?$AAU?$AAM?$AAE?$AAR?$AAI?$AAC@ 000000018006b5e8     libucrt:wsetlocale.obj
 0002:00006600       ??_C@_1BA@HAAOMIIG@?$AAL?$AAC?$AA_?$AAT?$AAI?$AAM?$AAE@ 000000018006b600     libucrt:wsetlocale.obj
 0002:00006610       ??_C@_15NBPDDFIP@?$AA?$DN?$AA?$DL@ 000000018006b610     libucrt:wsetlocale.obj
 0002:00006618       ??_C@_13PJJBFPED@?$AA?$DL@ 000000018006b618     libucrt:wsetlocale.obj
 0002:0000661c       ??_C@_13NMPKAAJP@?$AA?$DN@ 000000018006b61c     libucrt:wsetlocale.obj
 0002:00006620       ??_C@_17EFJLDFDO@?$AA?9?$AA_?$AA?4@ 000000018006b620     libucrt:wsetlocale.obj
 0002:00006628       ??_C@_13FHBKNHDA@?$AAC@    000000018006b628     libucrt:wsetlocale.obj
 0002:00006630       ??_C@_17MBJJLFDM@?$AA_?$AA?4?$AA?0@ 000000018006b630     libucrt:wsetlocale.obj
 0002:00006638       ??_C@_13ENNFDPBH@?$AA_@    000000018006b638     libucrt:wsetlocale.obj
 0002:00006640       __lc_time_c                000000018006b640     libucrt:nlsdata.obj
 0002:00006900       ??_C@_03KOEHGMDN@Sun@      000000018006b900     libucrt:nlsdata.obj
 0002:00006904       ??_C@_03PDAGKDH@Mon@       000000018006b904     libucrt:nlsdata.obj
 0002:00006908       ??_C@_03NAGEINEP@Tue@      000000018006b908     libucrt:nlsdata.obj
 0002:0000690c       ??_C@_03MHOMLAJA@Wed@      000000018006b90c     libucrt:nlsdata.obj
 0002:00006910       ??_C@_03IOFIKPDN@Thu@      000000018006b910     libucrt:nlsdata.obj
 0002:00006914       ??_C@_03IDIOELNC@Fri@      000000018006b914     libucrt:nlsdata.obj
 0002:00006918       ??_C@_03FEFJNEK@Sat@       000000018006b918     libucrt:nlsdata.obj
 0002:0000691c       ??_C@_06OOPIFAJ@Sunday@    000000018006b91c     libucrt:nlsdata.obj
 0002:00006924       ??_C@_06JLEDEDGH@Monday@   000000018006b924     libucrt:nlsdata.obj
 0002:00006930       ??_C@_07BAAGCFCM@Tuesday@  000000018006b930     libucrt:nlsdata.obj
 0002:00006938       ??_C@_09DLIGFAKA@Wednesday@ 000000018006b938     libucrt:nlsdata.obj
 0002:00006948       ??_C@_08HACCIKIA@Thursday@ 000000018006b948     libucrt:nlsdata.obj
 0002:00006954       ??_C@_06JECMNKMI@Friday@   000000018006b954     libucrt:nlsdata.obj
 0002:00006960       ??_C@_08INBOOONO@Saturday@ 000000018006b960     libucrt:nlsdata.obj
 0002:0000696c       ??_C@_03JIHJHPIE@Jan@      000000018006b96c     libucrt:nlsdata.obj
 0002:00006970       ??_C@_03HJBDCHOM@Feb@      000000018006b970     libucrt:nlsdata.obj
 0002:00006974       ??_C@_03ODNJBKGA@Mar@      000000018006b974     libucrt:nlsdata.obj
 0002:00006978       ??_C@_03LEOLGMJP@Apr@      000000018006b978     libucrt:nlsdata.obj
 0002:0000697c       ??_C@_03CNMDKL@May@        000000018006b97c     libucrt:nlsdata.obj
 0002:00006980       ??_C@_03IDFGHECI@Jun@      000000018006b980     libucrt:nlsdata.obj
 0002:00006984       ??_C@_03LBGABGKK@Jul@      000000018006b984     libucrt:nlsdata.obj
 0002:00006988       ??_C@_03IFJFEIGA@Aug@      000000018006b988     libucrt:nlsdata.obj
 0002:0000698c       ??_C@_03GGCAPAJC@Sep@      000000018006b98c     libucrt:nlsdata.obj
 0002:00006990       ??_C@_03BMAOKBAD@Oct@      000000018006b990     libucrt:nlsdata.obj
 0002:00006994       ??_C@_03JPJOFNIA@Nov@      000000018006b994     libucrt:nlsdata.obj
 0002:00006998       ??_C@_03MKABNOCG@Dec@      000000018006b998     libucrt:nlsdata.obj
 0002:000069a0       ??_C@_07CGJPFGJA@January@  000000018006b9a0     libucrt:nlsdata.obj
 0002:000069a8       ??_C@_08GNJGEPFN@February@ 000000018006b9a8     libucrt:nlsdata.obj
 0002:000069b4       ??_C@_05HPCKOFNC@March@    000000018006b9b4     libucrt:nlsdata.obj
 0002:000069bc       ??_C@_05DMJDNLEJ@April@    000000018006b9bc     libucrt:nlsdata.obj
 0002:000069c4       ??_C@_04CNLMGBGM@June@     000000018006b9c4     libucrt:nlsdata.obj
 0002:000069cc       ??_C@_04MIEPOIFP@July@     000000018006b9cc     libucrt:nlsdata.obj
 0002:000069d4       ??_C@_06LBBHFDDG@August@   000000018006b9d4     libucrt:nlsdata.obj
 0002:000069e0       ??_C@_09BHHEALKD@September@ 000000018006b9e0     libucrt:nlsdata.obj
 0002:000069f0       ??_C@_07JJNFCEND@October@  000000018006b9f0     libucrt:nlsdata.obj
 0002:000069f8       ??_C@_08HCHEGEOA@November@ 000000018006b9f8     libucrt:nlsdata.obj
 0002:00006a08       ??_C@_08EDHMEBNP@December@ 000000018006ba08     libucrt:nlsdata.obj
 0002:00006a14       ??_C@_02DEDBPAFC@AM@       000000018006ba14     libucrt:nlsdata.obj
 0002:00006a18       ??_C@_02CJNFDJBF@PM@       000000018006ba18     libucrt:nlsdata.obj
 0002:00006a20       ??_C@_08BPBNCDIB@MM?1dd?1yy@ 000000018006ba20     libucrt:nlsdata.obj
 0002:00006a30       ??_C@_0BE@CKGJFCPC@dddd?0?5MMMM?5dd?0?5yyyy@ 000000018006ba30     libucrt:nlsdata.obj
 0002:00006a48       ??_C@_08JCCMCCIL@HH?3mm?3ss@ 000000018006ba48     libucrt:nlsdata.obj
 0002:00006a58       ??_C@_17MBGCMIPB@?$AAS?$AAu?$AAn@ 000000018006ba58     libucrt:nlsdata.obj
 0002:00006a60       ??_C@_17KBOMKBF@?$AAM?$AAo?$AAn@ 000000018006ba60     libucrt:nlsdata.obj
 0002:00006a68       ??_C@_17BMKGEGOJ@?$AAT?$AAu?$AAe@ 000000018006ba68     libucrt:nlsdata.obj
 0002:00006a70       ??_C@_17CJEDCEPE@?$AAW?$AAe?$AAd@ 000000018006ba70     libucrt:nlsdata.obj
 0002:00006a78       ??_C@_17PDPHAADD@?$AAT?$AAh?$AAu@ 000000018006ba78     libucrt:nlsdata.obj
 0002:00006a80       ??_C@_17HFOLPPLP@?$AAF?$AAr?$AAi@ 000000018006ba80     libucrt:nlsdata.obj
 0002:00006a88       ??_C@_17GGIBDPIH@?$AAS?$AAa?$AAt@ 000000018006ba88     libucrt:nlsdata.obj
 0002:00006a90       ??_C@_1O@IHNHDHPB@?$AAS?$AAu?$AAn?$AAd?$AAa?$AAy@ 000000018006ba90     libucrt:nlsdata.obj
 0002:00006aa0       ??_C@_1O@MMNBFLIA@?$AAM?$AAo?$AAn?$AAd?$AAa?$AAy@ 000000018006baa0     libucrt:nlsdata.obj
 0002:00006ab0       ??_C@_1BA@ENFBFFEK@?$AAT?$AAu?$AAe?$AAs?$AAd?$AAa?$AAy@ 000000018006bab0     libucrt:nlsdata.obj
 0002:00006ac0       ??_C@_1BE@EBOGMDOH@?$AAW?$AAe?$AAd?$AAn?$AAe?$AAs?$AAd?$AAa?$AAy@ 000000018006bac0     libucrt:nlsdata.obj
 0002:00006ad8       ??_C@_1BC@HHMNLIHE@?$AAT?$AAh?$AAu?$AAr?$AAs?$AAd?$AAa?$AAy@ 000000018006bad8     libucrt:nlsdata.obj
 0002:00006af0       ??_C@_1O@PDICJHAG@?$AAF?$AAr?$AAi?$AAd?$AAa?$AAy@ 000000018006baf0     libucrt:nlsdata.obj
 0002:00006b00       ??_C@_1BC@ENMNNPAJ@?$AAS?$AAa?$AAt?$AAu?$AAr?$AAd?$AAa?$AAy@ 000000018006bb00     libucrt:nlsdata.obj
 0002:00006b18       ??_C@_17DKNBKCHM@?$AAJ?$AAa?$AAn@ 000000018006bb18     libucrt:nlsdata.obj
 0002:00006b20       ??_C@_17LMDJEKJN@?$AAF?$AAe?$AAb@ 000000018006bb20     libucrt:nlsdata.obj
 0002:00006b28       ??_C@_17CKNLEDEC@?$AAM?$AAa?$AAr@ 000000018006bb28     libucrt:nlsdata.obj
 0002:00006b30       ??_C@_17LFPOIHDD@?$AAA?$AAp?$AAr@ 000000018006bb30     libucrt:nlsdata.obj
 0002:00006b38       ??_C@_17PNNKMEED@?$AAM?$AAa?$AAy@ 000000018006bb38     libucrt:nlsdata.obj
 0002:00006b40       ??_C@_17KCJGOCPB@?$AAJ?$AAu?$AAn@ 000000018006bb40     libucrt:nlsdata.obj
 0002:00006b48       ??_C@_17IJPCKHK@?$AAJ?$AAu?$AAl@ 000000018006bb48     libucrt:nlsdata.obj
 0002:00006b50       ??_C@_17ICPELBCN@?$AAA?$AAu?$AAg@ 000000018006bb50     libucrt:nlsdata.obj
 0002:00006b58       ??_C@_17HCHCOKMG@?$AAS?$AAe?$AAp@ 000000018006bb58     libucrt:nlsdata.obj
 0002:00006b60       ??_C@_17FNLKOI@?$AAO?$AAc?$AAt@ 000000018006bb60     libucrt:nlsdata.obj
 0002:00006b68       ??_C@_17BBDMLCIG@?$AAN?$AAo?$AAv@ 000000018006bb68     libucrt:nlsdata.obj
 0002:00006b70       ??_C@_17EGKACKIF@?$AAD?$AAe?$AAc@ 000000018006bb70     libucrt:nlsdata.obj
 0002:00006b78       ??_C@_1BA@EFMEIEBA@?$AAJ?$AAa?$AAn?$AAu?$AAa?$AAr?$AAy@ 000000018006bb78     libucrt:nlsdata.obj
 0002:00006b88       ??_C@_1BC@JGDDFFAM@?$AAF?$AAe?$AAb?$AAr?$AAu?$AAa?$AAr?$AAy@ 000000018006bb88     libucrt:nlsdata.obj
 0002:00006ba0       ??_C@_1M@IKEENEDF@?$AAM?$AAa?$AAr?$AAc?$AAh@ 000000018006bba0     libucrt:nlsdata.obj
 0002:00006bb0       ??_C@_1M@GJNLMHFD@?$AAA?$AAp?$AAr?$AAi?$AAl@ 000000018006bbb0     libucrt:nlsdata.obj
 0002:00006bc0       ??_C@_19EPFLPGAP@?$AAJ?$AAu?$AAn?$AAe@ 000000018006bbc0     libucrt:nlsdata.obj
 0002:00006bd0       ??_C@_19BIFMLPCD@?$AAJ?$AAu?$AAl?$AAy@ 000000018006bbd0     libucrt:nlsdata.obj
 0002:00006be0       ??_C@_1O@PAHLKOAC@?$AAA?$AAu?$AAg?$AAu?$AAs?$AAt@ 000000018006bbe0     libucrt:nlsdata.obj
 0002:00006bf0       ??_C@_1BE@DKAAMBJL@?$AAS?$AAe?$AAp?$AAt?$AAe?$AAm?$AAb?$AAe?$AAr@ 000000018006bbf0     libucrt:nlsdata.obj
 0002:00006c08       ??_C@_1BA@EPANDLNG@?$AAO?$AAc?$AAt?$AAo?$AAb?$AAe?$AAr@ 000000018006bc08     libucrt:nlsdata.obj
 0002:00006c18       ??_C@_1BC@BGLIFPF@?$AAN?$AAo?$AAv?$AAe?$AAm?$AAb?$AAe?$AAr@ 000000018006bc18     libucrt:nlsdata.obj
 0002:00006c30       ??_C@_1BC@FEMKIFH@?$AAD?$AAe?$AAc?$AAe?$AAm?$AAb?$AAe?$AAr@ 000000018006bc30     libucrt:nlsdata.obj
 0002:00006c44       ??_C@_15ODEHAHHF@?$AAA?$AAM@ 000000018006bc44     libucrt:nlsdata.obj
 0002:00006c4c       ??_C@_15CLMNNGEL@?$AAP?$AAM@ 000000018006bc4c     libucrt:nlsdata.obj
 0002:00006c58       ??_C@_1BC@IEBCMHCM@?$AAM?$AAM?$AA?1?$AAd?$AAd?$AA?1?$AAy?$AAy@ 000000018006bc58     libucrt:nlsdata.obj
 0002:00006c70       ??_C@_1CI@KNAKOEBC@?$AAd?$AAd?$AAd?$AAd?$AA?0?$AA?5?$AAM?$AAM?$AAM?$AAM?$AA?5?$AAd?$AAd?$AA?0?$AA?5@ 000000018006bc70     libucrt:nlsdata.obj
 0002:00006c98       ??_C@_1BC@GDGBMEMK@?$AAH?$AAH?$AA?3?$AAm?$AAm?$AA?3?$AAs?$AAs@ 000000018006bc98     libucrt:nlsdata.obj
 0002:00006cb0       ??_C@_1M@BMHNFIME@?$AAe?$AAn?$AA?9?$AAU?$AAS@ 000000018006bcb0     libucrt:nlsdata.obj
 0002:00006cbc       ?ccs@?1???$__acrt_stdio_parse_mode@_W@@YA?AU__acrt_stdio_stream_mode@@QEB_W@Z@4QB_WB 000000018006bcbc     libucrt:openfile.obj
 0002:00006cc8       ?utf8_encoding@?1???$__acrt_stdio_parse_mode@_W@@YA?AU__acrt_stdio_stream_mode@@QEB_W@Z@4QB_WB 000000018006bcc8     libucrt:openfile.obj
 0002:00006cd8       ?utf16_encoding@?1???$__acrt_stdio_parse_mode@_W@@YA?AU__acrt_stdio_stream_mode@@QEB_W@Z@4QB_WB 000000018006bcd8     libucrt:openfile.obj
 0002:00006ce8       ?unicode_encoding@?1???$__acrt_stdio_parse_mode@_W@@YA?AU__acrt_stdio_stream_mode@@QEB_W@Z@4QB_WB 000000018006bce8     libucrt:openfile.obj
 0002:00006d80       ??_C@_03OEIAHPBN@INF@      000000018006bd80     libucrt:cvt.obj
 0002:00006d84       ??_C@_03OJHLLCGB@inf@      000000018006bd84     libucrt:cvt.obj
 0002:00006d88       ??_C@_03LKNCIKJB@NAN@      000000018006bd88     libucrt:cvt.obj
 0002:00006d8c       ??_C@_03LHCJEHON@nan@      000000018006bd8c     libucrt:cvt.obj
 0002:00006d90       ??_C@_09OFJJIMPC@NAN?$CISNAN?$CJ@ 000000018006bd90     libucrt:cvt.obj
 0002:00006da0       ??_C@_09IPFBKMDL@nan?$CIsnan?$CJ@ 000000018006bda0     libucrt:cvt.obj
 0002:00006db0       ??_C@_08IKHNHAJ@NAN?$CIIND?$CJ@ 000000018006bdb0     libucrt:cvt.obj
 0002:00006dc0       ??_C@_08OFCDMILK@nan?$CIind?$CJ@ 000000018006bdc0     libucrt:cvt.obj
 0002:00006dcc       ??_C@_05KLBDPFGC@e?$CL000@ 000000018006bdcc     libucrt:cvt.obj
 0002:00006e80       ??_C@_1EA@JGEFHKEI@?$AAa?$AAp?$AAi?$AA?9?$AAm?$AAs?$AA?9?$AAw?$AAi?$AAn?$AA?9?$AAc?$AAo?$AAr?$AAe@ 000000018006be80     libucrt:winapi_thunks.obj
 0002:00006ec0       ??_C@_1DI@IJCEHOCB@?$AAa?$AAp?$AAi?$AA?9?$AAm?$AAs?$AA?9?$AAw?$AAi?$AAn?$AA?9?$AAc?$AAo?$AAr?$AAe@ 000000018006bec0     libucrt:winapi_thunks.obj
 0002:00006f00       ??_C@_1EI@MPIAOHOC@?$AAa?$AAp?$AAi?$AA?9?$AAm?$AAs?$AA?9?$AAw?$AAi?$AAn?$AA?9?$AAc?$AAo?$AAr?$AAe@ 000000018006bf00     libucrt:winapi_thunks.obj
 0002:00006f50       ??_C@_1FK@FPHCKFIE@?$AAa?$AAp?$AAi?$AA?9?$AAm?$AAs?$AA?9?$AAw?$AAi?$AAn?$AA?9?$AAc?$AAo?$AAr?$AAe@ 000000018006bf50     libucrt:winapi_thunks.obj
 0002:00006fb0       ??_C@_1EM@DILCGIIO@?$AAa?$AAp?$AAi?$AA?9?$AAm?$AAs?$AA?9?$AAw?$AAi?$AAn?$AA?9?$AAc?$AAo?$AAr?$AAe@ 000000018006bfb0     libucrt:winapi_thunks.obj
 0002:00007000       ??_C@_1DM@LNCGDDPN@?$AAa?$AAp?$AAi?$AA?9?$AAm?$AAs?$AA?9?$AAw?$AAi?$AAn?$AA?9?$AAc?$AAo?$AAr?$AAe@ 000000018006c000     libucrt:winapi_thunks.obj
 0002:00007040       ??_C@_1DO@FPAPJEMD@?$AAa?$AAp?$AAi?$AA?9?$AAm?$AAs?$AA?9?$AAw?$AAi?$AAn?$AA?9?$AAc?$AAo?$AAr?$AAe@ 000000018006c040     libucrt:winapi_thunks.obj
 0002:00007080       ??_C@_1DK@NDHNAHIO@?$AAa?$AAp?$AAi?$AA?9?$AAm?$AAs?$AA?9?$AAw?$AAi?$AAn?$AA?9?$AAc?$AAo?$AAr?$AAe@ 000000018006c080     libucrt:winapi_thunks.obj
 0002:000070c0       ??_C@_1DM@KGHDGBCM@?$AAa?$AAp?$AAi?$AA?9?$AAm?$AAs?$AA?9?$AAw?$AAi?$AAn?$AA?9?$AAc?$AAo?$AAr?$AAe@ 000000018006c0c0     libucrt:winapi_thunks.obj
 0002:00007100       ??_C@_1EO@IJIOEFOH@?$AAa?$AAp?$AAi?$AA?9?$AAm?$AAs?$AA?9?$AAw?$AAi?$AAn?$AA?9?$AAr?$AAt?$AAc?$AAo@ 000000018006c100     libucrt:winapi_thunks.obj
 0002:00007150       ??_C@_1FG@HHGEKANL@?$AAa?$AAp?$AAi?$AA?9?$AAm?$AAs?$AA?9?$AAw?$AAi?$AAn?$AA?9?$AAs?$AAe?$AAc?$AAu@ 000000018006c150     libucrt:winapi_thunks.obj
 0002:000071b0       ??_C@_1EG@DBIOJECG@?$AAe?$AAx?$AAt?$AA?9?$AAm?$AAs?$AA?9?$AAw?$AAi?$AAn?$AA?9?$AAn?$AAt?$AAu?$AAs@ 000000018006c1b0     libucrt:winapi_thunks.obj
 0002:00007200       ??_C@_1EO@FIHMJCLF@?$AAe?$AAx?$AAt?$AA?9?$AAm?$AAs?$AA?9?$AAw?$AAi?$AAn?$AA?9?$AAn?$AAt?$AAu?$AAs@ 000000018006c200     libucrt:winapi_thunks.obj
 0002:00007250       ??_C@_1BC@DNHGCMLG@?$AAa?$AAd?$AAv?$AAa?$AAp?$AAi?$AA3?$AA2@ 000000018006c250     libucrt:winapi_thunks.obj
 0002:00007268       ??_C@_1M@OAIMIKLP@?$AAn?$AAt?$AAd?$AAl?$AAl@ 000000018006c268     libucrt:winapi_thunks.obj
 0002:00007280       ??_C@_1EG@DPGNFKGC@?$AAa?$AAp?$AAi?$AA?9?$AAm?$AAs?$AA?9?$AAw?$AAi?$AAn?$AA?9?$AAa?$AAp?$AAp?$AAm@ 000000018006c280     libucrt:winapi_thunks.obj
 0002:000072c8       ??_C@_1O@BCCLBEOE@?$AAu?$AAs?$AAe?$AAr?$AA3?$AA2@ 000000018006c2c8     libucrt:winapi_thunks.obj
 0002:000072d8       ??_C@_1BA@IAIFMGEF@?$AAe?$AAx?$AAt?$AA?9?$AAm?$AAs?$AA?9@ 000000018006c2d8     libucrt:winapi_thunks.obj
 0002:000072f0       ??_C@_0BA@FHFNEAED@AreFileApisANSI@ 000000018006c2f0     libucrt:winapi_thunks.obj
 0002:00007310       ??_C@_0BE@LJANKFHF@EnumSystemLocalesEx@ 000000018006c310     libucrt:winapi_thunks.obj
 0002:00007330       ??_C@_0BA@EPCJIIPD@GetDateFormatEx@ 000000018006c330     libucrt:winapi_thunks.obj
 0002:00007350       ??_C@_0BA@CIJJKCJJ@GetTimeFormatEx@ 000000018006c350     libucrt:winapi_thunks.obj
 0002:00007368       ??_C@_0BJ@PBCCBIPI@GetUserDefaultLocaleName@ 000000018006c368     libucrt:winapi_thunks.obj
 0002:00007398       ??_C@_0BC@CELBKLLA@IsValidLocaleName@ 000000018006c398     libucrt:winapi_thunks.obj
 0002:000073c0       ??_C@_0BB@CDHDDLLP@LCIDToLocaleName@ 000000018006c3c0     libucrt:winapi_thunks.obj
 0002:000073e0       ??_C@_0BB@HBDEELFH@LocaleNameToLCID@ 000000018006c3e0     libucrt:winapi_thunks.obj
 0002:000073f8       ??_C@_0CF@OJOFEIGO@AppPolicyGetProcessTerminationM@ 000000018006c3f8     libucrt:winapi_thunks.obj
 0002:00007428       ??_C@_0BC@JEAENNKH@SystemFunction036@ 000000018006c428     libucrt:winapi_thunks.obj
 0002:00007468       ??_C@_03JGHBODFD@pow@      000000018006c468     libucrt:fpexcept.obj
 0002:0000746c       ??_C@_05HGHHAHAP@log10@    000000018006c46c     libucrt:fpexcept.obj
 0002:00007480       __log_256_lead             000000018006c480     libucrt:log_256_lead_tail_table.obj
 0002:00007c90       __log_256_tail             000000018006cc90     libucrt:log_256_lead_tail_table.obj
 0002:000084a0       __two_to_jby64_head_table  000000018006d4a0     libucrt:two_to_jby64_head_tail_table.obj
 0002:000086a0       __two_to_jby64_tail_table  000000018006d6a0     libucrt:two_to_jby64_head_tail_table.obj
 0002:000088a0       ??_C@_04MBFDLNIM@powf@     000000018006d8a0     libucrt:pow_special.obj
 0002:000088b0       __two_to_jby64_table       000000018006d8b0     libucrt:two_to_jby64_table.obj
 0002:00008ab0       __log_F_inv_qword          000000018006dab0     libucrt:log_f_inv_qword_table.obj
 0002:000092e0       ??_C@_1M@HPNHIDJI@?$AAj?$AAa?$AA?9?$AAJ?$AAP@ 000000018006e2e0     libucrt:mbctype.obj
 0002:000092f0       ??_C@_1M@BIBDDEMK@?$AAz?$AAh?$AA?9?$AAC?$AAN@ 000000018006e2f0     libucrt:mbctype.obj
 0002:00009300       ??_C@_1M@JLOOOEGK@?$AAk?$AAo?$AA?9?$AAK?$AAR@ 000000018006e300     libucrt:mbctype.obj
 0002:00009310       ??_C@_1M@CLNBBOPM@?$AAz?$AAh?$AA?9?$AAT?$AAW@ 000000018006e310     libucrt:mbctype.obj
 0002:00009320       __acrt_rg_language         000000018006e320     libucrt:get_qualified_locale.obj
 0002:00009730       __acrt_rg_language_count   000000018006e730     libucrt:get_qualified_locale.obj
 0002:00009740       __acrt_rg_country          000000018006e740     libucrt:get_qualified_locale.obj
 0002:000098b0       __acrt_rg_country_count    000000018006e8b0     libucrt:get_qualified_locale.obj
 0002:000098b8       ??_C@_1BC@LLOKLNP@?$AAa?$AAm?$AAe?$AAr?$AAi?$AAc?$AAa?$AAn@ 000000018006e8b8     libucrt:get_qualified_locale.obj
 0002:000098d0       ??_C@_1CC@HEIGCDGG@?$AAa?$AAm?$AAe?$AAr?$AAi?$AAc?$AAa?$AAn?$AA?5?$AAe?$AAn?$AAg?$AAl?$AAi?$AAs@ 000000018006e8d0     libucrt:get_qualified_locale.obj
 0002:000098f8       ??_C@_1CC@IHCNOMIN@?$AAa?$AAm?$AAe?$AAr?$AAi?$AAc?$AAa?$AAn?$AA?9?$AAe?$AAn?$AAg?$AAl?$AAi?$AAs@ 000000018006e8f8     libucrt:get_qualified_locale.obj
 0002:00009920       ??_C@_1BG@GKAGPCGG@?$AAa?$AAu?$AAs?$AAt?$AAr?$AAa?$AAl?$AAi?$AAa?$AAn@ 000000018006e920     libucrt:get_qualified_locale.obj
 0002:00009938       ??_C@_1BA@GMENCENF@?$AAb?$AAe?$AAl?$AAg?$AAi?$AAa?$AAn@ 000000018006e938     libucrt:get_qualified_locale.obj
 0002:00009948       ??_C@_1BC@PJMIIAAN@?$AAc?$AAa?$AAn?$AAa?$AAd?$AAi?$AAa?$AAn@ 000000018006e948     libucrt:get_qualified_locale.obj
 0002:00009960       ??_C@_17NOIMNFBF@?$AAc?$AAh?$AAh@ 000000018006e960     libucrt:get_qualified_locale.obj
 0002:00009968       ??_C@_17GGDALCHA@?$AAc?$AAh?$AAi@ 000000018006e968     libucrt:get_qualified_locale.obj
 0002:00009970       ??_C@_1BA@NPNJKIBL@?$AAc?$AAh?$AAi?$AAn?$AAe?$AAs?$AAe@ 000000018006e970     libucrt:get_qualified_locale.obj
 0002:00009980       ??_C@_1CC@DINBAMMJ@?$AAc?$AAh?$AAi?$AAn?$AAe?$AAs?$AAe?$AA?9?$AAh?$AAo?$AAn?$AAg?$AAk?$AAo?$AAn@ 000000018006e980     libucrt:get_qualified_locale.obj
 0002:000099a8       ??_C@_1CG@IOBJPACO@?$AAc?$AAh?$AAi?$AAn?$AAe?$AAs?$AAe?$AA?9?$AAs?$AAi?$AAm?$AAp?$AAl?$AAi?$AAf@ 000000018006e9a8     libucrt:get_qualified_locale.obj
 0002:000099d0       ??_C@_1CE@GAJNDCKG@?$AAc?$AAh?$AAi?$AAn?$AAe?$AAs?$AAe?$AA?9?$AAs?$AAi?$AAn?$AAg?$AAa?$AAp?$AAo@ 000000018006e9d0     libucrt:get_qualified_locale.obj
 0002:000099f8       ??_C@_1CI@PAJPIOOD@?$AAc?$AAh?$AAi?$AAn?$AAe?$AAs?$AAe?$AA?9?$AAt?$AAr?$AAa?$AAd?$AAi?$AAt?$AAi@ 000000018006e9f8     libucrt:get_qualified_locale.obj
 0002:00009a20       ??_C@_1BM@NILJBMMD@?$AAd?$AAu?$AAt?$AAc?$AAh?$AA?9?$AAb?$AAe?$AAl?$AAg?$AAi?$AAa?$AAn@ 000000018006ea20     libucrt:get_qualified_locale.obj
 0002:00009a40       ??_C@_1CC@OOJPJNEJ@?$AAe?$AAn?$AAg?$AAl?$AAi?$AAs?$AAh?$AA?9?$AAa?$AAm?$AAe?$AAr?$AAi?$AAc?$AAa@ 000000018006ea40     libucrt:get_qualified_locale.obj
 0002:00009a68       ??_C@_1BI@IOLFEEM@?$AAe?$AAn?$AAg?$AAl?$AAi?$AAs?$AAh?$AA?9?$AAa?$AAu?$AAs@ 000000018006ea68     libucrt:get_qualified_locale.obj
 0002:00009a80       ??_C@_1BO@HFFNLENJ@?$AAe?$AAn?$AAg?$AAl?$AAi?$AAs?$AAh?$AA?9?$AAb?$AAe?$AAl?$AAi?$AAz?$AAe@ 000000018006ea80     libucrt:get_qualified_locale.obj
 0002:00009aa0       ??_C@_1BI@HAPKJMPO@?$AAe?$AAn?$AAg?$AAl?$AAi?$AAs?$AAh?$AA?9?$AAc?$AAa?$AAn@ 000000018006eaa0     libucrt:get_qualified_locale.obj
 0002:00009ab8       ??_C@_1CE@HLNDMIOJ@?$AAe?$AAn?$AAg?$AAl?$AAi?$AAs?$AAh?$AA?9?$AAc?$AAa?$AAr?$AAi?$AAb?$AAb?$AAe@ 000000018006eab8     libucrt:get_qualified_locale.obj
 0002:00009ae0       ??_C@_1BI@LDHJHHAC@?$AAe?$AAn?$AAg?$AAl?$AAi?$AAs?$AAh?$AA?9?$AAi?$AAr?$AAe@ 000000018006eae0     libucrt:get_qualified_locale.obj
 0002:00009af8       ??_C@_1CA@NJMMCFOC@?$AAe?$AAn?$AAg?$AAl?$AAi?$AAs?$AAh?$AA?9?$AAj?$AAa?$AAm?$AAa?$AAi?$AAc?$AAa@ 000000018006eaf8     libucrt:get_qualified_locale.obj
 0002:00009b18       ??_C@_1BG@BHJEBBGG@?$AAe?$AAn?$AAg?$AAl?$AAi?$AAs?$AAh?$AA?9?$AAn?$AAz@ 000000018006eb18     libucrt:get_qualified_locale.obj
 0002:00009b30       ??_C@_1CK@FGOEJJCO@?$AAe?$AAn?$AAg?$AAl?$AAi?$AAs?$AAh?$AA?9?$AAs?$AAo?$AAu?$AAt?$AAh?$AA?5?$AAa@ 000000018006eb30     libucrt:get_qualified_locale.obj
 0002:00009b60       ??_C@_1DE@PDBJPCJ@?$AAe?$AAn?$AAg?$AAl?$AAi?$AAs?$AAh?$AA?9?$AAt?$AAr?$AAi?$AAn?$AAi?$AAd?$AAa@ 000000018006eb60     libucrt:get_qualified_locale.obj
 0002:00009b98       ??_C@_1BG@JGCANDME@?$AAe?$AAn?$AAg?$AAl?$AAi?$AAs?$AAh?$AA?9?$AAu?$AAk@ 000000018006eb98     libucrt:get_qualified_locale.obj
 0002:00009bb0       ??_C@_1BG@DINKMLE@?$AAe?$AAn?$AAg?$AAl?$AAi?$AAs?$AAh?$AA?9?$AAu?$AAs@ 000000018006ebb0     libucrt:get_qualified_locale.obj
 0002:00009bc8       ??_C@_1BI@NMFDBHJE@?$AAe?$AAn?$AAg?$AAl?$AAi?$AAs?$AAh?$AA?9?$AAu?$AAs?$AAa@ 000000018006ebc8     libucrt:get_qualified_locale.obj
 0002:00009be0       ??_C@_1BO@OIHKJKII@?$AAf?$AAr?$AAe?$AAn?$AAc?$AAh?$AA?9?$AAb?$AAe?$AAl?$AAg?$AAi?$AAa?$AAn@ 000000018006ebe0     libucrt:get_qualified_locale.obj
 0002:00009c00       ??_C@_1CA@NKAELJKI@?$AAf?$AAr?$AAe?$AAn?$AAc?$AAh?$AA?9?$AAc?$AAa?$AAn?$AAa?$AAd?$AAi?$AAa?$AAn@ 000000018006ec00     libucrt:get_qualified_locale.obj
 0002:00009c20       ??_C@_1CE@MGKCNLGN@?$AAf?$AAr?$AAe?$AAn?$AAc?$AAh?$AA?9?$AAl?$AAu?$AAx?$AAe?$AAm?$AAb?$AAo?$AAu@ 000000018006ec20     libucrt:get_qualified_locale.obj
 0002:00009c48       ??_C@_1BK@CEGEAILM@?$AAf?$AAr?$AAe?$AAn?$AAc?$AAh?$AA?9?$AAs?$AAw?$AAi?$AAs?$AAs@ 000000018006ec48     libucrt:get_qualified_locale.obj
 0002:00009c68       ??_C@_1CA@PAFKEOCC@?$AAg?$AAe?$AAr?$AAm?$AAa?$AAn?$AA?9?$AAa?$AAu?$AAs?$AAt?$AAr?$AAi?$AAa?$AAn@ 000000018006ec68     libucrt:get_qualified_locale.obj
 0002:00009c88       ??_C@_1CI@HCFHGOFD@?$AAg?$AAe?$AAr?$AAm?$AAa?$AAn?$AA?9?$AAl?$AAi?$AAc?$AAh?$AAt?$AAe?$AAn?$AAs@ 000000018006ec88     libucrt:get_qualified_locale.obj
 0002:00009cb0       ??_C@_1CE@FEDDNPDG@?$AAg?$AAe?$AAr?$AAm?$AAa?$AAn?$AA?9?$AAl?$AAu?$AAx?$AAe?$AAm?$AAb?$AAo?$AAu@ 000000018006ecb0     libucrt:get_qualified_locale.obj
 0002:00009cd8       ??_C@_1BK@LIMINNMN@?$AAg?$AAe?$AAr?$AAm?$AAa?$AAn?$AA?9?$AAs?$AAw?$AAi?$AAs?$AAs@ 000000018006ecd8     libucrt:get_qualified_locale.obj
 0002:00009cf8       ??_C@_1BM@LGMDBEPD@?$AAi?$AAr?$AAi?$AAs?$AAh?$AA?9?$AAe?$AAn?$AAg?$AAl?$AAi?$AAs?$AAh@ 000000018006ecf8     libucrt:get_qualified_locale.obj
 0002:00009d18       ??_C@_1BM@NNCFBAEE@?$AAi?$AAt?$AAa?$AAl?$AAi?$AAa?$AAn?$AA?9?$AAs?$AAw?$AAi?$AAs?$AAs@ 000000018006ed18     libucrt:get_qualified_locale.obj
 0002:00009d38       ??_C@_1BE@FEDJNPIB@?$AAn?$AAo?$AAr?$AAw?$AAe?$AAg?$AAi?$AAa?$AAn@ 000000018006ed38     libucrt:get_qualified_locale.obj
 0002:00009d50       ??_C@_1CC@CILKDEIE@?$AAn?$AAo?$AAr?$AAw?$AAe?$AAg?$AAi?$AAa?$AAn?$AA?9?$AAb?$AAo?$AAk?$AAm?$AAa@ 000000018006ed50     libucrt:get_qualified_locale.obj
 0002:00009d78       ??_C@_1CE@DHMMHEPL@?$AAn?$AAo?$AAr?$AAw?$AAe?$AAg?$AAi?$AAa?$AAn?$AA?9?$AAn?$AAy?$AAn?$AAo?$AAr@ 000000018006ed78     libucrt:get_qualified_locale.obj
 0002:00009da0       ??_C@_1CK@OPNMHECD@?$AAp?$AAo?$AAr?$AAt?$AAu?$AAg?$AAu?$AAe?$AAs?$AAe?$AA?9?$AAb?$AAr?$AAa?$AAz@ 000000018006eda0     libucrt:get_qualified_locale.obj
 0002:00009dd0       ??_C@_1CE@KEEHCDB@?$AAs?$AAp?$AAa?$AAn?$AAi?$AAs?$AAh?$AA?9?$AAa?$AAr?$AAg?$AAe?$AAn?$AAt?$AAi@ 000000018006edd0     libucrt:get_qualified_locale.obj
 0002:00009df8       ??_C@_1CA@GIAOLHJD@?$AAs?$AAp?$AAa?$AAn?$AAi?$AAs?$AAh?$AA?9?$AAb?$AAo?$AAl?$AAi?$AAv?$AAi?$AAa@ 000000018006edf8     libucrt:get_qualified_locale.obj
 0002:00009e18       ??_C@_1BM@OJNDFNPD@?$AAs?$AAp?$AAa?$AAn?$AAi?$AAs?$AAh?$AA?9?$AAc?$AAh?$AAi?$AAl?$AAe@ 000000018006ee18     libucrt:get_qualified_locale.obj
 0002:00009e38       ??_C@_1CC@OCOLPALL@?$AAs?$AAp?$AAa?$AAn?$AAi?$AAs?$AAh?$AA?9?$AAc?$AAo?$AAl?$AAo?$AAm?$AAb?$AAi@ 000000018006ee38     libucrt:get_qualified_locale.obj
 0002:00009e60       ??_C@_1CG@BPOFMKBB@?$AAs?$AAp?$AAa?$AAn?$AAi?$AAs?$AAh?$AA?9?$AAc?$AAo?$AAs?$AAt?$AAa?$AA?5?$AAr@ 000000018006ee60     libucrt:get_qualified_locale.obj
 0002:00009e88       ??_C@_1DG@IGOBAPBB@?$AAs?$AAp?$AAa?$AAn?$AAi?$AAs?$AAh?$AA?9?$AAd?$AAo?$AAm?$AAi?$AAn?$AAi?$AAc@ 000000018006ee88     libucrt:get_qualified_locale.obj
 0002:00009ec0       ??_C@_1CA@JHAPGEGI@?$AAs?$AAp?$AAa?$AAn?$AAi?$AAs?$AAh?$AA?9?$AAe?$AAc?$AAu?$AAa?$AAd?$AAo?$AAr@ 000000018006eec0     libucrt:get_qualified_locale.obj
 0002:00009ee0       ??_C@_1CI@LAPALJPP@?$AAs?$AAp?$AAa?$AAn?$AAi?$AAs?$AAh?$AA?9?$AAe?$AAl?$AA?5?$AAs?$AAa?$AAl?$AAv@ 000000018006eee0     libucrt:get_qualified_locale.obj
 0002:00009f08       ??_C@_1CE@PDGBOFOM@?$AAs?$AAp?$AAa?$AAn?$AAi?$AAs?$AAh?$AA?9?$AAg?$AAu?$AAa?$AAt?$AAe?$AAm?$AAa@ 000000018006ef08     libucrt:get_qualified_locale.obj
 0002:00009f30       ??_C@_1CC@NBEBAODI@?$AAs?$AAp?$AAa?$AAn?$AAi?$AAs?$AAh?$AA?9?$AAh?$AAo?$AAn?$AAd?$AAu?$AAr?$AAa@ 000000018006ef30     libucrt:get_qualified_locale.obj
 0002:00009f58       ??_C@_1CA@LLKGHBMF@?$AAs?$AAp?$AAa?$AAn?$AAi?$AAs?$AAh?$AA?9?$AAm?$AAe?$AAx?$AAi?$AAc?$AAa?$AAn@ 000000018006ef58     libucrt:get_qualified_locale.obj
 0002:00009f78       ??_C@_1BO@LKNDOIGD@?$AAs?$AAp?$AAa?$AAn?$AAi?$AAs?$AAh?$AA?9?$AAm?$AAo?$AAd?$AAe?$AAr?$AAn@ 000000018006ef78     libucrt:get_qualified_locale.obj
 0002:00009f98       ??_C@_1CE@NMDMOEEB@?$AAs?$AAp?$AAa?$AAn?$AAi?$AAs?$AAh?$AA?9?$AAn?$AAi?$AAc?$AAa?$AAr?$AAa?$AAg@ 000000018006ef98     libucrt:get_qualified_locale.obj
 0002:00009fc0       ??_C@_1BO@LLCBEJGB@?$AAs?$AAp?$AAa?$AAn?$AAi?$AAs?$AAh?$AA?9?$AAp?$AAa?$AAn?$AAa?$AAm?$AAa@ 000000018006efc0     libucrt:get_qualified_locale.obj
 0002:00009fe0       ??_C@_1CC@FKPGGIHO@?$AAs?$AAp?$AAa?$AAn?$AAi?$AAs?$AAh?$AA?9?$AAp?$AAa?$AAr?$AAa?$AAg?$AAu?$AAa@ 000000018006efe0     libucrt:get_qualified_locale.obj
 0002:0000a008       ??_C@_1BK@CDEIHOOP@?$AAs?$AAp?$AAa?$AAn?$AAi?$AAs?$AAh?$AA?9?$AAp?$AAe?$AAr?$AAu@ 000000018006f008     libucrt:get_qualified_locale.obj
 0002:0000a028       ??_C@_1CI@GAHAKKGP@?$AAs?$AAp?$AAa?$AAn?$AAi?$AAs?$AAh?$AA?9?$AAp?$AAu?$AAe?$AAr?$AAt?$AAo?$AA?5@ 000000018006f028     libucrt:get_qualified_locale.obj
 0002:0000a050       ??_C@_1CA@NKJBCAGP@?$AAs?$AAp?$AAa?$AAn?$AAi?$AAs?$AAh?$AA?9?$AAu?$AAr?$AAu?$AAg?$AAu?$AAa?$AAy@ 000000018006f050     libucrt:get_qualified_locale.obj
 0002:0000a070       ??_C@_1CE@ODILCONM@?$AAs?$AAp?$AAa?$AAn?$AAi?$AAs?$AAh?$AA?9?$AAv?$AAe?$AAn?$AAe?$AAz?$AAu?$AAe@ 000000018006f070     libucrt:get_qualified_locale.obj
 0002:0000a098       ??_C@_1CA@OBNMCGFO@?$AAs?$AAw?$AAe?$AAd?$AAi?$AAs?$AAh?$AA?9?$AAf?$AAi?$AAn?$AAl?$AAa?$AAn?$AAd@ 000000018006f098     libucrt:get_qualified_locale.obj
 0002:0000a0b8       ??_C@_1M@PIPDDPPI@?$AAs?$AAw?$AAi?$AAs?$AAs@ 000000018006f0b8     libucrt:get_qualified_locale.obj
 0002:0000a0c4       ??_C@_15PJPFLCCM@?$AAu?$AAk@ 000000018006f0c4     libucrt:get_qualified_locale.obj
 0002:0000a0cc       ??_C@_15GMFIMNFM@?$AAu?$AAs@ 000000018006f0cc     libucrt:get_qualified_locale.obj
 0002:0000a0d8       ??_C@_17HAEBFAGL@?$AAu?$AAs?$AAa@ 000000018006f0d8     libucrt:get_qualified_locale.obj
 0002:0000a0e0       ??_C@_1BA@DPFJEPHB@?$AAa?$AAm?$AAe?$AAr?$AAi?$AAc?$AAa@ 000000018006f0e0     libucrt:get_qualified_locale.obj
 0002:0000a0f0       ??_C@_1BA@ELOGGFK@?$AAb?$AAr?$AAi?$AAt?$AAa?$AAi?$AAn@ 000000018006f0f0     libucrt:get_qualified_locale.obj
 0002:0000a100       ??_C@_1M@GHBGIGDA@?$AAc?$AAh?$AAi?$AAn?$AAa@ 000000018006f100     libucrt:get_qualified_locale.obj
 0002:0000a110       ??_C@_1M@NCHEJOPO@?$AAc?$AAz?$AAe?$AAc?$AAh@ 000000018006f110     libucrt:get_qualified_locale.obj
 0002:0000a120       ??_C@_1BA@BKPAPBLA@?$AAe?$AAn?$AAg?$AAl?$AAa?$AAn?$AAd@ 000000018006f120     libucrt:get_qualified_locale.obj
 0002:0000a130       ??_C@_1BM@HKBCKIPC@?$AAg?$AAr?$AAe?$AAa?$AAt?$AA?5?$AAb?$AAr?$AAi?$AAt?$AAa?$AAi?$AAn@ 000000018006f130     libucrt:get_qualified_locale.obj
 0002:0000a150       ??_C@_1BA@PPCHPGJB@?$AAh?$AAo?$AAl?$AAl?$AAa?$AAn?$AAd@ 000000018006f150     libucrt:get_qualified_locale.obj
 0002:0000a160       ??_C@_1BE@JBMPEGDG@?$AAh?$AAo?$AAn?$AAg?$AA?9?$AAk?$AAo?$AAn?$AAg@ 000000018006f160     libucrt:get_qualified_locale.obj
 0002:0000a178       ??_C@_1BI@KOELBBPJ@?$AAn?$AAe?$AAw?$AA?9?$AAz?$AAe?$AAa?$AAl?$AAa?$AAn?$AAd@ 000000018006f178     libucrt:get_qualified_locale.obj
 0002:0000a190       ??_C@_15HIEBHAIO@?$AAn?$AAz@ 000000018006f190     libucrt:get_qualified_locale.obj
 0002:0000a198       ??_C@_1BC@CHBCPFPI@?$AAp?$AAr?$AA?5?$AAc?$AAh?$AAi?$AAn?$AAa@ 000000018006f198     libucrt:get_qualified_locale.obj
 0002:0000a1b0       ??_C@_1BC@JAOIIFKD@?$AAp?$AAr?$AA?9?$AAc?$AAh?$AAi?$AAn?$AAa@ 000000018006f1b0     libucrt:get_qualified_locale.obj
 0002:0000a1c8       ??_C@_1BI@BEHPPHKC@?$AAp?$AAu?$AAe?$AAr?$AAt?$AAo?$AA?9?$AAr?$AAi?$AAc?$AAo@ 000000018006f1c8     libucrt:get_qualified_locale.obj
 0002:0000a1e0       ??_C@_1O@PAEOFKDI@?$AAs?$AAl?$AAo?$AAv?$AAa?$AAk@ 000000018006f1e0     libucrt:get_qualified_locale.obj
 0002:0000a1f0       ??_C@_1BK@FIHMCKAM@?$AAs?$AAo?$AAu?$AAt?$AAh?$AA?5?$AAa?$AAf?$AAr?$AAi?$AAc?$AAa@ 000000018006f1f0     libucrt:get_qualified_locale.obj
 0002:0000a210       ??_C@_1BI@NAEOODKB@?$AAs?$AAo?$AAu?$AAt?$AAh?$AA?5?$AAk?$AAo?$AAr?$AAe?$AAa@ 000000018006f210     libucrt:get_qualified_locale.obj
 0002:0000a228       ??_C@_1BK@FBDGGIFF@?$AAs?$AAo?$AAu?$AAt?$AAh?$AA?9?$AAa?$AAf?$AAr?$AAi?$AAc?$AAa@ 000000018006f228     libucrt:get_qualified_locale.obj
 0002:0000a248       ??_C@_1BI@GHLEJDPK@?$AAs?$AAo?$AAu?$AAt?$AAh?$AA?9?$AAk?$AAo?$AAr?$AAe?$AAa@ 000000018006f248     libucrt:get_qualified_locale.obj
 0002:0000a260       ??_C@_1CE@PLHLOMJF@?$AAt?$AAr?$AAi?$AAn?$AAi?$AAd?$AAa?$AAd?$AA?5?$AA?$CG?$AA?5?$AAt?$AAo?$AAb?$AAa@ 000000018006f260     libucrt:get_qualified_locale.obj
 0002:0000a288       ??_C@_1BO@MODIMHHI@?$AAu?$AAn?$AAi?$AAt?$AAe?$AAd?$AA?9?$AAk?$AAi?$AAn?$AAg?$AAd?$AAo?$AAm@ 000000018006f288     libucrt:get_qualified_locale.obj
 0002:0000a2a8       ??_C@_1BM@FFHJONBJ@?$AAu?$AAn?$AAi?$AAt?$AAe?$AAd?$AA?9?$AAs?$AAt?$AAa?$AAt?$AAe?$AAs@ 000000018006f2a8     libucrt:get_qualified_locale.obj
 0002:0000a2c8       ??_C@_19MPDNHKDG@?$AAu?$AAt?$AAf?$AA8@ 000000018006f2c8     libucrt:get_qualified_locale.obj
 0002:0000a2d8       ??_C@_17DNCLJFIF@?$AAA?$AAC?$AAP@ 000000018006f2d8     libucrt:get_qualified_locale.obj
 0002:0000a2e0       ??_C@_1M@FPEIIFAM@?$AAu?$AAt?$AAf?$AA?9?$AA8@ 000000018006f2e0     libucrt:get_qualified_locale.obj
 0002:0000a2f0       ??_C@_17CIKBIHLH@?$AAO?$AAC?$AAP@ 000000018006f2f0     libucrt:get_qualified_locale.obj
 0002:0000a2f8       __rglangidNotDefault       000000018006f2f8     libucrt:getqloc_downlevel.obj
 0002:0000a338       ??_C@_01GBGANLPD@0@        000000018006f338     libucrt:cfout.obj
 0002:0000a33c       ??_C@_05DNEBIAHO@1?$CDINF@ 000000018006f33c     libucrt:cfout.obj
 0002:0000a344       ??_C@_06IMKFLFPG@1?$CDQNAN@ 000000018006f344     libucrt:cfout.obj
 0002:0000a34c       ??_C@_06PGGFOGJG@1?$CDSNAN@ 000000018006f34c     libucrt:cfout.obj
 0002:0000a354       ??_C@_05PHHOCPM@1?$CDIND@  000000018006f354     libucrt:cfout.obj
 0002:0000b1a0       ??_C@_15EMKDOKLE@?$AAa?$AAr@ 00000001800701a0     libucrt:lcidtoname_downlevel.obj
 0002:0000b1a8       ??_C@_15KNPADPLH@?$AAb?$AAg@ 00000001800701a8     libucrt:lcidtoname_downlevel.obj
 0002:0000b1b0       ??_C@_15EDMHLDMO@?$AAc?$AAa@ 00000001800701b0     libucrt:lcidtoname_downlevel.obj
 0002:0000b1b8       ??_C@_1O@BPEAJADD@?$AAz?$AAh?$AA?9?$AAC?$AAH?$AAS@ 00000001800701b8     libucrt:lcidtoname_downlevel.obj
 0002:0000b1c8       ??_C@_15LJNHCMNK@?$AAc?$AAs@ 00000001800701c8     libucrt:lcidtoname_downlevel.obj
 0002:0000b1d0       ??_C@_15FOMCIDHG@?$AAd?$AAa@ 00000001800701d0     libucrt:lcidtoname_downlevel.obj
 0002:0000b1d8       ??_C@_15NBKABECB@?$AAd?$AAe@ 00000001800701d8     libucrt:lcidtoname_downlevel.obj
 0002:0000b1e0       ??_C@_15GHPEIIAO@?$AAe?$AAl@ 00000001800701e0     libucrt:lcidtoname_downlevel.obj
 0002:0000b1e8       ??_C@_15MNPNEAIF@?$AAe?$AAn@ 00000001800701e8     libucrt:lcidtoname_downlevel.obj
 0002:0000b1f0       ??_C@_15GPIOMPMH@?$AAe?$AAs@ 00000001800701f0     libucrt:lcidtoname_downlevel.obj
 0002:0000b1f8       ??_C@_15NGLOAKJC@?$AAf?$AAi@ 00000001800701f8     libucrt:lcidtoname_downlevel.obj
 0002:0000b200       ??_C@_15FBKGNKAM@?$AAf?$AAr@ 0000000180070200     libucrt:lcidtoname_downlevel.obj
 0002:0000b208       ??_C@_15KGGCNEFK@?$AAh?$AAe@ 0000000180070208     libucrt:lcidtoname_downlevel.obj
 0002:0000b210       ??_C@_15PGHLIDMF@?$AAh?$AAu@ 0000000180070210     libucrt:lcidtoname_downlevel.obj
 0002:0000b218       ??_C@_15BIEMAPLM@?$AAi?$AAs@ 0000000180070218     libucrt:lcidtoname_downlevel.obj
 0002:0000b220       ??_C@_15IFJLDHAF@?$AAi?$AAt@ 0000000180070220     libucrt:lcidtoname_downlevel.obj
 0002:0000b228       ??_C@_15GEMIOCAG@?$AAj?$AAa@ 0000000180070228     libucrt:lcidtoname_downlevel.obj
 0002:0000b230       ??_C@_15EPELEGJA@?$AAk?$AAo@ 0000000180070230     libucrt:lcidtoname_downlevel.obj
 0002:0000b238       ??_C@_15NDDHIMN@?$AAn?$AAl@ 0000000180070238     libucrt:lcidtoname_downlevel.obj
 0002:0000b240       ??_C@_15BPIGNHCD@?$AAn?$AAo@ 0000000180070240     libucrt:lcidtoname_downlevel.obj
 0002:0000b248       ??_C@_15DEOPBLCG@?$AAp?$AAl@ 0000000180070248     libucrt:lcidtoname_downlevel.obj
 0002:0000b250       ??_C@_15KBECGEFG@?$AAp?$AAt@ 0000000180070250     libucrt:lcidtoname_downlevel.obj
 0002:0000b258       ??_C@_15GLJCBFMD@?$AAr?$AAo@ 0000000180070258     libucrt:lcidtoname_downlevel.obj
 0002:0000b260       ??_C@_15FEDGKCDI@?$AAr?$AAu@ 0000000180070260     libucrt:lcidtoname_downlevel.obj
 0002:0000b268       ??_C@_15GLKMLLHM@?$AAh?$AAr@ 0000000180070268     libucrt:lcidtoname_downlevel.obj
 0002:0000b270       ??_C@_15CPKMFBDB@?$AAs?$AAk@ 0000000180070270     libucrt:lcidtoname_downlevel.obj
 0002:0000b278       ??_C@_15BAAIOGMK@?$AAs?$AAq@ 0000000180070278     libucrt:lcidtoname_downlevel.obj
 0002:0000b280       ??_C@_15INNPNOHD@?$AAs?$AAv@ 0000000180070280     libucrt:lcidtoname_downlevel.obj
 0002:0000b288       ??_C@_15CABMMOGH@?$AAt?$AAh@ 0000000180070288     libucrt:lcidtoname_downlevel.obj
 0002:0000b290       ??_C@_15BPLIHJJM@?$AAt?$AAr@ 0000000180070290     libucrt:lcidtoname_downlevel.obj
 0002:0000b298       ??_C@_15NEOEKKDJ@?$AAu?$AAr@ 0000000180070298     libucrt:lcidtoname_downlevel.obj
 0002:0000b2a0       ??_C@_15NFICGAJK@?$AAi?$AAd@ 00000001800702a0     libucrt:lcidtoname_downlevel.obj
 0002:0000b2a8       ??_C@_15HPJPHDM@?$AAb?$AAe@ 00000001800702a8     libucrt:lcidtoname_downlevel.obj
 0002:0000b2b0       ??_C@_15LCHLGJII@?$AAs?$AAl@ 00000001800702b0     libucrt:lcidtoname_downlevel.obj
 0002:0000b2b8       ??_C@_15PCFJPHHO@?$AAe?$AAt@ 00000001800702b8     libucrt:lcidtoname_downlevel.obj
 0002:0000b2c0       ??_C@_15HPFPGODN@?$AAl?$AAv@ 00000001800702c0     libucrt:lcidtoname_downlevel.obj
 0002:0000b2c8       ??_C@_15NFFGKGLG@?$AAl?$AAt@ 00000001800702c8     libucrt:lcidtoname_downlevel.obj
 0002:0000b2d0       ??_C@_15BDAKCCHN@?$AAf?$AAa@ 00000001800702d0     libucrt:lcidtoname_downlevel.obj
 0002:0000b2d8       ??_C@_15NFGIAIAJ@?$AAv?$AAi@ 00000001800702d8     libucrt:lcidtoname_downlevel.obj
 0002:0000b2e0       ??_C@_15LMKNDMHN@?$AAh?$AAy@ 00000001800702e0     libucrt:lcidtoname_downlevel.obj
 0002:0000b2e8       ??_C@_15IJBHMCFL@?$AAa?$AAz@ 00000001800702e8     libucrt:lcidtoname_downlevel.obj
 0002:0000b2f0       ??_C@_15EKOFJABL@?$AAe?$AAu@ 00000001800702f0     libucrt:lcidtoname_downlevel.obj
 0002:0000b2f8       ??_C@_15BGHADCNK@?$AAm?$AAk@ 00000001800702f8     libucrt:lcidtoname_downlevel.obj
 0002:0000b300       ??_C@_15JDNICKHM@?$AAa?$AAf@ 0000000180070300     libucrt:lcidtoname_downlevel.obj
 0002:0000b308       ??_C@_15KPJEDBKD@?$AAk?$AAa@ 0000000180070308     libucrt:lcidtoname_downlevel.obj
 0002:0000b310       ??_C@_15PDNFFFEO@?$AAf?$AAo@ 0000000180070310     libucrt:lcidtoname_downlevel.obj
 0002:0000b318       ??_C@_15OMLEGLOC@?$AAh?$AAi@ 0000000180070318     libucrt:lcidtoname_downlevel.obj
 0002:0000b320       ??_C@_15IDNNENKK@?$AAm?$AAs@ 0000000180070320     libucrt:lcidtoname_downlevel.obj
 0002:0000b328       ??_C@_15MACJNBMH@?$AAk?$AAk@ 0000000180070328     libucrt:lcidtoname_downlevel.obj
 0002:0000b330       ??_C@_15DKDJEOND@?$AAk?$AAy@ 0000000180070330     libucrt:lcidtoname_downlevel.obj
 0002:0000b338       ??_C@_15DFGDLJBG@?$AAs?$AAw@ 0000000180070338     libucrt:lcidtoname_downlevel.obj
 0002:0000b340       ??_C@_15BBFAICNG@?$AAu?$AAz@ 0000000180070340     libucrt:lcidtoname_downlevel.obj
 0002:0000b348       ??_C@_15DKNDCGEA@?$AAt?$AAt@ 0000000180070348     libucrt:lcidtoname_downlevel.obj
 0002:0000b350       ??_C@_15MGIFMDPL@?$AAp?$AAa@ 0000000180070350     libucrt:lcidtoname_downlevel.obj
 0002:0000b358       ??_C@_15HCNDBBA@?$AAg?$AAu@ 0000000180070358     libucrt:lcidtoname_downlevel.obj
 0002:0000b360       ??_C@_15FNBEIBON@?$AAt?$AAa@ 0000000180070360     libucrt:lcidtoname_downlevel.obj
 0002:0000b368       ??_C@_15NCHGBGLK@?$AAt?$AAe@ 0000000180070368     libucrt:lcidtoname_downlevel.obj
 0002:0000b370       ??_C@_15PHPHCBPF@?$AAk?$AAn@ 0000000180070370     libucrt:lcidtoname_downlevel.obj
 0002:0000b378       ??_C@_15DLGBCKMP@?$AAm?$AAr@ 0000000180070378     libucrt:lcidtoname_downlevel.obj
 0002:0000b380       ??_C@_15EABBLBFF@?$AAs?$AAa@ 0000000180070380     libucrt:lcidtoname_downlevel.obj
 0002:0000b388       ??_C@_15CBKOMCOI@?$AAm?$AAn@ 0000000180070388     libucrt:lcidtoname_downlevel.obj
 0002:0000b390       ??_C@_15CKDMCJAF@?$AAg?$AAl@ 0000000180070390     libucrt:lcidtoname_downlevel.obj
 0002:0000b398       ??_C@_17CNJFBPG@?$AAk?$AAo?$AAk@ 0000000180070398     libucrt:lcidtoname_downlevel.obj
 0002:0000b3a0       ??_C@_17FFBJICPL@?$AAs?$AAy?$AAr@ 00000001800703a0     libucrt:lcidtoname_downlevel.obj
 0002:0000b3a8       ??_C@_17KPNDCPAF@?$AAd?$AAi?$AAv@ 00000001800703a8     libucrt:lcidtoname_downlevel.obj
 0002:0000b3b0       ??_C@_1M@OKAHONE@?$AAa?$AAr?$AA?9?$AAS?$AAA@ 00000001800703b0     libucrt:lcidtoname_downlevel.obj
 0002:0000b3c0       ??_C@_1M@FFFIGIGK@?$AAb?$AAg?$AA?9?$AAB?$AAG@ 00000001800703c0     libucrt:lcidtoname_downlevel.obj
 0002:0000b3d0       ??_C@_1M@BJNKEDC@?$AAc?$AAa?$AA?9?$AAE?$AAS@ 00000001800703d0     libucrt:lcidtoname_downlevel.obj
 0002:0000b3e0       ??_C@_1M@IJJHFJHA@?$AAc?$AAs?$AA?9?$AAC?$AAZ@ 00000001800703e0     libucrt:lcidtoname_downlevel.obj
 0002:0000b3f0       ??_C@_1M@CLPEOBGI@?$AAd?$AAa?$AA?9?$AAD?$AAK@ 00000001800703f0     libucrt:lcidtoname_downlevel.obj
 0002:0000b400       ??_C@_1M@MCMADGCB@?$AAd?$AAe?$AA?9?$AAD?$AAE@ 0000000180070400     libucrt:lcidtoname_downlevel.obj
 0002:0000b410       ??_C@_1M@OOCKEMAM@?$AAe?$AAl?$AA?9?$AAG?$AAR@ 0000000180070410     libucrt:lcidtoname_downlevel.obj
 0002:0000b420       ??_C@_1M@DDNJFGID@?$AAf?$AAi?$AA?9?$AAF?$AAI@ 0000000180070420     libucrt:lcidtoname_downlevel.obj
 0002:0000b430       ??_C@_1M@GLIPPMAC@?$AAf?$AAr?$AA?9?$AAF?$AAR@ 0000000180070430     libucrt:lcidtoname_downlevel.obj
 0002:0000b440       ??_C@_1M@GFMCHPE@?$AAh?$AAe?$AA?9?$AAI?$AAL@ 0000000180070440     libucrt:lcidtoname_downlevel.obj
 0002:0000b450       ??_C@_1M@MHLPGNKM@?$AAh?$AAu?$AA?9?$AAH?$AAU@ 0000000180070450     libucrt:lcidtoname_downlevel.obj
 0002:0000b460       ??_C@_1M@LPDDNNPN@?$AAi?$AAs?$AA?9?$AAI?$AAS@ 0000000180070460     libucrt:lcidtoname_downlevel.obj
 0002:0000b470       ??_C@_1M@MADIPODN@?$AAi?$AAt?$AA?9?$AAI?$AAT@ 0000000180070470     libucrt:lcidtoname_downlevel.obj
 0002:0000b480       ??_C@_1M@IHBJJGG@?$AAn?$AAl?$AA?9?$AAN?$AAL@ 0000000180070480     libucrt:lcidtoname_downlevel.obj
 0002:0000b490       ??_C@_1M@EANAGDL@?$AAn?$AAb?$AA?9?$AAN?$AAO@ 0000000180070490     libucrt:lcidtoname_downlevel.obj
 0002:0000b4a0       ??_C@_1M@NEIEMEGP@?$AAp?$AAl?$AA?9?$AAP?$AAL@ 00000001800704a0     libucrt:lcidtoname_downlevel.obj
 0002:0000b4b0       ??_C@_1M@BOCFIGEP@?$AAp?$AAt?$AA?9?$AAB?$AAR@ 00000001800704b0     libucrt:lcidtoname_downlevel.obj
 0002:0000b4c0       ??_C@_1M@IMPFOPBG@?$AAr?$AAo?$AA?9?$AAR?$AAO@ 00000001800704c0     libucrt:lcidtoname_downlevel.obj
 0002:0000b4d0       ??_C@_1M@IDNNEJMM@?$AAr?$AAu?$AA?9?$AAR?$AAU@ 00000001800704d0     libucrt:lcidtoname_downlevel.obj
 0002:0000b4e0       ??_C@_1M@LILEEOGM@?$AAh?$AAr?$AA?9?$AAH?$AAR@ 00000001800704e0     libucrt:lcidtoname_downlevel.obj
 0002:0000b4f0       ??_C@_1M@FKIFEHPB@?$AAs?$AAk?$AA?9?$AAS?$AAK@ 00000001800704f0     libucrt:lcidtoname_downlevel.obj
 0002:0000b500       ??_C@_1M@LJMAMNPJ@?$AAs?$AAq?$AA?9?$AAA?$AAL@ 0000000180070500     libucrt:lcidtoname_downlevel.obj
 0002:0000b510       ??_C@_1M@GIAKDKJK@?$AAs?$AAv?$AA?9?$AAS?$AAE@ 0000000180070510     libucrt:lcidtoname_downlevel.obj
 0002:0000b520       ??_C@_1M@MKJKIKCL@?$AAt?$AAh?$AA?9?$AAT?$AAH@ 0000000180070520     libucrt:lcidtoname_downlevel.obj
 0002:0000b530       ??_C@_1M@MFLCCMPB@?$AAt?$AAr?$AA?9?$AAT?$AAR@ 0000000180070530     libucrt:lcidtoname_downlevel.obj
 0002:0000b540       ??_C@_1M@OIJHDKJN@?$AAu?$AAr?$AA?9?$AAP?$AAK@ 0000000180070540     libucrt:lcidtoname_downlevel.obj
 0002:0000b550       ??_C@_1M@LHIPCIEK@?$AAi?$AAd?$AA?9?$AAI?$AAD@ 0000000180070550     libucrt:lcidtoname_downlevel.obj
 0002:0000b560       ??_C@_1M@MFMOBGI@?$AAu?$AAk?$AA?9?$AAU?$AAA@ 0000000180070560     libucrt:lcidtoname_downlevel.obj
 0002:0000b570       ??_C@_1M@OBGLJIPL@?$AAb?$AAe?$AA?9?$AAB?$AAY@ 0000000180070570     libucrt:lcidtoname_downlevel.obj
 0002:0000b580       ??_C@_1M@BCFAJEAD@?$AAs?$AAl?$AA?9?$AAS?$AAI@ 0000000180070580     libucrt:lcidtoname_downlevel.obj
 0002:0000b590       ??_C@_1M@FKFFEDDN@?$AAe?$AAt?$AA?9?$AAE?$AAE@ 0000000180070590     libucrt:lcidtoname_downlevel.obj
 0002:0000b5a0       ??_C@_1M@KGKKAACI@?$AAl?$AAv?$AA?9?$AAL?$AAV@ 00000001800705a0     libucrt:lcidtoname_downlevel.obj
 0002:0000b5b0       ??_C@_1M@IFGBIJO@?$AAl?$AAt?$AA?9?$AAL?$AAT@ 00000001800705b0     libucrt:lcidtoname_downlevel.obj
 0002:0000b5c0       ??_C@_1M@FGEAHEDM@?$AAf?$AAa?$AA?9?$AAI?$AAR@ 00000001800705c0     libucrt:lcidtoname_downlevel.obj
 0002:0000b5d0       ??_C@_1M@KBMAIBFN@?$AAv?$AAi?$AA?9?$AAV?$AAN@ 00000001800705d0     libucrt:lcidtoname_downlevel.obj
 0002:0000b5e0       ??_C@_1M@GPCBKDJK@?$AAh?$AAy?$AA?9?$AAA?$AAM@ 00000001800705e0     libucrt:lcidtoname_downlevel.obj
 0002:0000b5f0       ??_C@_1BG@BECMDDJB@?$AAa?$AAz?$AA?9?$AAA?$AAZ?$AA?9?$AAL?$AAa?$AAt?$AAn@ 00000001800705f0     libucrt:lcidtoname_downlevel.obj
 0002:0000b608       ??_C@_1M@MAOFCAEA@?$AAe?$AAu?$AA?9?$AAE?$AAS@ 0000000180070608     libucrt:lcidtoname_downlevel.obj
 0002:0000b618       ??_C@_1M@IGHABKPI@?$AAm?$AAk?$AA?9?$AAM?$AAK@ 0000000180070618     libucrt:lcidtoname_downlevel.obj
 0002:0000b628       ??_C@_1M@IAIGNEJG@?$AAt?$AAn?$AA?9?$AAZ?$AAA@ 0000000180070628     libucrt:lcidtoname_downlevel.obj
 0002:0000b638       ??_C@_1M@IIJCOJFA@?$AAx?$AAh?$AA?9?$AAZ?$AAA@ 0000000180070638     libucrt:lcidtoname_downlevel.obj
 0002:0000b648       ??_C@_1M@LGPJHNJH@?$AAz?$AAu?$AA?9?$AAZ?$AAA@ 0000000180070648     libucrt:lcidtoname_downlevel.obj
 0002:0000b658       ??_C@_1M@HOKAOIO@?$AAa?$AAf?$AA?9?$AAZ?$AAA@ 0000000180070658     libucrt:lcidtoname_downlevel.obj
 0002:0000b668       ??_C@_1M@DPCLHLIE@?$AAk?$AAa?$AA?9?$AAG?$AAE@ 0000000180070668     libucrt:lcidtoname_downlevel.obj
 0002:0000b678       ??_C@_1M@BLKMHJBI@?$AAf?$AAo?$AA?9?$AAF?$AAO@ 0000000180070678     libucrt:lcidtoname_downlevel.obj
 0002:0000b688       ??_C@_1M@LGGJAPPB@?$AAh?$AAi?$AA?9?$AAI?$AAN@ 0000000180070688     libucrt:lcidtoname_downlevel.obj
 0002:0000b698       ??_C@_1M@FIKPIHFE@?$AAm?$AAt?$AA?9?$AAM?$AAT@ 0000000180070698     libucrt:lcidtoname_downlevel.obj
 0002:0000b6a8       ??_C@_1M@HEGGPBFA@?$AAs?$AAe?$AA?9?$AAN?$AAO@ 00000001800706a8     libucrt:lcidtoname_downlevel.obj
 0002:0000b6b8       ??_C@_1M@EIBJEEPA@?$AAm?$AAs?$AA?9?$AAM?$AAY@ 00000001800706b8     libucrt:lcidtoname_downlevel.obj
 0002:0000b6c8       ??_C@_1M@FHLBGMPP@?$AAk?$AAk?$AA?9?$AAK?$AAZ@ 00000001800706c8     libucrt:lcidtoname_downlevel.obj
 0002:0000b6d8       ??_C@_1M@NGJJLCGI@?$AAk?$AAy?$AA?9?$AAK?$AAG@ 00000001800706d8     libucrt:lcidtoname_downlevel.obj
 0002:0000b6e8       ??_C@_1M@GIENNBFC@?$AAs?$AAw?$AA?9?$AAK?$AAE@ 00000001800706e8     libucrt:lcidtoname_downlevel.obj
 0002:0000b6f8       ??_C@_1BG@NDGMJIMJ@?$AAu?$AAz?$AA?9?$AAU?$AAZ?$AA?9?$AAL?$AAa?$AAt?$AAn@ 00000001800706f8     libucrt:lcidtoname_downlevel.obj
 0002:0000b710       ??_C@_1M@IDCCIHBC@?$AAt?$AAt?$AA?9?$AAR?$AAU@ 0000000180070710     libucrt:lcidtoname_downlevel.obj
 0002:0000b720       ??_C@_1M@LOICPMOJ@?$AAb?$AAn?$AA?9?$AAI?$AAN@ 0000000180070720     libucrt:lcidtoname_downlevel.obj
 0002:0000b730       ??_C@_1M@KPKKNEAH@?$AAp?$AAa?$AA?9?$AAI?$AAN@ 0000000180070730     libucrt:lcidtoname_downlevel.obj
 0002:0000b740       ??_C@_1M@PJGPPBOG@?$AAg?$AAu?$AA?9?$AAI?$AAN@ 0000000180070740     libucrt:lcidtoname_downlevel.obj
 0002:0000b750       ??_C@_1M@KMKMOPHI@?$AAt?$AAa?$AA?9?$AAI?$AAN@ 0000000180070750     libucrt:lcidtoname_downlevel.obj
 0002:0000b760       ??_C@_1M@KFEHEPAC@?$AAt?$AAe?$AA?9?$AAI?$AAN@ 0000000180070760     libucrt:lcidtoname_downlevel.obj
 0002:0000b770       ??_C@_1M@CDCLMGHI@?$AAk?$AAn?$AA?9?$AAI?$AAN@ 0000000180070770     libucrt:lcidtoname_downlevel.obj
 0002:0000b780       ??_C@_1M@MIODLDKF@?$AAm?$AAl?$AA?9?$AAI?$AAN@ 0000000180070780     libucrt:lcidtoname_downlevel.obj
 0002:0000b790       ??_C@_1M@PBIEACPO@?$AAm?$AAr?$AA?9?$AAI?$AAN@ 0000000180070790     libucrt:lcidtoname_downlevel.obj
 0002:0000b7a0       ??_C@_1M@NIDEAGPH@?$AAs?$AAa?$AA?9?$AAI?$AAN@ 00000001800707a0     libucrt:lcidtoname_downlevel.obj
 0002:0000b7b0       ??_C@_1M@FHIHCBIO@?$AAm?$AAn?$AA?9?$AAM?$AAN@ 00000001800707b0     libucrt:lcidtoname_downlevel.obj
 0002:0000b7c0       ??_C@_1M@JAIJPENP@?$AAc?$AAy?$AA?9?$AAG?$AAB@ 00000001800707c0     libucrt:lcidtoname_downlevel.obj
 0002:0000b7d0       ??_C@_1M@PHGFBEPN@?$AAg?$AAl?$AA?9?$AAE?$AAS@ 00000001800707d0     libucrt:lcidtoname_downlevel.obj
 0002:0000b7e0       ??_C@_1O@KPIPDNCP@?$AAk?$AAo?$AAk?$AA?9?$AAI?$AAN@ 00000001800707e0     libucrt:lcidtoname_downlevel.obj
 0002:0000b7f0       ??_C@_1O@KNHJLDJA@?$AAs?$AAy?$AAr?$AA?9?$AAS?$AAY@ 00000001800707f0     libucrt:lcidtoname_downlevel.obj
 0002:0000b800       ??_C@_1O@MKEKBLAH@?$AAd?$AAi?$AAv?$AA?9?$AAM?$AAV@ 0000000180070800     libucrt:lcidtoname_downlevel.obj
 0002:0000b810       ??_C@_1O@OHDCKDDF@?$AAq?$AAu?$AAz?$AA?9?$AAB?$AAO@ 0000000180070810     libucrt:lcidtoname_downlevel.obj
 0002:0000b820       ??_C@_1M@LEPJNLFD@?$AAn?$AAs?$AA?9?$AAZ?$AAA@ 0000000180070820     libucrt:lcidtoname_downlevel.obj
 0002:0000b830       ??_C@_1M@OMLEIIJB@?$AAm?$AAi?$AA?9?$AAN?$AAZ@ 0000000180070830     libucrt:lcidtoname_downlevel.obj
 0002:0000b840       ??_C@_1M@PMPEAILG@?$AAa?$AAr?$AA?9?$AAI?$AAQ@ 0000000180070840     libucrt:lcidtoname_downlevel.obj
 0002:0000b850       ??_C@_1M@CNKPNOEE@?$AAd?$AAe?$AA?9?$AAC?$AAH@ 0000000180070850     libucrt:lcidtoname_downlevel.obj
 0002:0000b860       ??_C@_1M@LKMGMLKO@?$AAe?$AAn?$AA?9?$AAG?$AAB@ 0000000180070860     libucrt:lcidtoname_downlevel.obj
 0002:0000b870       ??_C@_1M@PGKJFFGL@?$AAe?$AAs?$AA?9?$AAM?$AAX@ 0000000180070870     libucrt:lcidtoname_downlevel.obj
 0002:0000b880       ??_C@_1M@DNNANBDC@?$AAf?$AAr?$AA?9?$AAB?$AAE@ 0000000180070880     libucrt:lcidtoname_downlevel.obj
 0002:0000b890       ??_C@_1M@HLGMDFHM@?$AAi?$AAt?$AA?9?$AAC?$AAH@ 0000000180070890     libucrt:lcidtoname_downlevel.obj
 0002:0000b8a0       ??_C@_1M@CLLBGJH@?$AAn?$AAl?$AA?9?$AAB?$AAE@ 00000001800708a0     libucrt:lcidtoname_downlevel.obj
 0002:0000b8b0       ??_C@_1M@BODBOGLF@?$AAn?$AAn?$AA?9?$AAN?$AAO@ 00000001800708b0     libucrt:lcidtoname_downlevel.obj
 0002:0000b8c0       ??_C@_1M@HFFAHKAD@?$AAp?$AAt?$AA?9?$AAP?$AAT@ 00000001800708c0     libucrt:lcidtoname_downlevel.obj
 0002:0000b8d0       ??_C@_1BG@LNOAKHIE@?$AAs?$AAr?$AA?9?$AAS?$AAP?$AA?9?$AAL?$AAa?$AAt?$AAn@ 00000001800708d0     libucrt:lcidtoname_downlevel.obj
 0002:0000b8e8       ??_C@_1M@HBMHBGAK@?$AAs?$AAv?$AA?9?$AAF?$AAI@ 00000001800708e8     libucrt:lcidtoname_downlevel.obj
 0002:0000b8f8       ??_C@_1BG@DGCJGJBE@?$AAa?$AAz?$AA?9?$AAA?$AAZ?$AA?9?$AAC?$AAy?$AAr?$AAl@ 00000001800708f8     libucrt:lcidtoname_downlevel.obj
 0002:0000b910       ??_C@_1M@KEJDAAHB@?$AAs?$AAe?$AA?9?$AAS?$AAE@ 0000000180070910     libucrt:lcidtoname_downlevel.obj
 0002:0000b920       ??_C@_1M@HEIBJJAD@?$AAm?$AAs?$AA?9?$AAB?$AAN@ 0000000180070920     libucrt:lcidtoname_downlevel.obj
 0002:0000b930       ??_C@_1BG@PBGJMCEM@?$AAu?$AAz?$AA?9?$AAU?$AAZ?$AA?9?$AAC?$AAy?$AAr?$AAl@ 0000000180070930     libucrt:lcidtoname_downlevel.obj
 0002:0000b948       ??_C@_1O@LAOBCMDF@?$AAq?$AAu?$AAz?$AA?9?$AAE?$AAC@ 0000000180070948     libucrt:lcidtoname_downlevel.obj
 0002:0000b958       ??_C@_1M@POEEMAIO@?$AAa?$AAr?$AA?9?$AAE?$AAG@ 0000000180070958     libucrt:lcidtoname_downlevel.obj
 0002:0000b968       ??_C@_1M@EFAKDEDL@?$AAz?$AAh?$AA?9?$AAH?$AAK@ 0000000180070968     libucrt:lcidtoname_downlevel.obj
 0002:0000b978       ??_C@_1M@HKKIJHGI@?$AAd?$AAe?$AA?9?$AAA?$AAT@ 0000000180070978     libucrt:lcidtoname_downlevel.obj
 0002:0000b988       ??_C@_1M@KBFBEHJF@?$AAe?$AAn?$AA?9?$AAA?$AAU@ 0000000180070988     libucrt:lcidtoname_downlevel.obj
 0002:0000b998       ??_C@_1M@MNPLFAAH@?$AAe?$AAs?$AA?9?$AAE?$AAS@ 0000000180070998     libucrt:lcidtoname_downlevel.obj
 0002:0000b9a8       ??_C@_1M@HJOOJFMA@?$AAf?$AAr?$AA?9?$AAC?$AAA@ 00000001800709a8     libucrt:lcidtoname_downlevel.obj
 0002:0000b9b8       ??_C@_1BG@JPOFPNAB@?$AAs?$AAr?$AA?9?$AAS?$AAP?$AA?9?$AAC?$AAy?$AAr?$AAl@ 00000001800709b8     libucrt:lcidtoname_downlevel.obj
 0002:0000b9d0       ??_C@_1M@LNFOCMOB@?$AAs?$AAe?$AA?9?$AAF?$AAI@ 00000001800709d0     libucrt:lcidtoname_downlevel.obj
 0002:0000b9e0       ??_C@_1O@MGJBOAMB@?$AAq?$AAu?$AAz?$AA?9?$AAP?$AAE@ 00000001800709e0     libucrt:lcidtoname_downlevel.obj
 0002:0000b9f0       ??_C@_1M@GJINLBOK@?$AAa?$AAr?$AA?9?$AAL?$AAY@ 00000001800709f0     libucrt:lcidtoname_downlevel.obj
 0002:0000ba00       ??_C@_1M@GGMNHJNL@?$AAz?$AAh?$AA?9?$AAS?$AAG@ 0000000180070a00     libucrt:lcidtoname_downlevel.obj
 0002:0000ba10       ??_C@_1M@HOIKODND@?$AAd?$AAe?$AA?9?$AAL?$AAU@ 0000000180070a10     libucrt:lcidtoname_downlevel.obj
 0002:0000ba20       ??_C@_1M@DDOCCGFG@?$AAe?$AAn?$AA?9?$AAC?$AAA@ 0000000180070a20     libucrt:lcidtoname_downlevel.obj
 0002:0000ba30       ??_C@_1M@BNOEMJLF@?$AAe?$AAs?$AA?9?$AAG?$AAT@ 0000000180070a30     libucrt:lcidtoname_downlevel.obj
 0002:0000ba40       ??_C@_1M@EOGNKEK@?$AAf?$AAr?$AA?9?$AAC?$AAH@ 0000000180070a40     libucrt:lcidtoname_downlevel.obj
 0002:0000ba50       ??_C@_1M@FLIDJFHL@?$AAh?$AAr?$AA?9?$AAB?$AAA@ 0000000180070a50     libucrt:lcidtoname_downlevel.obj
 0002:0000ba60       ??_C@_1O@FMCELNAJ@?$AAs?$AAm?$AAj?$AA?9?$AAN?$AAO@ 0000000180070a60     libucrt:lcidtoname_downlevel.obj
 0002:0000ba70       ??_C@_1M@JHGLJMGJ@?$AAa?$AAr?$AA?9?$AAD?$AAZ@ 0000000180070a70     libucrt:lcidtoname_downlevel.obj
 0002:0000ba80       ??_C@_1M@JKKFDCNP@?$AAz?$AAh?$AA?9?$AAM?$AAO@ 0000000180070a80     libucrt:lcidtoname_downlevel.obj
 0002:0000ba90       ??_C@_1M@GEEFALPE@?$AAd?$AAe?$AA?9?$AAL?$AAI@ 0000000180070a90     libucrt:lcidtoname_downlevel.obj
 0002:0000baa0       ??_C@_1M@IGEOFBG@?$AAe?$AAn?$AA?9?$AAN?$AAZ@ 0000000180070aa0     libucrt:lcidtoname_downlevel.obj
 0002:0000bab0       ??_C@_1M@KDBONEHP@?$AAe?$AAs?$AA?9?$AAC?$AAR@ 0000000180070ab0     libucrt:lcidtoname_downlevel.obj
 0002:0000bac0       ??_C@_1M@FHMDOHNN@?$AAf?$AAr?$AA?9?$AAL?$AAU@ 0000000180070ac0     libucrt:lcidtoname_downlevel.obj
 0002:0000bad0       ??_C@_1BG@NFKKMAFG@?$AAb?$AAs?$AA?9?$AAB?$AAA?$AA?9?$AAL?$AAa?$AAt?$AAn@ 0000000180070ad0     libucrt:lcidtoname_downlevel.obj
 0002:0000bae8       ??_C@_1O@IMNBEMCI@?$AAs?$AAm?$AAj?$AA?9?$AAS?$AAE@ 0000000180070ae8     libucrt:lcidtoname_downlevel.obj
 0002:0000baf8       ??_C@_1M@DHHMBNDP@?$AAa?$AAr?$AA?9?$AAM?$AAA@ 0000000180070af8     libucrt:lcidtoname_downlevel.obj
 0002:0000bb08       ??_C@_1M@BNBLJCGH@?$AAe?$AAn?$AA?9?$AAI?$AAE@ 0000000180070b08     libucrt:lcidtoname_downlevel.obj
 0002:0000bb18       ??_C@_1M@GEPAFMDL@?$AAe?$AAs?$AA?9?$AAP?$AAA@ 0000000180070b18     libucrt:lcidtoname_downlevel.obj
 0002:0000bb28       ??_C@_1M@OJONDMDL@?$AAf?$AAr?$AA?9?$AAM?$AAC@ 0000000180070b28     libucrt:lcidtoname_downlevel.obj
 0002:0000bb38       ??_C@_1BG@OBCNFJB@?$AAs?$AAr?$AA?9?$AAB?$AAA?$AA?9?$AAL?$AAa?$AAt?$AAn@ 0000000180070b38     libucrt:lcidtoname_downlevel.obj
 0002:0000bb50       ??_C@_1O@KEMEEGPO@?$AAs?$AAm?$AAa?$AA?9?$AAN?$AAO@ 0000000180070b50     libucrt:lcidtoname_downlevel.obj
 0002:0000bb60       ??_C@_1M@ELMGFODK@?$AAa?$AAr?$AA?9?$AAT?$AAN@ 0000000180070b60     libucrt:lcidtoname_downlevel.obj
 0002:0000bb70       ??_C@_1M@BHDLHFAF@?$AAe?$AAn?$AA?9?$AAZ?$AAA@ 0000000180070b70     libucrt:lcidtoname_downlevel.obj
 0002:0000bb80       ??_C@_1M@BMGIGLIF@?$AAe?$AAs?$AA?9?$AAD?$AAO@ 0000000180070b80     libucrt:lcidtoname_downlevel.obj
 0002:0000bb90       ??_C@_1BG@CMBHIPBE@?$AAs?$AAr?$AA?9?$AAB?$AAA?$AA?9?$AAC?$AAy?$AAr?$AAl@ 0000000180070b90     libucrt:lcidtoname_downlevel.obj
 0002:0000bba8       ??_C@_1O@HEDBLHNP@?$AAs?$AAm?$AAa?$AA?9?$AAS?$AAE@ 0000000180070ba8     libucrt:lcidtoname_downlevel.obj
 0002:0000bbb8       ??_C@_1M@DAGCADIM@?$AAa?$AAr?$AA?9?$AAO?$AAM@ 0000000180070bb8     libucrt:lcidtoname_downlevel.obj
 0002:0000bbc8       ??_C@_1M@FODLMICG@?$AAe?$AAn?$AA?9?$AAJ?$AAM@ 0000000180070bc8     libucrt:lcidtoname_downlevel.obj
 0002:0000bbd8       ??_C@_1M@DNMLCIHB@?$AAe?$AAs?$AA?9?$AAV?$AAE@ 0000000180070bd8     libucrt:lcidtoname_downlevel.obj
 0002:0000bbe8       ??_C@_1O@EOKHMKJK@?$AAs?$AAm?$AAs?$AA?9?$AAF?$AAI@ 0000000180070be8     libucrt:lcidtoname_downlevel.obj
 0002:0000bbf8       ??_C@_1M@CAFJMKOF@?$AAa?$AAr?$AA?9?$AAY?$AAE@ 0000000180070bf8     libucrt:lcidtoname_downlevel.obj
 0002:0000bc08       ??_C@_1M@CBFHIJLI@?$AAe?$AAn?$AA?9?$AAC?$AAB@ 0000000180070c08     libucrt:lcidtoname_downlevel.obj
 0002:0000bc18       ??_C@_1M@BGNFLDN@?$AAe?$AAs?$AA?9?$AAC?$AAO@ 0000000180070c18     libucrt:lcidtoname_downlevel.obj
 0002:0000bc28       ??_C@_1O@JMPHMAMC@?$AAs?$AAm?$AAn?$AA?9?$AAF?$AAI@ 0000000180070c28     libucrt:lcidtoname_downlevel.obj
 0002:0000bc38       ??_C@_1M@JLANABKE@?$AAa?$AAr?$AA?9?$AAS?$AAY@ 0000000180070c38     libucrt:lcidtoname_downlevel.obj
 0002:0000bc48       ??_C@_1M@HPKGCFGN@?$AAe?$AAn?$AA?9?$AAB?$AAZ@ 0000000180070c48     libucrt:lcidtoname_downlevel.obj
 0002:0000bc58       ??_C@_1M@OLJCMLGM@?$AAe?$AAs?$AA?9?$AAP?$AAE@ 0000000180070c58     libucrt:lcidtoname_downlevel.obj
 0002:0000bc68       ??_C@_1M@MKKGFKLE@?$AAa?$AAr?$AA?9?$AAJ?$AAO@ 0000000180070c68     libucrt:lcidtoname_downlevel.obj
 0002:0000bc78       ??_C@_1M@EKPGLDNI@?$AAe?$AAn?$AA?9?$AAT?$AAT@ 0000000180070c78     libucrt:lcidtoname_downlevel.obj
 0002:0000bc88       ??_C@_1M@OONGHFHE@?$AAe?$AAs?$AA?9?$AAA?$AAR@ 0000000180070c88     libucrt:lcidtoname_downlevel.obj
 0002:0000bc98       ??_C@_1M@OOJFGBHE@?$AAa?$AAr?$AA?9?$AAL?$AAB@ 0000000180070c98     libucrt:lcidtoname_downlevel.obj
 0002:0000bca8       ??_C@_1M@GCEJHNEG@?$AAe?$AAn?$AA?9?$AAZ?$AAW@ 0000000180070ca8     libucrt:lcidtoname_downlevel.obj
 0002:0000bcb8       ??_C@_1M@JNOCAHJI@?$AAe?$AAs?$AA?9?$AAE?$AAC@ 0000000180070cb8     libucrt:lcidtoname_downlevel.obj
 0002:0000bcc8       ??_C@_1M@JEFHPGGB@?$AAa?$AAr?$AA?9?$AAK?$AAW@ 0000000180070cc8     libucrt:lcidtoname_downlevel.obj
 0002:0000bcd8       ??_C@_1M@MLKIBJOJ@?$AAe?$AAn?$AA?9?$AAP?$AAH@ 0000000180070cd8     libucrt:lcidtoname_downlevel.obj
 0002:0000bce8       ??_C@_1M@BDNIPEND@?$AAe?$AAs?$AA?9?$AAC?$AAL@ 0000000180070ce8     libucrt:lcidtoname_downlevel.obj
 0002:0000bcf8       ??_C@_1M@MPNMEKBD@?$AAa?$AAr?$AA?9?$AAA?$AAE@ 0000000180070cf8     libucrt:lcidtoname_downlevel.obj
 0002:0000bd08       ??_C@_1M@KBJALCPI@?$AAe?$AAs?$AA?9?$AAU?$AAY@ 0000000180070d08     libucrt:lcidtoname_downlevel.obj
 0002:0000bd18       ??_C@_1M@LLCCOAGA@?$AAa?$AAr?$AA?9?$AAB?$AAH@ 0000000180070d18     libucrt:lcidtoname_downlevel.obj
 0002:0000bd28       ??_C@_1M@PBFNCDEL@?$AAe?$AAs?$AA?9?$AAP?$AAY@ 0000000180070d28     libucrt:lcidtoname_downlevel.obj
 0002:0000bd38       ??_C@_1M@EDGINPNP@?$AAa?$AAr?$AA?9?$AAQ?$AAA@ 0000000180070d38     libucrt:lcidtoname_downlevel.obj
 0002:0000bd48       ??_C@_1M@MKDBIIJI@?$AAe?$AAs?$AA?9?$AAB?$AAO@ 0000000180070d48     libucrt:lcidtoname_downlevel.obj
 0002:0000bd58       ??_C@_1M@CPKKEBLD@?$AAe?$AAs?$AA?9?$AAS?$AAV@ 0000000180070d58     libucrt:lcidtoname_downlevel.obj
 0002:0000bd68       ??_C@_1M@NDBGMMJL@?$AAe?$AAs?$AA?9?$AAH?$AAN@ 0000000180070d68     libucrt:lcidtoname_downlevel.obj
 0002:0000bd78       ??_C@_1M@JIJIBHDP@?$AAe?$AAs?$AA?9?$AAN?$AAI@ 0000000180070d78     libucrt:lcidtoname_downlevel.obj
 0002:0000bd88       ??_C@_1M@CGFMKEEK@?$AAe?$AAs?$AA?9?$AAP?$AAR@ 0000000180070d88     libucrt:lcidtoname_downlevel.obj
 0002:0000bd98       ??_C@_1O@ICJHKIIK@?$AAz?$AAh?$AA?9?$AAC?$AAH?$AAT@ 0000000180070d98     libucrt:lcidtoname_downlevel.obj
 0002:0000bda8       ??_C@_15CLNEJCE@?$AAs?$AAr@ 0000000180070da8     libucrt:lcidtoname_downlevel.obj
 0002:0000cbf0       ??_C@_1M@KAHEKEIG@?$AAa?$AAf?$AA?9?$AAz?$AAa@ 0000000180071bf0     libucrt:lcidtoname_downlevel.obj
 0002:0000cc00       ??_C@_1M@GIECOABL@?$AAa?$AAr?$AA?9?$AAa?$AAe@ 0000000180071c00     libucrt:lcidtoname_downlevel.obj
 0002:0000cc10       ??_C@_1M@BMLMEKGI@?$AAa?$AAr?$AA?9?$AAb?$AAh@ 0000000180071c10     libucrt:lcidtoname_downlevel.obj
 0002:0000cc20       ??_C@_1M@DAPFDGGB@?$AAa?$AAr?$AA?9?$AAd?$AAz@ 0000000180071c20     libucrt:lcidtoname_downlevel.obj
 0002:0000cc30       ??_C@_1M@FJNKGKIG@?$AAa?$AAr?$AA?9?$AAe?$AAg@ 0000000180071c30     libucrt:lcidtoname_downlevel.obj
 0002:0000cc40       ??_C@_1M@FLGKKCLO@?$AAa?$AAr?$AA?9?$AAi?$AAq@ 0000000180071c40     libucrt:lcidtoname_downlevel.obj
 0002:0000cc50       ??_C@_1M@GNDIPALM@?$AAa?$AAr?$AA?9?$AAj?$AAo@ 0000000180071c50     libucrt:lcidtoname_downlevel.obj
 0002:0000cc60       ??_C@_1M@DDMJFMGJ@?$AAa?$AAr?$AA?9?$AAk?$AAw@ 0000000180071c60     libucrt:lcidtoname_downlevel.obj
 0002:0000cc70       ??_C@_1M@EJALMLHM@?$AAa?$AAr?$AA?9?$AAl?$AAb@ 0000000180071c70     libucrt:lcidtoname_downlevel.obj
 0002:0000cc80       ??_C@_1M@MOBDBLOC@?$AAa?$AAr?$AA?9?$AAl?$AAy@ 0000000180071c80     libucrt:lcidtoname_downlevel.obj
 0002:0000cc90       ??_C@_1M@JAOCLHDH@?$AAa?$AAr?$AA?9?$AAm?$AAa@ 0000000180071c90     libucrt:lcidtoname_downlevel.obj
 0002:0000cca0       ??_C@_1M@JHPMKJIE@?$AAa?$AAr?$AA?9?$AAo?$AAm@ 0000000180071ca0     libucrt:lcidtoname_downlevel.obj
 0002:0000ccb0       ??_C@_1M@OEPGHFNH@?$AAa?$AAr?$AA?9?$AAq?$AAa@ 0000000180071cb0     libucrt:lcidtoname_downlevel.obj
 0002:0000ccc0       ??_C@_1M@KJDONENM@?$AAa?$AAr?$AA?9?$AAs?$AAa@ 0000000180071cc0     libucrt:lcidtoname_downlevel.obj
 0002:0000ccd0       ??_C@_1M@DMJDKLKM@?$AAa?$AAr?$AA?9?$AAs?$AAy@ 0000000180071cd0     libucrt:lcidtoname_downlevel.obj
 0002:0000cce0       ??_C@_1M@OMFIPEDC@?$AAa?$AAr?$AA?9?$AAt?$AAn@ 0000000180071ce0     libucrt:lcidtoname_downlevel.obj
 0002:0000ccf0       ??_C@_1M@IHMHGAON@?$AAa?$AAr?$AA?9?$AAy?$AAe@ 0000000180071cf0     libucrt:lcidtoname_downlevel.obj
 0002:0000cd00       ??_C@_1BG@KDCPGJGB@?$AAa?$AAz?$AA?9?$AAa?$AAz?$AA?9?$AAc?$AAy?$AAr?$AAl@ 0000000180071d00     libucrt:lcidtoname_downlevel.obj
 0002:0000cd18       ??_C@_1BG@IBCKDDOE@?$AAa?$AAz?$AA?9?$AAa?$AAz?$AA?9?$AAl?$AAa?$AAt?$AAn@ 0000000180071d18     libucrt:lcidtoname_downlevel.obj
 0002:0000cd30       ??_C@_1M@EGPFDCPD@?$AAb?$AAe?$AA?9?$AAb?$AAy@ 0000000180071d30     libucrt:lcidtoname_downlevel.obj
 0002:0000cd40       ??_C@_1M@PCMGMCGC@?$AAb?$AAg?$AA?9?$AAb?$AAg@ 0000000180071d40     libucrt:lcidtoname_downlevel.obj
 0002:0000cd50       ??_C@_1M@BJBMFGOB@?$AAb?$AAn?$AA?9?$AAi?$AAn@ 0000000180071d50     libucrt:lcidtoname_downlevel.obj
 0002:0000cd60       ??_C@_1BG@EAKMMACD@?$AAb?$AAs?$AA?9?$AAb?$AAa?$AA?9?$AAl?$AAa?$AAt?$AAn@ 0000000180071d60     libucrt:lcidtoname_downlevel.obj
 0002:0000cd78       ??_C@_1M@KGADAODK@?$AAc?$AAa?$AA?9?$AAe?$AAs@ 0000000180071d78     libucrt:lcidtoname_downlevel.obj
 0002:0000cd88       ??_C@_1M@COAJPDHI@?$AAc?$AAs?$AA?9?$AAc?$AAz@ 0000000180071d88     libucrt:lcidtoname_downlevel.obj
 0002:0000cd98       ??_C@_1M@DHBHFONH@?$AAc?$AAy?$AA?9?$AAg?$AAb@ 0000000180071d98     libucrt:lcidtoname_downlevel.obj
 0002:0000cda8       ??_C@_1M@IMGKELGA@?$AAd?$AAa?$AA?9?$AAd?$AAk@ 0000000180071da8     libucrt:lcidtoname_downlevel.obj
 0002:0000cdb8       ??_C@_1M@NNDGDNGA@?$AAd?$AAe?$AA?9?$AAa?$AAt@ 0000000180071db8     libucrt:lcidtoname_downlevel.obj
 0002:0000cdc8       ??_C@_1M@IKDBHEEM@?$AAd?$AAe?$AA?9?$AAc?$AAh@ 0000000180071dc8     libucrt:lcidtoname_downlevel.obj
 0002:0000cdd8       ??_C@_1M@GFFOJMCJ@?$AAd?$AAe?$AA?9?$AAd?$AAe@ 0000000180071dd8     libucrt:lcidtoname_downlevel.obj
 0002:0000cde8       ??_C@_1M@MDNLKBPM@?$AAd?$AAe?$AA?9?$AAl?$AAi@ 0000000180071de8     libucrt:lcidtoname_downlevel.obj
 0002:0000cdf8       ??_C@_1M@NJBEEJNL@?$AAd?$AAe?$AA?9?$AAl?$AAu@ 0000000180071df8     libucrt:lcidtoname_downlevel.obj
 0002:0000ce08       ??_C@_1O@GNNELBAP@?$AAd?$AAi?$AAv?$AA?9?$AAm?$AAv@ 0000000180071e08     libucrt:lcidtoname_downlevel.obj
 0002:0000ce18       ??_C@_1M@EJLEOGAE@?$AAe?$AAl?$AA?9?$AAg?$AAr@ 0000000180071e18     libucrt:lcidtoname_downlevel.obj
 0002:0000ce28       ??_C@_1M@GMPONJN@?$AAe?$AAn?$AA?9?$AAa?$AAu@ 0000000180071e28     libucrt:lcidtoname_downlevel.obj
 0002:0000ce38       ??_C@_1M@NIDIIPGF@?$AAe?$AAn?$AA?9?$AAb?$AAz@ 0000000180071e38     libucrt:lcidtoname_downlevel.obj
 0002:0000ce48       ??_C@_1M@JEHMIMFO@?$AAe?$AAn?$AA?9?$AAc?$AAa@ 0000000180071e48     libucrt:lcidtoname_downlevel.obj
 0002:0000ce58       ??_C@_1M@IGMJCDLA@?$AAe?$AAn?$AA?9?$AAc?$AAb@ 0000000180071e58     libucrt:lcidtoname_downlevel.obj
 0002:0000ce68       ??_C@_1M@BNFIGBKG@?$AAe?$AAn?$AA?9?$AAg?$AAb@ 0000000180071e68     libucrt:lcidtoname_downlevel.obj
 0002:0000ce78       ??_C@_1M@LKIFDIGP@?$AAe?$AAn?$AA?9?$AAi?$AAe@ 0000000180071e78     libucrt:lcidtoname_downlevel.obj
 0002:0000ce88       ??_C@_1M@PJKFGCCO@?$AAe?$AAn?$AA?9?$AAj?$AAm@ 0000000180071e88     libucrt:lcidtoname_downlevel.obj
 0002:0000ce98       ??_C@_1M@KPPKEPBO@?$AAe?$AAn?$AA?9?$AAn?$AAz@ 0000000180071e98     libucrt:lcidtoname_downlevel.obj
 0002:0000cea8       ??_C@_1M@GMDGLDOB@?$AAe?$AAn?$AA?9?$AAp?$AAh@ 0000000180071ea8     libucrt:lcidtoname_downlevel.obj
 0002:0000ceb8       ??_C@_1M@ONGIBJNA@?$AAe?$AAn?$AA?9?$AAt?$AAt@ 0000000180071eb8     libucrt:lcidtoname_downlevel.obj
 0002:0000cec8       ??_C@_1M@LLODPCMM@?$AAe?$AAn?$AA?9?$AAu?$AAs@ 0000000180071ec8     libucrt:lcidtoname_downlevel.obj
 0002:0000ced8       ??_C@_1M@LAKFNPAN@?$AAe?$AAn?$AA?9?$AAz?$AAa@ 0000000180071ed8     libucrt:lcidtoname_downlevel.obj
 0002:0000cee8       ??_C@_1M@MFNHNHEO@?$AAe?$AAn?$AA?9?$AAz?$AAw@ 0000000180071ee8     libucrt:lcidtoname_downlevel.obj
 0002:0000cef8       ??_C@_1M@EJEINPHM@?$AAe?$AAs?$AA?9?$AAa?$AAr@ 0000000180071ef8     libucrt:lcidtoname_downlevel.obj
 0002:0000cf08       ??_C@_1M@GNKPCCJA@?$AAe?$AAs?$AA?9?$AAb?$AAo@ 0000000180071f08     libucrt:lcidtoname_downlevel.obj
 0002:0000cf18       ??_C@_1M@LEEGFONL@?$AAe?$AAs?$AA?9?$AAc?$AAl@ 0000000180071f18     libucrt:lcidtoname_downlevel.obj
 0002:0000cf28       ??_C@_1M@KGPDPBDF@?$AAe?$AAs?$AA?9?$AAc?$AAo@ 0000000180071f28     libucrt:lcidtoname_downlevel.obj
 0002:0000cf38       ??_C@_1M@EIAHOHH@?$AAe?$AAs?$AA?9?$AAc?$AAr@ 0000000180071f38     libucrt:lcidtoname_downlevel.obj
 0002:0000cf48       ??_C@_1M@LLPGMBIN@?$AAe?$AAs?$AA?9?$AAd?$AAo@ 0000000180071f48     libucrt:lcidtoname_downlevel.obj
 0002:0000cf58       ??_C@_1M@DKHMKNJA@?$AAe?$AAs?$AA?9?$AAe?$AAc@ 0000000180071f58     libucrt:lcidtoname_downlevel.obj
 0002:0000cf68       ??_C@_1M@GKGFPKAP@?$AAe?$AAs?$AA?9?$AAe?$AAs@ 0000000180071f68     libucrt:lcidtoname_downlevel.obj
 0002:0000cf78       ??_C@_1M@LKHKGDLN@?$AAe?$AAs?$AA?9?$AAg?$AAt@ 0000000180071f78     libucrt:lcidtoname_downlevel.obj
 0002:0000cf88       ??_C@_1M@HEIIGGJD@?$AAe?$AAs?$AA?9?$AAh?$AAn@ 0000000180071f88     libucrt:lcidtoname_downlevel.obj
 0002:0000cf98       ??_C@_1M@FBDHPPGD@?$AAe?$AAs?$AA?9?$AAm?$AAx@ 0000000180071f98     libucrt:lcidtoname_downlevel.obj
 0002:0000cfa8       ??_C@_1M@DPAGLNDH@?$AAe?$AAs?$AA?9?$AAn?$AAi@ 0000000180071fa8     libucrt:lcidtoname_downlevel.obj
 0002:0000cfb8       ??_C@_1M@MDGOPGDD@?$AAe?$AAs?$AA?9?$AAp?$AAa@ 0000000180071fb8     libucrt:lcidtoname_downlevel.obj
 0002:0000cfc8       ??_C@_1M@EMAMGBGE@?$AAe?$AAs?$AA?9?$AAp?$AAe@ 0000000180071fc8     libucrt:lcidtoname_downlevel.obj
 0002:0000cfd8       ??_C@_1M@IBMCAOEC@?$AAe?$AAs?$AA?9?$AAp?$AAr@ 0000000180071fd8     libucrt:lcidtoname_downlevel.obj
 0002:0000cfe8       ??_C@_1M@FGMDIJED@?$AAe?$AAs?$AA?9?$AAp?$AAy@ 0000000180071fe8     libucrt:lcidtoname_downlevel.obj
 0002:0000cff8       ??_C@_1M@IIDEOLLL@?$AAe?$AAs?$AA?9?$AAs?$AAv@ 0000000180071ff8     libucrt:lcidtoname_downlevel.obj
 0002:0000d008       ??_C@_1M@GAOBIPA@?$AAe?$AAs?$AA?9?$AAu?$AAy@ 0000000180072008     libucrt:lcidtoname_downlevel.obj
 0002:0000d018       ??_C@_1M@JKFFICHJ@?$AAe?$AAs?$AA?9?$AAv?$AAe@ 0000000180072018     libucrt:lcidtoname_downlevel.obj
 0002:0000d028       ??_C@_1M@PNMLOJDF@?$AAe?$AAt?$AA?9?$AAe?$AAe@ 0000000180072028     libucrt:lcidtoname_downlevel.obj
 0002:0000d038       ??_C@_1M@GHHLIKEI@?$AAe?$AAu?$AA?9?$AAe?$AAs@ 0000000180072038     libucrt:lcidtoname_downlevel.obj
 0002:0000d048       ??_C@_1M@PBNONODE@?$AAf?$AAa?$AA?9?$AAi?$AAr@ 0000000180072048     libucrt:lcidtoname_downlevel.obj
 0002:0000d058       ??_C@_1M@JEEHPMIL@?$AAf?$AAi?$AA?9?$AAf?$AAi@ 0000000180072058     libucrt:lcidtoname_downlevel.obj
 0002:0000d068       ??_C@_1M@LMDCNDBA@?$AAf?$AAo?$AA?9?$AAf?$AAo@ 0000000180072068     libucrt:lcidtoname_downlevel.obj
 0002:0000d078       ??_C@_1M@JKEOHLDK@?$AAf?$AAr?$AA?9?$AAb?$AAe@ 0000000180072078     libucrt:lcidtoname_downlevel.obj
 0002:0000d088       ??_C@_1M@NOHADPMI@?$AAf?$AAr?$AA?9?$AAc?$AAa@ 0000000180072088     libucrt:lcidtoname_downlevel.obj
 0002:0000d098       ??_C@_1M@KDHIHAEC@?$AAf?$AAr?$AA?9?$AAc?$AAh@ 0000000180072098     libucrt:lcidtoname_downlevel.obj
 0002:0000d0a8       ??_C@_1M@MMBBFGAK@?$AAf?$AAr?$AA?9?$AAf?$AAr@ 00000001800720a8     libucrt:lcidtoname_downlevel.obj
 0002:0000d0b8       ??_C@_1M@PAFNENNF@?$AAf?$AAr?$AA?9?$AAl?$AAu@ 00000001800720b8     libucrt:lcidtoname_downlevel.obj
 0002:0000d0c8       ??_C@_1M@EOHDJGDD@?$AAf?$AAr?$AA?9?$AAm?$AAc@ 00000001800720c8     libucrt:lcidtoname_downlevel.obj
 0002:0000d0d8       ??_C@_1M@FAPLLOPF@?$AAg?$AAl?$AA?9?$AAe?$AAs@ 00000001800720d8     libucrt:lcidtoname_downlevel.obj
 0002:0000d0e8       ??_C@_1M@FOPBFLOO@?$AAg?$AAu?$AA?9?$AAi?$AAn@ 00000001800720e8     libucrt:lcidtoname_downlevel.obj
 0002:0000d0f8       ??_C@_1M@KBMCINPM@?$AAh?$AAe?$AA?9?$AAi?$AAl@ 00000001800720f8     libucrt:lcidtoname_downlevel.obj
 0002:0000d108       ??_C@_1M@BBPHKFPJ@?$AAh?$AAi?$AA?9?$AAi?$AAn@ 0000000180072108     libucrt:lcidtoname_downlevel.obj
 0002:0000d118       ??_C@_1M@PMBNDPHD@?$AAh?$AAr?$AA?9?$AAb?$AAa@ 0000000180072118     libucrt:lcidtoname_downlevel.obj
 0002:0000d128       ??_C@_1M@BPCKOEGE@?$AAh?$AAr?$AA?9?$AAh?$AAr@ 0000000180072128     libucrt:lcidtoname_downlevel.obj
 0002:0000d138       ??_C@_1M@GACBMHKE@?$AAh?$AAu?$AA?9?$AAh?$AAu@ 0000000180072138     libucrt:lcidtoname_downlevel.obj
 0002:0000d148       ??_C@_1M@MILPAJJC@?$AAh?$AAy?$AA?9?$AAa?$AAm@ 0000000180072148     libucrt:lcidtoname_downlevel.obj
 0002:0000d158       ??_C@_1M@BABBICEC@?$AAi?$AAd?$AA?9?$AAi?$AAd@ 0000000180072158     libucrt:lcidtoname_downlevel.obj
 0002:0000d168       ??_C@_1M@BIKNHHPF@?$AAi?$AAs?$AA?9?$AAi?$AAs@ 0000000180072168     libucrt:lcidtoname_downlevel.obj
 0002:0000d178       ??_C@_1M@NMPCJPHE@?$AAi?$AAt?$AA?9?$AAc?$AAh@ 0000000180072178     libucrt:lcidtoname_downlevel.obj
 0002:0000d188       ??_C@_1M@GHKGFEDF@?$AAi?$AAt?$AA?9?$AAi?$AAt@ 0000000180072188     libucrt:lcidtoname_downlevel.obj
 0002:0000d198       ??_C@_1M@NIEJCJJA@?$AAj?$AAa?$AA?9?$AAj?$AAp@ 0000000180072198     libucrt:lcidtoname_downlevel.obj
 0002:0000d1a8       ??_C@_1M@JILFNBIM@?$AAk?$AAa?$AA?9?$AAg?$AAe@ 00000001800721a8     libucrt:lcidtoname_downlevel.obj
 0002:0000d1b8       ??_C@_1M@PACPMGPH@?$AAk?$AAk?$AA?9?$AAk?$AAz@ 00000001800721b8     libucrt:lcidtoname_downlevel.obj
 0002:0000d1c8       ??_C@_1M@IELFGMHA@?$AAk?$AAn?$AA?9?$AAi?$AAn@ 00000001800721c8     libucrt:lcidtoname_downlevel.obj
 0002:0000d1d8       ??_C@_1O@IBBJHCH@?$AAk?$AAo?$AAk?$AA?9?$AAi?$AAn@ 00000001800721d8     libucrt:lcidtoname_downlevel.obj
 0002:0000d1e8       ??_C@_1M@DMHAEOGC@?$AAk?$AAo?$AA?9?$AAk?$AAr@ 00000001800721e8     libucrt:lcidtoname_downlevel.obj
 0002:0000d1f8       ??_C@_1M@HBAHBIGA@?$AAk?$AAy?$AA?9?$AAk?$AAg@ 00000001800721f8     libucrt:lcidtoname_downlevel.obj
 0002:0000d208       ??_C@_1M@KPMILCJG@?$AAl?$AAt?$AA?9?$AAl?$AAt@ 0000000180072208     libucrt:lcidtoname_downlevel.obj
 0002:0000d218       ??_C@_1M@BDEKKCA@?$AAl?$AAv?$AA?9?$AAl?$AAv@ 0000000180072218     libucrt:lcidtoname_downlevel.obj
 0002:0000d228       ??_C@_1M@ELCKCCJJ@?$AAm?$AAi?$AA?9?$AAn?$AAz@ 0000000180072228     libucrt:lcidtoname_downlevel.obj
 0002:0000d238       ??_C@_1M@CBOOLAPA@?$AAm?$AAk?$AA?9?$AAm?$AAk@ 0000000180072238     libucrt:lcidtoname_downlevel.obj
 0002:0000d248       ??_C@_1M@GPHNBJKN@?$AAm?$AAl?$AA?9?$AAi?$AAn@ 0000000180072248     libucrt:lcidtoname_downlevel.obj
 0002:0000d258       ??_C@_1M@PABJILIG@?$AAm?$AAn?$AA?9?$AAm?$AAn@ 0000000180072258     libucrt:lcidtoname_downlevel.obj
 0002:0000d268       ??_C@_1M@FGBKKIPG@?$AAm?$AAr?$AA?9?$AAi?$AAn@ 0000000180072268     libucrt:lcidtoname_downlevel.obj
 0002:0000d278       ??_C@_1M@NDBPDDAL@?$AAm?$AAs?$AA?9?$AAb?$AAn@ 0000000180072278     libucrt:lcidtoname_downlevel.obj
 0002:0000d288       ??_C@_1M@OPIHOOPI@?$AAm?$AAs?$AA?9?$AAm?$AAy@ 0000000180072288     libucrt:lcidtoname_downlevel.obj
 0002:0000d298       ??_C@_1M@PPDBCNFM@?$AAm?$AAt?$AA?9?$AAm?$AAt@ 0000000180072298     libucrt:lcidtoname_downlevel.obj
 0002:0000d2a8       ??_C@_1M@KDJDKMDD@?$AAn?$AAb?$AA?9?$AAn?$AAo@ 00000001800722a8     libucrt:lcidtoname_downlevel.obj
 0002:0000d2b8       ??_C@_1M@KFCFLMJP@?$AAn?$AAl?$AA?9?$AAb?$AAe@ 00000001800722b8     libucrt:lcidtoname_downlevel.obj
 0002:0000d2c8       ??_C@_1M@KPOPDDGO@?$AAn?$AAl?$AA?9?$AAn?$AAl@ 00000001800722c8     libucrt:lcidtoname_downlevel.obj
 0002:0000d2d8       ??_C@_1M@LJKPEMLN@?$AAn?$AAn?$AA?9?$AAn?$AAo@ 00000001800722d8     libucrt:lcidtoname_downlevel.obj
 0002:0000d2e8       ??_C@_1M@BDGHHBFL@?$AAn?$AAs?$AA?9?$AAz?$AAa@ 00000001800722e8     libucrt:lcidtoname_downlevel.obj
 0002:0000d2f8       ??_C@_1M@IDEHOAP@?$AAp?$AAa?$AA?9?$AAi?$AAn@ 00000001800722f8     libucrt:lcidtoname_downlevel.obj
 0002:0000d308       ??_C@_1M@HDBKGOGH@?$AAp?$AAl?$AA?9?$AAp?$AAl@ 0000000180072308     libucrt:lcidtoname_downlevel.obj
 0002:0000d318       ??_C@_1M@LJLLCMEH@?$AAp?$AAt?$AA?9?$AAb?$AAr@ 0000000180072318     libucrt:lcidtoname_downlevel.obj
 0002:0000d328       ??_C@_1M@NCMONAAL@?$AAp?$AAt?$AA?9?$AAp?$AAt@ 0000000180072328     libucrt:lcidtoname_downlevel.obj
 0002:0000d338       ??_C@_1O@EAKMAJDN@?$AAq?$AAu?$AAz?$AA?9?$AAb?$AAo@ 0000000180072338     libucrt:lcidtoname_downlevel.obj
 0002:0000d348       ??_C@_1O@BHHPIGDN@?$AAq?$AAu?$AAz?$AA?9?$AAe?$AAc@ 0000000180072348     libucrt:lcidtoname_downlevel.obj
 0002:0000d358       ??_C@_1O@GBAPEKMJ@?$AAq?$AAu?$AAz?$AA?9?$AAp?$AAe@ 0000000180072358     libucrt:lcidtoname_downlevel.obj
 0002:0000d368       ??_C@_1M@CLGLEFBO@?$AAr?$AAo?$AA?9?$AAr?$AAo@ 0000000180072368     libucrt:lcidtoname_downlevel.obj
 0002:0000d378       ??_C@_1M@CEEDODME@?$AAr?$AAu?$AA?9?$AAr?$AAu@ 0000000180072378     libucrt:lcidtoname_downlevel.obj
 0002:0000d388       ??_C@_1M@HPKKKMPP@?$AAs?$AAa?$AA?9?$AAi?$AAn@ 0000000180072388     libucrt:lcidtoname_downlevel.obj
 0002:0000d398       ??_C@_1M@BKMAIGOJ@?$AAs?$AAe?$AA?9?$AAf?$AAi@ 0000000180072398     libucrt:lcidtoname_downlevel.obj
 0002:0000d3a8       ??_C@_1M@NDPIFLFI@?$AAs?$AAe?$AA?9?$AAn?$AAo@ 00000001800723a8     libucrt:lcidtoname_downlevel.obj
 0002:0000d3b8       ??_C@_1M@DANKKHJ@?$AAs?$AAe?$AA?9?$AAs?$AAe@ 00000001800723b8     libucrt:lcidtoname_downlevel.obj
 0002:0000d3c8       ??_C@_1M@PNBLONPJ@?$AAs?$AAk?$AA?9?$AAs?$AAk@ 00000001800723c8     libucrt:lcidtoname_downlevel.obj
 0002:0000d3d8       ??_C@_1M@LFMODOAL@?$AAs?$AAl?$AA?9?$AAs?$AAi@ 00000001800723d8     libucrt:lcidtoname_downlevel.obj
 0002:0000d3e8       ??_C@_1O@DFKOMPG@?$AAs?$AAm?$AAa?$AA?9?$AAn?$AAo@ 00000001800723e8     libucrt:lcidtoname_downlevel.obj
 0002:0000d3f8       ??_C@_1O@NDKPBNNH@?$AAs?$AAm?$AAa?$AA?9?$AAs?$AAe@ 00000001800723f8     libucrt:lcidtoname_downlevel.obj
 0002:0000d408       ??_C@_1O@PLLKBHAB@?$AAs?$AAm?$AAj?$AA?9?$AAn?$AAo@ 0000000180072408     libucrt:lcidtoname_downlevel.obj
 0002:0000d418       ??_C@_1O@CLEPOGCA@?$AAs?$AAm?$AAj?$AA?9?$AAs?$AAe@ 0000000180072418     libucrt:lcidtoname_downlevel.obj
 0002:0000d428       ??_C@_1O@DLGJGKMK@?$AAs?$AAm?$AAn?$AA?9?$AAf?$AAi@ 0000000180072428     libucrt:lcidtoname_downlevel.obj
 0002:0000d438       ??_C@_1O@OJDJGAJC@?$AAs?$AAm?$AAs?$AA?9?$AAf?$AAi@ 0000000180072438     libucrt:lcidtoname_downlevel.obj
 0002:0000d448       ??_C@_1M@BOFOGHPB@?$AAs?$AAq?$AA?9?$AAa?$AAl@ 0000000180072448     libucrt:lcidtoname_downlevel.obj
 0002:0000d458       ??_C@_1BG@LJBBIPGB@?$AAs?$AAr?$AA?9?$AAb?$AAa?$AA?9?$AAc?$AAy?$AAr?$AAl@ 0000000180072458     libucrt:lcidtoname_downlevel.obj
 0002:0000d470       ??_C@_1BG@JLBENFOE@?$AAs?$AAr?$AA?9?$AAb?$AAa?$AA?9?$AAl?$AAa?$AAt?$AAn@ 0000000180072470     libucrt:lcidtoname_downlevel.obj
 0002:0000d488       ??_C@_1BG@KODPNHE@?$AAs?$AAr?$AA?9?$AAs?$AAp?$AA?9?$AAc?$AAy?$AAr?$AAl@ 0000000180072488     libucrt:lcidtoname_downlevel.obj
 0002:0000d4a0       ??_C@_1BG@CIOGKHPB@?$AAs?$AAr?$AA?9?$AAs?$AAp?$AA?9?$AAl?$AAa?$AAt?$AAn@ 00000001800724a0     libucrt:lcidtoname_downlevel.obj
 0002:0000d4b8       ??_C@_1M@NGFJLMAC@?$AAs?$AAv?$AA?9?$AAf?$AAi@ 00000001800724b8     libucrt:lcidtoname_downlevel.obj
 0002:0000d4c8       ??_C@_1M@MPJEJAJC@?$AAs?$AAv?$AA?9?$AAs?$AAe@ 00000001800724c8     libucrt:lcidtoname_downlevel.obj
 0002:0000d4d8       ??_C@_1M@MPNDHLFK@?$AAs?$AAw?$AA?9?$AAk?$AAe@ 00000001800724d8     libucrt:lcidtoname_downlevel.obj
 0002:0000d4e8       ??_C@_1O@KOHBJJI@?$AAs?$AAy?$AAr?$AA?9?$AAs?$AAy@ 00000001800724e8     libucrt:lcidtoname_downlevel.obj
 0002:0000d4f8       ??_C@_1M@LDCEFHA@?$AAt?$AAa?$AA?9?$AAi?$AAn@ 00000001800724f8     libucrt:lcidtoname_downlevel.obj
 0002:0000d508       ??_C@_1M@CNJOFAK@?$AAt?$AAe?$AA?9?$AAi?$AAn@ 0000000180072508     libucrt:lcidtoname_downlevel.obj
 0002:0000d518       ??_C@_1M@GNAECACD@?$AAt?$AAh?$AA?9?$AAt?$AAh@ 0000000180072518     libucrt:lcidtoname_downlevel.obj
 0002:0000d528       ??_C@_1M@CHBIHOJO@?$AAt?$AAn?$AA?9?$AAz?$AAa@ 0000000180072528     libucrt:lcidtoname_downlevel.obj
 0002:0000d538       ??_C@_1M@GCCMIGPJ@?$AAt?$AAr?$AA?9?$AAt?$AAr@ 0000000180072538     libucrt:lcidtoname_downlevel.obj
 0002:0000d548       ??_C@_1M@CELMCNBK@?$AAt?$AAt?$AA?9?$AAr?$AAu@ 0000000180072548     libucrt:lcidtoname_downlevel.obj
 0002:0000d558       ??_C@_1M@KLMCELGA@?$AAu?$AAk?$AA?9?$AAu?$AAa@ 0000000180072558     libucrt:lcidtoname_downlevel.obj
 0002:0000d568       ??_C@_1M@EPAJJAJF@?$AAu?$AAr?$AA?9?$AAp?$AAk@ 0000000180072568     libucrt:lcidtoname_downlevel.obj
 0002:0000d578       ??_C@_1BG@GEGPMCDJ@?$AAu?$AAz?$AA?9?$AAu?$AAz?$AA?9?$AAc?$AAy?$AAr?$AAl@ 0000000180072578     libucrt:lcidtoname_downlevel.obj
 0002:0000d590       ??_C@_1BG@EGGKJILM@?$AAu?$AAz?$AA?9?$AAu?$AAz?$AA?9?$AAl?$AAa?$AAt?$AAn@ 0000000180072590     libucrt:lcidtoname_downlevel.obj
 0002:0000d5a8       ??_C@_1M@GFOCLFF@?$AAv?$AAi?$AA?9?$AAv?$AAn@ 00000001800725a8     libucrt:lcidtoname_downlevel.obj
 0002:0000d5b8       ??_C@_1M@CPAMEDFI@?$AAx?$AAh?$AA?9?$AAz?$AAa@ 00000001800725b8     libucrt:lcidtoname_downlevel.obj
 0002:0000d5c8       ??_C@_1O@EBKIFIGN@?$AAz?$AAh?$AA?9?$AAc?$AAh?$AAs@ 00000001800725c8     libucrt:lcidtoname_downlevel.obj
 0002:0000d5d8       ??_C@_1O@NMHPGANE@?$AAz?$AAh?$AA?9?$AAc?$AAh?$AAt@ 00000001800725d8     libucrt:lcidtoname_downlevel.obj
 0002:0000d5e8       ??_C@_1M@LPINJOMC@?$AAz?$AAh?$AA?9?$AAc?$AAn@ 00000001800725e8     libucrt:lcidtoname_downlevel.obj
 0002:0000d5f8       ??_C@_1M@OCJEJODD@?$AAz?$AAh?$AA?9?$AAh?$AAk@ 00000001800725f8     libucrt:lcidtoname_downlevel.obj
 0002:0000d608       ??_C@_1M@DNDLJINH@?$AAz?$AAh?$AA?9?$AAm?$AAo@ 0000000180072608     libucrt:lcidtoname_downlevel.obj
 0002:0000d618       ??_C@_1M@MBFDNDND@?$AAz?$AAh?$AA?9?$AAs?$AAg@ 0000000180072618     libucrt:lcidtoname_downlevel.obj
 0002:0000d628       ??_C@_1M@IMEPLEPE@?$AAz?$AAh?$AA?9?$AAt?$AAw@ 0000000180072628     libucrt:lcidtoname_downlevel.obj
 0002:0000d638       ??_C@_1M@BBGHNHJP@?$AAz?$AAu?$AA?9?$AAz?$AAa@ 0000000180072638     libucrt:lcidtoname_downlevel.obj
 0002:0000d8b0       ??_C@_1BA@BALFACEM@?$AAC?$AAO?$AAN?$AAO?$AAU?$AAT?$AA$@ 00000001800728b0     libucrt:initcon.obj
 0002:0000d8c0       __log10_256_lead           00000001800728c0     libucrt:log10_256_lead_tail_table.obj
 0002:0000e0d0       __log10_256_tail           00000001800730d0     libucrt:log10_256_lead_tail_table.obj
 0002:0000e8d8       ??_C@_19DOGDICKI@?$AA?4?$AAe?$AAx?$AAe@ 00000001800738d8     trust.obj
 0002:0000e8e8       ??_C@_19BHIGINDB@?$AA?4?$AAd?$AAl?$AAl@ 00000001800738e8     trust.obj
 0002:0000e8f8       ??_C@_19MNJHNGGG@?$AA?4?$AAm?$AAs?$AAi@ 00000001800738f8     trust.obj
 0002:0000e904       ??_C@_11LOCGONAA@@         0000000180073904     trust.obj
 0002:0000e908       ??_C@_0BA@FOIKENOD@vector?5too?5long@ 0000000180073908     trust.obj
 0002:0000e918       ??_C@_0BA@JFNIOLAK@string?5too?5long@ 0000000180073918     trust.obj
 0002:0000e928       ??_C@_0BF@KINCDENJ@bad?5array?5new?5length@ 0000000180073928     trust.obj
 0002:0000e940       ??_C@_0BC@EOODALEL@Unknown?5exception@ 0000000180073940     trust.obj
 0002:0000e970       ??_C@_0BB@GCADKGJO@map?1set?5too?5long@ 0000000180073970     hashing.obj
 0002:0000e988       ??_C@_1M@BOIIKMC@?$AAC?$AAR?$AAC?$AA3?$AA2@ 0000000180073988     hashing.obj
 0002:0000e998       ??_C@_19PPMHCBJO@?$AA?4?$AAs?$AAf?$AAv@ 0000000180073998     hashing.obj
 0002:0000e9a8       ??_C@_17HLHJLHED@?$AAM?$AAD?$AA5@ 00000001800739a8     hashing.obj
 0002:0000e9b0       ??_C@_19FCJPFEFP@?$AA?4?$AAm?$AAd?$AA5@ 00000001800739b0     hashing.obj
 0002:0000e9c0       ??_C@_19DILNDFJH@?$AAS?$AAH?$AAA?$AA1@ 00000001800739c0     hashing.obj
 0002:0000e9d0       ??_C@_1M@OAGFPHNI@?$AA?4?$AAs?$AAh?$AAa?$AA1@ 00000001800739d0     hashing.obj
 0002:0000e9e0       ??_C@_1BA@NHEPDHGH@?$AAS?$AAH?$AAA?$AA?9?$AA2?$AA5?$AA6@ 00000001800739e0     hashing.obj
 0002:0000e9f0       ??_C@_1BA@OEJDLPDJ@?$AA?4?$AAs?$AAh?$AAa?$AA2?$AA5?$AA6@ 00000001800739f0     hashing.obj
 0002:0000ea00       ??_C@_1BA@MJHJOLDP@?$AAS?$AAH?$AAA?$AA?9?$AA5?$AA1?$AA2@ 0000000180073a00     hashing.obj
 0002:0000ea10       ??_C@_1BA@PKKFGDGB@?$AA?4?$AAs?$AAh?$AAa?$AA5?$AA1?$AA2@ 0000000180073a10     hashing.obj
 0002:0000ea20       ??_C@_1BC@OGKKGLDF@?$AAS?$AAH?$AAA?$AA3?$AA?9?$AA5?$AA1?$AA2@ 0000000180073a20     hashing.obj
 0002:0000ea38       ??_C@_1M@EKGMDPFD@?$AA?4?$AAs?$AAh?$AAa?$AA3@ 0000000180073a38     hashing.obj
 0002:0000ea48       ??_C@_1BE@IBHJLIAN@?$AAW?$AAh?$AAi?$AAr?$AAl?$AAp?$AAo?$AAo?$AAl@ 0000000180073a48     hashing.obj
 0002:0000ea60       ??_C@_1M@PFBIHMAA@?$AA?4?$AAw?$AAr?$AAp?$AAl@ 0000000180073a60     hashing.obj
 0002:0000ea70       ??_C@_0DE@GAKICDCL@?$DL?5Generated?5by?5Integrity?5Checke@ 0000000180073a70     hashing.obj
 0002:0000eaa8       ??_C@_1BC@CKJDNBFK@?$AAh?$AAa?$AAs?$AAh?$AAl?$AAi?$AAs?$AAt@ 0000000180073aa8     hashing.obj
 0002:0000eabc       ??_C@_13BPINEIPE@?$AAr@    0000000180073abc     hashing.obj
 0002:0000eac0       ??_C@_0CI@KCNGLDEN@?$FO?$CI?$FL?2w?9?$FN?$CL?$CJ?2s?$CL?2?$CI?$CI?4?$CL?$CJ?2?$CJ?2s?$DN?2s?$CI?$FLA?9Fa@ 0000000180073ac0     hashing.obj
 0002:0000eae8       ??_C@_0DI@ILIBEHAO@?$FO?$CI?$FLA?9Fa?9f?2d?$FN?$HL32?0128?$HN?$CJ?2s?$FL?2s?$CK?$FN?$CI?$CI?$DP@ 0000000180073ae8     hashing.obj
 0002:0000eb20       ??_C@_0CD@GJGAFENL@?$FO?$CI?$FL?$FO?$DM?$DO?$HM?$DP?$CK?2n?$FN?$CL?$DP?$CJ?2s?$CL?$CI?$FLA?9Fa?9f?2d?$FN?$HL8@ 0000000180073b20     hashing.obj
 0002:0000eb44       ??_C@_13HOIJIPNN@?$AA?5@   0000000180073b44     hashing.obj
 0002:0000eb48       ??_C@_15IGBOBEDA@?$AA?5?$AA?$CK@ 0000000180073b48     hashing.obj
 0002:0000eb50       ??_C@_01CLKCMJKC@?5@       0000000180073b50     hashing.obj
 0002:0000eb54       ??_C@_02FHJIKMCF@?5?$CK@   0000000180073b54     hashing.obj
 0002:0000eb58       ??_C@_0BI@CFPLBAOH@invalid?5string?5position@ 0000000180073b58     hashing.obj
 0002:0000eb70       ??_C@_0BG@EOMJEIFA@vector?$DMbool?$DO?5too?5long@ 0000000180073b70     hashing.obj
 0002:0000eb88       ??_C@_05IIMHCHIO@alnum@    0000000180073b88     hashing.obj
 0002:0000eb90       ??_C@_1M@KLMEPMCM@?$AAa?$AAl?$AAn?$AAu?$AAm@ 0000000180073b90     hashing.obj
 0002:0000eb9c       ??_C@_05IAEKHIAN@alpha@    0000000180073b9c     hashing.obj
 0002:0000eba8       ??_C@_1M@DHGLHBMI@?$AAa?$AAl?$AAp?$AAh?$AAa@ 0000000180073ba8     hashing.obj
 0002:0000ebb4       ??_C@_05BABJKOGB@blank@    0000000180073bb4     hashing.obj
 0002:0000ebc0       ??_C@_1M@EJAAJBPE@?$AAb?$AAl?$AAa?$AAn?$AAk@ 0000000180073bc0     hashing.obj
 0002:0000ebcc       ??_C@_05JMDPEFNK@cntrl@    0000000180073bcc     hashing.obj
 0002:0000ebd8       ??_C@_1M@LMIMILA@?$AAc?$AAn?$AAt?$AAr?$AAl@ 0000000180073bd8     hashing.obj
 0002:0000ebe4       ??_C@_01LPLHEDKD@d@        0000000180073be4     hashing.obj
 0002:0000ebe8       ??_C@_13GKPPEALH@?$AAd@    0000000180073be8     hashing.obj
 0002:0000ebec       ??_C@_05ODNOIFML@digit@    0000000180073bec     hashing.obj
 0002:0000ebf8       ??_C@_1M@JDAEIBKG@?$AAd?$AAi?$AAg?$AAi?$AAt@ 0000000180073bf8     hashing.obj
 0002:0000ec04       ??_C@_05KCJBMLII@graph@    0000000180073c04     hashing.obj
 0002:0000ec10       ??_C@_1M@MDKNJLLK@?$AAg?$AAr?$AAa?$AAp?$AAh@ 0000000180073c10     hashing.obj
 0002:0000ec1c       ??_C@_05IPJEPLHL@lower@    0000000180073c1c     hashing.obj
 0002:0000ec28       ??_C@_1M@LGAECJJD@?$AAl?$AAo?$AAw?$AAe?$AAr@ 0000000180073c28     hashing.obj
 0002:0000ec34       ??_C@_05IJDJACGD@print@    0000000180073c34     hashing.obj
 0002:0000ec40       ??_C@_1M@ELNLAPLA@?$AAp?$AAr?$AAi?$AAn?$AAt@ 0000000180073c40     hashing.obj
 0002:0000ec4c       ??_C@_05KOBGHFJJ@punct@    0000000180073c4c     hashing.obj
 0002:0000ec58       ??_C@_1M@BPFMAOAO@?$AAp?$AAu?$AAn?$AAc?$AAt@ 0000000180073c58     hashing.obj
 0002:0000ec64       ??_C@_05OLNILLAB@space@    0000000180073c64     hashing.obj
 0002:0000ec70       ??_C@_1M@LPGODFOM@?$AAs?$AAp?$AAa?$AAc?$AAe@ 0000000180073c70     hashing.obj
 0002:0000ec7c       ??_C@_01LKDEMHDF@s@        0000000180073c7c     hashing.obj
 0002:0000ec80       ??_C@_13KHDBCPJB@?$AAs@    0000000180073c80     hashing.obj
 0002:0000ec84       ??_C@_05NECKJAMC@upper@    0000000180073c84     hashing.obj
 0002:0000ec90       ??_C@_1M@PLNFCNIC@?$AAu?$AAp?$AAp?$AAe?$AAr@ 0000000180073c90     hashing.obj
 0002:0000ec9c       ??_C@_01NOFIACDB@w@        0000000180073c9c     hashing.obj
 0002:0000eca0       ??_C@_13CIFDLIMG@?$AAw@    0000000180073ca0     hashing.obj
 0002:0000eca4       ??_C@_06BAPHGFFK@xdigit@   0000000180073ca4     hashing.obj
 0002:0000ecb0       ??_C@_1O@OAFMJDHN@?$AAx?$AAd?$AAi?$AAg?$AAi?$AAt@ 0000000180073cb0     hashing.obj
 0002:0000ecc0       ?_Names@?1???$lookup_classname@PEBD@?$_Regex_traits@D@std@@QEBAFPEBD0_N@Z@4QBU_Cl_names@2@B 0000000180073cc0     hashing.obj
 0002:0000ee48       ??_7?$_Node_str@D@std@@6B@ 0000000180073e48     hashing.obj
 0002:0000ee58       ??_7?$_Node_class@DV?$regex_traits@D@std@@@std@@6B@ 0000000180073e58     hashing.obj
 0002:0000ee60       ?_Meta_map@?1??_Trans@?$_Parser@PEBDDV?$regex_traits@D@std@@@std@@AEAAXXZ@4QBDB 0000000180073e60     hashing.obj
 0002:0000ee78       ??_C@_0BF@PHHKMMFD@ios_base?3?3badbit?5set@ 0000000180073e78     hashing.obj
 0002:0000ee90       ??_C@_0BG@FMKFHCIL@ios_base?3?3failbit?5set@ 0000000180073e90     hashing.obj
 0002:0000eea8       ??_C@_0BF@OOHOMBOF@ios_base?3?3eofbit?5set@ 0000000180073ea8     hashing.obj
 0002:0000eec0       ??_C@_02LMMGGCAJ@?3?5@     0000000180073ec0     hashing.obj
 0002:0000eec8       ??_C@_08LLGCOLLL@iostream@ 0000000180073ec8     hashing.obj
 0002:0000eed8       ?_Iostream_error@?4??message@_Iostream_error_category2@std@@UEBA?AV?$basic_string@DU?$char_traits@D@std@@V?$allocator@D@2@@3@H@Z@4QBDB 0000000180073ed8     hashing.obj
 0002:0000eef8       ??_7_Iostream_error_category2@std@@6B@ 0000000180073ef8     hashing.obj
 0002:0000ef30       ??_7failure@ios_base@std@@6B@ 0000000180073f30     hashing.obj
 0002:0000ef48       ??_7system_error@std@@6B@  0000000180073f48     hashing.obj
 0002:0000ef60       ??_7_System_error@std@@6B@ 0000000180073f60     hashing.obj
 0002:0000ef70       ??_C@_0BA@ELKIONDK@bad?5locale?5name@ 0000000180073f70     hashing.obj
 0002:0000ef80       ??_C@_00CNPNBAHC@@         0000000180073f80     hashing.obj
 0002:0000ef88       ??_C@_08EPJLHIJG@bad?5cast@ 0000000180073f88     hashing.obj
 0002:0000efa0       ??_7?$basic_ios@DU?$char_traits@D@std@@@std@@6B@ 0000000180073fa0     hashing.obj
 0002:0000efb0       ??_7?$basic_istream@DU?$char_traits@D@std@@@std@@6B@ 0000000180073fb0     hashing.obj
 0002:0000efc0       ??_7?$basic_ostream@DU?$char_traits@D@std@@@std@@6B@ 0000000180073fc0     hashing.obj
 0002:0000efd0       ??_7?$basic_iostream@DU?$char_traits@D@std@@@std@@6B@ 0000000180073fd0     hashing.obj
 0002:0000efd8       ??_8?$basic_stringstream@DU?$char_traits@D@std@@V?$allocator@D@2@@std@@7B?$basic_ostream@DU?$char_traits@D@std@@@1@@ 0000000180073fd8     hashing.obj
 0002:0000efd8       ??_8?$basic_stringstream@_WU?$char_traits@_W@std@@V?$allocator@_W@2@@std@@7B?$basic_ostream@_WU?$char_traits@_W@std@@@1@@ 0000000180073fd8     hashing.obj
 0002:0000efe0       ??_8?$basic_stringstream@_WU?$char_traits@_W@std@@V?$allocator@_W@2@@std@@7B?$basic_istream@_WU?$char_traits@_W@std@@@1@@ 0000000180073fe0     hashing.obj
 0002:0000efe0       ??_8?$basic_stringstream@DU?$char_traits@D@std@@V?$allocator@D@2@@std@@7B?$basic_istream@DU?$char_traits@D@std@@@1@@ 0000000180073fe0     hashing.obj
 0002:0000eff0       ??_7?$basic_stringstream@DU?$char_traits@D@std@@V?$allocator@D@2@@std@@6B@ 0000000180073ff0     hashing.obj
 0002:0000f000       ??_7?$basic_streambuf@DU?$char_traits@D@std@@@std@@6B@ 0000000180074000     hashing.obj
 0002:0000f080       ??_7?$basic_stringbuf@DU?$char_traits@D@std@@V?$allocator@D@2@@std@@6B@ 0000000180074080     hashing.obj
 0002:0000f100       ??_7ios_base@std@@6B@      0000000180074100     hashing.obj
 0002:0000f110       ??_7?$basic_ios@_WU?$char_traits@_W@std@@@std@@6B@ 0000000180074110     hashing.obj
 0002:0000f120       ??_7?$basic_istream@_WU?$char_traits@_W@std@@@std@@6B@ 0000000180074120     hashing.obj
 0002:0000f130       ??_7?$basic_ostream@_WU?$char_traits@_W@std@@@std@@6B@ 0000000180074130     hashing.obj
 0002:0000f140       ??_7?$basic_iostream@_WU?$char_traits@_W@std@@@std@@6B@ 0000000180074140     hashing.obj
 0002:0000f150       ??_7?$basic_stringstream@_WU?$char_traits@_W@std@@V?$allocator@_W@2@@std@@6B@ 0000000180074150     hashing.obj
 0002:0000f160       ??_7?$basic_streambuf@_WU?$char_traits@_W@std@@@std@@6B@ 0000000180074160     hashing.obj
 0002:0000f1e0       ??_7?$basic_stringbuf@_WU?$char_traits@_W@std@@V?$allocator@_W@2@@std@@6B@ 00000001800741e0     hashing.obj
 0002:0000f260       ??_7_Node_rep@std@@6B@     0000000180074260     hashing.obj
 0002:0000f270       ??_7_Node_end_rep@std@@6B@ 0000000180074270     hashing.obj
 0002:0000f280       ??_7_Node_if@std@@6B@      0000000180074280     hashing.obj
 0002:0000f290       ??_7_Node_endif@std@@6B@   0000000180074290     hashing.obj
 0002:0000f2a0       ??_7_Node_back@std@@6B@    00000001800742a0     hashing.obj
 0002:0000f2b0       ??_7_Node_capture@std@@6B@ 00000001800742b0     hashing.obj
 0002:0000f2c0       ??_7_Node_assert@std@@6B@  00000001800742c0     hashing.obj
 0002:0000f2d0       ??_7_Node_end_group@std@@6B@ 00000001800742d0     hashing.obj
 0002:0000f2e0       ??_7_Root_node@std@@6B@    00000001800742e0     hashing.obj
 0002:0000f2f0       ??_7_Node_base@std@@6B@    00000001800742f0     hashing.obj
 0002:0000f300       ?_Is_word_table@?1??_Is_word@std@@YA_NE@Z@4QB_NB 0000000180074300     hashing.obj
 0002:0000f408       ??_7?$_Func_impl_no_alloc@V?$_Binder@U_Unforced@std@@A6AXAEAVFar3Panel@@@ZAEAV3@@std@@X_J@std@@6B@ 0000000180074408     IntChecker2-Far3.obj
 0002:0000f440       ??_7?$_Func_impl_no_alloc@V?$_Binder@U_Unforced@std@@A6AXAEBV?$basic_string@_WU?$char_traits@_W@std@@V?$allocator@_W@2@@2@@ZAEAV32@@std@@X_J@std@@6B@ 0000000180074440     IntChecker2-Far3.obj
 0002:0000f478       ??_7?$_Func_impl_no_alloc@V?$_Binder@U_Unforced@std@@A6A_NPEB_W_N1@ZPEB_W_N_N@std@@X_J@std@@6B@ 0000000180074478     IntChecker2-Far3.obj
 0002:0000f4b0       ??_7?$_Func_impl_no_alloc@V?$_Binder@U_Unforced@std@@A6AXXZ$$V@std@@X_J@std@@6B@ 00000001800744b0     IntChecker2-Far3.obj
 0002:0000f4e8       ??_7?$_Ref_count_obj2@U_Recursive_dir_enum_impl@filesystem@std@@@std@@6B@ 00000001800744e8     IntChecker2-Far3.obj
 0002:0000f548       ??_7?$DialogItemBinding@UFarDialogItem@@@@6B@ 0000000180074548     IntChecker2-Far3.obj
 0002:0000f560       ??_7?$DialogBuilderBase@UFarDialogItem@@@@6B@ 0000000180074560     IntChecker2-Far3.obj
 0002:0000f5b0       ??_7filesystem_error@filesystem@std@@6B@ 00000001800745b0     IntChecker2-Far3.obj
 0002:0000f5c0       ??_C@_06FHFOAHML@system@   00000001800745c0     IntChecker2-Far3.obj
 0002:0000f5c8       ?_Unknown_error@?4??message@_System_error_category@std@@UEBA?AV?$basic_string@DU?$char_traits@D@std@@V?$allocator@D@2@@3@H@Z@4QBDB 00000001800745c8     IntChecker2-Far3.obj
 0002:0000f5d8       ??_C@_07DCLBNMLN@generic@  00000001800745d8     IntChecker2-Far3.obj
 0002:0000f5e8       ??_7_Generic_error_category@std@@6B@ 00000001800745e8     IntChecker2-Far3.obj
 0002:0000f620       ??_7_System_error_category@std@@6B@ 0000000180074620     IntChecker2-Far3.obj
 0002:0000f6a0       rhash_info_table           00000001800746a0     rhash:algorithms.obj
 0002:000182d0       rhash_whirlpool_sbox       000000018007d2d0     rhash:whirlpool_sbox.obj
 0002:0001c2d0       rhash_tiger_sboxes         00000001800812d0     rhash:tiger_sbox.obj
 0002:0001e2d0       GUID_DIALOG_CONFIG         00000001800832d0     IntChecker2-Far3.obj
 0002:0001e2e0       GUID_DIALOG_PARAMS         00000001800832e0     IntChecker2-Far3.obj
 0002:0001e2f0       GUID_DIALOG_MENU           00000001800832f0     IntChecker2-Far3.obj
 0002:0001e300       GUID_DIALOG_RESULTS        0000000180083300     IntChecker2-Far3.obj
 0002:0001e310       GUID_MESSAGE_BOX           0000000180083310     IntChecker2-Far3.obj
 0002:0001e320       GUID_INFO_CONFIG           0000000180083320     IntChecker2-Far3.obj
 0002:0001e330       GUID_INFO_MENU             0000000180083330     IntChecker2-Far3.obj
 0002:0001e340       GUID_PLUGIN_MAIN           0000000180083340     IntChecker2-Far3.obj
 0002:0001e358       ??_7PluginDialogBuilder@@6B@ 0000000180083358     IntChecker2-Far3.obj
 0002:0001e3a8       ??_7PluginListControlBinding@@6B@ 00000001800833a8     IntChecker2-Far3.obj
 0002:0001e3c0       ??_7PluginUIntEditFieldBinding@@6B@ 00000001800833c0     IntChecker2-Far3.obj
 0002:0001e3d8       ??_7PluginIntEditFieldBinding@@6B@ 00000001800833d8     IntChecker2-Far3.obj
 0002:0001e3f0       ??_7PluginEditFieldBinding@@6B@ 00000001800833f0     IntChecker2-Far3.obj
 0002:0001e408       ??_7PluginRadioButtonBinding@@6B@ 0000000180083408     IntChecker2-Far3.obj
 0002:0001e420       ??_7PluginCheckBoxBinding@@6B@ 0000000180083420     IntChecker2-Far3.obj
 0002:0001e430       ??_C@_15EFLNJKHH@?$AA?$CF?$AAu@ 0000000180083430     IntChecker2-Far3.obj
 0002:0001e438       ??_C@_1M@PBIMNCPC@?$AA?$CF?$AA4?$AAd?$AA?$CF?$AA?$CF@ 0000000180083438     IntChecker2-Far3.obj
 0002:0001e448       ??_C@_1CK@MIABOJHB@?$AA?$CF?$AA0?$AA2?$AAl?$AAl?$AAd?$AA?3?$AA?$CF?$AA0?$AA2?$AAl?$AAl?$AAd?$AA?3?$AA?$CF@ 0000000180083448     IntChecker2-Far3.obj
 0002:0001e474       ??_C@_13JOFGPIOO@?$AA?4@   0000000180083474     IntChecker2-Far3.obj
 0002:0001e478       ??_C@_15DDHGOCBH@?$AA?4?$AA?4@ 0000000180083478     IntChecker2-Far3.obj
 0002:0001e480       ??_C@_03NONCDIOG@?3?5?$CC@ 0000000180083480     IntChecker2-Far3.obj
 0002:0001e484       ??_C@_04PHMHGEMA@?$CC?0?5?$CC@ 0000000180083484     IntChecker2-Far3.obj
 0002:0001e490       ??_C@_0BL@JOMHLKIA@directory_entry?3?3file_size@ 0000000180083490     IntChecker2-Far3.obj
 0002:0001e4b0       ??_C@_0BI@LBKDNGFK@directory_entry?3?3status@ 00000001800834b0     IntChecker2-Far3.obj
 0002:0001e4c8       ??_C@_13BBDEGPLJ@?$AA?$CK@ 00000001800834c8     IntChecker2-Far3.obj
 0002:0001e4d0       ??_C@_0DL@FMJPNKHC@recursive_directory_iterator?3?3r@ 00000001800834d0     IntChecker2-Far3.obj
 0002:0001e510       ??_C@_0CJ@OMKENMFB@recursive_directory_iterator?3?3o@ 0000000180083510     IntChecker2-Far3.obj
 0002:0001e540       ??_C@_1CA@JMHGIOKA@?$AAD?$AAe?$AAt?$AAe?$AAc?$AAt?$AAH?$AAa?$AAs?$AAh?$AAF?$AAi?$AAl?$AAe?$AAs@ 0000000180083540     IntChecker2-Far3.obj
 0002:0001e560       ??_C@_1BO@ELNGBDOB@?$AAC?$AAl?$AAe?$AAa?$AAr?$AAS?$AAe?$AAl?$AAe?$AAc?$AAt?$AAi?$AAo?$AAn@ 0000000180083560     IntChecker2-Far3.obj
 0002:0001e580       ??_C@_1BK@NGEENLCN@?$AAC?$AAo?$AAn?$AAf?$AAi?$AAr?$AAm?$AAA?$AAb?$AAo?$AAr?$AAt@ 0000000180083580     IntChecker2-Far3.obj
 0002:0001e5a0       ??_C@_1BI@HPFBIJPK@?$AAD?$AAe?$AAf?$AAa?$AAu?$AAl?$AAt?$AAH?$AAa?$AAs?$AAh@ 00000001800835a0     IntChecker2-Far3.obj
 0002:0001e5b8       ??_C@_1BE@CBCIMCPK@?$AAU?$AAs?$AAe?$AAP?$AAr?$AAe?$AAf?$AAi?$AAx@ 00000001800835b8     IntChecker2-Far3.obj
 0002:0001e5d0       ??_C@_1BM@JNDNJBDE@?$AAA?$AAu?$AAt?$AAo?$AAE?$AAx?$AAt?$AAe?$AAn?$AAs?$AAi?$AAo?$AAn@ 00000001800835d0     IntChecker2-Far3.obj
 0002:0001e5f0       ??_C@_1CA@JKGHILCM@?$AAH?$AAa?$AAs?$AAh?$AAI?$AAn?$AAU?$AAp?$AAp?$AAe?$AAr?$AAc?$AAa?$AAs?$AAe@ 00000001800835f0     IntChecker2-Far3.obj
 0002:0001e610       ??_C@_1CM@EKJFLMMF@?$AAR?$AAe?$AAm?$AAe?$AAm?$AAb?$AAe?$AAr?$AAL?$AAa?$AAs?$AAt?$AAA?$AAl?$AAg@ 0000000180083610     IntChecker2-Far3.obj
 0002:0001e640       ??_C@_1CI@JCBFPNBK@?$AAD?$AAe?$AAf?$AAa?$AAu?$AAl?$AAt?$AAL?$AAi?$AAs?$AAt?$AAC?$AAo?$AAd?$AAe@ 0000000180083640     IntChecker2-Far3.obj
 0002:0001e668       ??_C@_1BM@PMMGDAGJ@?$AAD?$AAe?$AAf?$AAa?$AAu?$AAl?$AAt?$AAO?$AAu?$AAt?$AAp?$AAu?$AAt@ 0000000180083668     IntChecker2-Far3.obj
 0002:0001e688       ??_C@_1O@GBAEOCCH@?$AAP?$AAr?$AAe?$AAf?$AAi?$AAx@ 0000000180083688     IntChecker2-Far3.obj
 0002:0001e698       ??_C@_1BA@FHGHAHNB@?$AA?$CF?$AAd?$AA?5?$AA?1?$AA?5?$AA?$CF?$AAd@ 0000000180083698     IntChecker2-Far3.obj
 0002:0001e6a8       ??_C@_17DFGDFKBN@?$AA?5?$AA?1?$AA?5@ 00000001800836a8     IntChecker2-Far3.obj
 0002:0001e6b0       ??_C@_15MBENOGMN@?$AA?1?$AAs@ 00000001800836b0     IntChecker2-Far3.obj
 0002:0001e6b8       ??_C@_13GGAHEHIG@?$AA?$AB@ 00000001800836b8     IntChecker2-Far3.obj
 0002:0001e6c0       ??_C@_1BG@BBFNABH@?$AA?$CF?$AAs?$AA?5?$AA?$CI?$AA?$CF?$AAd?$AA?5?$AA?$CF?$AAs?$AA?$CJ@ 00000001800836c0     IntChecker2-Far3.obj
 0002:0001e6d8       ??_C@_19IELFGNPI@?$AA?5?$AA?5?$AA?$CF?$AAs@ 00000001800836d8     IntChecker2-Far3.obj
 0002:0001e6e4       ??_C@_15MNCACJLI@?$AA?2?$AA?1@ 00000001800836e4     IntChecker2-Far3.obj
 0002:0001e6f0       ??_C@_1M@PBFCDPHC@?$AAU?$AAT?$AAF?$AA?9?$AA8@ 00000001800836f0     IntChecker2-Far3.obj
 0002:0001e700       ??_C@_19DNBMEGCG@?$AAA?$AAN?$AAS?$AAI@ 0000000180083700     IntChecker2-Far3.obj
 0002:0001e710       ??_C@_17FMILOLOI@?$AAO?$AAE?$AAM@ 0000000180083710     IntChecker2-Far3.obj
 0002:0001e718       ??_C@_1BO@JJFLJOGG@?$AAV?$AAa?$AAl?$AAi?$AAd?$AAa?$AAt?$AAe?$AAP?$AAa?$AAr?$AAa?$AAm?$AAs@ 0000000180083718     IntChecker2-Far3.obj
 0002:0001e738       ??_C@_1BO@KGEHEMFH@?$AAG?$AAe?$AAn?$AAe?$AAr?$AAa?$AAt?$AAe?$AAP?$AAa?$AAr?$AAa?$AAm?$AAs@ 0000000180083738     IntChecker2-Far3.obj
 0002:0001e758       ??_C@_1CM@DABDDCDD@?$AAI?$AAn?$AAv?$AAa?$AAl?$AAi?$AAd?$AA?5?$AAo?$AAu?$AAt?$AAp?$AAu?$AAt?$AA?5@ 0000000180083758     IntChecker2-Far3.obj
 0002:0001e788       ??_C@_1M@ILHOPKA@?$AAE?$AAr?$AAr?$AAo?$AAr@ 0000000180083788     IntChecker2-Far3.obj
 0002:0001e798       ??_C@_1BE@LKNELEPI@?$AAD?$AAa?$AAt?$AAa?$AA?5?$AAS?$AAi?$AAz?$AAe@ 0000000180083798     IntChecker2-Far3.obj
 0002:0001e7ac       ??_C@_15GMNEHIGG@?$AAM?$AAb@ 00000001800837ac     IntChecker2-Far3.obj
 0002:0001e7b8       ??_C@_17IHGDDPMB@?$AAb?$AA?1?$AAs@ 00000001800837b8     IntChecker2-Far3.obj
 0002:0001e7c0       ??_C@_1CE@NPEPKLGP@?$AA?$CF?$AA9?$AAs?$AA?5?$AA?3?$AA?5?$AA?$CF?$AAl?$AAl?$AAu?$AA?5?$AAm?$AAs?$AA?0?$AA?5@ 00000001800837c0     IntChecker2-Far3.obj
 0002:0001e7e8       ??_C@_1CE@LOMNKCBC@?$AAT?$AAo?$AAt?$AAa?$AAl?$AA?5?$AAd?$AAa?$AAt?$AAa?$AA?5?$AAs?$AAi?$AAz?$AAe@ 00000001800837e8     IntChecker2-Far3.obj
 0002:0001e810       ??_C@_1IA@PKBPDEFM@?$AAT?$AAh?$AAe?$AA?5?$AAc?$AAe?$AAr?$AAt?$AAi?$AAf?$AAi?$AAc?$AAa?$AAt?$AAe@ 0000000180083810     IntChecker2-Far3.obj
 0002:0001e890       ??_C@_1GK@NBJMPAMH@?$AAT?$AAh?$AAe?$AA?5?$AAs?$AAu?$AAb?$AAj?$AAe?$AAc?$AAt?$AA?5?$AAi?$AAs?$AA?5@ 0000000180083890     IntChecker2-Far3.obj
 0002:0001e900       ??_C@_1JG@DJGPHJIN@?$AAT?$AAh?$AAe?$AA?5?$AAc?$AAr?$AAy?$AAp?$AAt?$AAo?$AAg?$AAr?$AAa?$AAp?$AAh@ 0000000180083900     IntChecker2-Far3.obj
 0002:0001e998       ??_C@_1DA@JPFGNDCJ@?$AAU?$AAn?$AAk?$AAn?$AAo?$AAw?$AAn?$AA?5?$AAt?$AAr?$AAu?$AAs?$AAt?$AA?5?$AAp@ 0000000180083998     IntChecker2-Far3.obj
 0002:0001e9d0       ??_C@_1GI@EFPFJICH@?$AAT?$AAh?$AAe?$AA?5?$AAd?$AAi?$AAg?$AAi?$AAt?$AAa?$AAl?$AA?5?$AAs?$AAi?$AAg@ 00000001800839d0     IntChecker2-Far3.obj
 0002:0001ea40       ??_C@_1IO@PBLFEHBK@?$AAT?$AAh?$AAe?$AA?5?$AAc?$AAe?$AAr?$AAt?$AAi?$AAf?$AAi?$AAc?$AAa?$AAt?$AAe@ 0000000180083a40     IntChecker2-Far3.obj
 0002:0001ead0       ??_C@_1GO@JGDACNMC@?$AAR?$AAo?$AAo?$AAt?$AA?5?$AAc?$AAe?$AAr?$AAt?$AAi?$AAf?$AAi?$AAc?$AAa?$AAt@ 0000000180083ad0     IntChecker2-Far3.obj
 0002:0001eb40       ??_C@_1II@PEKGHMED@?$AAA?$AA?5?$AAc?$AAe?$AAr?$AAt?$AAi?$AAf?$AAi?$AAc?$AAa?$AAt?$AAe?$AA?5?$AAc@ 0000000180083b40     IntChecker2-Far3.obj
 0002:0001ebd0       ??_C@_1FK@PJPAIKLI@?$AAS?$AAo?$AAm?$AAe?$AAt?$AAh?$AAi?$AAn?$AAg?$AA?5?$AAw?$AAe?$AAn?$AAt?$AA?5@ 0000000180083bd0     IntChecker2-Far3.obj
 0002:0001ec30       ??_C@_1BO@EEDECBCM@?$AAF?$AAi?$AAl?$AAe?$AA?5?$AA?$CF?$AAu?$AAl?$AA?5?$AA?1?$AA?5?$AA?$CF?$AAu?$AAl@ 0000000180083c30     IntChecker2-Far3.obj
 0002:0001ec50       ??_C@_1CE@HGIELEIK@?$AAI?$AAn?$AAt?$AAe?$AAg?$AAr?$AAi?$AAt?$AAy?$AA?5?$AAC?$AAh?$AAe?$AAc?$AAk@ 0000000180083c50     IntChecker2-Far3.obj
 0002:0001ec80       ??_C@_1EI@IFAIBMIA@?$AAH?$AAa?$AAs?$AAh?$AA?5?$AAs?$AAu?$AAm?$AAs?$AA?5?$AAg?$AAe?$AAn?$AAe?$AAr@ 0000000180083c80     IntChecker2-Far3.obj
 0002:0001ecc8       ??_C@_1O@EEMOEJML@?$AAA?$AAr?$AAi?$AAm?$AAa?$AAn@ 0000000180083cc8     IntChecker2-Far3.obj
 0002:0001ecd8       ??_C@_1CC@CFHFHAHK@?$AAI?$AAn?$AAt?$AAC?$AAh?$AAe?$AAc?$AAk?$AAe?$AAr?$AAC?$AAo?$AAn?$AAf?$AAi@ 0000000180083cd8     IntChecker2-Far3.obj
 0002:0001ed00       ??_C@_1BA@FFJLNOLF@?$AAg?$AAe?$AAt?$AAh?$AAa?$AAs?$AAh@ 0000000180083d00     IntChecker2-Far3.obj
 0002:0001ed10       ??_C@_1BE@LCAMFMDK@?$AAu?$AAs?$AAe?$AAr?$AAa?$AAb?$AAo?$AAr?$AAt@ 0000000180083d10     IntChecker2-Far3.obj
 0002:0001ed28       ??_C@_0BJ@DHFDPMIM@invalid?5vector?5subscript@ 0000000180083d28     IntChecker2-Far3.obj
 0002:0001ed44       ??_C@_13FPGAJAPJ@?$AA?2@   0000000180083d44     RegistrySettings.obj
 0002:0001ed48       ??_C@_15DJBMFJKF@?$AA?1?$AA?2@ 0000000180083d48     Utils.obj
 0002:0001ed50       ??_C@_19MJCDBCKE@?$AA?2?$AA?2?$AA?$DP?$AA?2@ 0000000180083d50     Utils.obj
 0002:0001ed60       ??_C@_0N@NNPGFLGF@0123456789?$CL?1@ 0000000180083d60     rhash:hex.obj
 0002:0001ed70       ??_C@_05MHNOECFO@CRC32@    0000000180083d70     rhash:algorithms.obj
 0002:0001ed78       ??_C@_05KBIBMHFC@crc32@    0000000180083d78     rhash:algorithms.obj
 0002:0001ed80       ??_C@_06FHEALOHH@CRC32C@   0000000180083d80     rhash:algorithms.obj
 0002:0001ed88       ??_C@_06MLBEIJHL@crc32c@   0000000180083d88     rhash:algorithms.obj
 0002:0001ed90       ??_C@_03HLHMHGOI@MD4@      0000000180083d90     rhash:algorithms.obj
 0002:0001ed94       ??_C@_03ODADJPDG@md4@      0000000180083d94     rhash:algorithms.obj
 0002:0001ed98       ??_C@_03GCGHEHKJ@MD5@      0000000180083d98     rhash:algorithms.obj
 0002:0001ed9c       ??_C@_03PKBIKOHH@md5@      0000000180083d9c     rhash:algorithms.obj
 0002:0001eda0       ??_C@_04KPMLCNGO@SHA1@     0000000180083da0     rhash:algorithms.obj
 0002:0001eda8       ??_C@_04PGHFOLLE@sha1@     0000000180083da8     rhash:algorithms.obj
 0002:0001edb0       ??_C@_05HENODOPM@TIGER@    0000000180083db0     rhash:algorithms.obj
 0002:0001edb8       ??_C@_05LPEINJLC@tiger@    0000000180083db8     rhash:algorithms.obj
 0002:0001edc0       ??_C@_03MJMBPLHH@TTH@      0000000180083dc0     rhash:algorithms.obj
 0002:0001edc8       ??_C@_0L@FLKGCNAB@tree?3tiger@ 0000000180083dc8     rhash:algorithms.obj
 0002:0001edd4       ??_C@_04BIGKOIHM@BTIH@     0000000180083dd4     rhash:algorithms.obj
 0002:0001eddc       ??_C@_04NEFAAKAE@btih@     0000000180083ddc     rhash:algorithms.obj
 0002:0001ede4       ??_C@_04IJNKLHIB@ED2K@     0000000180083de4     rhash:algorithms.obj
 0002:0001edec       ??_C@_04HNKNBDBJ@ed2k@     0000000180083dec     rhash:algorithms.obj
 0002:0001edf4       ??_C@_04PACOJIDI@AICH@     0000000180083df4     rhash:algorithms.obj
 0002:0001edfc       ??_C@_04DMBEHKEA@aich@     0000000180083dfc     rhash:algorithms.obj
 0002:0001ee08       ??_C@_09EJLANLM@WHIRLPOOL@ 0000000180083e08     rhash:algorithms.obj
 0002:0001ee18       ??_C@_09DEGKDAEL@whirlpool@ 0000000180083e18     rhash:algorithms.obj
 0002:0001ee28       ??_C@_0L@PKFJAMAA@RIPEMD?9160@ 0000000180083e28     rhash:algorithms.obj
 0002:0001ee38       ??_C@_09EDIPKBN@ripemd160@ 0000000180083e38     rhash:algorithms.obj
 0002:0001ee48       ??_C@_0L@BBGAPLAM@GOST12?9256@ 0000000180083e48     rhash:algorithms.obj
 0002:0001ee58       ??_C@_0L@KDCGJHPO@gost12?9256@ 0000000180083e58     rhash:algorithms.obj
 0002:0001ee68       ??_C@_0L@OPNCKOGN@GOST12?9512@ 0000000180083e68     rhash:algorithms.obj
 0002:0001ee78       ??_C@_0L@FNJEMCJP@gost12?9512@ 0000000180083e78     rhash:algorithms.obj
 0002:0001ee84       ??_C@_06LGHNNDMJ@GOST94@   0000000180083e84     rhash:algorithms.obj
 0002:0001ee8c       ??_C@_06BPJPGPFJ@gost94@   0000000180083e8c     rhash:algorithms.obj
 0002:0001ee98       ??_C@_0BB@EOCFJDFK@GOST94?9CRYPTOPRO@ 0000000180083e98     rhash:algorithms.obj
 0002:0001eeb0       ??_C@_0BB@COJKBGM@gost94?9cryptopro@ 0000000180083eb0     rhash:algorithms.obj
 0002:0001eec8       ??_C@_07IGKFCGPK@HAS?9160@ 0000000180083ec8     rhash:algorithms.obj
 0002:0001eed0       ??_C@_06BACHFEPG@has160@   0000000180083ed0     rhash:algorithms.obj
 0002:0001eed8       ??_C@_0L@CHBPNHKJ@SNEFRU?9128@ 0000000180083ed8     rhash:algorithms.obj
 0002:0001eee8       ??_C@_09OKPIPFJA@snefru128@ 0000000180083ee8     rhash:algorithms.obj
 0002:0001eef8       ??_C@_0L@KOGGEDEM@SNEFRU?9256@ 0000000180083ef8     rhash:algorithms.obj
 0002:0001ef08       ??_C@_09GDIBGBHF@snefru256@ 0000000180083f08     rhash:algorithms.obj
 0002:0001ef18       ??_C@_07NCCCPPC@SHA?9224@  0000000180083f18     rhash:algorithms.obj
 0002:0001ef20       ??_C@_06DJABMLNO@sha224@   0000000180083f20     rhash:algorithms.obj
 0002:0001ef28       ??_C@_07DKFLFLPF@SHA?9256@ 0000000180083f28     rhash:algorithms.obj
 0002:0001ef30       ??_C@_06OHILPNJ@sha256@    0000000180083f30     rhash:algorithms.obj
 0002:0001ef38       ??_C@_07LIAJMNEB@SHA?9384@ 0000000180083f38     rhash:algorithms.obj
 0002:0001ef40       ??_C@_06IMCKCJGN@sha384@   0000000180083f40     rhash:algorithms.obj
 0002:0001ef48       ??_C@_07MEOJAOJE@SHA?9512@ 0000000180083f48     rhash:algorithms.obj
 0002:0001ef50       ??_C@_06PAMKOKLI@sha512@   0000000180083f50     rhash:algorithms.obj
 0002:0001ef58       ??_C@_09LGONLGE@EDON?9R256@ 0000000180083f58     rhash:algorithms.obj
 0002:0001ef68       ??_C@_09DBMICONJ@edon?9r256@ 0000000180083f68     rhash:algorithms.obj
 0002:0001ef78       ??_C@_09PFNMIOAF@EDON?9R512@ 0000000180083f78     rhash:algorithms.obj
 0002:0001ef88       ??_C@_09MPHKHLLI@edon?9r512@ 0000000180083f88     rhash:algorithms.obj
 0002:0001ef98       ??_C@_07IDFKNNPM@BLAKE2S@  0000000180083f98     rhash:algorithms.obj
 0002:0001efa0       ??_C@_07EGEKCHJI@blake2s@  0000000180083fa0     rhash:algorithms.obj
 0002:0001efa8       ??_C@_07NAIDPOOM@BLAKE2B@  0000000180083fa8     rhash:algorithms.obj
 0002:0001efb0       ??_C@_07BFJDAEII@blake2b@  0000000180083fb0     rhash:algorithms.obj
 0002:0001efb8       ??_C@_08DHHFFNOC@SHA3?9224@ 0000000180083fb8     rhash:algorithms.obj
 0002:0001efc8       ??_C@_08IDEPIEIL@sha3?9224@ 0000000180083fc8     rhash:algorithms.obj
 0002:0001efd8       ??_C@_08MCJOF@SHA3?9256@   0000000180083fd8     rhash:algorithms.obj
 0002:0001efe8       ??_C@_08LEDGPAIM@sha3?9256@ 0000000180083fe8     rhash:algorithms.obj
 0002:0001eff8       ??_C@_08ICFOLPFB@SHA3?9384@ 0000000180083ff8     rhash:algorithms.obj
 0002:0001f008       ??_C@_08DGGEGGDI@sha3?9384@ 0000000180084008     rhash:algorithms.obj
 0002:0001f018       ??_C@_08POLOHMIE@SHA3?9512@ 0000000180084018     rhash:algorithms.obj
 0002:0001f028       ??_C@_08EKIEKFON@sha3?9512@ 0000000180084028     rhash:algorithms.obj
 0002:0001f038       ??_C@_09FBKEFDGA@BATCH_DIR@ 0000000180084038     rhash:torrent.obj
 0002:0001f048       ??_C@_0L@GNICFOPG@8?3announce@ 0000000180084048     rhash:torrent.obj
 0002:0001f058       ??_C@_0BD@ECJEKGPN@13?3announce?9listll@ 0000000180084058     rhash:torrent.obj
 0002:0001f070       ??_C@_0O@OJPFBIHB@10?3created?5by@ 0000000180084070     rhash:torrent.obj
 0002:0001f080       ??_C@_0BB@IOFFPOIM@13?3creation?5date@ 0000000180084080     rhash:torrent.obj
 0002:0001f098       ??_C@_0BC@PMJOLIFB@8?3encoding5?3UTF?98@ 0000000180084098     rhash:torrent.obj
 0002:0001f0b0       ??_C@_07MCOHJKNC@4?3infod@ 00000001800840b0     rhash:torrent.obj
 0002:0001f0b8       ??_C@_07FDOIFNMJ@4?3pathl@ 00000001800840b8     rhash:torrent.obj
 0002:0001f0c0       ??_C@_09OHFPFKKD@d6?3length@ 00000001800840c0     rhash:torrent.obj
 0002:0001f0d0       ??_C@_07GAGLFBI@e4?3name@  00000001800840d0     rhash:torrent.obj
 0002:0001f0d8       ??_C@_06GGEDBLNA@4?3name@  00000001800840d8     rhash:torrent.obj
 0002:0001f0e0       ??_C@_08DKNAICHB@6?3length@ 00000001800840e0     rhash:torrent.obj
 0002:0001f0f0       ??_C@_0BA@MACKHIND@12?3piece?5length@ 00000001800840f0     rhash:torrent.obj
 0002:0001f100       ??_C@_0N@HFFDHMKG@7?3privatei1e@ 0000000180084100     rhash:torrent.obj
 0002:0001f110       __xmm@00000000000000070000000000000000 0000000180084110     hashing.obj
 0002:0001f120       __xmm@000000000000000f0000000000000000 0000000180084120     hashing.obj
 0002:0001f130       __xmm@00000001000000010000000100000001 0000000180084130     IntChecker2-Far3.obj
 0002:0001f140       __xmm@00000002000000030000000100000000 0000000180084140     IntChecker2-Far3.obj
 0002:0001f150       __xmm@00000016000000170000001500000014 0000000180084150     IntChecker2-Far3.obj
 0002:0001f160       __xmm@0000005100000052000000500000004f 0000000180084160     IntChecker2-Far3.obj
 0002:0001f170       __xmm@00000057000000560000005500000054 0000000180084170     IntChecker2-Far3.obj
 0002:0001f180       __xmm@01010101010101010101010101010101 0000000180084180     rhash:gost12.obj
 0002:0001f190       __xmm@08090a0b0c0d0e0f0001020304050607 0000000180084190     rhash:byte_order.obj
 0002:0001f1a0       __xmm@0c0d0e0f08090a0b0405060700010203 00000001800841a0     rhash:snefru.obj
 0002:0001f1b0       __xmm@ffffffffffffffff0000000000000002 00000001800841b0     IntChecker2-Far3.obj
 0002:0001f1c0       __xmm@ffffffffffffffffffffffffffffffff 00000001800841c0     rhash:sha3.obj
 0002:0001f210       _load_config_used          0000000180084210     LIBCMT:loadcfg.obj
 0002:0001f380       ??_R4bad_function_call@std@@6B@ 0000000180084380     libcpmt:xthrow.obj
 0002:0001f3a8       ??_R3bad_function_call@std@@8 00000001800843a8     libcpmt:xthrow.obj
 0002:0001f3c0       ??_R2bad_function_call@std@@8 00000001800843c0     libcpmt:xthrow.obj
 0002:0001f3d8       ??_R1A@?0A@EA@bad_function_call@std@@8 00000001800843d8     libcpmt:xthrow.obj
 0002:0001f400       ??_R4logic_error@std@@6B@  0000000180084400     libcpmt:xthrow.obj
 0002:0001f428       ??_R3logic_error@std@@8    0000000180084428     libcpmt:xthrow.obj
 0002:0001f440       ??_R2logic_error@std@@8    0000000180084440     libcpmt:xthrow.obj
 0002:0001f458       ??_R1A@?0A@EA@logic_error@std@@8 0000000180084458     libcpmt:xthrow.obj
 0002:0001f480       ??_R4length_error@std@@6B@ 0000000180084480     libcpmt:xthrow.obj
 0002:0001f4a8       ??_R3length_error@std@@8   00000001800844a8     libcpmt:xthrow.obj
 0002:0001f4c0       ??_R2length_error@std@@8   00000001800844c0     libcpmt:xthrow.obj
 0002:0001f4e0       ??_R1A@?0A@EA@length_error@std@@8 00000001800844e0     libcpmt:xthrow.obj
 0002:0001f508       ??_R4out_of_range@std@@6B@ 0000000180084508     libcpmt:xthrow.obj
 0002:0001f530       ??_R3out_of_range@std@@8   0000000180084530     libcpmt:xthrow.obj
 0002:0001f548       ??_R2out_of_range@std@@8   0000000180084548     libcpmt:xthrow.obj
 0002:0001f568       ??_R1A@?0A@EA@out_of_range@std@@8 0000000180084568     libcpmt:xthrow.obj
 0002:0001f590       ??_R4regex_error@std@@6B@  0000000180084590     libcpmt:xthrow.obj
 0002:0001f5b8       ??_R3regex_error@std@@8    00000001800845b8     libcpmt:xthrow.obj
 0002:0001f5d0       ??_R2regex_error@std@@8    00000001800845d0     libcpmt:xthrow.obj
 0002:0001f5f0       ??_R1A@?0A@EA@regex_error@std@@8 00000001800845f0     libcpmt:xthrow.obj
 0002:0001f618       ??_R4_Locimp@locale@std@@6B@ 0000000180084618     libcpmt:locale0.obj
 0002:0001f640       ??_R3_Locimp@locale@std@@8 0000000180084640     libcpmt:locale0.obj
 0002:0001f658       ??_R2_Locimp@locale@std@@8 0000000180084658     libcpmt:locale0.obj
 0002:0001f680       ??_R1A@?0A@EA@_Locimp@locale@std@@8 0000000180084680     libcpmt:locale0.obj
 0002:0001f6a8       ??_R4type_info@@6B@        00000001800846a8     LIBCMT:std_type_info_static.obj
 0002:0001f6d0       ??_R3type_info@@8          00000001800846d0     LIBCMT:std_type_info_static.obj
 0002:0001f6e8       ??_R2type_info@@8          00000001800846e8     LIBCMT:std_type_info_static.obj
 0002:0001f6f8       ??_R1A@?0A@EA@type_info@@8 00000001800846f8     LIBCMT:std_type_info_static.obj
 0002:0001f720       ??_R4bad_exception@std@@6B@ 0000000180084720     libvcruntime:frame.obj
 0002:0001f748       ??_R3bad_exception@std@@8  0000000180084748     libvcruntime:frame.obj
 0002:0001f760       ??_R2bad_exception@std@@8  0000000180084760     libvcruntime:frame.obj
 0002:0001f778       ??_R1A@?0A@EA@bad_exception@std@@8 0000000180084778     libvcruntime:frame.obj
 0002:0001f7a0       ??_R1A@?0A@EA@bad_array_new_length@std@@8 00000001800847a0     trust.obj
 0002:0001f7c8       ??_R2bad_array_new_length@std@@8 00000001800847c8     trust.obj
 0002:0001f7e8       ??_R3bad_array_new_length@std@@8 00000001800847e8     trust.obj
 0002:0001f800       ??_R4bad_array_new_length@std@@6B@ 0000000180084800     trust.obj
 0002:0001f828       ??_R1A@?0A@EA@bad_alloc@std@@8 0000000180084828     trust.obj
 0002:0001f850       ??_R2bad_alloc@std@@8      0000000180084850     trust.obj
 0002:0001f868       ??_R3bad_alloc@std@@8      0000000180084868     trust.obj
 0002:0001f880       ??_R4bad_alloc@std@@6B@    0000000180084880     trust.obj
 0002:0001f8a8       ??_R1A@?0A@EA@exception@std@@8 00000001800848a8     trust.obj
 0002:0001f8d0       ??_R2exception@std@@8      00000001800848d0     trust.obj
 0002:0001f8e0       ??_R3exception@std@@8      00000001800848e0     trust.obj
 0002:0001f8f8       ??_R4exception@std@@6B@    00000001800848f8     trust.obj
 0002:0001f920       ??_R2?$_Node_str@D@std@@8  0000000180084920     hashing.obj
 0002:0001f938       ??_R2?$_Node_class@DV?$regex_traits@D@std@@@std@@8 0000000180084938     hashing.obj
 0002:0001f950       ??_R2_Node_end_rep@std@@8  0000000180084950     hashing.obj
 0002:0001f968       ??_R2_Node_rep@std@@8      0000000180084968     hashing.obj
 0002:0001f980       ??_R2_Node_if@std@@8       0000000180084980     hashing.obj
 0002:0001f998       ??_R2_Node_endif@std@@8    0000000180084998     hashing.obj
 0002:0001f9b0       ??_R2_Node_back@std@@8     00000001800849b0     hashing.obj
 0002:0001f9c8       ??_R2_Node_capture@std@@8  00000001800849c8     hashing.obj
 0002:0001f9e0       ??_R2_Node_assert@std@@8   00000001800849e0     hashing.obj
 0002:0001f9f8       ??_R2_Node_end_group@std@@8 00000001800849f8     hashing.obj
 0002:0001fa10       ??_R2_Root_node@std@@8     0000000180084a10     hashing.obj
 0002:0001fa28       ??_R2_Node_base@std@@8     0000000180084a28     hashing.obj
 0002:0001fa38       ??_R2?$collate@D@std@@8    0000000180084a38     hashing.obj
 0002:0001fa60       ??_R2?$basic_stringstream@_WU?$char_traits@_W@std@@V?$allocator@_W@2@@std@@8 0000000180084a60     hashing.obj
 0002:0001fab8       ??_R2?$basic_stringbuf@_WU?$char_traits@_W@std@@V?$allocator@_W@2@@std@@8 0000000180084ab8     hashing.obj
 0002:0001fad0       ??_R2?$basic_iostream@_WU?$char_traits@_W@std@@@std@@8 0000000180084ad0     hashing.obj
 0002:0001fb20       ??_R2?$basic_ostream@_WU?$char_traits@_W@std@@@std@@8 0000000180084b20     hashing.obj
 0002:0001fb48       ??_R2?$basic_istream@_WU?$char_traits@_W@std@@@std@@8 0000000180084b48     hashing.obj
 0002:0001fb70       ??_R2?$basic_streambuf@_WU?$char_traits@_W@std@@@std@@8 0000000180084b70     hashing.obj
 0002:0001fb80       ??_R2?$basic_ios@_WU?$char_traits@_W@std@@@std@@8 0000000180084b80     hashing.obj
 0002:0001fba0       ??_R2?$basic_stringstream@DU?$char_traits@D@std@@V?$allocator@D@2@@std@@8 0000000180084ba0     hashing.obj
 0002:0001fbf8       ??_R2?$basic_stringbuf@DU?$char_traits@D@std@@V?$allocator@D@2@@std@@8 0000000180084bf8     hashing.obj
 0002:0001fc10       ??_R2?$basic_iostream@DU?$char_traits@D@std@@@std@@8 0000000180084c10     hashing.obj
 0002:0001fc60       ??_R2?$basic_ostream@DU?$char_traits@D@std@@@std@@8 0000000180084c60     hashing.obj
 0002:0001fc88       ??_R2?$basic_istream@DU?$char_traits@D@std@@@std@@8 0000000180084c88     hashing.obj
 0002:0001fcb0       ??_R2?$basic_streambuf@DU?$char_traits@D@std@@@std@@8 0000000180084cb0     hashing.obj
 0002:0001fcc0       ??_R2?$basic_ios@DU?$char_traits@D@std@@@std@@8 0000000180084cc0     hashing.obj
 0002:0001fce0       ??_R1A@?0A@EA@?$_Node_str@D@std@@8 0000000180084ce0     hashing.obj
 0002:0001fd08       ??_R1A@?0A@EA@?$_Node_class@DV?$regex_traits@D@std@@@std@@8 0000000180084d08     hashing.obj
 0002:0001fd30       ??_R1A@?0A@EA@_Node_end_rep@std@@8 0000000180084d30     hashing.obj
 0002:0001fd58       ??_R1A@?0A@EA@_Node_rep@std@@8 0000000180084d58     hashing.obj
 0002:0001fd80       ??_R1A@?0A@EA@_Node_if@std@@8 0000000180084d80     hashing.obj
 0002:0001fda8       ??_R1A@?0A@EA@_Node_endif@std@@8 0000000180084da8     hashing.obj
 0002:0001fdd0       ??_R1A@?0A@EA@_Node_back@std@@8 0000000180084dd0     hashing.obj
 0002:0001fdf8       ??_R1A@?0A@EA@_Node_capture@std@@8 0000000180084df8     hashing.obj
 0002:0001fe20       ??_R1A@?0A@EA@_Node_assert@std@@8 0000000180084e20     hashing.obj
 0002:0001fe48       ??_R1A@?0A@EA@_Node_end_group@std@@8 0000000180084e48     hashing.obj
 0002:0001fe70       ??_R1A@?0A@EA@_Root_node@std@@8 0000000180084e70     hashing.obj
 0002:0001fe98       ??_R1A@?0A@EA@_Node_base@std@@8 0000000180084e98     hashing.obj
 0002:0001fec0       ??_R1A@?0A@EA@?$collate@D@std@@8 0000000180084ec0     hashing.obj
 0002:0001fee8       ??_R1A@?0A@EA@?$basic_stringstream@_WU?$char_traits@_W@std@@V?$allocator@_W@2@@std@@8 0000000180084ee8     hashing.obj
 0002:0001ff10       ??_R1A@?0A@EA@?$basic_stringbuf@_WU?$char_traits@_W@std@@V?$allocator@_W@2@@std@@8 0000000180084f10     hashing.obj
 0002:0001ff38       ??_R1BA@?0A@EA@?$basic_ostream@_WU?$char_traits@_W@std@@@std@@8 0000000180084f38     hashing.obj
 0002:0001ff60       ??_R1A@?0A@EA@?$basic_iostream@_WU?$char_traits@_W@std@@@std@@8 0000000180084f60     hashing.obj
 0002:0001ff88       ??_R1A@?0A@EA@?$basic_ostream@_WU?$char_traits@_W@std@@@std@@8 0000000180084f88     hashing.obj
 0002:0001ffb0       ??_R1A@A@3FA@?$basic_ios@_WU?$char_traits@_W@std@@@std@@8 0000000180084fb0     hashing.obj
 0002:0001ffd8       ??_R1A@?0A@EA@?$basic_istream@_WU?$char_traits@_W@std@@@std@@8 0000000180084fd8     hashing.obj
 0002:00020000       ??_R1A@?0A@EA@?$basic_streambuf@_WU?$char_traits@_W@std@@@std@@8 0000000180085000     hashing.obj
 0002:00020028       ??_R1A@?0A@EA@?$basic_ios@_WU?$char_traits@_W@std@@@std@@8 0000000180085028     hashing.obj
 0002:00020050       ??_R1A@?0A@EA@?$basic_stringstream@DU?$char_traits@D@std@@V?$allocator@D@2@@std@@8 0000000180085050     hashing.obj
 0002:00020078       ??_R1A@?0A@EA@?$basic_stringbuf@DU?$char_traits@D@std@@V?$allocator@D@2@@std@@8 0000000180085078     hashing.obj
 0002:000200a0       ??_R1BA@?0A@EA@?$basic_ostream@DU?$char_traits@D@std@@@std@@8 00000001800850a0     hashing.obj
 0002:000200c8       ??_R1A@?0A@EA@?$basic_iostream@DU?$char_traits@D@std@@@std@@8 00000001800850c8     hashing.obj
 0002:000200f0       ??_R1A@?0A@EA@?$basic_ostream@DU?$char_traits@D@std@@@std@@8 00000001800850f0     hashing.obj
 0002:00020118       ??_R17A@3EA@?$_Iosb@H@std@@8 0000000180085118     hashing.obj
 0002:00020140       ??_R1A@A@3EA@ios_base@std@@8 0000000180085140     hashing.obj
 0002:00020168       ??_R1A@A@3FA@?$basic_ios@DU?$char_traits@D@std@@@std@@8 0000000180085168     hashing.obj
 0002:00020190       ??_R1A@?0A@EA@?$basic_istream@DU?$char_traits@D@std@@@std@@8 0000000180085190     hashing.obj
 0002:000201b8       ??_R1A@?0A@EA@?$basic_streambuf@DU?$char_traits@D@std@@@std@@8 00000001800851b8     hashing.obj
 0002:000201e0       ??_R1A@?0A@EA@?$basic_ios@DU?$char_traits@D@std@@@std@@8 00000001800851e0     hashing.obj
 0002:00020208       ??_R3?$_Node_str@D@std@@8  0000000180085208     hashing.obj
 0002:00020220       ??_R3?$_Node_class@DV?$regex_traits@D@std@@@std@@8 0000000180085220     hashing.obj
 0002:00020238       ??_R3_Node_end_rep@std@@8  0000000180085238     hashing.obj
 0002:00020250       ??_R3_Node_rep@std@@8      0000000180085250     hashing.obj
 0002:00020268       ??_R3_Node_if@std@@8       0000000180085268     hashing.obj
 0002:00020280       ??_R3_Node_endif@std@@8    0000000180085280     hashing.obj
 0002:00020298       ??_R3_Node_back@std@@8     0000000180085298     hashing.obj
 0002:000202b0       ??_R3_Node_capture@std@@8  00000001800852b0     hashing.obj
 0002:000202c8       ??_R3_Node_assert@std@@8   00000001800852c8     hashing.obj
 0002:000202e0       ??_R3_Node_end_group@std@@8 00000001800852e0     hashing.obj
 0002:000202f8       ??_R3_Root_node@std@@8     00000001800852f8     hashing.obj
 0002:00020310       ??_R3_Node_base@std@@8     0000000180085310     hashing.obj
 0002:00020328       ??_R3?$collate@D@std@@8    0000000180085328     hashing.obj
 0002:00020340       ??_R3?$basic_stringstream@_WU?$char_traits@_W@std@@V?$allocator@_W@2@@std@@8 0000000180085340     hashing.obj
 0002:00020358       ??_R3?$basic_stringbuf@_WU?$char_traits@_W@std@@V?$allocator@_W@2@@std@@8 0000000180085358     hashing.obj
 0002:00020370       ??_R3?$basic_iostream@_WU?$char_traits@_W@std@@@std@@8 0000000180085370     hashing.obj
 0002:00020388       ??_R3?$basic_ostream@_WU?$char_traits@_W@std@@@std@@8 0000000180085388     hashing.obj
 0002:000203a0       ??_R3?$basic_istream@_WU?$char_traits@_W@std@@@std@@8 00000001800853a0     hashing.obj
 0002:000203b8       ??_R3?$basic_streambuf@_WU?$char_traits@_W@std@@@std@@8 00000001800853b8     hashing.obj
 0002:000203d0       ??_R3?$basic_ios@_WU?$char_traits@_W@std@@@std@@8 00000001800853d0     hashing.obj
 0002:000203e8       ??_R3?$basic_stringstream@DU?$char_traits@D@std@@V?$allocator@D@2@@std@@8 00000001800853e8     hashing.obj
 0002:00020400       ??_R3?$basic_stringbuf@DU?$char_traits@D@std@@V?$allocator@D@2@@std@@8 0000000180085400     hashing.obj
 0002:00020418       ??_R3?$basic_iostream@DU?$char_traits@D@std@@@std@@8 0000000180085418     hashing.obj
 0002:00020430       ??_R3?$basic_ostream@DU?$char_traits@D@std@@@std@@8 0000000180085430     hashing.obj
 0002:00020448       ??_R3?$basic_istream@DU?$char_traits@D@std@@@std@@8 0000000180085448     hashing.obj
 0002:00020460       ??_R3?$basic_streambuf@DU?$char_traits@D@std@@@std@@8 0000000180085460     hashing.obj
 0002:00020478       ??_R3?$basic_ios@DU?$char_traits@D@std@@@std@@8 0000000180085478     hashing.obj
 0002:00020490       ??_R4?$_Node_str@D@std@@6B@ 0000000180085490     hashing.obj
 0002:000204b8       ??_R4?$_Node_class@DV?$regex_traits@D@std@@@std@@6B@ 00000001800854b8     hashing.obj
 0002:000204e0       ??_R4_Node_end_rep@std@@6B@ 00000001800854e0     hashing.obj
 0002:00020508       ??_R4_Node_rep@std@@6B@    0000000180085508     hashing.obj
 0002:00020530       ??_R4_Node_if@std@@6B@     0000000180085530     hashing.obj
 0002:00020558       ??_R4_Node_endif@std@@6B@  0000000180085558     hashing.obj
 0002:00020580       ??_R4_Node_back@std@@6B@   0000000180085580     hashing.obj
 0002:000205a8       ??_R4_Node_capture@std@@6B@ 00000001800855a8     hashing.obj
 0002:000205d0       ??_R4_Node_assert@std@@6B@ 00000001800855d0     hashing.obj
 0002:000205f8       ??_R4_Node_end_group@std@@6B@ 00000001800855f8     hashing.obj
 0002:00020620       ??_R4_Root_node@std@@6B@   0000000180085620     hashing.obj
 0002:00020648       ??_R4_Node_base@std@@6B@   0000000180085648     hashing.obj
 0002:00020670       ??_R4?$collate@D@std@@6B@  0000000180085670     hashing.obj
 0002:00020698       ??_R4?$basic_stringstream@_WU?$char_traits@_W@std@@V?$allocator@_W@2@@std@@6B@ 0000000180085698     hashing.obj
 0002:000206c0       ??_R4?$basic_stringbuf@_WU?$char_traits@_W@std@@V?$allocator@_W@2@@std@@6B@ 00000001800856c0     hashing.obj
 0002:000206e8       ??_R4?$basic_iostream@_WU?$char_traits@_W@std@@@std@@6B@ 00000001800856e8     hashing.obj
 0002:00020710       ??_R4?$basic_ostream@_WU?$char_traits@_W@std@@@std@@6B@ 0000000180085710     hashing.obj
 0002:00020738       ??_R4?$basic_istream@_WU?$char_traits@_W@std@@@std@@6B@ 0000000180085738     hashing.obj
 0002:00020760       ??_R4?$basic_streambuf@_WU?$char_traits@_W@std@@@std@@6B@ 0000000180085760     hashing.obj
 0002:00020788       ??_R4?$basic_ios@_WU?$char_traits@_W@std@@@std@@6B@ 0000000180085788     hashing.obj
 0002:000207b0       ??_R4?$basic_stringstream@DU?$char_traits@D@std@@V?$allocator@D@2@@std@@6B@ 00000001800857b0     hashing.obj
 0002:000207d8       ??_R4?$basic_stringbuf@DU?$char_traits@D@std@@V?$allocator@D@2@@std@@6B@ 00000001800857d8     hashing.obj
 0002:00020800       ??_R4?$basic_iostream@DU?$char_traits@D@std@@@std@@6B@ 0000000180085800     hashing.obj
 0002:00020828       ??_R4?$basic_ostream@DU?$char_traits@D@std@@@std@@6B@ 0000000180085828     hashing.obj
 0002:00020850       ??_R4?$basic_istream@DU?$char_traits@D@std@@@std@@6B@ 0000000180085850     hashing.obj
 0002:00020878       ??_R4?$basic_streambuf@DU?$char_traits@D@std@@@std@@6B@ 0000000180085878     hashing.obj
 0002:000208a0       ??_R4?$basic_ios@DU?$char_traits@D@std@@@std@@6B@ 00000001800858a0     hashing.obj
 0002:000208c8       ??_R1A@?0A@EA@?$ctype@_W@std@@8 00000001800858c8     hashing.obj
 0002:000208f0       ??_R2?$ctype@_W@std@@8     00000001800858f0     hashing.obj
 0002:00020920       ??_R3?$ctype@_W@std@@8     0000000180085920     hashing.obj
 0002:00020938       ??_R4?$ctype@_W@std@@6B@   0000000180085938     hashing.obj
 0002:00020960       ??_R1A@?0A@EA@_Iostream_error_category2@std@@8 0000000180085960     hashing.obj
 0002:00020988       ??_R2error_category@std@@8 0000000180085988     hashing.obj
 0002:00020998       ??_R3error_category@std@@8 0000000180085998     hashing.obj
 0002:000209b0       ??_R1A@?0A@EA@error_category@std@@8 00000001800859b0     hashing.obj
 0002:000209d8       ??_R2_Iostream_error_category2@std@@8 00000001800859d8     hashing.obj
 0002:000209f0       ??_R3_Iostream_error_category2@std@@8 00000001800859f0     hashing.obj
 0002:00020a08       ??_R4_Iostream_error_category2@std@@6B@ 0000000180085a08     hashing.obj
 0002:00020a30       ??_R1A@?0A@EA@failure@ios_base@std@@8 0000000180085a30     hashing.obj
 0002:00020a58       ??_R2failure@ios_base@std@@8 0000000180085a58     hashing.obj
 0002:00020a88       ??_R3failure@ios_base@std@@8 0000000180085a88     hashing.obj
 0002:00020aa0       ??_R4failure@ios_base@std@@6B@ 0000000180085aa0     hashing.obj
 0002:00020ac8       ??_R1A@?0A@EA@system_error@std@@8 0000000180085ac8     hashing.obj
 0002:00020af0       ??_R2system_error@std@@8   0000000180085af0     hashing.obj
 0002:00020b18       ??_R3system_error@std@@8   0000000180085b18     hashing.obj
 0002:00020b30       ??_R4system_error@std@@6B@ 0000000180085b30     hashing.obj
 0002:00020b58       ??_R1A@?0A@EA@_System_error@std@@8 0000000180085b58     hashing.obj
 0002:00020b80       ??_R2_System_error@std@@8  0000000180085b80     hashing.obj
 0002:00020ba0       ??_R3_System_error@std@@8  0000000180085ba0     hashing.obj
 0002:00020bb8       ??_R4_System_error@std@@6B@ 0000000180085bb8     hashing.obj
 0002:00020be0       ??_R1A@?0A@EA@?$ctype@D@std@@8 0000000180085be0     hashing.obj
 0002:00020c08       ??_R2ctype_base@std@@8     0000000180085c08     hashing.obj
 0002:00020c30       ??_R3ctype_base@std@@8     0000000180085c30     hashing.obj
 0002:00020c48       ??_R1A@?0A@EA@ctype_base@std@@8 0000000180085c48     hashing.obj
 0002:00020c70       ??_R2?$ctype@D@std@@8      0000000180085c70     hashing.obj
 0002:00020ca0       ??_R3?$ctype@D@std@@8      0000000180085ca0     hashing.obj
 0002:00020cb8       ??_R4?$ctype@D@std@@6B@    0000000180085cb8     hashing.obj
 0002:00020ce0       ??_R1A@?0A@EA@bad_cast@std@@8 0000000180085ce0     hashing.obj
 0002:00020d08       ??_R2bad_cast@std@@8       0000000180085d08     hashing.obj
 0002:00020d20       ??_R3bad_cast@std@@8       0000000180085d20     hashing.obj
 0002:00020d38       ??_R4bad_cast@std@@6B@     0000000180085d38     hashing.obj
 0002:00020d60       ??_R1A@?0A@EA@ios_base@std@@8 0000000180085d60     hashing.obj
 0002:00020d88       ??_R1A@?0A@EA@?$_Iosb@H@std@@8 0000000180085d88     hashing.obj
 0002:00020db0       ??_R2?$_Iosb@H@std@@8      0000000180085db0     hashing.obj
 0002:00020dc0       ??_R3?$_Iosb@H@std@@8      0000000180085dc0     hashing.obj
 0002:00020dd8       ??_R17?0A@EA@?$_Iosb@H@std@@8 0000000180085dd8     hashing.obj
 0002:00020e00       ??_R2ios_base@std@@8       0000000180085e00     hashing.obj
 0002:00020e18       ??_R3ios_base@std@@8       0000000180085e18     hashing.obj
 0002:00020e30       ??_R4ios_base@std@@6B@     0000000180085e30     hashing.obj
 0002:00020e58       ??_R1A@?0A@EA@runtime_error@std@@8 0000000180085e58     hashing.obj
 0002:00020e80       ??_R2runtime_error@std@@8  0000000180085e80     hashing.obj
 0002:00020e98       ??_R3runtime_error@std@@8  0000000180085e98     hashing.obj
 0002:00020eb0       ??_R4runtime_error@std@@6B@ 0000000180085eb0     hashing.obj
 0002:00020ed8       ??_R4_Facet_base@std@@6B@  0000000180085ed8     hashing.obj
 0002:00020f00       ??_R1A@?0A@EA@facet@locale@std@@8 0000000180085f00     hashing.obj
 0002:00020f28       ??_R2_Facet_base@std@@8    0000000180085f28     hashing.obj
 0002:00020f38       ??_R3_Facet_base@std@@8    0000000180085f38     hashing.obj
 0002:00020f50       ??_R1A@?0A@EA@_Facet_base@std@@8 0000000180085f50     hashing.obj
 0002:00020f78       ??_R1A@?0A@EA@_Crt_new_delete@std@@8 0000000180085f78     hashing.obj
 0002:00020fa0       ??_R2_Crt_new_delete@std@@8 0000000180085fa0     hashing.obj
 0002:00020fb0       ??_R3_Crt_new_delete@std@@8 0000000180085fb0     hashing.obj
 0002:00020fc8       ??_R17?0A@EA@_Crt_new_delete@std@@8 0000000180085fc8     hashing.obj
 0002:00020ff0       ??_R2facet@locale@std@@8   0000000180085ff0     hashing.obj
 0002:00021010       ??_R3facet@locale@std@@8   0000000180086010     hashing.obj
 0002:00021028       ??_R2?$_Func_impl_no_alloc@V?$_Binder@U_Unforced@std@@A6AXAEBV?$basic_string@_WU?$char_traits@_W@std@@V?$allocator@_W@2@@2@@ZAEAV32@@std@@X_J@std@@8 0000000180086028     IntChecker2-Far3.obj
 0002:00021040       ??_R2?$_Func_impl_no_alloc@V?$_Binder@U_Unforced@std@@A6A_NPEB_W_N1@ZPEB_W_N_N@std@@X_J@std@@8 0000000180086040     IntChecker2-Far3.obj
 0002:00021058       ??_R2?$_Func_impl_no_alloc@V?$_Binder@U_Unforced@std@@A6AXXZ$$V@std@@X_J@std@@8 0000000180086058     IntChecker2-Far3.obj
 0002:00021070       ??_R2?$_Func_impl_no_alloc@V?$_Binder@U_Unforced@std@@A6AXAEAVFar3Panel@@@ZAEAV3@@std@@X_J@std@@8 0000000180086070     IntChecker2-Far3.obj
 0002:000210a0       ??_R2?$_Ref_count_obj2@U_Recursive_dir_enum_impl@filesystem@std@@@std@@8 00000001800860a0     IntChecker2-Far3.obj
 0002:000210b8       ??_R2?$_Func_base@HPEB_W@std@@8 00000001800860b8     IntChecker2-Far3.obj
 0002:000210c8       ??_R2filesystem_error@filesystem@std@@8 00000001800860c8     IntChecker2-Far3.obj
 0002:000210f8       ??_R2?$_Func_base@X_J@std@@8 00000001800860f8     IntChecker2-Far3.obj
 0002:00021108       ??_R2PluginListControlBinding@@8 0000000180086108     IntChecker2-Far3.obj
 0002:00021128       ??_R2PluginUIntEditFieldBinding@@8 0000000180086128     IntChecker2-Far3.obj
 0002:00021148       ??_R2PluginIntEditFieldBinding@@8 0000000180086148     IntChecker2-Far3.obj
 0002:00021168       ??_R2PluginEditFieldBinding@@8 0000000180086168     IntChecker2-Far3.obj
 0002:00021188       ??_R2PluginRadioButtonBinding@@8 0000000180086188     IntChecker2-Far3.obj
 0002:000211a8       ??_R2PluginCheckBoxBinding@@8 00000001800861a8     IntChecker2-Far3.obj
 0002:000211c8       ??_R2DialogAPIBinding@@8   00000001800861c8     IntChecker2-Far3.obj
 0002:000211e0       ??_R2?$DialogItemBinding@UFarDialogItem@@@@8 00000001800861e0     IntChecker2-Far3.obj
 0002:000211f0       ??_R2PluginDialogBuilder@@8 00000001800861f0     IntChecker2-Far3.obj
 0002:00021208       ??_R2?$DialogBuilderBase@UFarDialogItem@@@@8 0000000180086208     IntChecker2-Far3.obj
 0002:00021218       ??_R1A@?0A@EA@?$_Func_impl_no_alloc@V?$_Binder@U_Unforced@std@@A6AXAEBV?$basic_string@_WU?$char_traits@_W@std@@V?$allocator@_W@2@@2@@ZAEAV32@@std@@X_J@std@@8 0000000180086218     IntChecker2-Far3.obj
 0002:00021240       ??_R1A@?0A@EA@?$_Func_impl_no_alloc@V?$_Binder@U_Unforced@std@@A6A_NPEB_W_N1@ZPEB_W_N_N@std@@X_J@std@@8 0000000180086240     IntChecker2-Far3.obj
 0002:00021268       ??_R1A@?0A@EA@?$_Func_impl_no_alloc@V?$_Binder@U_Unforced@std@@A6AXXZ$$V@std@@X_J@std@@8 0000000180086268     IntChecker2-Far3.obj
 0002:00021290       ??_R1A@?0A@EA@?$_Func_impl_no_alloc@V?$_Binder@U_Unforced@std@@A6AXAEAVFar3Panel@@@ZAEAV3@@std@@X_J@std@@8 0000000180086290     IntChecker2-Far3.obj
 0002:000212e0       ??_R1A@?0A@EA@?$_Ref_count_obj2@U_Recursive_dir_enum_impl@filesystem@std@@@std@@8 00000001800862e0     IntChecker2-Far3.obj
 0002:00021308       ??_R2_Ref_count_base@std@@8 0000000180086308     IntChecker2-Far3.obj
 0002:00021318       ??_R3_Ref_count_base@std@@8 0000000180086318     IntChecker2-Far3.obj
 0002:00021330       ??_R1A@?0A@EA@_Ref_count_base@std@@8 0000000180086330     IntChecker2-Far3.obj
 0002:00021358       ??_R1A@?0A@EA@?$_Func_base@HPEB_W@std@@8 0000000180086358     IntChecker2-Far3.obj
 0002:00021380       ??_R1A@?0A@EA@filesystem_error@filesystem@std@@8 0000000180086380     IntChecker2-Far3.obj
 0002:000213a8       ??_R1A@?0A@EA@?$_Func_base@X_J@std@@8 00000001800863a8     IntChecker2-Far3.obj
 0002:000213d0       ??_R1A@?0A@EA@PluginListControlBinding@@8 00000001800863d0     IntChecker2-Far3.obj
 0002:000213f8       ??_R1A@?0A@EA@PluginUIntEditFieldBinding@@8 00000001800863f8     IntChecker2-Far3.obj
 0002:00021420       ??_R1A@?0A@EA@PluginIntEditFieldBinding@@8 0000000180086420     IntChecker2-Far3.obj
 0002:00021448       ??_R1A@?0A@EA@PluginEditFieldBinding@@8 0000000180086448     IntChecker2-Far3.obj
 0002:00021470       ??_R1A@?0A@EA@PluginRadioButtonBinding@@8 0000000180086470     IntChecker2-Far3.obj
 0002:00021498       ??_R1A@?0A@EA@PluginCheckBoxBinding@@8 0000000180086498     IntChecker2-Far3.obj
 0002:000214c0       ??_R1A@?0A@EA@DialogAPIBinding@@8 00000001800864c0     IntChecker2-Far3.obj
 0002:000214e8       ??_R1A@?0A@EA@?$DialogItemBinding@UFarDialogItem@@@@8 00000001800864e8     IntChecker2-Far3.obj
 0002:00021510       ??_R1A@?0A@EA@PluginDialogBuilder@@8 0000000180086510     IntChecker2-Far3.obj
 0002:00021538       ??_R1A@?0A@EA@?$DialogBuilderBase@UFarDialogItem@@@@8 0000000180086538     IntChecker2-Far3.obj
 0002:00021560       ??_R3?$_Func_impl_no_alloc@V?$_Binder@U_Unforced@std@@A6AXAEBV?$basic_string@_WU?$char_traits@_W@std@@V?$allocator@_W@2@@2@@ZAEAV32@@std@@X_J@std@@8 0000000180086560     IntChecker2-Far3.obj
 0002:00021578       ??_R3?$_Func_impl_no_alloc@V?$_Binder@U_Unforced@std@@A6A_NPEB_W_N1@ZPEB_W_N_N@std@@X_J@std@@8 0000000180086578     IntChecker2-Far3.obj
 0002:00021590       ??_R3?$_Func_impl_no_alloc@V?$_Binder@U_Unforced@std@@A6AXXZ$$V@std@@X_J@std@@8 0000000180086590     IntChecker2-Far3.obj
 0002:000215a8       ??_R3?$_Func_impl_no_alloc@V?$_Binder@U_Unforced@std@@A6AXAEAVFar3Panel@@@ZAEAV3@@std@@X_J@std@@8 00000001800865a8     IntChecker2-Far3.obj
 0002:000215d8       ??_R3?$_Ref_count_obj2@U_Recursive_dir_enum_impl@filesystem@std@@@std@@8 00000001800865d8     IntChecker2-Far3.obj
 0002:000215f0       ??_R3?$_Func_base@HPEB_W@std@@8 00000001800865f0     IntChecker2-Far3.obj
 0002:00021608       ??_R3filesystem_error@filesystem@std@@8 0000000180086608     IntChecker2-Far3.obj
 0002:00021620       ??_R3?$_Func_base@X_J@std@@8 0000000180086620     IntChecker2-Far3.obj
 0002:00021638       ??_R3PluginListControlBinding@@8 0000000180086638     IntChecker2-Far3.obj
 0002:00021650       ??_R3PluginUIntEditFieldBinding@@8 0000000180086650     IntChecker2-Far3.obj
 0002:00021668       ??_R3PluginIntEditFieldBinding@@8 0000000180086668     IntChecker2-Far3.obj
 0002:00021680       ??_R3PluginEditFieldBinding@@8 0000000180086680     IntChecker2-Far3.obj
 0002:00021698       ??_R3PluginRadioButtonBinding@@8 0000000180086698     IntChecker2-Far3.obj
 0002:000216b0       ??_R3PluginCheckBoxBinding@@8 00000001800866b0     IntChecker2-Far3.obj
 0002:000216c8       ??_R3?$DialogItemBinding@UFarDialogItem@@@@8 00000001800866c8     IntChecker2-Far3.obj
 0002:000216e0       ??_R3DialogAPIBinding@@8   00000001800866e0     IntChecker2-Far3.obj
 0002:000216f8       ??_R3?$DialogBuilderBase@UFarDialogItem@@@@8 00000001800866f8     IntChecker2-Far3.obj
 0002:00021710       ??_R3PluginDialogBuilder@@8 0000000180086710     IntChecker2-Far3.obj
 0002:00021728       ??_R4?$_Func_impl_no_alloc@V?$_Binder@U_Unforced@std@@A6AXAEBV?$basic_string@_WU?$char_traits@_W@std@@V?$allocator@_W@2@@2@@ZAEAV32@@std@@X_J@std@@6B@ 0000000180086728     IntChecker2-Far3.obj
 0002:00021750       ??_R4?$_Func_impl_no_alloc@V?$_Binder@U_Unforced@std@@A6A_NPEB_W_N1@ZPEB_W_N_N@std@@X_J@std@@6B@ 0000000180086750     IntChecker2-Far3.obj
 0002:00021778       ??_R4?$_Func_impl_no_alloc@V?$_Binder@U_Unforced@std@@A6AXXZ$$V@std@@X_J@std@@6B@ 0000000180086778     IntChecker2-Far3.obj
 0002:000217a0       ??_R4?$_Func_impl_no_alloc@V?$_Binder@U_Unforced@std@@A6AXAEAVFar3Panel@@@ZAEAV3@@std@@X_J@std@@6B@ 00000001800867a0     IntChecker2-Far3.obj
 0002:000217f0       ??_R4?$_Ref_count_obj2@U_Recursive_dir_enum_impl@filesystem@std@@@std@@6B@ 00000001800867f0     IntChecker2-Far3.obj
 0002:00021818       ??_R4filesystem_error@filesystem@std@@6B@ 0000000180086818     IntChecker2-Far3.obj
 0002:00021840       ??_R4?$DialogBuilderBase@UFarDialogItem@@@@6B@ 0000000180086840     IntChecker2-Far3.obj
 0002:00021868       ??_R4PluginListControlBinding@@6B@ 0000000180086868     IntChecker2-Far3.obj
 0002:00021890       ??_R4PluginUIntEditFieldBinding@@6B@ 0000000180086890     IntChecker2-Far3.obj
 0002:000218b8       ??_R4PluginIntEditFieldBinding@@6B@ 00000001800868b8     IntChecker2-Far3.obj
 0002:000218e0       ??_R4PluginEditFieldBinding@@6B@ 00000001800868e0     IntChecker2-Far3.obj
 0002:00021908       ??_R4PluginRadioButtonBinding@@6B@ 0000000180086908     IntChecker2-Far3.obj
 0002:00021930       ??_R4PluginCheckBoxBinding@@6B@ 0000000180086930     IntChecker2-Far3.obj
 0002:00021958       ??_R4?$DialogItemBinding@UFarDialogItem@@@@6B@ 0000000180086958     IntChecker2-Far3.obj
 0002:00021980       ??_R4PluginDialogBuilder@@6B@ 0000000180086980     IntChecker2-Far3.obj
 0002:000219a8       ??_R1A@?0A@EA@_System_error_category@std@@8 00000001800869a8     IntChecker2-Far3.obj
 0002:000219d0       ??_R2_System_error_category@std@@8 00000001800869d0     IntChecker2-Far3.obj
 0002:000219e8       ??_R3_System_error_category@std@@8 00000001800869e8     IntChecker2-Far3.obj
 0002:00021a00       ??_R4_System_error_category@std@@6B@ 0000000180086a00     IntChecker2-Far3.obj
 0002:00021a28       ??_R1A@?0A@EA@_Generic_error_category@std@@8 0000000180086a28     IntChecker2-Far3.obj
 0002:00021a50       ??_R2_Generic_error_category@std@@8 0000000180086a50     IntChecker2-Far3.obj
 0002:00021a68       ??_R3_Generic_error_category@std@@8 0000000180086a68     IntChecker2-Far3.obj
 0002:00021a80       ??_R4_Generic_error_category@std@@6B@ 0000000180086a80     IntChecker2-Far3.obj
 0002:00021aa4       __volatile_metadata        0000000180086aa4     <linker-defined>
 0002:00021f58       __rtc_iaa                  0000000180086f58     LIBCMT:initsect.obj
 0002:00021f60       __rtc_izz                  0000000180086f60     LIBCMT:initsect.obj
 0002:00021f68       __rtc_taa                  0000000180086f68     LIBCMT:initsect.obj
 0002:00021f70       __rtc_tzz                  0000000180086f70     LIBCMT:initsect.obj
 0002:000279e8       _TI2?AVbad_alloc@std@@     000000018008c9e8     libcpmt:xthrow.obj
 0002:00027a08       _CTA2?AVbad_alloc@std@@    000000018008ca08     libcpmt:xthrow.obj
 0002:00027a20       _CT??_R0?AVlogic_error@std@@@8??0logic_error@std@@QEAA@AEBV01@@Z24 000000018008ca20     libcpmt:xthrow.obj
 0002:00027a48       _TI3?AVlength_error@std@@  000000018008ca48     libcpmt:xthrow.obj
 0002:00027a68       _CTA3?AVlength_error@std@@ 000000018008ca68     libcpmt:xthrow.obj
 0002:00027a88       _CT??_R0?AVlength_error@std@@@8??0length_error@std@@QEAA@AEBV01@@Z24 000000018008ca88     libcpmt:xthrow.obj
 0002:00027ab0       _TI3?AVout_of_range@std@@  000000018008cab0     libcpmt:xthrow.obj
 0002:00027ad0       _CTA3?AVout_of_range@std@@ 000000018008cad0     libcpmt:xthrow.obj
 0002:00027af0       _CT??_R0?AVout_of_range@std@@@8??0out_of_range@std@@QEAA@AEBV01@@Z24 000000018008caf0     libcpmt:xthrow.obj
 0002:00027b18       _TI2?AVruntime_error@std@@ 000000018008cb18     libcpmt:xthrow.obj
 0002:00027b38       _CTA2?AVruntime_error@std@@ 000000018008cb38     libcpmt:xthrow.obj
 0002:00027b50       _TI2?AVbad_function_call@std@@ 000000018008cb50     libcpmt:xthrow.obj
 0002:00027b70       _CTA2?AVbad_function_call@std@@ 000000018008cb70     libcpmt:xthrow.obj
 0002:00027b88       _CT??_R0?AVbad_function_call@std@@@8??0bad_function_call@std@@QEAA@AEBV01@@Z24 000000018008cb88     libcpmt:xthrow.obj
 0002:00027bb0       _TI3?AVregex_error@std@@   000000018008cbb0     libcpmt:xthrow.obj
 0002:00027bd0       _CTA3?AVregex_error@std@@  000000018008cbd0     libcpmt:xthrow.obj
 0002:00027bf0       _CT??_R0?AVregex_error@std@@@8??0regex_error@std@@QEAA@AEBV01@@Z32 000000018008cbf0     libcpmt:xthrow.obj
 0002:00027c18       _TI2?AVbad_exception@std@@ 000000018008cc18     libvcruntime:frame.obj
 0002:00027c38       _CTA2?AVbad_exception@std@@ 000000018008cc38     libvcruntime:frame.obj
 0002:00027c50       _CT??_R0?AVbad_exception@std@@@8??0bad_exception@std@@QEAA@AEBV01@@Z24 000000018008cc50     libvcruntime:frame.obj
 0002:00027c78       _CT??_R0?AVbad_array_new_length@std@@@8??0bad_array_new_length@std@@QEAA@AEBV01@@Z24 000000018008cc78     trust.obj
 0002:00027ca0       _CT??_R0?AVbad_alloc@std@@@8??0bad_alloc@std@@QEAA@AEBV01@@Z24 000000018008cca0     trust.obj
 0002:00027cc8       _CT??_R0?AVexception@std@@@8??0exception@std@@QEAA@AEBV01@@Z24 000000018008ccc8     trust.obj
 0002:00027cf0       _CTA3?AVbad_array_new_length@std@@ 000000018008ccf0     trust.obj
 0002:00027d10       _TI3?AVbad_array_new_length@std@@ 000000018008cd10     trust.obj
 0002:00027d30       _CT??_R0?AVfailure@ios_base@std@@@8??0failure@ios_base@std@@QEAA@AEBV012@@Z40 000000018008cd30     hashing.obj
 0002:00027d58       _CT??_R0?AVsystem_error@std@@@8??0system_error@std@@QEAA@AEBV01@@Z40 000000018008cd58     hashing.obj
 0002:00027d80       _CT??_R0?AV_System_error@std@@@8??0_System_error@std@@QEAA@AEBV01@@Z40 000000018008cd80     hashing.obj
 0002:00027da8       _CT??_R0?AVruntime_error@std@@@8??0runtime_error@std@@QEAA@AEBV01@@Z24 000000018008cda8     hashing.obj
 0002:00027dd0       _CTA5?AVfailure@ios_base@std@@ 000000018008cdd0     hashing.obj
 0002:00027e00       _TI5?AVfailure@ios_base@std@@ 000000018008ce00     hashing.obj
 0002:00027e20       _CT??_R0?AVbad_cast@std@@@8??0bad_cast@std@@QEAA@AEBV01@@Z24 000000018008ce20     hashing.obj
 0002:00027e48       _CTA2?AVbad_cast@std@@     000000018008ce48     hashing.obj
 0002:00027e60       _TI2?AVbad_cast@std@@      000000018008ce60     hashing.obj
 0002:00027e80       _CTA5?AVfilesystem_error@filesystem@std@@ 000000018008ce80     IntChecker2-Far3.obj
 0002:00027eb0       _CT??_R0?AVfilesystem_error@filesystem@std@@@8??0filesystem_error@filesystem@std@@QEAA@AEBV012@@Z136 000000018008ceb0     IntChecker2-Far3.obj
 0002:00027ed8       _TI5?AVfilesystem_error@filesystem@std@@ 000000018008ced8     IntChecker2-Far3.obj
 0002:00027ef8       _CTA4?AVsystem_error@std@@ 000000018008cef8     IntChecker2-Far3.obj
 0002:00027f20       _TI4?AVsystem_error@std@@  000000018008cf20     IntChecker2-Far3.obj
 0002:00027ffc       __IMPORT_DESCRIPTOR_SHLWAPI 000000018008cffc     Shlwapi:SHLWAPI.dll
 0002:00028010       __IMPORT_DESCRIPTOR_WINTRUST 000000018008d010     wintrust:WINTRUST.dll
 0002:00028024       __IMPORT_DESCRIPTOR_KERNEL32 000000018008d024     kernel32:KERNEL32.dll
 0002:00028038       __IMPORT_DESCRIPTOR_USER32 000000018008d038     user32:USER32.dll
 0002:0002804c       __NULL_IMPORT_DESCRIPTOR   000000018008d04c     Shlwapi:SHLWAPI.dll
 0003:00000000       ?_Sync@ios_base@std@@0_NA  000000018008e000     libcpmt:ios.obj
 0003:00000010       __scrt_native_dllmain_reason 000000018008e010     LIBCMT:utility.obj
 0003:00000018       __security_cookie_complement 000000018008e018     LIBCMT:gs_cookie.obj
 0003:00000020       __security_cookie          000000018008e020     LIBCMT:gs_cookie.obj
 0003:00000028       _fltused                   000000018008e028     LIBCMT:fltused.obj
 0003:00000030       __isa_available            000000018008e030     LIBCMT:cpu_disp.obj
 0003:00000034       __isa_enabled              000000018008e034     LIBCMT:cpu_disp.obj
 0003:00000038       __memcpy_nt_iters          000000018008e038     LIBCMT:cpu_disp.obj
 0003:00000040       __memset_nt_iters          000000018008e040     LIBCMT:cpu_disp.obj
 0003:00000068       _pctype                    000000018008e068     libucrt:ctype.obj
 0003:00000070       _pwctype                   000000018008e070     libucrt:ctype.obj
 0003:00000080       __acrt_lconv_c             000000018008e080     libucrt:localeconv.obj
 0003:00000118       __acrt_lconv               000000018008e118     libucrt:localeconv.obj
 0003:00000120       __acrt_lconv_static_decimal 000000018008e120     libucrt:localeconv.obj
 0003:00000124       __acrt_lconv_static_W_decimal 000000018008e124     libucrt:localeconv.obj
 0003:00000130       __abort_behavior           000000018008e130     libucrt:abort.obj
 0003:00000150       __acrt_initial_locale_data 000000018008e150     libucrt:nlsdata.obj
 0003:000002a8       __acrt_initial_locale_pointers 000000018008e2a8     libucrt:nlsdata.obj
 0003:000002b8       __acrt_wide_c_locale_string 000000018008e2b8     libucrt:nlsdata.obj
 0003:000002bc       __mb_cur_max               000000018008e2bc     libucrt:nlsdata.obj
 0003:000002c0       _iob                       000000018008e2c0     libucrt:_file.obj
 0003:000003d0       __badioinfo                000000018008e3d0     libucrt:ioinit.obj
 0003:00000420       _lookuptrailbytes          000000018008e420     libucrt:read.obj
 0003:00000520       __globallocalestatus       000000018008e520     libucrt:glstatus.obj
 0003:000006d0       __acrt_initial_multibyte_data 000000018008e6d0     libucrt:mbctype.obj
 0003:00000c20       ?_Static@?1???$_Immortalize_memcpy_image@V_Iostream_error_category2@std@@@std@@YAAEBV_Iostream_error_category2@1@XZ@4U?$_Constexpr_immortalize_impl@V_Iostream_error_category2@std@@@1@A 000000018008ec20     hashing.obj
 0003:00000c40       ?FileReadBufferSize@@3_KA  000000018008ec40     hashing.obj
 0003:00000c48       info_md5                   000000018008ec48     rhash:algorithms.obj
 0003:00000c68       info_crc32                 000000018008ec68     rhash:algorithms.obj
 0003:00000c88       info_whirlpool             000000018008ec88     rhash:algorithms.obj
 0003:00000ca8       info_edr256                000000018008eca8     rhash:algorithms.obj
 0003:00000cc8       info_snf128                000000018008ecc8     rhash:algorithms.obj
 0003:00000ce8       info_sha3_224              000000018008ece8     rhash:algorithms.obj
 0003:00000d08       info_sha1                  000000018008ed08     rhash:algorithms.obj
 0003:00000d28       info_sha3_384              000000018008ed28     rhash:algorithms.obj
 0003:00000d48       info_gost94pro             000000018008ed48     rhash:algorithms.obj
 0003:00000d68       info_sha3_512              000000018008ed68     rhash:algorithms.obj
 0003:00000d88       info_snf256                000000018008ed88     rhash:algorithms.obj
 0003:00000da8       info_aich                  000000018008eda8     rhash:algorithms.obj
 0003:00000dc8       info_sha384                000000018008edc8     rhash:algorithms.obj
 0003:00000de8       info_rmd160                000000018008ede8     rhash:algorithms.obj
 0003:00000e08       info_tth                   000000018008ee08     rhash:algorithms.obj
 0003:00000e28       info_blake2b               000000018008ee28     rhash:algorithms.obj
 0003:00000e48       info_edr512                000000018008ee48     rhash:algorithms.obj
 0003:00000e70       rhash_hash_info_default    000000018008ee70     rhash:algorithms.obj
 0003:00001538       info_gost12_512            000000018008f538     rhash:algorithms.obj
 0003:00001558       info_tiger                 000000018008f558     rhash:algorithms.obj
 0003:00001578       info_btih                  000000018008f578     rhash:algorithms.obj
 0003:00001598       info_sha224                000000018008f598     rhash:algorithms.obj
 0003:000015b8       info_ed2k                  000000018008f5b8     rhash:algorithms.obj
 0003:000015d8       info_blake2s               000000018008f5d8     rhash:algorithms.obj
 0003:000015f8       info_sha256                000000018008f5f8     rhash:algorithms.obj
 0003:00001618       info_md4                   000000018008f618     rhash:algorithms.obj
 0003:00001638       info_crc32c                000000018008f638     rhash:algorithms.obj
 0003:00001658       info_sha3_256              000000018008f658     rhash:algorithms.obj
 0003:00001678       info_gost12_256            000000018008f678     rhash:algorithms.obj
 0003:00001698       info_gost94                000000018008f698     rhash:algorithms.obj
 0003:000016b8       info_has160                000000018008f6b8     rhash:algorithms.obj
 0003:000016d8       info_sha512                000000018008f6d8     rhash:algorithms.obj
 0003:00001700       rhash_gost94_sbox_cryptpro 000000018008f700     rhash:gost94.obj
 0003:00002700       rhash_gost94_sbox          0000000180090700     rhash:gost94.obj
 0003:00003700       rhash_crc32_table          0000000180091700     rhash:crc32.obj
 0003:00005700       rhash_crc32c_table         0000000180093700     rhash:crc32.obj
 0003:00007700       ?SupportedHashes@@3PAUHashAlgoInfo@@A 0000000180095700     hashing.obj
 0003:00007960       ?_Static@?1???$_Immortalize_memcpy_image@V_Generic_error_category@std@@@std@@YAAEBV_Generic_error_category@1@XZ@4U?$_Constexpr_immortalize_impl@V_Generic_error_category@std@@@1@A 0000000180095960     IntChecker2-Far3.obj
 0003:00007970       ?_Static@?1???$_Immortalize_memcpy_image@V_System_error_category@std@@@std@@YAAEBV_System_error_category@1@XZ@4U?$_Constexpr_immortalize_impl@V_System_error_category@std@@@1@A 0000000180095970     IntChecker2-Far3.obj
 0003:00007980       ??_R0?AVlogic_error@std@@@8 0000000180095980     libcpmt:xthrow.obj
 0003:000079a8       ??_R0?AVlength_error@std@@@8 00000001800959a8     libcpmt:xthrow.obj
 0003:000079d0       ??_R0?AVout_of_range@std@@@8 00000001800959d0     libcpmt:xthrow.obj
 0003:000079f8       ??_R0?AVbad_function_call@std@@@8 00000001800959f8     libcpmt:xthrow.obj
 0003:00007a28       ??_R0?AVregex_error@std@@@8 0000000180095a28     libcpmt:xthrow.obj
 0003:00007a50       ??_R0?AVbad_exception@std@@@8 0000000180095a50     libvcruntime:frame.obj
 0003:00007a78       ??_R0?AVbad_array_new_length@std@@@8 0000000180095a78     trust.obj
 0003:00007aa8       ??_R0?AVbad_alloc@std@@@8  0000000180095aa8     trust.obj
 0003:00007ad0       ??_R0?AVexception@std@@@8  0000000180095ad0     trust.obj
 0003:00007af8       ??_R0?AVfailure@ios_base@std@@@8 0000000180095af8     hashing.obj
 0003:00007b28       ??_R0?AVsystem_error@std@@@8 0000000180095b28     hashing.obj
 0003:00007b50       ??_R0?AV_System_error@std@@@8 0000000180095b50     hashing.obj
 0003:00007b78       ??_R0?AVbad_cast@std@@@8   0000000180095b78     hashing.obj
 0003:00007ba0       ??_R0?AVruntime_error@std@@@8 0000000180095ba0     hashing.obj
 0003:00007c10       ??_R0?AV?$_Binder@U_Unforced@std@@A6AXAEAVFar3Panel@@@ZAEAV3@@std@@@8 0000000180095c10     IntChecker2-Far3.obj
 0003:00007c60       ??_R0?AV?$_Binder@U_Unforced@std@@A6AXXZ$$V@std@@@8 0000000180095c60     IntChecker2-Far3.obj
 0003:00007ca0       ??_R0?AV?$_Binder@U_Unforced@std@@A6A_NPEB_W_N1@ZPEB_W_N_N@std@@@8 0000000180095ca0     IntChecker2-Far3.obj
 0003:00007cf0       ??_R0?AV?$_Binder@U_Unforced@std@@A6AXAEBV?$basic_string@_WU?$char_traits@_W@std@@V?$allocator@_W@2@@2@@ZAEAV32@@std@@@8 0000000180095cf0     IntChecker2-Far3.obj
 0003:00007d78       ??_R0?AVfilesystem_error@filesystem@std@@@8 0000000180095d78     IntChecker2-Far3.obj
 0003:00007db0       ??_R0?AV_Locimp@locale@std@@@8 0000000180095db0     libcpmt:locale0.obj
 0003:00007de0       ??_R0?AVtype_info@@@8      0000000180095de0     LIBCMT:std_type_info_static.obj
 0003:00007e00       ??_R0?AV?$_Node_str@D@std@@@8 0000000180095e00     hashing.obj
 0003:00007e30       ??_R0?AV?$_Node_class@DV?$regex_traits@D@std@@@std@@@8 0000000180095e30     hashing.obj
 0003:00007e78       ??_R0?AV_Node_end_rep@std@@@8 0000000180095e78     hashing.obj
 0003:00007ea0       ??_R0?AV_Node_rep@std@@@8  0000000180095ea0     hashing.obj
 0003:00007ec8       ??_R0?AV_Node_if@std@@@8   0000000180095ec8     hashing.obj
 0003:00007ef0       ??_R0?AV_Node_endif@std@@@8 0000000180095ef0     hashing.obj
 0003:00007f18       ??_R0?AV_Node_back@std@@@8 0000000180095f18     hashing.obj
 0003:00007f40       ??_R0?AV_Node_capture@std@@@8 0000000180095f40     hashing.obj
 0003:00007f68       ??_R0?AV_Node_assert@std@@@8 0000000180095f68     hashing.obj
 0003:00007f90       ??_R0?AV_Node_end_group@std@@@8 0000000180095f90     hashing.obj
 0003:00007fc0       ??_R0?AV_Root_node@std@@@8 0000000180095fc0     hashing.obj
 0003:00007fe8       ??_R0?AV_Node_base@std@@@8 0000000180095fe8     hashing.obj
 0003:00008010       ??_R0?AV?$collate@D@std@@@8 0000000180096010     hashing.obj
 0003:00008040       ??_R0?AV?$basic_stringstream@_WU?$char_traits@_W@std@@V?$allocator@_W@2@@std@@@8 0000000180096040     hashing.obj
 0003:000080a0       ??_R0?AV?$basic_stringbuf@_WU?$char_traits@_W@std@@V?$allocator@_W@2@@std@@@8 00000001800960a0     hashing.obj
 0003:00008100       ??_R0?AV?$basic_iostream@_WU?$char_traits@_W@std@@@std@@@8 0000000180096100     hashing.obj
 0003:00008150       ??_R0?AV?$basic_ostream@_WU?$char_traits@_W@std@@@std@@@8 0000000180096150     hashing.obj
 0003:000081a0       ??_R0?AV?$basic_istream@_WU?$char_traits@_W@std@@@std@@@8 00000001800961a0     hashing.obj
 0003:000081f0       ??_R0?AV?$basic_streambuf@_WU?$char_traits@_W@std@@@std@@@8 00000001800961f0     hashing.obj
 0003:00008240       ??_R0?AV?$basic_ios@_WU?$char_traits@_W@std@@@std@@@8 0000000180096240     hashing.obj
 0003:00008280       ??_R0?AV?$basic_stringstream@DU?$char_traits@D@std@@V?$allocator@D@2@@std@@@8 0000000180096280     hashing.obj
 0003:000082e0       ??_R0?AV?$basic_stringbuf@DU?$char_traits@D@std@@V?$allocator@D@2@@std@@@8 00000001800962e0     hashing.obj
 0003:00008340       ??_R0?AV?$basic_iostream@DU?$char_traits@D@std@@@std@@@8 0000000180096340     hashing.obj
 0003:00008390       ??_R0?AV?$basic_ostream@DU?$char_traits@D@std@@@std@@@8 0000000180096390     hashing.obj
 0003:000083e0       ??_R0?AV?$basic_istream@DU?$char_traits@D@std@@@std@@@8 00000001800963e0     hashing.obj
 0003:00008430       ??_R0?AV?$basic_streambuf@DU?$char_traits@D@std@@@std@@@8 0000000180096430     hashing.obj
 0003:00008478       ??_R0?AV?$basic_ios@DU?$char_traits@D@std@@@std@@@8 0000000180096478     hashing.obj
 0003:000084b8       ??_R0?AV?$ctype@_W@std@@@8 00000001800964b8     hashing.obj
 0003:000084e0       ??_R0?AV_Iostream_error_category2@std@@@8 00000001800964e0     hashing.obj
 0003:00008518       ??_R0?AVerror_category@std@@@8 0000000180096518     hashing.obj
 0003:00008548       ??_R0?AV?$ctype@D@std@@@8  0000000180096548     hashing.obj
 0003:00008570       ??_R0?AUctype_base@std@@@8 0000000180096570     hashing.obj
 0003:00008598       ??_R0?AVios_base@std@@@8   0000000180096598     hashing.obj
 0003:000085c0       ??_R0?AV?$_Iosb@H@std@@@8  00000001800965c0     hashing.obj
 0003:000085e8       ??_R0?AVfacet@locale@std@@@8 00000001800965e8     hashing.obj
 0003:00008610       ??_R0?AV_Facet_base@std@@@8 0000000180096610     hashing.obj
 0003:00008638       ??_R0?AU_Crt_new_delete@std@@@8 0000000180096638     hashing.obj
 0003:00008668       ??_R0?AV_Ref_count_base@std@@@8 0000000180096668     IntChecker2-Far3.obj
 0003:000086a0       ??_R0?AV?$_Func_impl_no_alloc@V?$_Binder@U_Unforced@std@@A6AXAEBV?$basic_string@_WU?$char_traits@_W@std@@V?$allocator@_W@2@@2@@ZAEAV32@@std@@X_J@std@@@8 00000001800966a0     IntChecker2-Far3.obj
 0003:00008750       ??_R0?AV?$_Func_impl_no_alloc@V?$_Binder@U_Unforced@std@@A6A_NPEB_W_N1@ZPEB_W_N_N@std@@X_J@std@@@8 0000000180096750     IntChecker2-Far3.obj
 0003:000087c0       ??_R0?AV?$_Func_impl_no_alloc@V?$_Binder@U_Unforced@std@@A6AXXZ$$V@std@@X_J@std@@@8 00000001800967c0     IntChecker2-Far3.obj
 0003:00008820       ??_R0?AV?$_Func_impl_no_alloc@V?$_Binder@U_Unforced@std@@A6AXAEAVFar3Panel@@@ZAEAV3@@std@@X_J@std@@@8 0000000180096820     IntChecker2-Far3.obj
 0003:00008900       ??_R0?AV?$_Ref_count_obj2@U_Recursive_dir_enum_impl@filesystem@std@@@std@@@8 0000000180096900     IntChecker2-Far3.obj
 0003:00008958       ??_R0?AV?$_Func_base@HPEB_W@std@@@8 0000000180096958     IntChecker2-Far3.obj
 0003:00008988       ??_R0?AV?$_Func_base@X_J@std@@@8 0000000180096988     IntChecker2-Far3.obj
 0003:000089b8       ??_R0?AVPluginListControlBinding@@@8 00000001800969b8     IntChecker2-Far3.obj
 0003:000089e8       ??_R0?AVPluginUIntEditFieldBinding@@@8 00000001800969e8     IntChecker2-Far3.obj
 0003:00008a20       ??_R0?AVPluginIntEditFieldBinding@@@8 0000000180096a20     IntChecker2-Far3.obj
 0003:00008a50       ??_R0?AVPluginEditFieldBinding@@@8 0000000180096a50     IntChecker2-Far3.obj
 0003:00008a80       ??_R0?AVPluginRadioButtonBinding@@@8 0000000180096a80     IntChecker2-Far3.obj
 0003:00008ab0       ??_R0?AVPluginCheckBoxBinding@@@8 0000000180096ab0     IntChecker2-Far3.obj
 0003:00008ae0       ??_R0?AU?$DialogItemBinding@UFarDialogItem@@@@@8 0000000180096ae0     IntChecker2-Far3.obj
 0003:00008b20       ??_R0?AVDialogAPIBinding@@@8 0000000180096b20     IntChecker2-Far3.obj
 0003:00008b48       ??_R0?AV?$DialogBuilderBase@UFarDialogItem@@@@@8 0000000180096b48     IntChecker2-Far3.obj
 0003:00008b88       ??_R0?AVPluginDialogBuilder@@@8 0000000180096b88     IntChecker2-Far3.obj
 0003:00008bb8       ??_R0?AV_System_error_category@std@@@8 0000000180096bb8     IntChecker2-Far3.obj
 0003:00008bf0       ??_R0?AV_Generic_error_category@std@@@8 0000000180096bf0     IntChecker2-Far3.obj
 0003:00008c40       ?_Index@ios_base@std@@0HA  0000000180096c40     libcpmt:ios.obj
 0003:00008cb0       ?_Id_cnt@id@locale@std@@0HA 0000000180096cb0     libcpmt:locale0.obj
 0003:00008cb8       ?_Clocptr@_Locimp@locale@std@@0PEAV123@EA 0000000180096cb8     libcpmt:locale0.obj
 0003:00008cc0       ?id@?$ctype@_W@std@@2V0locale@2@A 0000000180096cc0     libcpmt:locale0.obj
 0003:00008cc8       ?id@?$ctype@D@std@@2V0locale@2@A 0000000180096cc8     libcpmt:locale0.obj
 0003:00008cd0       ?id@?$codecvt@GDU_Mbstatet@@@std@@2V0locale@2@A 0000000180096cd0     libcpmt:locale0.obj
 0003:00008cd8       ?id@?$ctype@G@std@@2V0locale@2@A 0000000180096cd8     libcpmt:locale0.obj
 0003:00008cf0       ?id@?$codecvt@_WDU_Mbstatet@@@std@@2V0locale@2@A 0000000180096cf0     libcpmt:locale0.obj
 0003:00008e70       __KERNEL32Functions        0000000180096e70     libcpmt:winapisupp.obj
 0003:00008fb0       ?id@?$num_get@DV?$istreambuf_iterator@DU?$char_traits@D@std@@@std@@@std@@2V0locale@2@A 0000000180096fb0     libcpmt:locale.obj
 0003:00008fb8       ?id@?$num_put@DV?$ostreambuf_iterator@DU?$char_traits@D@std@@@std@@@std@@2V0locale@2@A 0000000180096fb8     libcpmt:locale.obj
 0003:00008fc0       ?id@?$numpunct@D@std@@2V0locale@2@A 0000000180096fc0     libcpmt:locale.obj
 0003:00008fc8       ?id@?$codecvt@DDU_Mbstatet@@@std@@2V0locale@2@A 0000000180096fc8     libcpmt:locale.obj
 0003:00008fd0       ?_Ptr_cin@std@@3PEAV?$basic_istream@DU?$char_traits@D@std@@@1@EA 0000000180096fd0     libcpmt:iosptrs.obj
 0003:00008fd8       ?_Ptr_cout@std@@3PEAV?$basic_ostream@DU?$char_traits@D@std@@@1@EA 0000000180096fd8     libcpmt:iosptrs.obj
 0003:00008fe0       ?_Ptr_cerr@std@@3PEAV?$basic_ostream@DU?$char_traits@D@std@@@1@EA 0000000180096fe0     libcpmt:iosptrs.obj
 0003:00008fe8       ?_Ptr_clog@std@@3PEAV?$basic_ostream@DU?$char_traits@D@std@@@1@EA 0000000180096fe8     libcpmt:iosptrs.obj
 0003:00008ff0       ?_Ptr_wcin@std@@3PEAV?$basic_istream@_WU?$char_traits@_W@std@@@1@EA 0000000180096ff0     libcpmt:iosptrs.obj
 0003:00008ff8       ?_Ptr_wcout@std@@3PEAV?$basic_ostream@_WU?$char_traits@_W@std@@@1@EA 0000000180096ff8     libcpmt:iosptrs.obj
 0003:00009000       ?_Ptr_wcerr@std@@3PEAV?$basic_ostream@_WU?$char_traits@_W@std@@@1@EA 0000000180097000     libcpmt:iosptrs.obj
 0003:00009008       ?_Ptr_wclog@std@@3PEAV?$basic_ostream@_WU?$char_traits@_W@std@@@1@EA 0000000180097008     libcpmt:iosptrs.obj
 0003:00009070       ?id@?$time_put@_WV?$ostreambuf_iterator@_WU?$char_traits@_W@std@@@std@@@std@@2V0locale@2@A 0000000180097070     libcpmt:wlocale.obj
 0003:00009078       ?id@?$num_get@_WV?$istreambuf_iterator@_WU?$char_traits@_W@std@@@std@@@std@@2V0locale@2@A 0000000180097078     libcpmt:wlocale.obj
 0003:00009080       ?id@?$num_put@_WV?$ostreambuf_iterator@_WU?$char_traits@_W@std@@@std@@@std@@2V0locale@2@A 0000000180097080     libcpmt:wlocale.obj
 0003:00009088       ?id@?$numpunct@_W@std@@2V0locale@2@A 0000000180097088     libcpmt:wlocale.obj
 0003:00009090       ?id@?$collate@_W@std@@2V0locale@2@A 0000000180097090     libcpmt:wlocale.obj
 0003:00009098       ?id@?$messages@_W@std@@2V0locale@2@A 0000000180097098     libcpmt:wlocale.obj
 0003:000090a0       ?id@?$money_get@_WV?$istreambuf_iterator@_WU?$char_traits@_W@std@@@std@@@std@@2V0locale@2@A 00000001800970a0     libcpmt:wlocale.obj
 0003:000090a8       ?id@?$money_put@_WV?$ostreambuf_iterator@_WU?$char_traits@_W@std@@@std@@@std@@2V0locale@2@A 00000001800970a8     libcpmt:wlocale.obj
 0003:000090b0       ?id@?$moneypunct@_W$0A@@std@@2V0locale@2@A 00000001800970b0     libcpmt:wlocale.obj
 0003:000090b8       ?id@?$moneypunct@_W$00@std@@2V0locale@2@A 00000001800970b8     libcpmt:wlocale.obj
 0003:000090c0       ?id@?$time_get@_WV?$istreambuf_iterator@_WU?$char_traits@_W@std@@@std@@@std@@2V0locale@2@A 00000001800970c0     libcpmt:wlocale.obj
 0003:000090c8       ?id@?$num_get@GV?$istreambuf_iterator@GU?$char_traits@G@std@@@std@@@std@@2V0locale@2@A 00000001800970c8     libcpmt:wlocale.obj
 0003:000090d0       ?id@?$num_put@GV?$ostreambuf_iterator@GU?$char_traits@G@std@@@std@@@std@@2V0locale@2@A 00000001800970d0     libcpmt:wlocale.obj
 0003:000090d8       ?id@?$numpunct@G@std@@2V0locale@2@A 00000001800970d8     libcpmt:wlocale.obj
 0003:000090e0       ?id@?$collate@G@std@@2V0locale@2@A 00000001800970e0     libcpmt:wlocale.obj
 0003:000090e8       ?id@?$messages@G@std@@2V0locale@2@A 00000001800970e8     libcpmt:wlocale.obj
 0003:000090f0       ?id@?$money_get@GV?$istreambuf_iterator@GU?$char_traits@G@std@@@std@@@std@@2V0locale@2@A 00000001800970f0     libcpmt:wlocale.obj
 0003:000090f8       ?id@?$money_put@GV?$ostreambuf_iterator@GU?$char_traits@G@std@@@std@@@std@@2V0locale@2@A 00000001800970f8     libcpmt:wlocale.obj
 0003:00009100       ?id@?$moneypunct@G$0A@@std@@2V0locale@2@A 0000000180097100     libcpmt:wlocale.obj
 0003:00009108       ?id@?$moneypunct@G$00@std@@2V0locale@2@A 0000000180097108     libcpmt:wlocale.obj
 0003:00009110       ?id@?$time_get@GV?$istreambuf_iterator@GU?$char_traits@G@std@@@std@@@std@@2V0locale@2@A 0000000180097110     libcpmt:wlocale.obj
 0003:00009118       ?id@?$time_put@GV?$ostreambuf_iterator@GU?$char_traits@G@std@@@std@@@std@@2V0locale@2@A 0000000180097118     libcpmt:wlocale.obj
 0003:00009120       ?id@?$messages@D@std@@2V0locale@2@A 0000000180097120     libcpmt:xlocale.obj
 0003:00009128       ?id@?$money_get@DV?$istreambuf_iterator@DU?$char_traits@D@std@@@std@@@std@@2V0locale@2@A 0000000180097128     libcpmt:xlocale.obj
 0003:00009130       ?id@?$money_put@DV?$ostreambuf_iterator@DU?$char_traits@D@std@@@std@@@std@@2V0locale@2@A 0000000180097130     libcpmt:xlocale.obj
 0003:00009138       ?id@?$moneypunct@D$0A@@std@@2V0locale@2@A 0000000180097138     libcpmt:xlocale.obj
 0003:00009140       ?id@?$moneypunct@D$00@std@@2V0locale@2@A 0000000180097140     libcpmt:xlocale.obj
 0003:00009148       ?id@?$time_get@DV?$istreambuf_iterator@DU?$char_traits@D@std@@@std@@@std@@2V0locale@2@A 0000000180097148     libcpmt:xlocale.obj
 0003:00009150       ?id@?$time_put@DV?$ostreambuf_iterator@DU?$char_traits@D@std@@@std@@@std@@2V0locale@2@A 0000000180097150     libcpmt:xlocale.obj
 0003:00009158       __scrt_current_native_startup_state 0000000180097158     LIBCMT:utility.obj
 0003:00009160       __scrt_native_startup_lock 0000000180097160     LIBCMT:utility.obj
 0003:000091a8       __castguard_check_failure_os_handled_fptr 00000001800971a8     LIBCMT:guard_support.obj
 0003:00009720       __favor                    0000000180097720     LIBCMT:cpu_disp.obj
 0003:00009724       __scrt_debugger_hook_flag  0000000180097724     LIBCMT:utility_desktop.obj
 0003:00009730       ?__type_info_root_node@@3U__type_info_node@@A 0000000180097730     LIBCMT:tncleanup.obj
 0003:00009740       ?_OptionsStorage@?1??__local_stdio_scanf_options@@9@4_KA 0000000180097740     LIBCMT:default_local_stdio_options.obj
 0003:00009748       ?__WinRTOutOfMemoryExceptionCallback@@3P6APEAXXZEA 0000000180097748     libvcruntime:ehhelpers.obj
 0003:000097d0       __pPurecall                00000001800977d0     libvcruntime:purevirt_data.obj
 0003:00009808       ?pArgList@UnDecorator@@0PEAVReplicator@@EA 0000000180097808     libvcruntime:undname.obj
 0003:00009810       ?pZNameList@UnDecorator@@0PEAVReplicator@@EA 0000000180097810     libvcruntime:undname.obj
 0003:00009818       ?pTemplateArgList@UnDecorator@@0PEAVReplicator@@EA 0000000180097818     libvcruntime:undname.obj
 0003:00009820       ?gName@UnDecorator@@0PEBDEB 0000000180097820     libvcruntime:undname.obj
 0003:00009828       ?name@UnDecorator@@0PEBDEB 0000000180097828     libvcruntime:undname.obj
 0003:00009830       ?disableFlags@UnDecorator@@0KA 0000000180097830     libvcruntime:undname.obj
 0003:00009834       ?fExplicitTemplateParams@UnDecorator@@0_NA 0000000180097834     libvcruntime:undname.obj
 0003:00009835       ?fGetTemplateArgumentList@UnDecorator@@0_NA 0000000180097835     libvcruntime:undname.obj
 0003:00009838       ?m_pGetParameter@UnDecorator@@0P6APEADJ@ZEA 0000000180097838     libvcruntime:undname.obj
 0003:00009840       ?m_CHPENameOffset@UnDecorator@@0KA 0000000180097840     libvcruntime:undname.obj
 0003:00009844       ?m_recursionLevel@UnDecorator@@0KA 0000000180097844     libvcruntime:undname.obj
 0003:00009af4       __acrt_lconv_static_null   0000000180097af4     libucrt:localeconv.obj
 0003:00009af8       __acrt_lconv_static_W_null 0000000180097af8     libucrt:localeconv.obj
 0003:00009b18       ?c_exit_complete@?1???R<lambda_6e4b09c48022b2350581041d5f6b0c4c>@@QEBA@XZ@4_NA 0000000180097b18     libucrt:exit.obj
 0003:00009c28       _environ_table             0000000180097c28     libucrt:environment_initialization.obj
 0003:00009c30       _wenviron_table            0000000180097c30     libucrt:environment_initialization.obj
 0003:00009c38       __dcrt_initial_wide_environment 0000000180097c38     libucrt:environment_initialization.obj
 0003:00009c40       __dcrt_initial_narrow_environment 0000000180097c40     libucrt:environment_initialization.obj
 0003:00009c48       __acrt_atexit_table        0000000180097c48     libucrt:onexit.obj
 0003:00009c60       __acrt_at_quick_exit_table 0000000180097c60     libucrt:onexit.obj
 0003:00009c78       __acrt_locale_changed_data 0000000180097c78     libucrt:wsetlocale.obj
 0003:00009c80       __acrt_current_locale_data 0000000180097c80     libucrt:nlsdata.obj
 0003:00009c88       _nstream                   0000000180097c88     libucrt:_file.obj
 0003:00009c90       __piob                     0000000180097c90     libucrt:_file.obj
 0003:00009c98       _cflush                    0000000180097c98     libucrt:_file.obj
 0003:00009ca0       __pioinfo                  0000000180097ca0     libucrt:ioinit.obj
 0003:0000a0a0       _nhandle                   00000001800980a0     libucrt:ioinit.obj
 0003:0000a0b8       __acrt_stdout_buffer       00000001800980b8     libucrt:_sftbuf.obj
 0003:0000a0c0       __acrt_stderr_buffer       00000001800980c0     libucrt:_sftbuf.obj
 0003:0000a268       __fma3_is_available        0000000180098268     libucrt:fma3_available.obj
 0003:0000a26c       __use_fma3_lib             000000018009826c     libucrt:fma3_available.obj
 0003:0000a290       ?_timezone@@3V?$dual_state_global@J@__crt_state_management@@A 0000000180098290     libucrt:timeset.obj
 0003:0000a294       ?_daylight@@3V?$dual_state_global@H@__crt_state_management@@A 0000000180098294     libucrt:timeset.obj
 0003:0000a298       ?_dstbias@@3V?$dual_state_global@J@__crt_state_management@@A 0000000180098298     libucrt:timeset.obj
 0003:0000a370       _mbctype                   0000000180098370     libucrt:mbctype.obj
 0003:0000a378       _mbcasemap                 0000000180098378     libucrt:mbctype.obj
 0003:0000a380       __acrt_current_multibyte_data 0000000180098380     libucrt:mbctype.obj
 0003:0000a390       _pgmptr                    0000000180098390     libucrt:argv_data.obj
 0003:0000a398       __argc                     0000000180098398     libucrt:argv_data.obj
 0003:0000a3a0       __argv                     00000001800983a0     libucrt:argv_data.obj
 0003:0000a3a8       __wargv                    00000001800983a8     libucrt:argv_data.obj
 0003:0000a3b0       _acmdln                    00000001800983b0     libucrt:argv_data.obj
 0003:0000a3b8       _wcmdln                    00000001800983b8     libucrt:argv_data.obj
 0003:0000a3c0       __acrt_heap                00000001800983c0     libucrt:heap_handle.obj
 0003:0000a3d0       _commode                   00000001800983d0     libucrt:ncommode.obj
 0003:0000a3d8       _umaskval                  00000001800983d8     libucrt:umask.obj
 0003:0000a3f0       _fmode                     00000001800983f0     libucrt:txtmode.obj
 0003:0000a3f8       ?_Psave@?$_Facetptr@V?$ctype@_W@std@@@std@@2PEBVfacet@locale@2@EB 00000001800983f8     hashing.obj
 0003:0000a400       ?_Psave@?$_Facetptr@V?$collate@D@std@@@std@@2PEBVfacet@locale@2@EB 0000000180098400     hashing.obj
 0003:0000a408       ?_Psave@?$_Facetptr@V?$ctype@D@std@@@std@@2PEBVfacet@locale@2@EB 0000000180098408     hashing.obj
 0003:0000a710       ?_OptionsStorage@?1??__local_stdio_printf_options@@9@4_KA 0000000180098710     IntChecker2-Far3.obj
 0003:0000a730       ?FarSInfo@@3UPluginStartupInfo@@A 0000000180098730     IntChecker2-Far3.obj
 0003:0000a9d4       __@@_PchSym_@00@UkilqvxghUrmgxsvxpviUlyqUivovzhvRuziDRcGEUrmgxsvxpviCUhgwzucOlyq@4B2008FD98C1DD4 00000001800989d4     stdafx.obj
 0003:0000a9d8       ?id@?$collate@D@std@@2V0locale@2@A 00000001800989d8     hashing.obj
 0003:0000acf0       __dyn_tls_init_callback    0000000180098cf0     <common>
 0003:0000acf8       __scrt_ucrt_dll_is_in_use  0000000180098cf8     <common>

 entry point at        0001:00040768

 Static symbols

 0002:fff9b000       .idata$6                   0000000180000000     advapi32:ADVAPI32.dll
 0002:fff9b000       .idata$6                   0000000180000000     crypt32:CRYPT32.dll
 0001:00000000       ??__ESupportedHashes@@YAXXZ 0000000180001000 f   hashing.obj
 0001:0000033c       ??__Eclassic_locale@std@@YAXXZ 000000018000133c f   libcpmt:locale0.obj
 0001:00000348       ??__F_Fac_tidy_reg@std@@YAXXZ 0000000180001348 f   libcpmt:locale0.obj
 0001:00000354       ??__Einitlocks@std@@YAXXZ  0000000180001354 f   libcpmt:xlock.obj
 0001:00000374       ??__Einitlocks@std@@YAXXZ  0000000180001374 f   libcpmt:iosptrs.obj
 0001:00000394       ??__Finit_atexit@@YAXXZ    0000000180001394 f   libcpmt:iosptrs.obj
 0001:00004e10       no_op_initialize           0000000180005e10 f i libucrt:wsetlocale.obj
 0001:0000a058       $LN78                      000000018000b058     hashing.obj
 0001:0000a080       $LN77                      000000018000b080     hashing.obj
 0001:0000b918       $LN321                     000000018000c918     hashing.obj
 0001:0000de80       $LN235                     000000018000ee80     hashing.obj
 0001:0000de88       $LN234                     000000018000ee88     hashing.obj
 0001:0000debc       $LN233                     000000018000eebc     hashing.obj
 0001:0000decc       $LN232                     000000018000eecc     hashing.obj
 0001:00011e40       ?ProgressBarString@@YA?AV?$basic_string@_WU?$char_traits@_W@std@@V?$allocator@_W@2@@std@@_J0@Z 0000000180012e40 f   IntChecker2-Far3.obj
 0001:00012070       ?JoinProgressLine@@YA?AV?$basic_string@_WU?$char_traits@_W@std@@V?$allocator@_W@2@@std@@AEBV12@0_K1@Z 0000000180013070 f   IntChecker2-Far3.obj
 0001:000122f0       ?ConvertPathToNative@@YA?AV?$basic_string@_WU?$char_traits@_W@std@@V?$allocator@_W@2@@std@@AEBV12@@Z 00000001800132f0 f   IntChecker2-Far3.obj
 0001:00013de0       ?PathJoin@@YA?AV?$basic_string@_WU?$char_traits@_W@std@@V?$allocator@_W@2@@std@@AEBV12@0@Z 0000000180014de0 f   IntChecker2-Far3.obj
 0001:00015170       ?DisplayMessage@@YAXHHPEB_W_N1@Z 0000000180016170 f   IntChecker2-Far3.obj
 0001:00015230       ?GetFarWindowSize@@YA_NAEAURectSize@@@Z 0000000180016230 f   IntChecker2-Far3.obj
 0001:000152a0       ?LoadSettings@@YAXXZ       00000001800162a0 f   IntChecker2-Far3.obj
 0001:000156b0       ?SaveSettings@@YAXXZ       00000001800166b0 f   IntChecker2-Far3.obj
 0001:00015a10       ?FileHashingProgress@@YA_NPEAX_J@Z 0000000180016a10 f   IntChecker2-Far3.obj
 0001:00016800       ?RunGeneration@@YA_NAEBV?$basic_string@_WU?$char_traits@_W@std@@V?$allocator@_W@2@@std@@0W4rhash_ids@@_NAEAUProgressContext@@AEAV?$basic_string@DU?$char_traits@D@std@@V?$allocator@D@2@@2@AEA_N5@Z 0000000180017800 f   IntChecker2-Far3.obj
 0001:00016bb0       ?DisplayValidationResults@@YAXAEAVFar3Panel@@AEAV?$vector@V?$basic_string@_WU?$char_traits@_W@std@@V?$allocator@_W@2@@std@@V?$allocator@V?$basic_string@_WU?$char_traits@_W@std@@V?$allocator@_W@2@@std@@@2@@std@@1H@Z 0000000180017bb0 f   IntChecker2-Far3.obj
 0001:000176a0       ?AskValidationFileParams@@YA_NAEAIAEAH@Z 00000001800186a0 f   IntChecker2-Far3.obj
 0001:000179b0       ?RunValidateFiles@@YA_NPEB_W_N1@Z 00000001800189b0 f   IntChecker2-Far3.obj
 0001:00018430       ?HashParamsDlgProc@@YA_JPEAX_J10@Z 0000000180019430 f   IntChecker2-Far3.obj
 0001:00018650       ?AskForHashGenerationParams@@YA_NAEAUHashGenerationParams@@@Z 0000000180019650 f   IntChecker2-Far3.obj
 0001:00018d60       ?DisplayHashListOnScreen@@YAXAEBVHashList@@@Z 0000000180019d60 f   IntChecker2-Far3.obj
 0001:000192e0       ?RunGenerateHashes@@YAXAEAVFar3Panel@@@Z 000000018001a2e0 f   IntChecker2-Far3.obj
 0001:00019ea0       ?CompareParamsDlgProc@@YA_JPEAX_J10@Z 000000018001aea0 f   IntChecker2-Far3.obj
 0001:00019f50       ?AskForCompareParams@@YA_NAEAW4rhash_ids@@AEA_NAEAPEAX@Z 000000018001af50 f   IntChecker2-Far3.obj
 0001:0001a320       ?RunComparePanels@@YAXXZ   000000018001b320 f   IntChecker2-Far3.obj
 0001:0001b150       ?RunCompareWithClipboard@@YAXAEBV?$basic_string@_WU?$char_traits@_W@std@@V?$allocator@_W@2@@std@@@Z 000000018001c150 f   IntChecker2-Far3.obj
 0001:0001b8f0       ?SelectBenchmarkParams@@YA_NAEAHPEAH@Z 000000018001c8f0 f   IntChecker2-Far3.obj
 0001:0001bd74       $LN116                     000000018001cd74     IntChecker2-Far3.obj
 0001:0001bdb0       ?RunBenchmark@@YAXXZ       000000018001cdb0 f   IntChecker2-Far3.obj
 0001:0001c9e0       ?RunVerifySignatures@@YAXAEAVFar3Panel@@@Z 000000018001d9e0 f   IntChecker2-Far3.obj
 0001:0001d460       ?CalculateHashByAlgoName@@YA_NPEB_W0PEA_W_K_NAEA_N@Z 000000018001e460 f   IntChecker2-Far3.obj
 0001:0001d7f0       ?FreeMacroCall@@YAXPEAXPEAUFarMacroValue@@_K@Z 000000018001e7f0 f   IntChecker2-Far3.obj
 0001:0001f110       $LN33                      0000000180020110     IntChecker2-Far3.obj
 0001:0001f280       $LN26                      0000000180020280     IntChecker2-Far3.obj
 0001:0001f400       $LN34                      0000000180020400     IntChecker2-Far3.obj
 0001:0001f514       $LN25                      0000000180020514     IntChecker2-Far3.obj
 0001:0001fb34       $LN42                      0000000180020b34     IntChecker2-Far3.obj
 0001:00021940       ?_Get@?$_Func_impl_no_alloc@V<lambda_e249c70d12b28e046aa37836257b4bd8>@@HPEB_W@std@@EEBAPEBXXZ 0000000180022940 f i IntChecker2-Far3.obj
 0001:00021b60       ?_Delete_this@?$_Func_impl_no_alloc@V<lambda_e249c70d12b28e046aa37836257b4bd8>@@HPEB_W@std@@EEAAX_N@Z 0000000180022b60 f   IntChecker2-Far3.obj
 0001:00021b70       ?_Target_type@?$_Func_impl_no_alloc@V<lambda_e249c70d12b28e046aa37836257b4bd8>@@HPEB_W@std@@EEBAAEBVtype_info@@XZ 0000000180022b70 f   IntChecker2-Far3.obj
 0001:00021b80       ?_Do_call@?$_Func_impl_no_alloc@V<lambda_e249c70d12b28e046aa37836257b4bd8>@@HPEB_W@std@@EEAAH$$QEAPEB_W@Z 0000000180022b80 f   IntChecker2-Far3.obj
 0001:00021c40       ?_Copy@?$_Func_impl_no_alloc@V<lambda_e249c70d12b28e046aa37836257b4bd8>@@HPEB_W@std@@EEBAPEAV?$_Func_base@HPEB_W@2@PEAX@Z 0000000180022c40 f   IntChecker2-Far3.obj
 0001:00021c40       ?_Move@?$_Func_impl_no_alloc@V<lambda_e249c70d12b28e046aa37836257b4bd8>@@HPEB_W@std@@EEAAPEAV?$_Func_base@HPEB_W@2@PEAX@Z 0000000180022c40 f   IntChecker2-Far3.obj
 0001:00023030       rhash_init_multi           0000000180024030 f   rhash:rhash.obj
 0001:00023320       rhash_put_digest           0000000180024320 f   rhash:rhash.obj
 0001:00023c80       rhash_crc32_init           0000000180024c80 f   rhash:algorithms.obj
 0001:00023c80       rhash_crc32c_init          0000000180024c80 f   rhash:algorithms.obj
 0001:00023c90       rhash_crc32_update         0000000180024c90 f   rhash:algorithms.obj
 0001:00023cc0       rhash_crc32_final          0000000180024cc0 f   rhash:algorithms.obj
 0001:00023cc0       rhash_crc32c_final         0000000180024cc0 f   rhash:algorithms.obj
 0001:00023cd0       rhash_crc32c_update        0000000180024cd0 f   rhash:algorithms.obj
 0001:00023f50       rhash_has160_process_block 0000000180024f50 f   rhash:has160.obj
 0001:000253d0       keccak_theta               00000001800263d0 f   rhash:sha3.obj
 0001:00025710       keccak_chi                 0000000180026710 f   rhash:sha3.obj
 0001:00025900       rhash_sha3_permutation     0000000180026900 f   rhash:sha3.obj
 0001:00025bd0       rhash_sha3_process_block   0000000180026bd0 f   rhash:sha3.obj
 0001:00025fe0       bt_store_piece_sha1        0000000180026fe0 f   rhash:torrent.obj
 0001:000261f0       bt_str_append              00000001800271f0 f   rhash:torrent.obj
 0001:000262e0       bt_bencode_int             00000001800272e0 f   rhash:torrent.obj
 0001:000263d0       bt_bencode_str             00000001800273d0 f   rhash:torrent.obj
 0001:000264e0       bt_generate_torrent        00000001800274e0 f   rhash:torrent.obj
 0001:000270a0       rhash_sha512_process_block 00000001800280a0 f   rhash:sha512.obj
 0001:00028e20       LPSX                       0000000180029e20 f   rhash:gost12.obj
 0001:000292c0       g_N                        000000018002a2c0 f   rhash:gost12.obj
 0001:00029450       add_uint512                000000018002a450 f   rhash:gost12.obj
 0001:00029cf0       rhash_whirlpool_process_block 000000018002acf0 f   rhash:whirlpool.obj
 0001:0002aa00       rhash_blake2b_process_block 000000018002ba00 f   rhash:blake2b.obj
 0001:0002da00       rhash_md4_process_block    000000018002ea00 f   rhash:md4.obj
 0001:0002e3d0       rhash_edonr256_process_block 000000018002f3d0 f   rhash:edonr.obj
 0001:00030510       rhash_edonr512_process_block 0000000180031510 f   rhash:edonr.obj
 0001:000330d0       rhash_ripemd160_process_block 00000001800340d0 f   rhash:ripemd-160.obj
 0001:00035300       rhash_sha256_process_block 0000000180036300 f   rhash:sha256.obj
 0001:00036b90       rhash_tiger_process_block  0000000180037b90 f   rhash:tiger.obj
 0001:00037df0       rhash_blake2s_process_block 0000000180038df0 f   rhash:blake2s.obj
 0001:0003a0b0       rhash_aich_hash_tree       000000018003b0b0 f   rhash:aich.obj
 0001:0003a340       rhash_aich_process_block   000000018003b340 f   rhash:aich.obj
 0001:0003a810       rhash_sha1_process_block   000000018003b810 f   rhash:sha1.obj
 0001:0003acd0       rhash_gost94_block_compress 000000018003bcd0 f   rhash:gost94.obj
 0001:0003bed0       rhash_gost94_compute_sum_and_hash 000000018003ced0 f   rhash:gost94.obj
 0001:0003c150       calculate_crc_soft         000000018003d150 f   rhash:crc32.obj
 0001:0003c2b0       rhash_tth_process_block    000000018003d2b0 f   rhash:tth.obj
 0001:0003c760       rhash_md5_process_block    000000018003d760 f   rhash:md5.obj
 0001:0003d3e0       rhash_snefru_process_block 000000018003e3e0 f   rhash:snefru.obj
 0001:0003e430       tidy_global                000000018003f430 f   libcpmt:locale0.obj
 0001:0003f410       ?initialize_pointers@@YAHXZ 0000000180040410 f   libcpmt:winapisupp.obj
 0001:0003ff50       $$000000                   0000000180040f50     LIBCMT:amdsecgs.obj
 0001:00040448       ?dllmain_crt_dispatch@@YAHQEAUHINSTANCE__@@KQEAX@Z 0000000180041448 f   LIBCMT:dll_dllmain.obj
 0001:00040498       ?dllmain_crt_process_attach@@YAHQEAUHINSTANCE__@@QEAX@Z 0000000180041498 f   LIBCMT:dll_dllmain.obj
 0001:000405b0       ?dllmain_crt_process_detach@@YAH_N@Z 00000001800415b0 f   LIBCMT:dll_dllmain.obj
 0001:00040634       ?dllmain_dispatch@@YAHQEAUHINSTANCE__@@KQEAX@Z 0000000180041634 f   LIBCMT:dll_dllmain.obj
 0001:000408b0       $$000000                   00000001800418b0     LIBCMT:chkstk.obj
 0001:00040ac8       capture_current_context    0000000180041ac8 f   LIBCMT:gs_report.obj
 0001:00040b38       capture_previous_context   0000000180041b38 f   LIBCMT:gs_report.obj
 0001:000420e0       $$000000                   00000001800430e0     libvcruntime:memcpy.obj
 0001:00042790       $$000000                   0000000180043790     libvcruntime:memcmp.obj
 0001:00042890       $$000000                   0000000180043890     libvcruntime:memchr.obj
 0001:00042910       $$000000                   0000000180043910     libvcruntime:memset.obj
 0001:000431b0       ??$BuildCatchObjectHelperInternal@V__FrameHandler3@@@@YAHPEAUEHExceptionRecord@@PEAXPEBU_s_HandlerType@@PEBU_s_CatchableType@@@Z 00000001800441b0 f   libvcruntime:frame.obj
 0001:000433b0       ??$BuildCatchObjectHelperInternal@V__FrameHandler4@@@@YAHPEAUEHExceptionRecord@@PEAXPEAUHandlerType4@FH4@@PEBU_s_CatchableType@@@Z 00000001800443b0 f   libvcruntime:frame.obj
 0001:000435b4       ??$BuildCatchObjectInternal@V__FrameHandler3@@@@YAXPEAUEHExceptionRecord@@PEAXPEBU_s_HandlerType@@PEBU_s_CatchableType@@@Z 00000001800445b4 f   libvcruntime:frame.obj
 0001:00043674       ??$BuildCatchObjectInternal@V__FrameHandler4@@@@YAXPEAUEHExceptionRecord@@PEAXPEAUHandlerType4@FH4@@PEBU_s_CatchableType@@@Z 0000000180044674 f   libvcruntime:frame.obj
 0001:00043738       ??$CatchIt@V__FrameHandler3@@@@YAXPEAUEHExceptionRecord@@PEA_KPEAU_CONTEXT@@PEAU_xDISPATCHER_CONTEXT@@PEBU_s_FuncInfo@@PEBU_s_HandlerType@@PEBU_s_CatchableType@@PEBU_s_TryBlockMapEntry@@H1EE@Z 0000000180044738 f   libvcruntime:frame.obj
 0001:0004380c       ??$CatchIt@V__FrameHandler4@@@@YAXPEAUEHExceptionRecord@@PEA_KPEAU_CONTEXT@@PEAU_xDISPATCHER_CONTEXT@@PEAUFuncInfo4@FH4@@PEAUHandlerType4@4@PEBU_s_CatchableType@@PEAUTryBlockMapEntry4@4@H1EE@Z 000000018004480c f   libvcruntime:frame.obj
 0001:000438e0       ??$FindHandler@V__FrameHandler3@@@@YAXPEAUEHExceptionRecord@@PEA_KPEAU_CONTEXT@@PEAU_xDISPATCHER_CONTEXT@@PEBU_s_FuncInfo@@EH1@Z 00000001800448e0 f   libvcruntime:frame.obj
 0001:00043da8       ??$FindHandler@V__FrameHandler4@@@@YAXPEAUEHExceptionRecord@@PEA_KPEAU_CONTEXT@@PEAU_xDISPATCHER_CONTEXT@@PEAUFuncInfo4@FH4@@EH1@Z 0000000180044da8 f   libvcruntime:frame.obj
 0001:000442a4       ??$FindHandlerForForeignException@V__FrameHandler3@@@@YAXPEAUEHExceptionRecord@@PEA_KPEAU_CONTEXT@@PEAU_xDISPATCHER_CONTEXT@@PEBU_s_FuncInfo@@HH1@Z 00000001800452a4 f   libvcruntime:frame.obj
 0001:000444bc       ??$FindHandlerForForeignException@V__FrameHandler4@@@@YAXPEAUEHExceptionRecord@@PEA_KPEAU_CONTEXT@@PEAU_xDISPATCHER_CONTEXT@@PEAUFuncInfo4@FH4@@HH1@Z 00000001800454bc f   libvcruntime:frame.obj
 0001:00045670       ?ExFilterRethrow@@YAHPEAU_EXCEPTION_POINTERS@@PEAUEHExceptionRecord@@PEAH@Z 0000000180046670 f   libvcruntime:frame.obj
 0001:000456f8       ?ExFilterRethrowFH4@@YAHPEAU_EXCEPTION_POINTERS@@PEAUEHExceptionRecord@@HPEAH@Z 00000001800466f8 f   libvcruntime:frame.obj
 0001:00045c34       ?IsInExceptionSpec@@YAEPEAUEHExceptionRecord@@PEBU_s_ESTypeList@@@Z 0000000180046c34 f   libvcruntime:frame.obj
 0001:00045d24       ?Is_bad_exception_allowed@@YAEPEBU_s_ESTypeList@@@Z 0000000180046d24 f   libvcruntime:frame.obj
 0001:00046070       $$000000                   0000000180047070     libvcruntime:notify.obj
 0001:000460ec       ?try_get_function@@YAPEAXW4function_id@?A0x6b2bd6b2@@QEBDQEBW4module_id@2@2@Z 00000001800470ec f   libvcruntime:winapi_downlevel.obj
 0001:000463d0       $$000000                   00000001800473d0     libvcruntime:handlers.obj
 0001:00046e6c       ??$common_fsopen@_W@@YAPEAU_iobuf@@QEB_W0H@Z 0000000180047e6c f   libucrt:fopen.obj
 0001:00046f90       ??$common_fgets@D@@YAPEADQEADHV__crt_stdio_stream@@@Z 0000000180047f90 f   libucrt:fgets.obj
 0001:00047100       ?_fclose_internal@@YAHQEAU_iobuf@@AEAV__crt_cached_ptd_host@@@Z 0000000180048100 f   libucrt:fclose.obj
 0001:0004717c       ?_fclose_nolock_internal@@YAHQEAU_iobuf@@AEAV__crt_cached_ptd_host@@@Z 000000018004817c f   libucrt:fclose.obj
 0001:000474d4       ??$common_vsprintf@Vformat_validation_base@__crt_stdio_output@@_W@@YAH_KQEA_W0QEB_WAEAV__crt_cached_ptd_host@@QEAD@Z 00000001800484d4 f   libucrt:output.obj
 0001:00049f3c       ??$?RV<lambda_e9ce07acdb0b138e546925ae9f1a2c9c>@@AEAV<lambda_2116bde18c9e5f34230805ea4a4660ed>@@V<lambda_5d037afbfc54bf1ca80d3d1ee4062886>@@@?$__crt_seh_guarded_call@PEAD@@QEAAPEAD$$QEAV<lambda_e9ce07acdb0b138e546925ae9f1a2c9c>@@AEAV<lambda_2116bde18c9e5f34230805ea4a4660ed>@@$$QEAV<lambda_5d037afbfc54bf1ca80d3d1ee4062886>@@@Z 000000018004af3c f   libucrt:setlocale.obj
 0001:00049f7c       ??R<lambda_2116bde18c9e5f34230805ea4a4660ed>@@QEBAPEADXZ 000000018004af7c f   libucrt:setlocale.obj
 0001:0004af6c       memcpy_s                   000000018004bf6c f   libucrt:cfout.obj
 0001:0004af6c       memcpy_s                   000000018004bf6c f   libucrt:strtod.obj
 0001:0004b000       $$000000                   000000018004c000     libucrt:pow.obj
 0001:0004c6a0       $$000000                   000000018004d6a0     libucrt:powf.obj
 0001:0004dc58       ??$?RV<lambda_d80eeec6fff315bfe5c115232f3240e3>@@AEAV<lambda_6e4b09c48022b2350581041d5f6b0c4c>@@V<lambda_2358e3775559c9db80273638284d5e45>@@@?$__crt_seh_guarded_call@X@@QEAAX$$QEAV<lambda_d80eeec6fff315bfe5c115232f3240e3>@@AEAV<lambda_6e4b09c48022b2350581041d5f6b0c4c>@@$$QEAV<lambda_2358e3775559c9db80273638284d5e45>@@@Z 000000018004ec58 f   libucrt:exit.obj
 0001:0004dc90       ??R<lambda_6e4b09c48022b2350581041d5f6b0c4c>@@QEBA@XZ 000000018004ec90 f   libucrt:exit.obj
 0001:0004dd5c       ?common_exit@@YAXHW4_crt_exit_cleanup_mode@@W4_crt_exit_return_mode@@@Z 000000018004ed5c f   libucrt:exit.obj
 0001:0004de24       ?exit_or_terminate_process@@YAXI@Z 000000018004ee24 f   libucrt:exit.obj
 0001:0004de58       ?should_call_terminate_process@@YA_NXZ 000000018004ee58 f   libucrt:exit.obj
 0001:0004de88       ?try_cor_exit_process@@YAXI@Z 000000018004ee88 f   libucrt:exit.obj
 0001:0004df24       ??$parse_command_line@D@@YAXPEADPEAPEAD0PEA_K2@Z 000000018004ef24 f   libucrt:argv_parsing.obj
 0001:0004e2cc       ??$common_initialize_environment_nolock@D@@YAHXZ 000000018004f2cc f   libucrt:environment_initialization.obj
 0001:0004e340       ??$create_environment@D@@YAQEAPEADQEAD@Z 000000018004f340 f   libucrt:environment_initialization.obj
 0001:0004e450       ??$free_environment@D@@YAXQEAPEAD@Z 000000018004f450 f   libucrt:environment_initialization.obj
 0001:0004e450       ??$free_environment@_W@@YAXQEAPEA_W@Z 000000018004f450 f   libucrt:environment_initialization.obj
 0001:0004e494       ??$uninitialize_environment_internal@D@@YAXAEAPEAPEAD@Z 000000018004f494 f   libucrt:environment_initialization.obj
 0001:0004e4b0       ??$uninitialize_environment_internal@_W@@YAXAEAPEAPEA_W@Z 000000018004f4b0 f   libucrt:environment_initialization.obj
 0001:0004e518       ??$?RV<lambda_638799b9deba96c50f710eeac98168cd>@@AEAV<lambda_22ebabd17bc4fa466a2aca6d8deb888d>@@V<lambda_a6f7d7db0129f75315ebf26d50c089f1>@@@?$__crt_seh_guarded_call@H@@QEAAH$$QEAV<lambda_638799b9deba96c50f710eeac98168cd>@@AEAV<lambda_22ebabd17bc4fa466a2aca6d8deb888d>@@$$QEAV<lambda_a6f7d7db0129f75315ebf26d50c089f1>@@@Z 000000018004f518 f   libucrt:onexit.obj
 0001:0004e554       ??$?RV<lambda_7777bce6b2f8c936911f934f8298dc43>@@AEAV<lambda_f03950bc5685219e0bcd2087efbe011e>@@V<lambda_3883c3dff614d5e0c5f61bb1ac94921c>@@@?$__crt_seh_guarded_call@H@@QEAAH$$QEAV<lambda_7777bce6b2f8c936911f934f8298dc43>@@AEAV<lambda_f03950bc5685219e0bcd2087efbe011e>@@$$QEAV<lambda_3883c3dff614d5e0c5f61bb1ac94921c>@@@Z 000000018004f554 f   libucrt:onexit.obj
 0001:0004e590       ??R<lambda_22ebabd17bc4fa466a2aca6d8deb888d>@@QEBAHXZ 000000018004f590 f   libucrt:onexit.obj
 0001:0004e740       ??R<lambda_f03950bc5685219e0bcd2087efbe011e>@@QEBAHXZ 000000018004f740 f   libucrt:onexit.obj
 0001:0004e924       initialize_global_variables 000000018004f924 f   libucrt:initialization.obj
 0001:0004e938       initialize_c               000000018004f938 f   libucrt:initialization.obj
 0001:0004e95c       initialize_environment     000000018004f95c f   libucrt:initialization.obj
 0001:0004e95c       initialize_global_state_isolation 000000018004f95c f   libucrt:initialization.obj
 0001:0004e95c       report_memory_leaks        000000018004f95c f   libucrt:initialization.obj
 0001:0004e95c       uninitialize_c             000000018004f95c f   libucrt:initialization.obj
 0001:0004e95c       uninitialize_global_state_isolation 000000018004f95c f   libucrt:initialization.obj
 0001:0004e960       uninitialize_environment   000000018004f960 f   libucrt:initialization.obj
 0001:0004e970       initialize_pointers        000000018004f970 f   libucrt:initialization.obj
 0001:0004e9b0       uninitialize_vcruntime     000000018004f9b0 f   libucrt:initialization.obj
 0001:0004e9b8       uninitialize_allocated_memory 000000018004f9b8 f   libucrt:initialization.obj
 0001:0004e9f8       uninitialize_allocated_io_buffers 000000018004f9f8 f   libucrt:initialization.obj
 0001:0004f400       $$000000                   0000000180050400     libucrt:strncmp.obj
 0001:0004f5b4       ??$?RV<lambda_0ae27a3a962d80f24befdcbee591983d>@@AEAV<lambda_8d0ee55de4b1038c4002e0adecdf1839>@@V<lambda_dc504788e8f1664fe9b84e20bfb512f2>@@@?$__crt_seh_guarded_call@X@@QEAAX$$QEAV<lambda_0ae27a3a962d80f24befdcbee591983d>@@AEAV<lambda_8d0ee55de4b1038c4002e0adecdf1839>@@$$QEAV<lambda_dc504788e8f1664fe9b84e20bfb512f2>@@@Z 00000001800505b4 f   libucrt:per_thread_data.obj
 0001:0004f5f4       ??$?RV<lambda_2d41944a1d46af3157314b8a01080d33>@@AEAV<lambda_8f455de75cd7d7f24b4096f044d8b9e6>@@V<lambda_aa500f224e6afead328df44964fe2772>@@@?$__crt_seh_guarded_call@X@@QEAAX$$QEAV<lambda_2d41944a1d46af3157314b8a01080d33>@@AEAV<lambda_8f455de75cd7d7f24b4096f044d8b9e6>@@$$QEAV<lambda_aa500f224e6afead328df44964fe2772>@@@Z 00000001800505f4 f   libucrt:per_thread_data.obj
 0001:0004f634       ??$?RV<lambda_aa87e3671a710a21b5dc78c0bdf72e11>@@AEAV<lambda_92619d2358a28f41a33ba319515a20b9>@@V<lambda_6992ecaafeb10aed2b74cb1fae11a551>@@@?$__crt_seh_guarded_call@X@@QEAAX$$QEAV<lambda_aa87e3671a710a21b5dc78c0bdf72e11>@@AEAV<lambda_92619d2358a28f41a33ba319515a20b9>@@$$QEAV<lambda_6992ecaafeb10aed2b74cb1fae11a551>@@@Z 0000000180050634 f   libucrt:per_thread_data.obj
 0001:0004f67c       ??$?RV<lambda_f2e299630e499de9f9a165e60fcd3db5>@@AEAV<lambda_2ae9d31cdba2644fcbeaf08da7c24588>@@V<lambda_40d01ff24d0e7b3814fdbdcee8eab3c7>@@@?$__crt_seh_guarded_call@X@@QEAAX$$QEAV<lambda_f2e299630e499de9f9a165e60fcd3db5>@@AEAV<lambda_2ae9d31cdba2644fcbeaf08da7c24588>@@$$QEAV<lambda_40d01ff24d0e7b3814fdbdcee8eab3c7>@@@Z 000000018005067c f   libucrt:per_thread_data.obj
 0001:0004f6dc       ?construct_ptd_array@@YAXQEAU__acrt_ptd@@@Z 00000001800506dc f   libucrt:per_thread_data.obj
 0001:0004f7ac       ?destroy_fls@@YAXPEAX@Z    00000001800507ac f   libucrt:per_thread_data.obj
 0001:0004f7cc       ?destroy_ptd_array@@YAXQEAU__acrt_ptd@@@Z 00000001800507cc f   libucrt:per_thread_data.obj
 0001:0004f8c4       ?replace_current_thread_locale_nolock@@YAXQEAU__acrt_ptd@@QEAU__crt_locale_data@@@Z 00000001800508c4 f   libucrt:per_thread_data.obj
 0001:0004fda8       ??$?RV<lambda_1d892b297fdedeee07ed8124eeb2f2fa>@@AEAV<lambda_ffc046909424fd52df0ac47e64813305>@@V<lambda_01a7098693036236037e7cdb9bca3d73>@@@?$__crt_seh_guarded_call@X@@QEAAX$$QEAV<lambda_1d892b297fdedeee07ed8124eeb2f2fa>@@AEAV<lambda_ffc046909424fd52df0ac47e64813305>@@$$QEAV<lambda_01a7098693036236037e7cdb9bca3d73>@@@Z 0000000180050da8 f   libucrt:wsetlocale.obj
 0001:0004fee4       ??$?RV<lambda_410d79af7f07d98d83a3f525b3859a53>@@AEAV<lambda_3e16ef9562a7dcce91392c22ab16ea36>@@V<lambda_38119f0e861e05405d8a144b9b982f0a>@@@?$__crt_seh_guarded_call@X@@QEAAX$$QEAV<lambda_410d79af7f07d98d83a3f525b3859a53>@@AEAV<lambda_3e16ef9562a7dcce91392c22ab16ea36>@@$$QEAV<lambda_38119f0e861e05405d8a144b9b982f0a>@@@Z 0000000180050ee4 f   libucrt:wsetlocale.obj
 0001:0004ff54       ??$?RV<lambda_e9338f07fe435327d97d4ef86149e64d>@@AEAV<lambda_2a444430fde8c29194d880d93eed5e8f>@@AEAV<lambda_02db5278e8aef8b5e4976579d73f5304>@@@?$__crt_seh_guarded_call@X@@QEAAX$$QEAV<lambda_e9338f07fe435327d97d4ef86149e64d>@@AEAV<lambda_2a444430fde8c29194d880d93eed5e8f>@@AEAV<lambda_02db5278e8aef8b5e4976579d73f5304>@@@Z 0000000180050f54 f   libucrt:wsetlocale.obj
 0001:0004ff80       ??R<lambda_2a444430fde8c29194d880d93eed5e8f>@@QEBA@XZ 0000000180050f80 f   libucrt:wsetlocale.obj
 0001:00050354       _copytlocinfo_nolock       0000000180051354 f   libucrt:wsetlocale.obj
 0001:00050414       _expandlocale              0000000180051414 f   libucrt:wsetlocale.obj
 0001:000509a0       _wsetlocale_get_all        00000001800519a0 f   libucrt:wsetlocale.obj
 0001:00050b8c       _wsetlocale_nolock         0000000180051b8c f   libucrt:wsetlocale.obj
 0001:00050e1c       _wsetlocale_set_cat        0000000180051e1c f   libucrt:wsetlocale.obj
 0001:0005117c       parse_bcp47                000000018005217c f   libucrt:wsetlocale.obj
 0001:00051374       parse_bcp47_code_page      0000000180052374 f   libucrt:wsetlocale.obj
 0001:000513bc       parse_bcp47_language       00000001800523bc f   libucrt:wsetlocale.obj
 0001:00051448       parse_bcp47_region         0000000180052448 f   libucrt:wsetlocale.obj
 0001:0005153c       parse_bcp47_script         000000018005253c f   libucrt:wsetlocale.obj
 0001:000515cc       string_is_alpha            00000001800525cc f   libucrt:wsetlocale.obj
 0001:00051948       ?find_or_allocate_unused_stream_nolock@@YA?AV__crt_stdio_stream@@XZ 0000000180052948 f   libucrt:stream.obj
 0001:00051e48       ?initialize_inherited_file_handles_nolock@@YAXXZ 0000000180052e48 f   libucrt:ioinit.obj
 0001:00051f38       ?initialize_stdio_handles_nolock@@YAXXZ 0000000180052f38 f   libucrt:ioinit.obj
 0001:000520f8       ??$?RV<lambda_ad8af0d99a0adf03d037d7dffe354bb5>@@AEAV<lambda_c9ba49e555ba839a7b07aa3fbecb7617>@@V<lambda_2f1ebd5d68526518146ae959c9e734c8>@@@?$__crt_seh_guarded_call@H@@QEAAH$$QEAV<lambda_ad8af0d99a0adf03d037d7dffe354bb5>@@AEAV<lambda_c9ba49e555ba839a7b07aa3fbecb7617>@@$$QEAV<lambda_2f1ebd5d68526518146ae959c9e734c8>@@@Z 00000001800530f8 f   libucrt:close.obj
 0001:000523dc       ??$?RV<lambda_842d9ff0dc9ef11c61343bbaebe7f885>@@AEAV<lambda_c5860995281e5c4ce005b3de8f5874ee>@@V<lambda_d90129c13df834fdcbf8d2b88dafcf2d>@@@?$__crt_seh_guarded_call@X@@QEAAX$$QEAV<lambda_842d9ff0dc9ef11c61343bbaebe7f885>@@AEAV<lambda_c5860995281e5c4ce005b3de8f5874ee>@@$$QEAV<lambda_d90129c13df834fdcbf8d2b88dafcf2d>@@@Z 00000001800533dc f   libucrt:fflush.obj
 0001:00052478       ??$?RV<lambda_886d6c58226a84441f68b9f2b8217b83>@@AEAV<lambda_ab61a845afdef5b7c387490eaf3616ee>@@V<lambda_f7f22ab5edc0698d5f6905b0d3f44752>@@@?$__crt_seh_guarded_call@X@@QEAAX$$QEAV<lambda_886d6c58226a84441f68b9f2b8217b83>@@AEAV<lambda_ab61a845afdef5b7c387490eaf3616ee>@@$$QEAV<lambda_f7f22ab5edc0698d5f6905b0d3f44752>@@@Z 0000000180053478 f   libucrt:fflush.obj
 0001:00052558       ?common_flush_all@@YAH_N@Z 0000000180053558 f   libucrt:fflush.obj
 0001:000527fc       ?fp_format_a@@YAHQEBNPEAD_KQEAD2H_NIW4__acrt_rounding_mode@@AEAV__crt_cached_ptd_host@@@Z 00000001800537fc f   libucrt:cvt.obj
 0001:00052bb0       ?fp_format_e@@YAHQEBNQEAD_K12H_NIW4__acrt_rounding_mode@@AEAV__crt_cached_ptd_host@@@Z 0000000180053bb0 f   libucrt:cvt.obj
 0001:00052cac       ?fp_format_e_internal@@YAHQEAD_KH_NIQEAU_strflt@@2AEAV__crt_cached_ptd_host@@@Z 0000000180053cac f   libucrt:cvt.obj
 0001:00052e90       ?fp_format_f@@YAHQEBNQEAD_K12HW4__acrt_rounding_mode@@AEAV__crt_cached_ptd_host@@@Z 0000000180053e90 f   libucrt:cvt.obj
 0001:00052f68       ?fp_format_f_internal@@YAHQEAD_KHQEAU_strflt@@_NAEAV__crt_cached_ptd_host@@@Z 0000000180053f68 f   libucrt:cvt.obj
 0001:000530c0       ?fp_format_g@@YAHQEBNQEAD_K12H_NIW4__acrt_rounding_mode@@AEAV__crt_cached_ptd_host@@@Z 00000001800540c0 f   libucrt:cvt.obj
 0001:00053214       ?should_round_up@@YA_NQEBN_KFW4__acrt_rounding_mode@@@Z 0000000180054214 f   libucrt:cvt.obj
 0001:0005384c       ??$translate_text_mode_nolock@_W@@YAHHQEA_W_K@Z 000000018005484c f   libucrt:read.obj
 0001:00053a24       ?translate_ansi_or_utf8_nolock@@YAHHQEAD_KQEA_W1@Z 0000000180054a24 f   libucrt:read.obj
 0001:000543cc       ?<lambda_invoker_cdecl>@<lambda_795c6bd18aed400428efeb9a5f0e1479>@@CAHPEA_W@Z 00000001800553cc f   libucrt:winapi_thunks.obj
 0001:00054400       ??$?RV<lambda_48fc4a32460bb0512d3b13f8499328be>@@AEAV<lambda_6c3dac0a4f3f9cefca9bb494422f9b77>@@V<lambda_0a2f2c9f9a56eb2b08bfa6ff61d331c5>@@@?$__crt_seh_guarded_call@H@@QEAAH$$QEAV<lambda_48fc4a32460bb0512d3b13f8499328be>@@AEAV<lambda_6c3dac0a4f3f9cefca9bb494422f9b77>@@$$QEAV<lambda_0a2f2c9f9a56eb2b08bfa6ff61d331c5>@@@Z 0000000180055400 f   libucrt:winapi_thunks.obj
 0001:0005447c       ?try_get_function@@YAPEAXW4function_id@?A0x391cf84c@@QEBDQEBW4module_id@2@2@Z 000000018005547c f   libucrt:winapi_thunks.obj
 0001:00054e00       ?_mbstowcs_internal@@YAHPEA_KPEA_W_KPEBD2AEAV__crt_cached_ptd_host@@@Z 0000000180055e00 f   libucrt:mbstowcs.obj
 0001:00054f24       ?_mbstowcs_l_helper@@YA_KPEA_WPEBD_KAEAV__crt_cached_ptd_host@@@Z 0000000180055f24 f   libucrt:mbstowcs.obj
 0001:000551c8       ?_wcstombs_internal@@YAHPEA_KPEAD_KPEB_W2AEAV__crt_cached_ptd_host@@@Z 00000001800561c8 f   libucrt:wcstombs.obj
 0001:000552e8       ?_wcstombs_l_helper@@YA_KPEADPEB_W_KAEAV__crt_cached_ptd_host@@@Z 00000001800562e8 f   libucrt:wcstombs.obj
 0001:000556e0       ?InternalGetLocaleInfoA@@YAHQEAU__crt_locale_pointers@@QEB_WKQEADH@Z 00000001800566e0 f   libucrt:getlocaleinfoa.obj
 0001:00055bc8       ?__acrt_LCMapStringA_stat@@YAHPEAU__crt_locale_pointers@@PEB_WKPEBDHPEADHHH@Z 0000000180056bc8 f   libucrt:lcmapstringa.obj
 0001:000566f0       ??$?RV<lambda_450d765d439847d4c735a33c368b5fc0>@@AEAV<lambda_44731a7d0e6d81c3e6aa82d741081786>@@V<lambda_601a2a7da3b7a96e9554ac7215c4b07c>@@@?$__crt_seh_guarded_call@P6AXH@Z@@QEAAP6AXH@Z$$QEAV<lambda_450d765d439847d4c735a33c368b5fc0>@@AEAV<lambda_44731a7d0e6d81c3e6aa82d741081786>@@$$QEAV<lambda_601a2a7da3b7a96e9554ac7215c4b07c>@@@Z 00000001800576f0 f   libucrt:signal.obj
 0001:00056ba0       ?<lambda_invoker_cdecl>@<lambda_a1ce4c8ae42411fd470c77163914f50e>@@CAHPEBX0@Z 0000000180057ba0 f   libucrt:argv_wildcards.obj
 0001:00056d40       ??$common_expand_argv_wildcards@D@@YAHQEAPEADQEAPEAPEAD@Z 0000000180057d40 f   libucrt:argv_wildcards.obj
 0001:00056f84       ??$copy_and_add_argument_to_buffer@D@@YAHQEBD0_KAEAV?$argument_list@D@?A0x5f5c8891@@@Z 0000000180057f84 f   libucrt:argv_wildcards.obj
 0001:0005710c       ??$expand_argument_wildcards@D@@YAHQEAD0AEAV?$argument_list@D@?A0x5f5c8891@@@Z 000000018005810c f   libucrt:argv_wildcards.obj
 0001:00057588       ??$?RV<lambda_efdfa57d1f175319df784efa44bb7b81>@@AEAV<lambda_5f0a4c1567f8adc6734073e5d1e1b35c>@@V<lambda_2e8a7d3640ea6ccb4c2413664c2db6fd>@@@?$__crt_seh_guarded_call@X@@QEAAX$$QEAV<lambda_efdfa57d1f175319df784efa44bb7b81>@@AEAV<lambda_5f0a4c1567f8adc6734073e5d1e1b35c>@@$$QEAV<lambda_2e8a7d3640ea6ccb4c2413664c2db6fd>@@@Z 0000000180058588 f   libucrt:mbctype.obj
 0001:00057758       ?getSystemCP@@YAHH@Z       0000000180058758 f   libucrt:mbctype.obj
 0001:000577d8       ?setSBCS@@YAXPEAU__crt_multibyte_data@@@Z 00000001800587d8 f   libucrt:mbctype.obj
 0001:00057870       ?setSBUpLow@@YAXPEAU__crt_multibyte_data@@@Z 0000000180058870 f   libucrt:mbctype.obj
 0001:00057a58       ?setmbcp_internal@@YAHH_NQEAU__acrt_ptd@@QEAPEAU__crt_multibyte_data@@@Z 0000000180058a58 f   libucrt:mbctype.obj
 0001:00057cc8       ?update_thread_multibyte_data_internal@@YAPEAU__crt_multibyte_data@@QEAU__acrt_ptd@@QEAPEAU1@@Z 0000000180058cc8 f   libucrt:mbctype.obj
 0001:000580bc       ?x_ismbbtype_l@@YAHPEAU__crt_locale_pointers@@IHH@Z 00000001800590bc f   libucrt:ismbbyte.obj
 0001:0005929c       ?free_crt_array_internal@@YAXQEAPEBX_K@Z 000000018005a29c f   libucrt:inittime.obj
 0001:000592d0       ?initialize_lc_time@@YA_NQEAU__crt_lc_time_data@@QEAU__crt_locale_data@@@Z 000000018005a2d0 f   libucrt:inittime.obj
 0001:00059a28       GetLocaleNameFromDefault   000000018005aa28 f   libucrt:get_qualified_locale.obj
 0001:00059ad0       GetLocaleNameFromLangCountry 000000018005aad0 f   libucrt:get_qualified_locale.obj
 0001:00059ba0       GetLocaleNameFromLanguage  000000018005aba0 f   libucrt:get_qualified_locale.obj
 0001:00059c38       LangCountryEnumProcEx      000000018005ac38 f   libucrt:get_qualified_locale.obj
 0001:00059f24       LanguageEnumProcEx         000000018005af24 f   libucrt:get_qualified_locale.obj
 0001:0005a010       ProcessCodePage            000000018005b010 f   libucrt:get_qualified_locale.obj
 0001:0005a0dc       TestDefaultCountry         000000018005b0dc f   libucrt:get_qualified_locale.obj
 0001:0005a140       TranslateName              000000018005b140 f   libucrt:get_qualified_locale.obj
 0001:0005a440       CountryEnumProc            000000018005b440 f   libucrt:getqloc_downlevel.obj
 0001:0005a528       GetLcidFromLangCountry     000000018005b528 f   libucrt:getqloc_downlevel.obj
 0001:0005a5f8       GetLcidFromLanguage        000000018005b5f8 f   libucrt:getqloc_downlevel.obj
 0001:0005a690       LangCountryEnumProc        000000018005b690 f   libucrt:getqloc_downlevel.obj
 0001:0005a8dc       LanguageEnumProc           000000018005b8dc f   libucrt:getqloc_downlevel.obj
 0001:0005a9e4       LcidFromHexString          000000018005b9e4 f   libucrt:getqloc_downlevel.obj
 0001:0005aa34       ProcessCodePage            000000018005ba34 f   libucrt:getqloc_downlevel.obj
 0001:0005aae4       TestDefaultLanguage        000000018005bae4 f   libucrt:getqloc_downlevel.obj
 0001:0005ab90       TranslateName              000000018005bb90 f   libucrt:getqloc_downlevel.obj
 0001:0005b128       ??$common_sopen_dispatch@_W@@YAHQEB_WHHHQEAHH@Z 000000018005c128 f   libucrt:open.obj
 0001:0005b1ec       ?configure_text_mode@@YAHHUfile_options@?A0xa9d50aae@@HAEAW4__crt_lowio_text_mode@@@Z 000000018005c1ec f   libucrt:open.obj
 0001:0005b464       ?decode_options@@YA?AUfile_options@?A0xa9d50aae@@HHH@Z 000000018005c464 f   libucrt:open.obj
 0001:0005b670       ?truncate_ctrl_z_if_present@@YAHH@Z 000000018005c670 f   libucrt:open.obj
 0001:0005c07c       ??$?RV<lambda_a37b2b86f63e897a80ea819b0eb08c01>@@AEAV<lambda_38ce7e780aa69e748d6df282ebc68efe>@@V<lambda_99fb1378e971ab6e7edea83e3a7a83a2>@@@?$__crt_seh_guarded_call@H@@QEAAH$$QEAV<lambda_a37b2b86f63e897a80ea819b0eb08c01>@@AEAV<lambda_38ce7e780aa69e748d6df282ebc68efe>@@$$QEAV<lambda_99fb1378e971ab6e7edea83e3a7a83a2>@@@Z 000000018005d07c f   libucrt:commit.obj
 0001:0005c19c       ?write_double_translated_ansi_nolock@@YA?AUwrite_result@?A0x17268360@@HQEBDIAEAV__crt_cached_ptd_host@@@Z 000000018005d19c f   libucrt:write.obj
 0001:0005c628       ?write_text_ansi_nolock@@YA?AUwrite_result@?A0x17268360@@HQEBDI@Z 000000018005d628 f   libucrt:write.obj
 0001:0005c72c       ?write_text_utf16le_nolock@@YA?AUwrite_result@?A0x17268360@@HQEBDI@Z 000000018005d72c f   libucrt:write.obj
 0001:0005c848       ?write_text_utf8_nolock@@YA?AUwrite_result@?A0x17268360@@HQEBDI@Z 000000018005d848 f   libucrt:write.obj
 0001:0005e548       ??$common_lseek_nolock@_J@@YA_JH_JHAEAV__crt_cached_ptd_host@@@Z 000000018005f548 f   libucrt:lseek.obj
 0001:0005eae0       $$000000                   000000018005fae0     libucrt:fpsr.obj
 0001:0005ee38       _call_matherr              000000018005fe38 f   libucrt:libm_error.obj
 0001:0005eea0       _exception_enabled         000000018005fea0 f   libucrt:libm_error.obj
 0001:0005f600       fallbackMethod             0000000180060600 f   libucrt:strpbrk.obj
 0001:0005f9ac       $LN78                      00000001800609ac     libucrt:strpbrk.obj
 0001:0005f9e8       $LN77                      00000001800609e8     libucrt:strpbrk.obj
 0001:0005fa28       $LN76                      0000000180060a28     libucrt:strpbrk.obj
 0001:0005fb04       ?initialize_multibyte@@YAHXZ 0000000180060b04 f   libucrt:multibyte_initializer.obj
 0001:0005fb1c       ??$common_xtox@K_W@@YAHKQEA_W_KI_N@Z 0000000180060b1c f   libucrt:xtoa.obj
 0001:0005fbf0       ??$common_xtox_s@K_W@@YAHKQEA_W_KI_N@Z 0000000180060bf0 f   libucrt:xtoa.obj
 0001:00060220       $$000000                   0000000180061220     libucrt:log10.obj
 0001:00060c2c       common_control87           0000000180061c2c f   libucrt:ieee.obj
 0001:00060f10       _log_special_common        0000000180061f10 f   libucrt:log_special.obj
 0001:00061380       $$000000                   0000000180062380     LIBCMT:guard_dispatch.obj
 0001:000613a0       $$000000                   00000001800623a0     LIBCMT:guard_xfg_dispatch.obj
 0001:000613c0       ?dtor$0@?0???__ESupportedHashes@@YAXXZ@4HA 00000001800623c0 f   hashing.obj
 0001:000613cc       ?dtor$2@?0???__ESupportedHashes@@YAXXZ@4HA 00000001800623cc f   hashing.obj
 0001:000613d8       ?dtor$3@?0???__ESupportedHashes@@YAXXZ@4HA 00000001800623d8 f   hashing.obj
 0001:000613e4       ?dtor$5@?0???__ESupportedHashes@@YAXXZ@4HA 00000001800623e4 f   hashing.obj
 0001:000613f4       ?dtor$6@?0???__ESupportedHashes@@YAXXZ@4HA 00000001800623f4 f   hashing.obj
 0001:00061400       ?dtor$8@?0???__ESupportedHashes@@YAXXZ@4HA 0000000180062400 f   hashing.obj
 0001:00061413       ?dtor$9@?0???__ESupportedHashes@@YAXXZ@4HA 0000000180062413 f   hashing.obj
 0001:0006141f       ?dtor$11@?0???__ESupportedHashes@@YAXXZ@4HA 000000018006241f f   hashing.obj
 0001:00061432       ?dtor$12@?0???__ESupportedHashes@@YAXXZ@4HA 0000000180062432 f   hashing.obj
 0001:0006143e       ?dtor$14@?0???__ESupportedHashes@@YAXXZ@4HA 000000018006243e f   hashing.obj
 0001:00061451       ?dtor$15@?0???__ESupportedHashes@@YAXXZ@4HA 0000000180062451 f   hashing.obj
 0001:0006145d       ?dtor$17@?0???__ESupportedHashes@@YAXXZ@4HA 000000018006245d f   hashing.obj
 0001:00061470       ?dtor$18@?0???__ESupportedHashes@@YAXXZ@4HA 0000000180062470 f   hashing.obj
 0001:00061480       ?dtor$0@?0??SetFileHash@HashList@@QEAAXAEBV?$basic_string@_WU?$char_traits@_W@std@@V?$allocator@_W@2@@std@@V?$basic_string@DU?$char_traits@D@std@@V?$allocator@D@2@@3@W4rhash_ids@@@Z@4HA 0000000180062480 f   hashing.obj
 0001:0006148c       ?dtor$1@?0??SetFileHash@HashList@@QEAAXAEBV?$basic_string@_WU?$char_traits@_W@std@@V?$allocator@_W@2@@std@@V?$basic_string@DU?$char_traits@D@std@@V?$allocator@D@2@@3@W4rhash_ids@@@Z@4HA 000000018006248c f   hashing.obj
 0001:00061498       ?dtor$9@?0??SetFileHash@HashList@@QEAAXAEBV?$basic_string@_WU?$char_traits@_W@std@@V?$allocator@_W@2@@std@@V?$basic_string@DU?$char_traits@D@std@@V?$allocator@D@2@@3@W4rhash_ids@@@Z@4HA 0000000180062498 f   hashing.obj
 0001:000614b0       ?dtor$2@?0??SaveHashesToFile@HashList@@AEAA_NAEBV?$basic_string@_WU?$char_traits@_W@std@@V?$allocator@_W@2@@std@@AEAV?$vector@UFileHashInfo@@V?$allocator@UFileHashInfo@@@std@@@3@I_N@Z@4HA 00000001800624b0 f   hashing.obj
 0001:000614dd       ?dtor$3@?0??SaveHashesToFile@HashList@@AEAA_NAEBV?$basic_string@_WU?$char_traits@_W@std@@V?$allocator@_W@2@@std@@AEAV?$vector@UFileHashInfo@@V?$allocator@UFileHashInfo@@@std@@@3@I_N@Z@4HA 00000001800624dd f   hashing.obj
 0001:000614ed       ?dtor$0@?0??SaveHashesToFile@HashList@@AEAA_NAEBV?$basic_string@_WU?$char_traits@_W@std@@V?$allocator@_W@2@@std@@AEAV?$vector@UFileHashInfo@@V?$allocator@UFileHashInfo@@@std@@@3@I_N@Z@4HA 00000001800624ed f   hashing.obj
 0001:000614f9       ?dtor$8@?0??SaveHashesToFile@HashList@@AEAA_NAEBV?$basic_string@_WU?$char_traits@_W@std@@V?$allocator@_W@2@@std@@AEAV?$vector@UFileHashInfo@@V?$allocator@UFileHashInfo@@@std@@@3@I_N@Z@4HA 00000001800624f9 f   hashing.obj
 0001:00061530       ?dtor$0@?0??SaveList@HashList@@QEAA_NPEB_WI@Z@4HA 0000000180062530 f   hashing.obj
 0001:00061540       ?dtor$0@?0??SaveListSeparate@HashList@@QEAA_NPEB_WIAEAH1@Z@4HA 0000000180062540 f   hashing.obj
 0001:0006154c       ?dtor$1@?0??SaveListSeparate@HashList@@QEAA_NPEB_WIAEAH1@Z@4HA 000000018006254c f   hashing.obj
 0001:00061558       ?dtor$2@?0??SaveListSeparate@HashList@@QEAA_NPEB_WIAEAH1@Z@4HA 0000000180062558 f   hashing.obj
 0001:00061564       ?dtor$16@?0??SaveListSeparate@HashList@@QEAA_NPEB_WIAEAH1@Z@4HA 0000000180062564 f   hashing.obj
 0001:00061570       ?dtor$4@?0??SaveListSeparate@HashList@@QEAA_NPEB_WIAEAH1@Z@4HA 0000000180062570 f   hashing.obj
 0001:0006159d       ?dtor$18@?0??SaveListSeparate@HashList@@QEAA_NPEB_WIAEAH1@Z@4HA 000000018006259d f   hashing.obj
 0001:000615a9       ?dtor$19@?0??SaveListSeparate@HashList@@QEAA_NPEB_WIAEAH1@Z@4HA 00000001800625a9 f   hashing.obj
 0001:000615b5       ?dtor$20@?0??SaveListSeparate@HashList@@QEAA_NPEB_WIAEAH1@Z@4HA 00000001800625b5 f   hashing.obj
 0001:000615c1       ?dtor$5@?0??SaveListSeparate@HashList@@QEAA_NPEB_WIAEAH1@Z@4HA 00000001800625c1 f   hashing.obj
 0001:000615d0       ?dtor$0@?0??SaveListEachDir@HashList@@QEAA_NPEB_WIAEAH1@Z@4HA 00000001800625d0 f   hashing.obj
 0001:000615dc       ?dtor$1@?0??SaveListEachDir@HashList@@QEAA_NPEB_WIAEAH1@Z@4HA 00000001800625dc f   hashing.obj
 0001:00061605       ?dtor$3@?0??SaveListEachDir@HashList@@QEAA_NPEB_WIAEAH1@Z@4HA 0000000180062605 f   hashing.obj
 0001:00061611       ?dtor$4@?0??SaveListEachDir@HashList@@QEAA_NPEB_WIAEAH1@Z@4HA 0000000180062611 f   hashing.obj
 0001:0006161d       ?dtor$5@?0??SaveListEachDir@HashList@@QEAA_NPEB_WIAEAH1@Z@4HA 000000018006261d f   hashing.obj
 0001:00061629       ?dtor$6@?0??SaveListEachDir@HashList@@QEAA_NPEB_WIAEAH1@Z@4HA 0000000180062629 f   hashing.obj
 0001:00061635       ?dtor$7@?0??SaveListEachDir@HashList@@QEAA_NPEB_WIAEAH1@Z@4HA 0000000180062635 f   hashing.obj
 0001:00061641       ?dtor$34@?0??SaveListEachDir@HashList@@QEAA_NPEB_WIAEAH1@Z@4HA 0000000180062641 f   hashing.obj
 0001:0006164d       ?dtor$8@?0??SaveListEachDir@HashList@@QEAA_NPEB_WIAEAH1@Z@4HA 000000018006264d f   hashing.obj
 0001:00061659       ?dtor$38@?0??SaveListEachDir@HashList@@QEAA_NPEB_WIAEAH1@Z@4HA 0000000180062659 f   hashing.obj
 0001:00061665       ?dtor$39@?0??SaveListEachDir@HashList@@QEAA_NPEB_WIAEAH1@Z@4HA 0000000180062665 f   hashing.obj
 0001:00061671       ?dtor$40@?0??SaveListEachDir@HashList@@QEAA_NPEB_WIAEAH1@Z@4HA 0000000180062671 f   hashing.obj
 0001:0006167d       ?dtor$9@?0??SaveListEachDir@HashList@@QEAA_NPEB_WIAEAH1@Z@4HA 000000018006267d f   hashing.obj
 0001:00061690       ?dtor$0@?0??LoadList@HashList@@QEAA_NPEB_WI_N@Z@4HA 0000000180062690 f   hashing.obj
 0001:0006169c       ?dtor$1@?0??LoadList@HashList@@QEAA_NPEB_WI_N@Z@4HA 000000018006269c f   hashing.obj
 0001:000616a8       ?dtor$9@?0??LoadList@HashList@@QEAA_NPEB_WI_N@Z@4HA 00000001800626a8 f   hashing.obj
 0001:000616c0       ?dtor$0@?0??DetectFormat@HashList@@AEAA_NPEBDIPEB_WAEAHAEAW4HashListFormat@@@Z@4HA 00000001800626c0 f   hashing.obj
 0001:000616cc       ?dtor$1@?0??DetectFormat@HashList@@AEAA_NPEBDIPEB_WAEAHAEAW4HashListFormat@@@Z@4HA 00000001800626cc f   hashing.obj
 0001:000616d8       ?dtor$2@?0??DetectFormat@HashList@@AEAA_NPEBDIPEB_WAEAHAEAW4HashListFormat@@@Z@4HA 00000001800626d8 f   hashing.obj
 0001:000616f0       ?dtor$0@?0??TryParseBSD@HashList@@AEAA_NPEBDIAEAUFileHashInfo@@@Z@4HA 00000001800626f0 f   hashing.obj
 0001:000616fc       ?dtor$1@?0??TryParseBSD@HashList@@AEAA_NPEBDIAEAUFileHashInfo@@@Z@4HA 00000001800626fc f   hashing.obj
 0001:00061708       ?dtor$2@?0??TryParseBSD@HashList@@AEAA_NPEBDIAEAUFileHashInfo@@@Z@4HA 0000000180062708 f   hashing.obj
 0001:00061714       ?dtor$3@?0??TryParseBSD@HashList@@AEAA_NPEBDIAEAUFileHashInfo@@@Z@4HA 0000000180062714 f   hashing.obj
 0001:00061720       ?dtor$0@?0??TryParseSfv@HashList@@AEAA_NPEBDIHAEAUFileHashInfo@@@Z@4HA 0000000180062720 f   hashing.obj
 0001:00061720       ?dtor$0@?0??TryParseSimple@HashList@@AEAA_NPEBDIHAEAUFileHashInfo@@@Z@4HA 0000000180062720 f   hashing.obj
 0001:0006172c       ?dtor$1@?0??TryParseSfv@HashList@@AEAA_NPEBDIHAEAUFileHashInfo@@@Z@4HA 000000018006272c f   hashing.obj
 0001:0006172c       ?dtor$1@?0??TryParseSimple@HashList@@AEAA_NPEBDIHAEAUFileHashInfo@@@Z@4HA 000000018006272c f   hashing.obj
 0001:00061738       ?dtor$2@?0??TryParseSfv@HashList@@AEAA_NPEBDIHAEAUFileHashInfo@@@Z@4HA 0000000180062738 f   hashing.obj
 0001:00061738       ?dtor$2@?0??TryParseSimple@HashList@@AEAA_NPEBDIHAEAUFileHashInfo@@@Z@4HA 0000000180062738 f   hashing.obj
 0001:00061744       ?dtor$3@?0??TryParseSfv@HashList@@AEAA_NPEBDIHAEAUFileHashInfo@@@Z@4HA 0000000180062744 f   hashing.obj
 0001:00061744       ?dtor$3@?0??TryParseSimple@HashList@@AEAA_NPEBDIHAEAUFileHashInfo@@@Z@4HA 0000000180062744 f   hashing.obj
 0001:00061750       ?dtor$11@?0??TryParseSfv@HashList@@AEAA_NPEBDIHAEAUFileHashInfo@@@Z@4HA 0000000180062750 f   hashing.obj
 0001:00061750       ?dtor$11@?0??TryParseSimple@HashList@@AEAA_NPEBDIHAEAUFileHashInfo@@@Z@4HA 0000000180062750 f   hashing.obj
 0001:00061760       ?dtor$0@?0??ToString@FileHashInfo@@QEBA?AV?$basic_string@_WU?$char_traits@_W@std@@V?$allocator@_W@2@@std@@XZ@4HA 0000000180062760 f   hashing.obj
 0001:0006176c       ?dtor$1@?0??ToString@FileHashInfo@@QEBA?AV?$basic_string@_WU?$char_traits@_W@std@@V?$allocator@_W@2@@std@@XZ@4HA 000000018006276c f   hashing.obj
 0001:00061778       ?dtor$2@?0??ToString@FileHashInfo@@QEBA?AV?$basic_string@_WU?$char_traits@_W@std@@V?$allocator@_W@2@@std@@XZ@4HA 0000000180062778 f   hashing.obj
 0001:00061784       ?dtor$7@?0??ToString@FileHashInfo@@QEBA?AV?$basic_string@_WU?$char_traits@_W@std@@V?$allocator@_W@2@@std@@XZ@4HA 0000000180062784 f   hashing.obj
 0001:000617b0       ?dtor$0@?0??GenerateHash@@YA?AW4GenResult@@AEBV?$basic_string@_WU?$char_traits@_W@std@@V?$allocator@_W@2@@std@@V?$vector@W4rhash_ids@@V?$allocator@W4rhash_ids@@@std@@@3@AEAV?$vector@V?$basic_string@DU?$char_traits@D@std@@V?$allocator@D@2@@std@@V?$allocator@V?$basic_string@DU?$char_traits@D@std@@V?$allocator@D@2@@std@@@2@@3@_NP6A_NPEAX_J@Z4@Z@4HA 00000001800627b0 f   hashing.obj
 0001:000617bc       ?dtor$1@?0??GenerateHash@@YA?AW4GenResult@@AEBV?$basic_string@_WU?$char_traits@_W@std@@V?$allocator@_W@2@@std@@V?$vector@W4rhash_ids@@V?$allocator@W4rhash_ids@@@std@@@3@AEAV?$vector@V?$basic_string@DU?$char_traits@D@std@@V?$allocator@D@2@@std@@V?$allocator@V?$basic_string@DU?$char_traits@D@std@@V?$allocator@D@2@@std@@@2@@3@_NP6A_NPEAX_J@Z4@Z@4HA 00000001800627bc f   hashing.obj
 0001:000617c8       ?dtor$2@?0??GenerateHash@@YA?AW4GenResult@@AEBV?$basic_string@_WU?$char_traits@_W@std@@V?$allocator@_W@2@@std@@V?$vector@W4rhash_ids@@V?$allocator@W4rhash_ids@@@std@@@3@AEAV?$vector@V?$basic_string@DU?$char_traits@D@std@@V?$allocator@D@2@@std@@V?$allocator@V?$basic_string@DU?$char_traits@D@std@@V?$allocator@D@2@@std@@@2@@3@_NP6A_NPEAX_J@Z4@Z@4HA 00000001800627c8 f   hashing.obj
 0001:000617e0       ?dtor$0@?0??GenerateHash@@YA?AW4GenResult@@AEBV?$basic_string@_WU?$char_traits@_W@std@@V?$allocator@_W@2@@std@@W4rhash_ids@@AEAV?$basic_string@DU?$char_traits@D@std@@V?$allocator@D@2@@3@_NP6A_NPEAX_J@Z4@Z@4HA 00000001800627e0 f   hashing.obj
 0001:000617ec       ?dtor$1@?0??GenerateHash@@YA?AW4GenResult@@AEBV?$basic_string@_WU?$char_traits@_W@std@@V?$allocator@_W@2@@std@@W4rhash_ids@@AEAV?$basic_string@DU?$char_traits@D@std@@V?$allocator@D@2@@3@_NP6A_NPEAX_J@Z4@Z@4HA 00000001800627ec f   hashing.obj
 0001:00061800       ?dtor$0@?0??DetectHashAlgo@@YA?AV?$vector@HV?$allocator@H@std@@@std@@AEBV?$basic_string@DU?$char_traits@D@std@@V?$allocator@D@2@@2@@Z@4HA 0000000180062800 f   hashing.obj
 0001:00061830       ?dtor$0@?0???0?$basic_stringstream@_WU?$char_traits@_W@std@@V?$allocator@_W@2@@std@@QEAA@XZ@4HA 0000000180062830 f   hashing.obj
 0001:0006185d       ?dtor$1@?0???0?$basic_stringstream@_WU?$char_traits@_W@std@@V?$allocator@_W@2@@std@@QEAA@XZ@4HA 000000018006285d f   hashing.obj
 0001:00061870       ?dtor$2@?0???0?$basic_regex@DV?$regex_traits@D@std@@@std@@QEAA@PEBDW4syntax_option_type@regex_constants@1@@Z@4HA 0000000180062870 f   hashing.obj
 0001:00061880       ?dtor$4@?0???0?$basic_regex@DV?$regex_traits@D@std@@@std@@QEAA@PEBDW4syntax_option_type@regex_constants@1@@Z@4HA 0000000180062880 f   hashing.obj
 0001:0006188c       ?dtor$5@?0???0?$basic_regex@DV?$regex_traits@D@std@@@std@@QEAA@PEBDW4syntax_option_type@regex_constants@1@@Z@4HA 000000018006288c f   hashing.obj
 0001:00061898       ?dtor$0@?0???0?$basic_regex@DV?$regex_traits@D@std@@@std@@QEAA@PEBDW4syntax_option_type@regex_constants@1@@Z@4HA 0000000180062898 f   hashing.obj
 0001:000618b0       ?dtor$5@?0???0?$basic_iostream@_WU?$char_traits@_W@std@@@std@@QEAA@PEAV?$basic_streambuf@_WU?$char_traits@_W@std@@@1@@Z@4HA 00000001800628b0 f   hashing.obj
 0001:000618bc       ?dtor$1@?0???0?$basic_iostream@_WU?$char_traits@_W@std@@@std@@QEAA@PEAV?$basic_streambuf@_WU?$char_traits@_W@std@@@1@@Z@4HA 00000001800628bc f   hashing.obj
 0001:000618d0       ?dtor$5@?0???0?$basic_iostream@DU?$char_traits@D@std@@@std@@QEAA@PEAV?$basic_streambuf@DU?$char_traits@D@std@@@1@@Z@4HA 00000001800628d0 f   hashing.obj
 0001:000618dc       ?dtor$1@?0???0?$basic_iostream@DU?$char_traits@D@std@@@std@@QEAA@PEAV?$basic_streambuf@DU?$char_traits@D@std@@@1@@Z@4HA 00000001800628dc f   hashing.obj
 0001:000618f0       ?dtor$1@?0???$?6U?$char_traits@D@std@@@std@@YAAEAV?$basic_ostream@DU?$char_traits@D@std@@@0@AEAV10@PEBD@Z@4HA 00000001800628f0 f   hashing.obj
 0001:000618f0       ?dtor$1@?0???$_Insert_string@DU?$char_traits@D@std@@_K@std@@YAAEAV?$basic_ostream@DU?$char_traits@D@std@@@0@AEAV10@QEBD_K@Z@4HA 00000001800628f0 f   hashing.obj
 0001:000618fc       ?dtor$0@?0???$?6U?$char_traits@D@std@@@std@@YAAEAV?$basic_ostream@DU?$char_traits@D@std@@@0@AEAV10@PEBD@Z@4HA 00000001800628fc f   hashing.obj
 0001:000618fc       ?dtor$0@?0???$_Insert_string@DU?$char_traits@D@std@@_K@std@@YAAEAV?$basic_ostream@DU?$char_traits@D@std@@@0@AEAV10@QEBD_K@Z@4HA 00000001800628fc f   hashing.obj
 0001:00061908       ?catch$4@?0???$?6U?$char_traits@D@std@@@std@@YAAEAV?$basic_ostream@DU?$char_traits@D@std@@@0@AEAV10@PEBD@Z@4HA 0000000180062908 f   hashing.obj
 0001:00061908       ?catch$4@?0???$_Insert_string@DU?$char_traits@D@std@@_K@std@@YAAEAV?$basic_ostream@DU?$char_traits@D@std@@@0@AEAV10@QEBD_K@Z@4HA 0000000180062908 f   hashing.obj
 0001:00061915       __catch$??$?6U?$char_traits@D@std@@@std@@YAAEAV?$basic_ostream@DU?$char_traits@D@std@@@0@AEAV10@PEBD@Z$0 0000000180062915 f   hashing.obj
 0001:00061915       __catch$??$_Insert_string@DU?$char_traits@D@std@@_K@std@@YAAEAV?$basic_ostream@DU?$char_traits@D@std@@@0@AEAV10@QEBD_K@Z$0 0000000180062915 f   hashing.obj
 0001:00061960       ?dtor$0@?0???$endl@DU?$char_traits@D@std@@@std@@YAAEAV?$basic_ostream@DU?$char_traits@D@std@@@0@AEAV10@@Z@4HA 0000000180062960 f   hashing.obj
 0001:00061970       ?dtor$0@?0???$?6_WU?$char_traits@_W@std@@@std@@YAAEAV?$basic_ostream@_WU?$char_traits@_W@std@@@0@AEAV10@PEB_W@Z@4HA 0000000180062970 f   hashing.obj
 0001:00061970       ?dtor$0@?0???$_Insert_string@_WU?$char_traits@_W@std@@_K@std@@YAAEAV?$basic_ostream@_WU?$char_traits@_W@std@@@0@AEAV10@QEB_W_K@Z@4HA 0000000180062970 f   hashing.obj
 0001:0006197c       ?catch$3@?0???$?6_WU?$char_traits@_W@std@@@std@@YAAEAV?$basic_ostream@_WU?$char_traits@_W@std@@@0@AEAV10@PEB_W@Z@4HA 000000018006297c f   hashing.obj
 0001:0006197c       ?catch$3@?0???$_Insert_string@_WU?$char_traits@_W@std@@_K@std@@YAAEAV?$basic_ostream@_WU?$char_traits@_W@std@@@0@AEAV10@QEB_W_K@Z@4HA 000000018006297c f   hashing.obj
 0001:00061989       __catch$??$?6_WU?$char_traits@_W@std@@@std@@YAAEAV?$basic_ostream@_WU?$char_traits@_W@std@@@0@AEAV10@PEB_W@Z$0 0000000180062989 f   hashing.obj
 0001:00061989       __catch$??$_Insert_string@_WU?$char_traits@_W@std@@_K@std@@YAAEAV?$basic_ostream@_WU?$char_traits@_W@std@@@0@AEAV10@QEB_W_K@Z$0 0000000180062989 f   hashing.obj
 0001:000619d0       ?dtor$2@?0???$_Reset@PEBD@?$basic_regex@DV?$regex_traits@D@std@@@std@@AEAAXPEBD0W4syntax_option_type@regex_constants@1@Uforward_iterator_tag@1@@Z@4HA 00000001800629d0 f   hashing.obj
 0001:000619dc       ?dtor$1@?0???$_Reset@PEBD@?$basic_regex@DV?$regex_traits@D@std@@@std@@AEAAXPEBD0W4syntax_option_type@regex_constants@1@Uforward_iterator_tag@1@@Z@4HA 00000001800629dc f   hashing.obj
 0001:000619ec       ?dtor$0@?0???$_Reset@PEBD@?$basic_regex@DV?$regex_traits@D@std@@@std@@AEAAXPEBD0W4syntax_option_type@regex_constants@1@Uforward_iterator_tag@1@@Z@4HA 00000001800629ec f   hashing.obj
 0001:000619f8       ?dtor$6@?0???$_Reset@PEBD@?$basic_regex@DV?$regex_traits@D@std@@@std@@AEAAXPEBD0W4syntax_option_type@regex_constants@1@Uforward_iterator_tag@1@@Z@4HA 00000001800629f8 f   hashing.obj
 0001:00061a10       ?dtor$2@?0???$_Try_emplace@AEBV?$basic_string@_WU?$char_traits@_W@std@@V?$allocator@_W@2@@std@@$$V@?$map@V?$basic_string@_WU?$char_traits@_W@std@@V?$allocator@_W@2@@std@@V?$vector@UFileHashInfo@@V?$allocator@UFileHashInfo@@@std@@@2@U?$less@V?$basic_string@_WU?$char_traits@_W@std@@V?$allocator@_W@2@@std@@@2@V?$allocator@U?$pair@$$CBV?$basic_string@_WU?$char_traits@_W@std@@V?$allocator@_W@2@@std@@V?$vector@UFileHashInfo@@V?$allocator@UFileHashInfo@@@std@@@2@@std@@@2@@std@@AEAA?AU?$pair@PEAU?$_Tree_node@U?$pair@$$CBV?$basic_string@_WU?$char_traits@_W@std@@V?$allocator@_W@2@@std@@V?$vector@UFileHashInfo@@V?$allocator@UFileHashInfo@@@std@@@2@@std@@PEAX@std@@_N@1@AEBV?$basic_string@_WU?$char_traits@_W@std@@V?$allocator@_W@2@@1@@Z@4HA 0000000180062a10 f   hashing.obj
 0001:00061a1c       ?dtor$1@?0???$_Try_emplace@AEBV?$basic_string@_WU?$char_traits@_W@std@@V?$allocator@_W@2@@std@@$$V@?$map@V?$basic_string@_WU?$char_traits@_W@std@@V?$allocator@_W@2@@std@@V?$vector@UFileHashInfo@@V?$allocator@UFileHashInfo@@@std@@@2@U?$less@V?$basic_string@_WU?$char_traits@_W@std@@V?$allocator@_W@2@@std@@@2@V?$allocator@U?$pair@$$CBV?$basic_string@_WU?$char_traits@_W@std@@V?$allocator@_W@2@@std@@V?$vector@UFileHashInfo@@V?$allocator@UFileHashInfo@@@std@@@2@@std@@@2@@std@@AEAA?AU?$pair@PEAU?$_Tree_node@U?$pair@$$CBV?$basic_string@_WU?$char_traits@_W@std@@V?$allocator@_W@2@@std@@V?$vector@UFileHashInfo@@V?$allocator@UFileHashInfo@@@std@@@2@@std@@PEAX@std@@_N@1@AEBV?$basic_string@_WU?$char_traits@_W@std@@V?$allocator@_W@2@@1@@Z@4HA 0000000180062a1c f   hashing.obj
 0001:00061a30       ?dtor$0@?0???$_Emplace_reallocate@AEBUFileHashInfo@@@?$vector@UFileHashInfo@@V?$allocator@UFileHashInfo@@@std@@@std@@QEAAPEAUFileHashInfo@@QEAU2@AEBU2@@Z@4HA 0000000180062a30 f   hashing.obj
 0001:00061a3c       ?catch$2@?0???$_Emplace_reallocate@AEBUFileHashInfo@@@?$vector@UFileHashInfo@@V?$allocator@UFileHashInfo@@@std@@@std@@QEAAPEAUFileHashInfo@@QEAU2@AEBU2@@Z@4HA 0000000180062a3c f   hashing.obj
 0001:00061a49       __catch$??$_Emplace_reallocate@AEBUFileHashInfo@@@?$vector@UFileHashInfo@@V?$allocator@UFileHashInfo@@@std@@@std@@QEAAPEAUFileHashInfo@@QEAU2@AEBU2@@Z$0 0000000180062a49 f   hashing.obj
 0001:00061a80       ?dtor$0@?0???$use_facet@V?$ctype@D@std@@@std@@YAAEBV?$ctype@D@0@AEBVlocale@0@@Z@4HA 0000000180062a80 f   hashing.obj
 0001:00061a80       ?dtor$0@?0???$use_facet@V?$ctype@_W@std@@@std@@YAAEBV?$ctype@_W@0@AEBVlocale@0@@Z@4HA 0000000180062a80 f   hashing.obj
 0001:00061a8c       ?dtor$1@?0???$use_facet@V?$ctype@D@std@@@std@@YAAEBV?$ctype@D@0@AEBVlocale@0@@Z@4HA 0000000180062a8c f   hashing.obj
 0001:00061a8c       ?dtor$1@?0???$use_facet@V?$ctype@_W@std@@@std@@YAAEBV?$ctype@_W@0@AEBVlocale@0@@Z@4HA 0000000180062a8c f   hashing.obj
 0001:00061aa0       ?dtor$0@?0??do_transform@?$collate@D@std@@MEBA?AV?$basic_string@DU?$char_traits@D@std@@V?$allocator@D@2@@2@PEBD0@Z@4HA 0000000180062aa0 f   hashing.obj
 0001:00061ad0       ?dtor$0@?0??_Getcat@?$collate@D@std@@SA_KPEAPEBVfacet@locale@2@PEBV42@@Z@4HA 0000000180062ad0 f   hashing.obj
 0001:00061af0       ?dtor$1@?0??_Getcat@?$collate@D@std@@SA_KPEAPEBVfacet@locale@2@PEBV42@@Z@4HA 0000000180062af0 f   hashing.obj
 0001:00061b19       ?dtor$16@?0??_Getcat@?$collate@D@std@@SA_KPEAPEBVfacet@locale@2@PEBV42@@Z@4HA 0000000180062b19 f   hashing.obj
 0001:00061b25       ?dtor$17@?0??_Getcat@?$collate@D@std@@SA_KPEAPEBVfacet@locale@2@PEBV42@@Z@4HA 0000000180062b25 f   hashing.obj
 0001:00061b35       ?dtor$18@?0??_Getcat@?$collate@D@std@@SA_KPEAPEBVfacet@locale@2@PEBV42@@Z@4HA 0000000180062b35 f   hashing.obj
 0001:00061b45       ?dtor$19@?0??_Getcat@?$collate@D@std@@SA_KPEAPEBVfacet@locale@2@PEBV42@@Z@4HA 0000000180062b45 f   hashing.obj
 0001:00061b55       ?dtor$20@?0??_Getcat@?$collate@D@std@@SA_KPEAPEBVfacet@locale@2@PEBV42@@Z@4HA 0000000180062b55 f   hashing.obj
 0001:00061b65       ?dtor$21@?0??_Getcat@?$collate@D@std@@SA_KPEAPEBVfacet@locale@2@PEBV42@@Z@4HA 0000000180062b65 f   hashing.obj
 0001:00061b75       ?dtor$22@?0??_Getcat@?$collate@D@std@@SA_KPEAPEBVfacet@locale@2@PEBV42@@Z@4HA 0000000180062b75 f   hashing.obj
 0001:00061b90       ?dtor$0@?0???0sentry@?$basic_ostream@_WU?$char_traits@_W@std@@@std@@QEAA@AEAV12@@Z@4HA 0000000180062b90 f   hashing.obj
 0001:00061b9c       ?dtor$1@?0???0sentry@?$basic_ostream@_WU?$char_traits@_W@std@@@std@@QEAA@AEAV12@@Z@4HA 0000000180062b9c f   hashing.obj
 0001:00061bb0       ?dtor$0@?0???0sentry@?$basic_ostream@DU?$char_traits@D@std@@@std@@QEAA@AEAV12@@Z@4HA 0000000180062bb0 f   hashing.obj
 0001:00061bc0       ?dtor$0@?0??flush@?$basic_ostream@DU?$char_traits@D@std@@@std@@QEAAAEAV12@XZ@4HA 0000000180062bc0 f   hashing.obj
 0001:00061bd0       ?dtor$1@?0??put@?$basic_ostream@DU?$char_traits@D@std@@@std@@QEAAAEAV12@D@Z@4HA 0000000180062bd0 f   hashing.obj
 0001:00061bdc       ?dtor$0@?0??put@?$basic_ostream@DU?$char_traits@D@std@@@std@@QEAAAEAV12@D@Z@4HA 0000000180062bdc f   hashing.obj
 0001:00061be8       ?catch$4@?0??put@?$basic_ostream@DU?$char_traits@D@std@@@std@@QEAAAEAV12@D@Z@4HA 0000000180062be8 f   hashing.obj
 0001:00061bf5       __catch$?put@?$basic_ostream@DU?$char_traits@D@std@@@std@@QEAAAEAV12@D@Z$0 0000000180062bf5 f   hashing.obj
 0001:00061c40       ?catch$0@?0??_Osfx@?$basic_ostream@DU?$char_traits@D@std@@@std@@QEAAXXZ@4HA 0000000180062c40 f   hashing.obj
 0001:00061c40       ?catch$0@?0??_Osfx@?$basic_ostream@_WU?$char_traits@_W@std@@@std@@QEAAXXZ@4HA 0000000180062c40 f   hashing.obj
 0001:00061c4d       __catch$?_Osfx@?$basic_ostream@DU?$char_traits@D@std@@@std@@QEAAXXZ$0 0000000180062c4d f   hashing.obj
 0001:00061c4d       __catch$?_Osfx@?$basic_ostream@_WU?$char_traits@_W@std@@@std@@QEAAXXZ$0 0000000180062c4d f   hashing.obj
 0001:00061c60       ?dtor$0@?0???$_Insert_range@PEAUFileHashInfo@@@?$vector@UFileHashInfo@@V?$allocator@UFileHashInfo@@@std@@@std@@AEAAXV?$_Vector_const_iterator@V?$_Vector_val@U?$_Simple_types@UFileHashInfo@@@std@@@std@@@1@PEAUFileHashInfo@@1Uforward_iterator_tag@1@@Z@4HA 0000000180062c60 f   hashing.obj
 0001:00061c6c       ?dtor$1@?0???$_Insert_range@PEAUFileHashInfo@@@?$vector@UFileHashInfo@@V?$allocator@UFileHashInfo@@@std@@@std@@AEAAXV?$_Vector_const_iterator@V?$_Vector_val@U?$_Simple_types@UFileHashInfo@@@std@@@std@@@1@PEAUFileHashInfo@@1Uforward_iterator_tag@1@@Z@4HA 0000000180062c6c f   hashing.obj
 0001:00061c78       ?catch$9@?0???$_Insert_range@PEAUFileHashInfo@@@?$vector@UFileHashInfo@@V?$allocator@UFileHashInfo@@@std@@@std@@AEAAXV?$_Vector_const_iterator@V?$_Vector_val@U?$_Simple_types@UFileHashInfo@@@std@@@std@@@1@PEAUFileHashInfo@@1Uforward_iterator_tag@1@@Z@4HA 0000000180062c78 f   hashing.obj
 0001:00061c85       __catch$??$_Insert_range@PEAUFileHashInfo@@@?$vector@UFileHashInfo@@V?$allocator@UFileHashInfo@@@std@@@std@@AEAAXV?$_Vector_const_iterator@V?$_Vector_val@U?$_Simple_types@UFileHashInfo@@@std@@@std@@@1@PEAUFileHashInfo@@1Uforward_iterator_tag@1@@Z$0 0000000180062c85 f   hashing.obj
 0001:00061cac       ?dtor$3@?0???$_Insert_range@PEAUFileHashInfo@@@?$vector@UFileHashInfo@@V?$allocator@UFileHashInfo@@@std@@@std@@AEAAXV?$_Vector_const_iterator@V?$_Vector_val@U?$_Simple_types@UFileHashInfo@@@std@@@std@@@1@PEAUFileHashInfo@@1Uforward_iterator_tag@1@@Z@4HA 0000000180062cac f   hashing.obj
 0001:00061cb8       ?dtor$4@?0???$_Insert_range@PEAUFileHashInfo@@@?$vector@UFileHashInfo@@V?$allocator@UFileHashInfo@@@std@@@std@@AEAAXV?$_Vector_const_iterator@V?$_Vector_val@U?$_Simple_types@UFileHashInfo@@@std@@@std@@@1@PEAUFileHashInfo@@1Uforward_iterator_tag@1@@Z@4HA 0000000180062cb8 f   hashing.obj
 0001:00061cc4       ?catch$10@?0???$_Insert_range@PEAUFileHashInfo@@@?$vector@UFileHashInfo@@V?$allocator@UFileHashInfo@@@std@@@std@@AEAAXV?$_Vector_const_iterator@V?$_Vector_val@U?$_Simple_types@UFileHashInfo@@@std@@@std@@@1@PEAUFileHashInfo@@1Uforward_iterator_tag@1@@Z@4HA 0000000180062cc4 f   hashing.obj
 0001:00061cd3       __catch$??$_Insert_range@PEAUFileHashInfo@@@?$vector@UFileHashInfo@@V?$allocator@UFileHashInfo@@@std@@@std@@AEAAXV?$_Vector_const_iterator@V?$_Vector_val@U?$_Simple_types@UFileHashInfo@@@std@@@std@@@1@PEAUFileHashInfo@@1Uforward_iterator_tag@1@@Z$2 0000000180062cd3 f   hashing.obj
 0001:00061d2d       ?dtor$6@?0???$_Insert_range@PEAUFileHashInfo@@@?$vector@UFileHashInfo@@V?$allocator@UFileHashInfo@@@std@@@std@@AEAAXV?$_Vector_const_iterator@V?$_Vector_val@U?$_Simple_types@UFileHashInfo@@@std@@@std@@@1@PEAUFileHashInfo@@1Uforward_iterator_tag@1@@Z@4HA 0000000180062d2d f   hashing.obj
 0001:00061d39       ?dtor$7@?0???$_Insert_range@PEAUFileHashInfo@@@?$vector@UFileHashInfo@@V?$allocator@UFileHashInfo@@@std@@@std@@AEAAXV?$_Vector_const_iterator@V?$_Vector_val@U?$_Simple_types@UFileHashInfo@@@std@@@std@@@1@PEAUFileHashInfo@@1Uforward_iterator_tag@1@@Z@4HA 0000000180062d39 f   hashing.obj
 0001:00061d45       ?catch$11@?0???$_Insert_range@PEAUFileHashInfo@@@?$vector@UFileHashInfo@@V?$allocator@UFileHashInfo@@@std@@@std@@AEAAXV?$_Vector_const_iterator@V?$_Vector_val@U?$_Simple_types@UFileHashInfo@@@std@@@std@@@1@PEAUFileHashInfo@@1Uforward_iterator_tag@1@@Z@4HA 0000000180062d45 f   hashing.obj
 0001:00061d53       __catch$??$_Insert_range@PEAUFileHashInfo@@@?$vector@UFileHashInfo@@V?$allocator@UFileHashInfo@@@std@@@std@@AEAAXV?$_Vector_const_iterator@V?$_Vector_val@U?$_Simple_types@UFileHashInfo@@@std@@@std@@@1@PEAUFileHashInfo@@1Uforward_iterator_tag@1@@Z$6 0000000180062d53 f   hashing.obj
 0001:00061d90       ?dtor$1@?0???$_Regex_match1@PEBDV?$allocator@V?$sub_match@PEBD@std@@@std@@DV?$regex_traits@D@2@PEBD@std@@YA_NPEBD0PEAV?$match_results@PEBDV?$allocator@V?$sub_match@PEBD@std@@@std@@@0@AEBV?$basic_regex@DV?$regex_traits@D@std@@@0@W4match_flag_type@regex_constants@0@_N@Z@4HA 0000000180062d90 f   hashing.obj
 0001:00061d9c       ?dtor$2@?0???$_Regex_match1@PEBDV?$allocator@V?$sub_match@PEBD@std@@@std@@DV?$regex_traits@D@2@PEBD@std@@YA_NPEBD0PEAV?$match_results@PEBDV?$allocator@V?$sub_match@PEBD@std@@@std@@@0@AEBV?$basic_regex@DV?$regex_traits@D@std@@@0@W4match_flag_type@regex_constants@0@_N@Z@4HA 0000000180062d9c f   hashing.obj
 0001:00061dac       ?dtor$3@?0???$_Regex_match1@PEBDV?$allocator@V?$sub_match@PEBD@std@@@std@@DV?$regex_traits@D@2@PEBD@std@@YA_NPEBD0PEAV?$match_results@PEBDV?$allocator@V?$sub_match@PEBD@std@@@std@@@0@AEBV?$basic_regex@DV?$regex_traits@D@std@@@0@W4match_flag_type@regex_constants@0@_N@Z@4HA 0000000180062dac f   hashing.obj
 0001:00061dbf       ?dtor$0@?0???$_Regex_match1@PEBDV?$allocator@V?$sub_match@PEBD@std@@@std@@DV?$regex_traits@D@2@PEBD@std@@YA_NPEBD0PEAV?$match_results@PEBDV?$allocator@V?$sub_match@PEBD@std@@@std@@@0@AEBV?$basic_regex@DV?$regex_traits@D@std@@@0@W4match_flag_type@regex_constants@0@_N@Z@4HA 0000000180062dbf f   hashing.obj
 0001:00061dd0       ?dtor$0@?0??_Match_pat@?$_Matcher@PEBDDV?$regex_traits@D@std@@PEBD@std@@AEAA_NPEAV_Node_base@2@@Z@4HA 0000000180062dd0 f   hashing.obj
 0001:00061de0       ?dtor$2@?0??_Do_if@?$_Matcher@PEBDDV?$regex_traits@D@std@@PEBD@std@@AEAA_NPEAV_Node_if@2@@Z@4HA 0000000180062de0 f   hashing.obj
 0001:00061dec       ?dtor$0@?0??_Do_if@?$_Matcher@PEBDDV?$regex_traits@D@std@@PEBD@std@@AEAA_NPEAV_Node_if@2@@Z@4HA 0000000180062dec f   hashing.obj
 0001:00061df8       ?dtor$5@?0??_Do_if@?$_Matcher@PEBDDV?$regex_traits@D@std@@PEBD@std@@AEAA_NPEAV_Node_if@2@@Z@4HA 0000000180062df8 f   hashing.obj
 0001:00061e04       ?dtor$1@?0??_Do_if@?$_Matcher@PEBDDV?$regex_traits@D@std@@PEBD@std@@AEAA_NPEAV_Node_if@2@@Z@4HA 0000000180062e04 f   hashing.obj
 0001:00061e10       ?dtor$1@?0??_Do_rep@?$_Matcher@PEBDDV?$regex_traits@D@std@@PEBD@std@@AEAA_NPEAV_Node_rep@2@_NH@Z@4HA 0000000180062e10 f   hashing.obj
 0001:00061e1c       ?dtor$0@?0??_Do_rep@?$_Matcher@PEBDDV?$regex_traits@D@std@@PEBD@std@@AEAA_NPEAV_Node_rep@2@_NH@Z@4HA 0000000180062e1c f   hashing.obj
 0001:00061e30       ?dtor$0@?0??_Do_assert_group@?$_Parser@PEBDDV?$regex_traits@D@std@@@std@@AEAAX_N@Z@4HA 0000000180062e30 f   hashing.obj
 0001:00061e40       ?dtor$2@?0??_Do_rep0@?$_Matcher@PEBDDV?$regex_traits@D@std@@PEBD@std@@AEAA_NPEAV_Node_rep@2@_N@Z@4HA 0000000180062e40 f   hashing.obj
 0001:00061e4c       ?dtor$0@?0??_Do_rep0@?$_Matcher@PEBDDV?$regex_traits@D@std@@PEBD@std@@AEAA_NPEAV_Node_rep@2@_N@Z@4HA 0000000180062e4c f   hashing.obj
 0001:00061e58       ?dtor$5@?0??_Do_rep0@?$_Matcher@PEBDDV?$regex_traits@D@std@@PEBD@std@@AEAA_NPEAV_Node_rep@2@_N@Z@4HA 0000000180062e58 f   hashing.obj
 0001:00061e64       ?dtor$1@?0??_Do_rep0@?$_Matcher@PEBDDV?$regex_traits@D@std@@PEBD@std@@AEAA_NPEAV_Node_rep@2@_N@Z@4HA 0000000180062e64 f   hashing.obj
 0001:00061e70       ?dtor$0@?0???0system_error@std@@QEAA@Verror_code@1@@Z@4HA 0000000180062e70 f   IntChecker2-Far3.obj
 0001:00061e70       ?dtor$0@?0??_Add_equiv@?$_Builder@PEBDDV?$regex_traits@D@std@@@std@@QEAAXPEBD0_J@Z@4HA 0000000180062e70 f   hashing.obj
 0001:00061e70       ?dtor$1@?0???0failure@ios_base@std@@QEAA@PEBDAEBVerror_code@2@@Z@4HA 0000000180062e70 f   hashing.obj
 0001:00061e80       ?dtor$0@?0???$transform_primary@PEAD@?$_Regex_traits@D@std@@QEBA?AV?$basic_string@DU?$char_traits@D@std@@V?$allocator@D@2@@1@PEAD0@Z@4HA 0000000180062e80 f   hashing.obj
 0001:00061e80       ?dtor$0@?0???$transform_primary@PEBD@?$_Regex_traits@D@std@@QEBA?AV?$basic_string@DU?$char_traits@D@std@@V?$allocator@D@2@@1@PEBD0@Z@4HA 0000000180062e80 f   hashing.obj
 0001:00061ea6       ?dtor$1@?0???$transform_primary@PEAD@?$_Regex_traits@D@std@@QEBA?AV?$basic_string@DU?$char_traits@D@std@@V?$allocator@D@2@@1@PEAD0@Z@4HA 0000000180062ea6 f   hashing.obj
 0001:00061ea6       ?dtor$1@?0???$transform_primary@PEBD@?$_Regex_traits@D@std@@QEBA?AV?$basic_string@DU?$char_traits@D@std@@V?$allocator@D@2@@1@PEBD0@Z@4HA 0000000180062ea6 f   hashing.obj
 0001:00061ec0       ?dtor$0@?0??_Getcat@?$ctype@_W@std@@SA_KPEAPEBVfacet@locale@2@PEBV42@@Z@4HA 0000000180062ec0 f   hashing.obj
 0001:00061ee0       ?dtor$2@?0??_Getcat@?$ctype@_W@std@@SA_KPEAPEBVfacet@locale@2@PEBV42@@Z@4HA 0000000180062ee0 f   hashing.obj
 0001:00061eec       ?dtor$3@?0??_Getcat@?$ctype@_W@std@@SA_KPEAPEBVfacet@locale@2@PEBV42@@Z@4HA 0000000180062eec f   hashing.obj
 0001:00061efc       ?dtor$4@?0??_Getcat@?$ctype@_W@std@@SA_KPEAPEBVfacet@locale@2@PEBV42@@Z@4HA 0000000180062efc f   hashing.obj
 0001:00061f0c       ?dtor$5@?0??_Getcat@?$ctype@_W@std@@SA_KPEAPEBVfacet@locale@2@PEBV42@@Z@4HA 0000000180062f0c f   hashing.obj
 0001:00061f1c       ?dtor$6@?0??_Getcat@?$ctype@_W@std@@SA_KPEAPEBVfacet@locale@2@PEBV42@@Z@4HA 0000000180062f1c f   hashing.obj
 0001:00061f2c       ?dtor$7@?0??_Getcat@?$ctype@_W@std@@SA_KPEAPEBVfacet@locale@2@PEBV42@@Z@4HA 0000000180062f2c f   hashing.obj
 0001:00061f3c       ?dtor$8@?0??_Getcat@?$ctype@_W@std@@SA_KPEAPEBVfacet@locale@2@PEBV42@@Z@4HA 0000000180062f3c f   hashing.obj
 0001:00061f50       ?dtor$3@?0???0_System_error@std@@IEAA@Verror_code@1@AEBV?$basic_string@DU?$char_traits@D@std@@V?$allocator@D@2@@1@@Z@4HA 0000000180062f50 f   hashing.obj
 0001:00061f5c       ?dtor$4@?0???0_System_error@std@@IEAA@Verror_code@1@AEBV?$basic_string@DU?$char_traits@D@std@@V?$allocator@D@2@@1@@Z@4HA 0000000180062f5c f   hashing.obj
 0001:00061f70       ?dtor$0@?0??_Getcat@?$ctype@D@std@@SA_KPEAPEBVfacet@locale@2@PEBV42@@Z@4HA 0000000180062f70 f   hashing.obj
 0001:00061f90       ?dtor$2@?0??_Getcat@?$ctype@D@std@@SA_KPEAPEBVfacet@locale@2@PEBV42@@Z@4HA 0000000180062f90 f   hashing.obj
 0001:00061f9c       ?dtor$3@?0??_Getcat@?$ctype@D@std@@SA_KPEAPEBVfacet@locale@2@PEBV42@@Z@4HA 0000000180062f9c f   hashing.obj
 0001:00061fac       ?dtor$4@?0??_Getcat@?$ctype@D@std@@SA_KPEAPEBVfacet@locale@2@PEBV42@@Z@4HA 0000000180062fac f   hashing.obj
 0001:00061fbc       ?dtor$5@?0??_Getcat@?$ctype@D@std@@SA_KPEAPEBVfacet@locale@2@PEBV42@@Z@4HA 0000000180062fbc f   hashing.obj
 0001:00061fcc       ?dtor$6@?0??_Getcat@?$ctype@D@std@@SA_KPEAPEBVfacet@locale@2@PEBV42@@Z@4HA 0000000180062fcc f   hashing.obj
 0001:00061fdc       ?dtor$7@?0??_Getcat@?$ctype@D@std@@SA_KPEAPEBVfacet@locale@2@PEBV42@@Z@4HA 0000000180062fdc f   hashing.obj
 0001:00061fec       ?dtor$8@?0??_Getcat@?$ctype@D@std@@SA_KPEAPEBVfacet@locale@2@PEBV42@@Z@4HA 0000000180062fec f   hashing.obj
 0001:00062000       ?dtor$0@?0??AddIntEditField@PluginDialogBuilder@@UEAAPEAUFarDialogItem@@PEAHH@Z@4HA 0000000180063000 f   IntChecker2-Far3.obj
 0001:00062000       ?dtor$0@?0??AddUIntEditField@PluginDialogBuilder@@UEAAPEAUFarDialogItem@@PEAIH@Z@4HA 0000000180063000 f   IntChecker2-Far3.obj
 0001:0006201d       ?dtor$1@?0??AddIntEditField@PluginDialogBuilder@@UEAAPEAUFarDialogItem@@PEAHH@Z@4HA 000000018006301d f   IntChecker2-Far3.obj
 0001:0006201d       ?dtor$1@?0??AddUIntEditField@PluginDialogBuilder@@UEAAPEAUFarDialogItem@@PEAIH@Z@4HA 000000018006301d f   IntChecker2-Far3.obj
 0001:00062030       ?dtor$0@?0???0ProgressContext@@QEAA@H_J@Z@4HA 0000000180063030 f   IntChecker2-Far3.obj
 0001:0006203c       ?dtor$1@?0???0ProgressContext@@QEAA@H_J@Z@4HA 000000018006303c f   IntChecker2-Far3.obj
 0001:0006204c       ?dtor$2@?0???0ProgressContext@@QEAA@H_J@Z@4HA 000000018006304c f   IntChecker2-Far3.obj
 0001:00062060       ?dtor$0@?0??ProgressBarString@@YA?AV?$basic_string@_WU?$char_traits@_W@std@@V?$allocator@_W@2@@std@@_J0@Z@4HA 0000000180063060 f   IntChecker2-Far3.obj
 0001:00062086       ?dtor$2@?0??ProgressBarString@@YA?AV?$basic_string@_WU?$char_traits@_W@std@@V?$allocator@_W@2@@std@@_J0@Z@4HA 0000000180063086 f   IntChecker2-Far3.obj
 0001:00062092       ?dtor$4@?0??ProgressBarString@@YA?AV?$basic_string@_WU?$char_traits@_W@std@@V?$allocator@_W@2@@std@@_J0@Z@4HA 0000000180063092 f   IntChecker2-Far3.obj
 0001:000620a0       ?dtor$0@?0??JoinProgressLine@@YA?AV?$basic_string@_WU?$char_traits@_W@std@@V?$allocator@_W@2@@std@@AEBV12@0_K1@Z@4HA 00000001800630a0 f   IntChecker2-Far3.obj
 0001:000620ac       ?dtor$1@?0??JoinProgressLine@@YA?AV?$basic_string@_WU?$char_traits@_W@std@@V?$allocator@_W@2@@std@@AEBV12@0_K1@Z@4HA 00000001800630ac f   IntChecker2-Far3.obj
 0001:000620b8       ?dtor$2@?0??JoinProgressLine@@YA?AV?$basic_string@_WU?$char_traits@_W@std@@V?$allocator@_W@2@@std@@AEBV12@0_K1@Z@4HA 00000001800630b8 f   IntChecker2-Far3.obj
 0001:000620c4       ?dtor$3@?0??JoinProgressLine@@YA?AV?$basic_string@_WU?$char_traits@_W@std@@V?$allocator@_W@2@@std@@AEBV12@0_K1@Z@4HA 00000001800630c4 f   IntChecker2-Far3.obj
 0001:000620d0       ?dtor$0@?0??ConvertPathToNative@@YA?AV?$basic_string@_WU?$char_traits@_W@std@@V?$allocator@_W@2@@std@@AEBV12@@Z@4HA 00000001800630d0 f   IntChecker2-Far3.obj
 0001:000620e0       ?dtor$0@?0???0FarMenu@@QEAA@PEBUPluginStartupInfo@@PEBU_GUID@@1PEB_W2@Z@4HA 00000001800630e0 f   IntChecker2-Far3.obj
 0001:000620f0       ?dtor$1@?0???0FarMenu@@QEAA@PEBUPluginStartupInfo@@PEBU_GUID@@1PEB_W2@Z@4HA 00000001800630f0 f   IntChecker2-Far3.obj
 0001:00062100       ?dtor$2@?0???0FarMenu@@QEAA@PEBUPluginStartupInfo@@PEBU_GUID@@1PEB_W2@Z@4HA 0000000180063100 f   IntChecker2-Far3.obj
 0001:00062110       ?dtor$3@?0???0FarMenu@@QEAA@PEBUPluginStartupInfo@@PEBU_GUID@@1PEB_W2@Z@4HA 0000000180063110 f   IntChecker2-Far3.obj
 0001:00062123       ?dtor$4@?0???0FarMenu@@QEAA@PEBUPluginStartupInfo@@PEBU_GUID@@1PEB_W2@Z@4HA 0000000180063123 f   IntChecker2-Far3.obj
 0001:00062140       ?dtor$0@?0??AddItemEx@FarMenu@@QEAAXPEB_WV?$function@$$A6AX_J@Z@std@@_K_J@Z@4HA 0000000180063140 f   IntChecker2-Far3.obj
 0001:0006214c       ?dtor$1@?0??AddItemEx@FarMenu@@QEAAXPEB_WV?$function@$$A6AX_J@Z@std@@_K_J@Z@4HA 000000018006314c f   IntChecker2-Far3.obj
 0001:00062160       ?dtor$0@?0???0filesystem_error@filesystem@std@@QEAA@AEBV?$basic_string@DU?$char_traits@D@std@@V?$allocator@D@2@@2@Verror_code@2@@Z@4HA 0000000180063160 f   IntChecker2-Far3.obj
 0001:0006216c       ?dtor$1@?0???0filesystem_error@filesystem@std@@QEAA@AEBV?$basic_string@DU?$char_traits@D@std@@V?$allocator@D@2@@2@Verror_code@2@@Z@4HA 000000018006316c f   IntChecker2-Far3.obj
 0001:0006217c       ?dtor$2@?0???0filesystem_error@filesystem@std@@QEAA@AEBV?$basic_string@DU?$char_traits@D@std@@V?$allocator@D@2@@2@Verror_code@2@@Z@4HA 000000018006317c f   IntChecker2-Far3.obj
 0001:00062190       ?dtor$0@?0???0filesystem_error@filesystem@std@@QEAA@AEBV?$basic_string@DU?$char_traits@D@std@@V?$allocator@D@2@@2@AEBVpath@12@Verror_code@2@@Z@4HA 0000000180063190 f   IntChecker2-Far3.obj
 0001:0006219c       ?dtor$1@?0???0filesystem_error@filesystem@std@@QEAA@AEBV?$basic_string@DU?$char_traits@D@std@@V?$allocator@D@2@@2@AEBVpath@12@Verror_code@2@@Z@4HA 000000018006319c f   IntChecker2-Far3.obj
 0001:000621ac       ?dtor$2@?0???0filesystem_error@filesystem@std@@QEAA@AEBV?$basic_string@DU?$char_traits@D@std@@V?$allocator@D@2@@2@AEBVpath@12@Verror_code@2@@Z@4HA 00000001800631ac f   IntChecker2-Far3.obj
 0001:000621bc       ?dtor$3@?0???0filesystem_error@filesystem@std@@QEAA@AEBV?$basic_string@DU?$char_traits@D@std@@V?$allocator@D@2@@2@AEBVpath@12@Verror_code@2@@Z@4HA 00000001800631bc f   IntChecker2-Far3.obj
 0001:000621d0       ?dtor$0@?0??_Pretty_message@filesystem_error@filesystem@std@@CA?AV?$basic_string@DU?$char_traits@D@std@@V?$allocator@D@2@@3@V?$basic_string_view@DU?$char_traits@D@std@@@3@AEBVpath@23@1@Z@4HA 00000001800631d0 f   IntChecker2-Far3.obj
 0001:000621f6       ?dtor$1@?0??_Pretty_message@filesystem_error@filesystem@std@@CA?AV?$basic_string@DU?$char_traits@D@std@@V?$allocator@D@2@@3@V?$basic_string_view@DU?$char_traits@D@std@@@3@AEBVpath@23@1@Z@4HA 00000001800631f6 f   IntChecker2-Far3.obj
 0001:00062202       ?dtor$2@?0??_Pretty_message@filesystem_error@filesystem@std@@CA?AV?$basic_string@DU?$char_traits@D@std@@V?$allocator@D@2@@3@V?$basic_string_view@DU?$char_traits@D@std@@@3@AEBVpath@23@1@Z@4HA 0000000180063202 f   IntChecker2-Far3.obj
 0001:00062210       ?dtor$0@?0??_Throw_fs_error@filesystem@std@@YAXPEBDW4__std_win_error@@@Z@4HA 0000000180063210 f   IntChecker2-Far3.obj
 0001:00062210       ?dtor$0@?0??_Throw_fs_error@filesystem@std@@YAXPEBDW4__std_win_error@@AEBVpath@12@@Z@4HA 0000000180063210 f   IntChecker2-Far3.obj
 0001:00062220       ?dtor$0@?0???0filesystem_error@filesystem@std@@QEAA@AEBV012@@Z@4HA 0000000180063220 f   IntChecker2-Far3.obj
 0001:0006222c       ?dtor$1@?0???0filesystem_error@filesystem@std@@QEAA@AEBV012@@Z@4HA 000000018006322c f   IntChecker2-Far3.obj
 0001:0006223c       ?dtor$2@?0???0filesystem_error@filesystem@std@@QEAA@AEBV012@@Z@4HA 000000018006323c f   IntChecker2-Far3.obj
 0001:00062250       ?dtor$0@?0??_Open_dir@_Dir_enum_impl@filesystem@std@@SA?AW4__std_win_error@@AEAVpath@23@W4directory_options@23@AEAU_Find_file_handle@23@AEAU__std_fs_find_data@@@Z@4HA 0000000180063250 f   IntChecker2-Far3.obj
 0001:00062250       ?dtor$0@?0??_Refresh@_Dir_enum_impl@filesystem@std@@QEAAXAEBU__std_fs_find_data@@@Z@4HA 0000000180063250 f   IntChecker2-Far3.obj
 0001:00062250       ?dtor$1@?0??GetPanelDirectory@Far3Panel@@QEAA?AV?$basic_string@_WU?$char_traits@_W@std@@V?$allocator@_W@2@@std@@XZ@4HA 0000000180063250 f   IntChecker2-Far3.obj
 0001:00062260       ?dtor$0@?0??PathJoin@@YA?AV?$basic_string@_WU?$char_traits@_W@std@@V?$allocator@_W@2@@std@@AEBV12@0@Z@4HA 0000000180063260 f   IntChecker2-Far3.obj
 0001:0006226c       ?dtor$1@?0??PathJoin@@YA?AV?$basic_string@_WU?$char_traits@_W@std@@V?$allocator@_W@2@@std@@AEBV12@0@Z@4HA 000000018006326c f   IntChecker2-Far3.obj
 0001:00062278       ?dtor$14@?0??PathJoin@@YA?AV?$basic_string@_WU?$char_traits@_W@std@@V?$allocator@_W@2@@std@@AEBV12@0@Z@4HA 0000000180063278 f   IntChecker2-Far3.obj
 0001:00062284       ?dtor$2@?0??PathJoin@@YA?AV?$basic_string@_WU?$char_traits@_W@std@@V?$allocator@_W@2@@std@@AEBV12@0@Z@4HA 0000000180063284 f   IntChecker2-Far3.obj
 0001:00062290       ?dtor$0@?0??GetSelectedItemPath@Far3Panel@@QEAA?AV?$basic_string@_WU?$char_traits@_W@std@@V?$allocator@_W@2@@std@@XZ@4HA 0000000180063290 f   IntChecker2-Far3.obj
 0001:000622b6       ?dtor$1@?0??GetSelectedItemPath@Far3Panel@@QEAA?AV?$basic_string@_WU?$char_traits@_W@std@@V?$allocator@_W@2@@std@@XZ@4HA 00000001800632b6 f   IntChecker2-Far3.obj
 0001:000622c2       ?dtor$2@?0??GetSelectedItemPath@Far3Panel@@QEAA?AV?$basic_string@_WU?$char_traits@_W@std@@V?$allocator@_W@2@@std@@XZ@4HA 00000001800632c2 f   IntChecker2-Far3.obj
 0001:000622d0       ?dtor$0@?0??GetSelectedFiles@Far3Panel@@QEAAX_NPEAXAEAV?$vector@UPanelFileInfo@@V?$allocator@UPanelFileInfo@@@std@@@std@@@Z@4HA 00000001800632d0 f   IntChecker2-Far3.obj
 0001:000622dc       ?dtor$1@?0??GetSelectedFiles@Far3Panel@@QEAAX_NPEAXAEAV?$vector@UPanelFileInfo@@V?$allocator@UPanelFileInfo@@@std@@@std@@@Z@4HA 00000001800632dc f   IntChecker2-Far3.obj
 0001:000622e8       ?dtor$2@?0??GetSelectedFiles@Far3Panel@@QEAAX_NPEAXAEAV?$vector@UPanelFileInfo@@V?$allocator@UPanelFileInfo@@@std@@@std@@@Z@4HA 00000001800632e8 f   IntChecker2-Far3.obj
 0001:000622f4       ?dtor$3@?0??GetSelectedFiles@Far3Panel@@QEAAX_NPEAXAEAV?$vector@UPanelFileInfo@@V?$allocator@UPanelFileInfo@@@std@@@std@@@Z@4HA 00000001800632f4 f   IntChecker2-Far3.obj
 0001:00062300       ?dtor$23@?0??GetSelectedFiles@Far3Panel@@QEAAX_NPEAXAEAV?$vector@UPanelFileInfo@@V?$allocator@UPanelFileInfo@@@std@@@std@@@Z@4HA 0000000180063300 f   IntChecker2-Far3.obj
 0001:0006230c       ?dtor$4@?0??GetSelectedFiles@Far3Panel@@QEAAX_NPEAXAEAV?$vector@UPanelFileInfo@@V?$allocator@UPanelFileInfo@@@std@@@std@@@Z@4HA 000000018006330c f   IntChecker2-Far3.obj
 0001:00062318       ?dtor$33@?0??GetSelectedFiles@Far3Panel@@QEAAX_NPEAXAEAV?$vector@UPanelFileInfo@@V?$allocator@UPanelFileInfo@@@std@@@std@@@Z@4HA 0000000180063318 f   IntChecker2-Far3.obj
 0001:00062324       ?dtor$5@?0??GetSelectedFiles@Far3Panel@@QEAAX_NPEAXAEAV?$vector@UPanelFileInfo@@V?$allocator@UPanelFileInfo@@@std@@@std@@@Z@4HA 0000000180063324 f   IntChecker2-Far3.obj
 0001:00062330       ?dtor$7@?0??GetSelectedFiles@Far3Panel@@QEAAX_NPEAXAEAV?$vector@UPanelFileInfo@@V?$allocator@UPanelFileInfo@@@std@@@std@@@Z@4HA 0000000180063330 f   IntChecker2-Far3.obj
 0001:0006233c       ?dtor$9@?0??GetSelectedFiles@Far3Panel@@QEAAX_NPEAXAEAV?$vector@UPanelFileInfo@@V?$allocator@UPanelFileInfo@@@std@@@std@@@Z@4HA 000000018006333c f   IntChecker2-Far3.obj
 0001:00062348       ?dtor$10@?0??GetSelectedFiles@Far3Panel@@QEAAX_NPEAXAEAV?$vector@UPanelFileInfo@@V?$allocator@UPanelFileInfo@@@std@@@std@@@Z@4HA 0000000180063348 f   IntChecker2-Far3.obj
 0001:00062354       ?dtor$11@?0??GetSelectedFiles@Far3Panel@@QEAAX_NPEAXAEAV?$vector@UPanelFileInfo@@V?$allocator@UPanelFileInfo@@@std@@@std@@@Z@4HA 0000000180063354 f   IntChecker2-Far3.obj
 0001:00062360       ?dtor$12@?0??GetSelectedFiles@Far3Panel@@QEAAX_NPEAXAEAV?$vector@UPanelFileInfo@@V?$allocator@UPanelFileInfo@@@std@@@std@@@Z@4HA 0000000180063360 f   IntChecker2-Far3.obj
 0001:0006236c       ?dtor$54@?0??GetSelectedFiles@Far3Panel@@QEAAX_NPEAXAEAV?$vector@UPanelFileInfo@@V?$allocator@UPanelFileInfo@@@std@@@std@@@Z@4HA 000000018006336c f   IntChecker2-Far3.obj
 0001:00062380       ?dtor$0@?0??SetItemsSelection@Far3Panel@@QEAAXV?$function@$$A6AHPEB_W@Z@std@@@Z@4HA 0000000180063380 f   IntChecker2-Far3.obj
 0001:00062390       ?dtor$0@?0??LoadSettings@@YAXXZ@4HA 0000000180063390 f   IntChecker2-Far3.obj
 0001:00062390       ?dtor$0@?0??SaveSettings@@YAXXZ@4HA 0000000180063390 f   IntChecker2-Far3.obj
 0001:000623a0       ?dtor$1@?0??FileHashingProgress@@YA_NPEAX_J@Z@4HA 00000001800633a0 f   IntChecker2-Far3.obj
 0001:000623ac       ?dtor$2@?0??FileHashingProgress@@YA_NPEAX_J@Z@4HA 00000001800633ac f   IntChecker2-Far3.obj
 0001:000623b8       ?dtor$3@?0??FileHashingProgress@@YA_NPEAX_J@Z@4HA 00000001800633b8 f   IntChecker2-Far3.obj
 0001:000623c4       ?dtor$4@?0??FileHashingProgress@@YA_NPEAX_J@Z@4HA 00000001800633c4 f   IntChecker2-Far3.obj
 0001:000623d0       ?dtor$5@?0??FileHashingProgress@@YA_NPEAX_J@Z@4HA 00000001800633d0 f   IntChecker2-Far3.obj
 0001:000623dc       ?dtor$6@?0??FileHashingProgress@@YA_NPEAX_J@Z@4HA 00000001800633dc f   IntChecker2-Far3.obj
 0001:000623e8       ?dtor$7@?0??FileHashingProgress@@YA_NPEAX_J@Z@4HA 00000001800633e8 f   IntChecker2-Far3.obj
 0001:000623f4       ?dtor$8@?0??FileHashingProgress@@YA_NPEAX_J@Z@4HA 00000001800633f4 f   IntChecker2-Far3.obj
 0001:00062400       ?dtor$9@?0??FileHashingProgress@@YA_NPEAX_J@Z@4HA 0000000180063400 f   IntChecker2-Far3.obj
 0001:0006240c       ?dtor$10@?0??FileHashingProgress@@YA_NPEAX_J@Z@4HA 000000018006340c f   IntChecker2-Far3.obj
 0001:00062418       ?dtor$11@?0??FileHashingProgress@@YA_NPEAX_J@Z@4HA 0000000180063418 f   IntChecker2-Far3.obj
 0001:00062424       ?dtor$12@?0??FileHashingProgress@@YA_NPEAX_J@Z@4HA 0000000180063424 f   IntChecker2-Far3.obj
 0001:00062430       ?dtor$13@?0??FileHashingProgress@@YA_NPEAX_J@Z@4HA 0000000180063430 f   IntChecker2-Far3.obj
 0001:0006243c       ?dtor$14@?0??FileHashingProgress@@YA_NPEAX_J@Z@4HA 000000018006343c f   IntChecker2-Far3.obj
 0001:00062448       ?dtor$15@?0??FileHashingProgress@@YA_NPEAX_J@Z@4HA 0000000180063448 f   IntChecker2-Far3.obj
 0001:00062454       ?dtor$16@?0??FileHashingProgress@@YA_NPEAX_J@Z@4HA 0000000180063454 f   IntChecker2-Far3.obj
 0001:00062460       ?dtor$17@?0??FileHashingProgress@@YA_NPEAX_J@Z@4HA 0000000180063460 f   IntChecker2-Far3.obj
 0001:0006246c       ?dtor$18@?0??FileHashingProgress@@YA_NPEAX_J@Z@4HA 000000018006346c f   IntChecker2-Far3.obj
 0001:00062480       ?dtor$0@?0??DisplayValidationResults@@YAXAEAVFar3Panel@@AEAV?$vector@V?$basic_string@_WU?$char_traits@_W@std@@V?$allocator@_W@2@@std@@V?$allocator@V?$basic_string@_WU?$char_traits@_W@std@@V?$allocator@_W@2@@std@@@2@@std@@1H@Z@4HA 0000000180063480 f   IntChecker2-Far3.obj
 0001:0006248c       ?dtor$2@?0??DisplayValidationResults@@YAXAEAVFar3Panel@@AEAV?$vector@V?$basic_string@_WU?$char_traits@_W@std@@V?$allocator@_W@2@@std@@V?$allocator@V?$basic_string@_WU?$char_traits@_W@std@@V?$allocator@_W@2@@std@@@2@@std@@1H@Z@4HA 000000018006348c f   IntChecker2-Far3.obj
 0001:00062498       ?dtor$4@?0??DisplayValidationResults@@YAXAEAVFar3Panel@@AEAV?$vector@V?$basic_string@_WU?$char_traits@_W@std@@V?$allocator@_W@2@@std@@V?$allocator@V?$basic_string@_WU?$char_traits@_W@std@@V?$allocator@_W@2@@std@@@2@@std@@1H@Z@4HA 0000000180063498 f   IntChecker2-Far3.obj
 0001:000624a4       ?dtor$6@?0??DisplayValidationResults@@YAXAEAVFar3Panel@@AEAV?$vector@V?$basic_string@_WU?$char_traits@_W@std@@V?$allocator@_W@2@@std@@V?$allocator@V?$basic_string@_WU?$char_traits@_W@std@@V?$allocator@_W@2@@std@@@2@@std@@1H@Z@4HA 00000001800634a4 f   IntChecker2-Far3.obj
 0001:000624b0       ?dtor$8@?0??DisplayValidationResults@@YAXAEAVFar3Panel@@AEAV?$vector@V?$basic_string@_WU?$char_traits@_W@std@@V?$allocator@_W@2@@std@@V?$allocator@V?$basic_string@_WU?$char_traits@_W@std@@V?$allocator@_W@2@@std@@@2@@std@@1H@Z@4HA 00000001800634b0 f   IntChecker2-Far3.obj
 0001:000624bc       ?dtor$37@?0??DisplayValidationResults@@YAXAEAVFar3Panel@@AEAV?$vector@V?$basic_string@_WU?$char_traits@_W@std@@V?$allocator@_W@2@@std@@V?$allocator@V?$basic_string@_WU?$char_traits@_W@std@@V?$allocator@_W@2@@std@@@2@@std@@1H@Z@4HA 00000001800634bc f   IntChecker2-Far3.obj
 0001:000624c8       ?dtor$38@?0??DisplayValidationResults@@YAXAEAVFar3Panel@@AEAV?$vector@V?$basic_string@_WU?$char_traits@_W@std@@V?$allocator@_W@2@@std@@V?$allocator@V?$basic_string@_WU?$char_traits@_W@std@@V?$allocator@_W@2@@std@@@2@@std@@1H@Z@4HA 00000001800634c8 f   IntChecker2-Far3.obj
 0001:000624d4       ?dtor$39@?0??DisplayValidationResults@@YAXAEAVFar3Panel@@AEAV?$vector@V?$basic_string@_WU?$char_traits@_W@std@@V?$allocator@_W@2@@std@@V?$allocator@V?$basic_string@_WU?$char_traits@_W@std@@V?$allocator@_W@2@@std@@@2@@std@@1H@Z@4HA 00000001800634d4 f   IntChecker2-Far3.obj
 0001:000624e0       ?dtor$40@?0??DisplayValidationResults@@YAXAEAVFar3Panel@@AEAV?$vector@V?$basic_string@_WU?$char_traits@_W@std@@V?$allocator@_W@2@@std@@V?$allocator@V?$basic_string@_WU?$char_traits@_W@std@@V?$allocator@_W@2@@std@@@2@@std@@1H@Z@4HA 00000001800634e0 f   IntChecker2-Far3.obj
 0001:000624ec       ?dtor$10@?0??DisplayValidationResults@@YAXAEAVFar3Panel@@AEAV?$vector@V?$basic_string@_WU?$char_traits@_W@std@@V?$allocator@_W@2@@std@@V?$allocator@V?$basic_string@_WU?$char_traits@_W@std@@V?$allocator@_W@2@@std@@@2@@std@@1H@Z@4HA 00000001800634ec f   IntChecker2-Far3.obj
 0001:000624f8       ?dtor$11@?0??DisplayValidationResults@@YAXAEAVFar3Panel@@AEAV?$vector@V?$basic_string@_WU?$char_traits@_W@std@@V?$allocator@_W@2@@std@@V?$allocator@V?$basic_string@_WU?$char_traits@_W@std@@V?$allocator@_W@2@@std@@@2@@std@@1H@Z@4HA 00000001800634f8 f   IntChecker2-Far3.obj
 0001:00062510       ?dtor$1@?0??AskValidationFileParams@@YA_NAEAIAEAH@Z@4HA 0000000180063510 f   IntChecker2-Far3.obj
 0001:0006251c       ?dtor$0@?0??AskValidationFileParams@@YA_NAEAIAEAH@Z@4HA 000000018006351c f   IntChecker2-Far3.obj
 0001:00062530       ?dtor$0@?0??RunValidateFiles@@YA_NPEB_W_N1@Z@4HA 0000000180063530 f   IntChecker2-Far3.obj
 0001:0006253c       ?dtor$1@?0??RunValidateFiles@@YA_NPEB_W_N1@Z@4HA 000000018006353c f   IntChecker2-Far3.obj
 0001:00062548       ?dtor$2@?0??RunValidateFiles@@YA_NPEB_W_N1@Z@4HA 0000000180063548 f   IntChecker2-Far3.obj
 0001:00062554       ?dtor$3@?0??RunValidateFiles@@YA_NPEB_W_N1@Z@4HA 0000000180063554 f   IntChecker2-Far3.obj
 0001:00062560       ?dtor$4@?0??RunValidateFiles@@YA_NPEB_W_N1@Z@4HA 0000000180063560 f   IntChecker2-Far3.obj
 0001:0006256c       ?dtor$5@?0??RunValidateFiles@@YA_NPEB_W_N1@Z@4HA 000000018006356c f   IntChecker2-Far3.obj
 0001:00062578       ?dtor$6@?0??RunValidateFiles@@YA_NPEB_W_N1@Z@4HA 0000000180063578 f   IntChecker2-Far3.obj
 0001:00062584       ?dtor$7@?0??RunValidateFiles@@YA_NPEB_W_N1@Z@4HA 0000000180063584 f   IntChecker2-Far3.obj
 0001:00062590       ?dtor$8@?0??RunValidateFiles@@YA_NPEB_W_N1@Z@4HA 0000000180063590 f   IntChecker2-Far3.obj
 0001:000625a0       ?dtor$1@?0??AskForHashGenerationParams@@YA_NAEAUHashGenerationParams@@@Z@4HA 00000001800635a0 f   IntChecker2-Far3.obj
 0001:000625ac       ?dtor$0@?0??AskForHashGenerationParams@@YA_NAEAUHashGenerationParams@@@Z@4HA 00000001800635ac f   IntChecker2-Far3.obj
 0001:000625c0       ?dtor$0@?0??DisplayHashListOnScreen@@YAXAEBVHashList@@@Z@4HA 00000001800635c0 f   IntChecker2-Far3.obj
 0001:000625cc       ?dtor$1@?0??DisplayHashListOnScreen@@YAXAEBVHashList@@@Z@4HA 00000001800635cc f   IntChecker2-Far3.obj
 0001:000625d8       ?dtor$8@?0??DisplayHashListOnScreen@@YAXAEBVHashList@@@Z@4HA 00000001800635d8 f   IntChecker2-Far3.obj
 0001:000625e4       ?dtor$9@?0??DisplayHashListOnScreen@@YAXAEBVHashList@@@Z@4HA 00000001800635e4 f   IntChecker2-Far3.obj
 0001:000625f0       ?dtor$10@?0??DisplayHashListOnScreen@@YAXAEBVHashList@@@Z@4HA 00000001800635f0 f   IntChecker2-Far3.obj
 0001:000625fc       ?dtor$11@?0??DisplayHashListOnScreen@@YAXAEBVHashList@@@Z@4HA 00000001800635fc f   IntChecker2-Far3.obj
 0001:00062608       ?dtor$3@?0??DisplayHashListOnScreen@@YAXAEBVHashList@@@Z@4HA 0000000180063608 f   IntChecker2-Far3.obj
 0001:00062620       ?dtor$13@?0??RunGenerateHashes@@YAXAEAVFar3Panel@@@Z@4HA 0000000180063620 f   IntChecker2-Far3.obj
 0001:00062630       ?dtor$0@?0??RunGenerateHashes@@YAXAEAVFar3Panel@@@Z@4HA 0000000180063630 f   IntChecker2-Far3.obj
 0001:0006263c       ?dtor$1@?0??RunGenerateHashes@@YAXAEAVFar3Panel@@@Z@4HA 000000018006363c f   IntChecker2-Far3.obj
 0001:00062648       ?dtor$2@?0??RunGenerateHashes@@YAXAEAVFar3Panel@@@Z@4HA 0000000180063648 f   IntChecker2-Far3.obj
 0001:00062654       ?dtor$3@?0??RunGenerateHashes@@YAXAEAVFar3Panel@@@Z@4HA 0000000180063654 f   IntChecker2-Far3.obj
 0001:00062660       ?dtor$6@?0??RunGenerateHashes@@YAXAEAVFar3Panel@@@Z@4HA 0000000180063660 f   IntChecker2-Far3.obj
 0001:0006266c       ?dtor$7@?0??RunGenerateHashes@@YAXAEAVFar3Panel@@@Z@4HA 000000018006366c f   IntChecker2-Far3.obj
 0001:00062678       ?dtor$8@?0??RunGenerateHashes@@YAXAEAVFar3Panel@@@Z@4HA 0000000180063678 f   IntChecker2-Far3.obj
 0001:00062684       ?dtor$9@?0??RunGenerateHashes@@YAXAEAVFar3Panel@@@Z@4HA 0000000180063684 f   IntChecker2-Far3.obj
 0001:00062690       ?dtor$35@?0??RunGenerateHashes@@YAXAEAVFar3Panel@@@Z@4HA 0000000180063690 f   IntChecker2-Far3.obj
 0001:0006269c       ?dtor$10@?0??RunGenerateHashes@@YAXAEAVFar3Panel@@@Z@4HA 000000018006369c f   IntChecker2-Far3.obj
 0001:000626a8       ?dtor$11@?0??RunGenerateHashes@@YAXAEAVFar3Panel@@@Z@4HA 00000001800636a8 f   IntChecker2-Far3.obj
 0001:000626c0       ?dtor$1@?0??AskForCompareParams@@YA_NAEAW4rhash_ids@@AEA_NAEAPEAX@Z@4HA 00000001800636c0 f   IntChecker2-Far3.obj
 0001:000626cc       ?dtor$0@?0??AskForCompareParams@@YA_NAEAW4rhash_ids@@AEA_NAEAPEAX@Z@4HA 00000001800636cc f   IntChecker2-Far3.obj
 0001:000626e0       ?dtor$0@?0??RunComparePanels@@YAXXZ@4HA 00000001800636e0 f   IntChecker2-Far3.obj
 0001:000626ec       ?dtor$1@?0??RunComparePanels@@YAXXZ@4HA 00000001800636ec f   IntChecker2-Far3.obj
 0001:000626f8       ?dtor$2@?0??RunComparePanels@@YAXXZ@4HA 00000001800636f8 f   IntChecker2-Far3.obj
 0001:00062704       ?dtor$3@?0??RunComparePanels@@YAXXZ@4HA 0000000180063704 f   IntChecker2-Far3.obj
 0001:00062710       ?dtor$4@?0??RunComparePanels@@YAXXZ@4HA 0000000180063710 f   IntChecker2-Far3.obj
 0001:0006271c       ?dtor$5@?0??RunComparePanels@@YAXXZ@4HA 000000018006371c f   IntChecker2-Far3.obj
 0001:00062728       ?dtor$20@?0??RunComparePanels@@YAXXZ@4HA 0000000180063728 f   IntChecker2-Far3.obj
 0001:00062734       ?dtor$6@?0??RunComparePanels@@YAXXZ@4HA 0000000180063734 f   IntChecker2-Far3.obj
 0001:00062740       ?dtor$22@?0??RunComparePanels@@YAXXZ@4HA 0000000180063740 f   IntChecker2-Far3.obj
 0001:0006274c       ?dtor$7@?0??RunComparePanels@@YAXXZ@4HA 000000018006374c f   IntChecker2-Far3.obj
 0001:00062758       ?dtor$8@?0??RunComparePanels@@YAXXZ@4HA 0000000180063758 f   IntChecker2-Far3.obj
 0001:00062764       ?dtor$9@?0??RunComparePanels@@YAXXZ@4HA 0000000180063764 f   IntChecker2-Far3.obj
 0001:00062770       ?dtor$10@?0??RunComparePanels@@YAXXZ@4HA 0000000180063770 f   IntChecker2-Far3.obj
 0001:0006277c       ?dtor$11@?0??RunComparePanels@@YAXXZ@4HA 000000018006377c f   IntChecker2-Far3.obj
 0001:00062790       ?dtor$0@?0??RunCompareWithClipboard@@YAXAEBV?$basic_string@_WU?$char_traits@_W@std@@V?$allocator@_W@2@@std@@@Z@4HA 0000000180063790 f   IntChecker2-Far3.obj
 0001:0006279c       ?dtor$1@?0??RunCompareWithClipboard@@YAXAEBV?$basic_string@_WU?$char_traits@_W@std@@V?$allocator@_W@2@@std@@@Z@4HA 000000018006379c f   IntChecker2-Far3.obj
 0001:000627a8       ?dtor$2@?0??RunCompareWithClipboard@@YAXAEBV?$basic_string@_WU?$char_traits@_W@std@@V?$allocator@_W@2@@std@@@Z@4HA 00000001800637a8 f   IntChecker2-Far3.obj
 0001:000627b4       ?dtor$3@?0??RunCompareWithClipboard@@YAXAEBV?$basic_string@_WU?$char_traits@_W@std@@V?$allocator@_W@2@@std@@@Z@4HA 00000001800637b4 f   IntChecker2-Far3.obj
 0001:000627c0       ?dtor$4@?0??RunCompareWithClipboard@@YAXAEBV?$basic_string@_WU?$char_traits@_W@std@@V?$allocator@_W@2@@std@@@Z@4HA 00000001800637c0 f   IntChecker2-Far3.obj
 0001:000627d0       ?dtor$1@?0??SelectBenchmarkParams@@YA_NAEAHPEAH@Z@4HA 00000001800637d0 f   IntChecker2-Far3.obj
 0001:000627dc       ?dtor$0@?0??SelectBenchmarkParams@@YA_NAEAHPEAH@Z@4HA 00000001800637dc f   IntChecker2-Far3.obj
 0001:000627e8       ?dtor$2@?0??SelectBenchmarkParams@@YA_NAEAHPEAH@Z@4HA 00000001800637e8 f   IntChecker2-Far3.obj
 0001:00062808       ?dtor$3@?0??SelectBenchmarkParams@@YA_NAEAHPEAH@Z@4HA 0000000180063808 f   IntChecker2-Far3.obj
 0001:00062820       ?dtor$0@?0??RunBenchmark@@YAXXZ@4HA 0000000180063820 f   IntChecker2-Far3.obj
 0001:0006282c       ?dtor$2@?0??RunBenchmark@@YAXXZ@4HA 000000018006382c f   IntChecker2-Far3.obj
 0001:00062838       ?dtor$3@?0??RunBenchmark@@YAXXZ@4HA 0000000180063838 f   IntChecker2-Far3.obj
 0001:00062844       ?dtor$4@?0??RunBenchmark@@YAXXZ@4HA 0000000180063844 f   IntChecker2-Far3.obj
 0001:00062850       ?dtor$5@?0??RunBenchmark@@YAXXZ@4HA 0000000180063850 f   IntChecker2-Far3.obj
 0001:0006285c       ?dtor$7@?0??RunBenchmark@@YAXXZ@4HA 000000018006385c f   IntChecker2-Far3.obj
 0001:00062868       ?dtor$8@?0??RunBenchmark@@YAXXZ@4HA 0000000180063868 f   IntChecker2-Far3.obj
 0001:00062874       ?dtor$9@?0??RunBenchmark@@YAXXZ@4HA 0000000180063874 f   IntChecker2-Far3.obj
 0001:00062880       ?dtor$10@?0??RunBenchmark@@YAXXZ@4HA 0000000180063880 f   IntChecker2-Far3.obj
 0001:0006288c       ?dtor$38@?0??RunBenchmark@@YAXXZ@4HA 000000018006388c f   IntChecker2-Far3.obj
 0001:00062898       ?dtor$11@?0??RunBenchmark@@YAXXZ@4HA 0000000180063898 f   IntChecker2-Far3.obj
 0001:000628b0       ?dtor$0@?0??RunVerifySignatures@@YAXAEAVFar3Panel@@@Z@4HA 00000001800638b0 f   IntChecker2-Far3.obj
 0001:000628bc       ?dtor$1@?0??RunVerifySignatures@@YAXAEAVFar3Panel@@@Z@4HA 00000001800638bc f   IntChecker2-Far3.obj
 0001:000628c8       ?dtor$2@?0??RunVerifySignatures@@YAXAEAVFar3Panel@@@Z@4HA 00000001800638c8 f   IntChecker2-Far3.obj
 0001:000628d4       ?dtor$3@?0??RunVerifySignatures@@YAXAEAVFar3Panel@@@Z@4HA 00000001800638d4 f   IntChecker2-Far3.obj
 0001:000628e0       ?dtor$4@?0??RunVerifySignatures@@YAXAEAVFar3Panel@@@Z@4HA 00000001800638e0 f   IntChecker2-Far3.obj
 0001:000628f0       ?dtor$0@?0??CalculateHashByAlgoName@@YA_NPEB_W0PEA_W_K_NAEA_N@Z@4HA 00000001800638f0 f   IntChecker2-Far3.obj
 0001:000628fc       ?dtor$1@?0??CalculateHashByAlgoName@@YA_NPEB_W0PEA_W_K_NAEA_N@Z@4HA 00000001800638fc f   IntChecker2-Far3.obj
 0001:00062908       ?dtor$2@?0??CalculateHashByAlgoName@@YA_NPEB_W0PEA_W_K_NAEA_N@Z@4HA 0000000180063908 f   IntChecker2-Far3.obj
 0001:00062914       ?dtor$3@?0??CalculateHashByAlgoName@@YA_NPEB_W0PEA_W_K_NAEA_N@Z@4HA 0000000180063914 f   IntChecker2-Far3.obj
 0001:00062920       ?dtor$4@?0??CalculateHashByAlgoName@@YA_NPEB_W0PEA_W_K_NAEA_N@Z@4HA 0000000180063920 f   IntChecker2-Far3.obj
 0001:00062930       ?dtor$0@?0???$_Convert_wide_to_narrow_replace_chars@U?$char_traits@D@std@@V?$allocator@D@2@@filesystem@std@@YA?AV?$basic_string@DU?$char_traits@D@std@@V?$allocator@D@2@@1@W4__std_code_page@@V?$basic_string_view@_WU?$char_traits@_W@std@@@1@AEBV?$allocator@D@1@@Z@4HA 0000000180063930 f   IntChecker2-Far3.obj
 0001:00062960       ?dtor$2@?0???$_Initialize_dir_enum@U_Recursive_dir_enum_impl@filesystem@std@@@_Dir_enum_impl@filesystem@std@@SA?AW4__std_win_error@@AEAV?$shared_ptr@U_Recursive_dir_enum_impl@filesystem@std@@@2@AEBVpath@12@W4directory_options@12@@Z@4HA 0000000180063960 f   IntChecker2-Far3.obj
 0001:0006296c       ?dtor$3@?0???$_Initialize_dir_enum@U_Recursive_dir_enum_impl@filesystem@std@@@_Dir_enum_impl@filesystem@std@@SA?AW4__std_win_error@@AEAV?$shared_ptr@U_Recursive_dir_enum_impl@filesystem@std@@@2@AEBVpath@12@W4directory_options@12@@Z@4HA 000000018006396c f   IntChecker2-Far3.obj
 0001:0006297c       ?dtor$0@?0???$_Initialize_dir_enum@U_Recursive_dir_enum_impl@filesystem@std@@@_Dir_enum_impl@filesystem@std@@SA?AW4__std_win_error@@AEAV?$shared_ptr@U_Recursive_dir_enum_impl@filesystem@std@@@2@AEBVpath@12@W4directory_options@12@@Z@4HA 000000018006397c f   IntChecker2-Far3.obj
 0001:00062988       ?dtor$5@?0???$_Initialize_dir_enum@U_Recursive_dir_enum_impl@filesystem@std@@@_Dir_enum_impl@filesystem@std@@SA?AW4__std_win_error@@AEAV?$shared_ptr@U_Recursive_dir_enum_impl@filesystem@std@@@2@AEBVpath@12@W4directory_options@12@@Z@4HA 0000000180063988 f   IntChecker2-Far3.obj
 0001:000629a5       ?dtor$9@?0???$_Initialize_dir_enum@U_Recursive_dir_enum_impl@filesystem@std@@@_Dir_enum_impl@filesystem@std@@SA?AW4__std_win_error@@AEAV?$shared_ptr@U_Recursive_dir_enum_impl@filesystem@std@@@2@AEBVpath@12@W4directory_options@12@@Z@4HA 00000001800639a5 f   IntChecker2-Far3.obj
 0001:000629b1       ?dtor$10@?0???$_Initialize_dir_enum@U_Recursive_dir_enum_impl@filesystem@std@@@_Dir_enum_impl@filesystem@std@@SA?AW4__std_win_error@@AEAV?$shared_ptr@U_Recursive_dir_enum_impl@filesystem@std@@@2@AEBVpath@12@W4directory_options@12@@Z@4HA 00000001800639b1 f   IntChecker2-Far3.obj
 0001:000629d0       ?dtor$0@?0???$_Emplace_reallocate@AEBUPanelFileInfo@@@?$vector@UPanelFileInfo@@V?$allocator@UPanelFileInfo@@@std@@@std@@QEAAPEAUPanelFileInfo@@QEAU2@AEBU2@@Z@4HA 00000001800639d0 f   IntChecker2-Far3.obj
 0001:000629dc       ?catch$2@?0???$_Emplace_reallocate@AEBUPanelFileInfo@@@?$vector@UPanelFileInfo@@V?$allocator@UPanelFileInfo@@@std@@@std@@QEAAPEAUPanelFileInfo@@QEAU2@AEBU2@@Z@4HA 00000001800639dc f   IntChecker2-Far3.obj
 0001:000629e9       __catch$??$_Emplace_reallocate@AEBUPanelFileInfo@@@?$vector@UPanelFileInfo@@V?$allocator@UPanelFileInfo@@@std@@@std@@QEAAPEAUPanelFileInfo@@QEAU2@AEBU2@@Z$0 00000001800639e9 f   IntChecker2-Far3.obj
 0001:00062a20       ?dtor$0@?0???$_Emplace_reallocate@AEBV?$function@$$A6AX_J@Z@std@@@?$vector@V?$function@$$A6AX_J@Z@std@@V?$allocator@V?$function@$$A6AX_J@Z@std@@@2@@std@@QEAAPEAV?$function@$$A6AX_J@Z@1@QEAV21@AEBV21@@Z@4HA 0000000180063a20 f   IntChecker2-Far3.obj
 0001:00062a2c       ?catch$2@?0???$_Emplace_reallocate@AEBV?$function@$$A6AX_J@Z@std@@@?$vector@V?$function@$$A6AX_J@Z@std@@V?$allocator@V?$function@$$A6AX_J@Z@std@@@2@@std@@QEAAPEAV?$function@$$A6AX_J@Z@1@QEAV21@AEBV21@@Z@4HA 0000000180063a2c f   IntChecker2-Far3.obj
 0001:00062a39       __catch$??$_Emplace_reallocate@AEBV?$function@$$A6AX_J@Z@std@@@?$vector@V?$function@$$A6AX_J@Z@std@@V?$allocator@V?$function@$$A6AX_J@Z@std@@@2@@std@@QEAAPEAV?$function@$$A6AX_J@Z@1@QEAV21@AEBV21@@Z$0 0000000180063a39 f   IntChecker2-Far3.obj
 0001:00062a70       ?catch$0@?0???$_Emplace_reallocate@AEBV?$basic_string@_WU?$char_traits@_W@std@@V?$allocator@_W@2@@std@@@?$vector@V?$basic_string@_WU?$char_traits@_W@std@@V?$allocator@_W@2@@std@@V?$allocator@V?$basic_string@_WU?$char_traits@_W@std@@V?$allocator@_W@2@@std@@@2@@std@@QEAAPEAV?$basic_string@_WU?$char_traits@_W@std@@V?$allocator@_W@2@@1@QEAV21@AEBV21@@Z@4HA 0000000180063a70 f   IntChecker2-Far3.obj
 0001:00062a7d       __catch$??$_Emplace_reallocate@AEBV?$basic_string@_WU?$char_traits@_W@std@@V?$allocator@_W@2@@std@@@?$vector@V?$basic_string@_WU?$char_traits@_W@std@@V?$allocator@_W@2@@std@@V?$allocator@V?$basic_string@_WU?$char_traits@_W@std@@V?$allocator@_W@2@@std@@@2@@std@@QEAAPEAV?$basic_string@_WU?$char_traits@_W@std@@V?$allocator@_W@2@@1@QEAV21@AEBV21@@Z$0 0000000180063a7d f   IntChecker2-Far3.obj
 0001:00062ab0       ?dtor$0@?0??message@_System_error_category@std@@UEBA?AV?$basic_string@DU?$char_traits@D@std@@V?$allocator@D@2@@2@H@Z@4HA 0000000180063ab0 f   IntChecker2-Far3.obj
 0001:00062ac0       ?dtor$0@?0??CopyTextToClipboard@@YA_NAEAV?$vector@V?$basic_string@_WU?$char_traits@_W@std@@V?$allocator@_W@2@@std@@V?$allocator@V?$basic_string@_WU?$char_traits@_W@std@@V?$allocator@_W@2@@std@@@2@@std@@@Z@4HA 0000000180063ac0 f   Utils.obj
 0001:00062acc       ?dtor$3@?0??CopyTextToClipboard@@YA_NAEAV?$vector@V?$basic_string@_WU?$char_traits@_W@std@@V?$allocator@_W@2@@std@@V?$allocator@V?$basic_string@_WU?$char_traits@_W@std@@V?$allocator@_W@2@@std@@@2@@std@@@Z@4HA 0000000180063acc f   Utils.obj
 0001:00062b00       ?dtor$0@?0??ExtractFileExt@@YA?AV?$basic_string@_WU?$char_traits@_W@std@@V?$allocator@_W@2@@std@@AEBV12@@Z@4HA 0000000180063b00 f   Utils.obj
 0001:00062b0c       ?dtor$1@?0??ExtractFileExt@@YA?AV?$basic_string@_WU?$char_traits@_W@std@@V?$allocator@_W@2@@std@@AEBV12@@Z@4HA 0000000180063b0c f   Utils.obj
 0001:00062b40       ?dtor$0@?0??FormatString@@YA?AV?$basic_string@_WU?$char_traits@_W@std@@V?$allocator@_W@2@@std@@V12@ZZ@4HA 0000000180063b40 f   Utils.obj
 0001:00062b50       ?dtor$0@?0??ConvertToUnicode@@YA?AV?$basic_string@_WU?$char_traits@_W@std@@V?$allocator@_W@2@@std@@AEBV?$basic_string@DU?$char_traits@D@std@@V?$allocator@D@2@@2@H@Z@4HA 0000000180063b50 f   Utils.obj
 0001:00062b60       ?dtor$0@?0??PrependLongPrefix@@YA?AV?$basic_string@_WU?$char_traits@_W@std@@V?$allocator@_W@2@@std@@AEBV12@@Z@4HA 0000000180063b60 f   Utils.obj
 0001:00062b90       ?dtor$0@?0???$?6_WU?$char_traits@_W@std@@@std@@YAAEAV?$basic_ostream@_WU?$char_traits@_W@std@@@0@AEAV10@D@Z@4HA 0000000180063b90 f   Utils.obj
 0001:00062b9c       ?dtor$1@?0???$?6_WU?$char_traits@_W@std@@@std@@YAAEAV?$basic_ostream@_WU?$char_traits@_W@std@@@0@AEAV10@D@Z@4HA 0000000180063b9c f   Utils.obj
 0001:00062ba8       ?catch$4@?0???$?6_WU?$char_traits@_W@std@@@std@@YAAEAV?$basic_ostream@_WU?$char_traits@_W@std@@@0@AEAV10@D@Z@4HA 0000000180063ba8 f   Utils.obj
 0001:00062bb5       __catch$??$?6_WU?$char_traits@_W@std@@@std@@YAAEAV?$basic_ostream@_WU?$char_traits@_W@std@@@0@AEAV10@D@Z$0 0000000180063bb5 f   Utils.obj
 0001:00062bf8       ?dtor$0@?0??_Init@locale@std@@CAPEAV_Locimp@12@_N@Z@4HA 0000000180063bf8 f   libcpmt:locale0.obj
 0001:00062c04       __scrt_is_nonwritable_in_current_image$filt$0 0000000180063c04 f   LIBCMT:utility.obj
 0001:00062c1c       ?fin$0@?0???_M@YAXPEAX_K1P6AX0@Z@Z@4HA 0000000180063c1c f   LIBCMT:ehvecdtr.obj
 0001:00062c48       ?filt$0@?0??__ArrayUnwind@@YAXPEAX_K1P6AX0@Z@Z@4HA 0000000180063c48 f   LIBCMT:ehvecdtr.obj
 0001:00062ca7       ?fin$0@?0??dllmain_crt_process_attach@@YAHQEAUHINSTANCE__@@QEAX@Z@4HA 0000000180063ca7 f   LIBCMT:dll_dllmain.obj
 0001:00062cbe       ?fin$0@?0??dllmain_crt_process_detach@@YAH_N@Z@4HA 0000000180063cbe f   LIBCMT:dll_dllmain.obj
 0001:00062cd7       ?fin$1@?0??dllmain_crt_process_detach@@YAH_N@Z@4HA 0000000180063cd7 f   LIBCMT:dll_dllmain.obj
 0001:00062ceb       ?filt$0@?0??dllmain_dispatch@@YAHQEAUHINSTANCE__@@KQEAX@Z@4HA 0000000180063ceb f   LIBCMT:dll_dllmain.obj
 0001:00062d21       ?filt$0@?0???$_CallSETranslator@V__FrameHandler3@@@@YAHPEAUEHExceptionRecord@@PEA_KPEAU_CONTEXT@@PEAU_xDISPATCHER_CONTEXT@@PEBU_s_FuncInfo@@K1H@Z@4HA 0000000180063d21 f   libvcruntime:risctrnsctrl.obj
 0001:00062db2       ?filt$0@?0???$_CallSETranslator@V__FrameHandler4@@@@YAHPEAUEHExceptionRecord@@PEA_KPEAU_CONTEXT@@PEAU_xDISPATCHER_CONTEXT@@PEAUFuncInfo4@FH4@@K1H@Z@4HA 0000000180063db2 f   libvcruntime:risctrnsctrl.obj
 0001:00062e51       __DestructExceptionObject$filt$0 0000000180063e51 f   libvcruntime:ehhelpers.obj
 0001:00062ee7       ?filt$0@?0??CxxCallCatchBlock@__FrameHandler3@@SAPEAXPEAU_EXCEPTION_RECORD@@@Z@4HA 0000000180063ee7 f   libvcruntime:frame.obj
 0001:00062f0c       ?fin$1@?0??CxxCallCatchBlock@__FrameHandler3@@SAPEAXPEAU_EXCEPTION_RECORD@@@Z@4HA 0000000180063f0c f   libvcruntime:frame.obj
 0001:00062f84       ?filt$0@?0??CxxCallCatchBlock@__FrameHandler4@@SAPEAXPEAU_EXCEPTION_RECORD@@@Z@4HA 0000000180063f84 f   libvcruntime:frame.obj
 0001:00062fb3       ?fin$1@?0??CxxCallCatchBlock@__FrameHandler4@@SAPEAXPEAU_EXCEPTION_RECORD@@@Z@4HA 0000000180063fb3 f   libvcruntime:frame.obj
 0001:00063036       ?filt$0@?0??FrameUnwindToState@__FrameHandler3@@SAXPEA_KPEAU_xDISPATCHER_CONTEXT@@PEBU_s_FuncInfo@@H@Z@4HA 0000000180064036 f   libvcruntime:frame.obj
 0001:0006304c       ?fin$1@?0??FrameUnwindToState@__FrameHandler3@@SAXPEA_KPEAU_xDISPATCHER_CONTEXT@@PEBU_s_FuncInfo@@H@Z@4HA 000000018006404c f   libvcruntime:frame.obj
 0001:0006306f       ?filt$0@?0??FrameUnwindToState@__FrameHandler4@@SAXPEA_KPEAU_xDISPATCHER_CONTEXT@@PEAUFuncInfo4@FH4@@H@Z@4HA 000000018006406f f   libvcruntime:frame.obj
 0001:00063085       ?fin$1@?0??FrameUnwindToState@__FrameHandler4@@SAXPEA_KPEAU_xDISPATCHER_CONTEXT@@PEAUFuncInfo4@FH4@@H@Z@4HA 0000000180064085 f   libvcruntime:frame.obj
 0001:000630a8       ?fin$0@?0???$common_fsopen@_W@@YAPEAU_iobuf@@QEB_W0H@Z@4HA 00000001800640a8 f   libucrt:fopen.obj
 0001:000630d3       ?fin$0@?0???$common_fgets@D@@YAPEADQEADHV__crt_stdio_stream@@@Z@4HA 00000001800640d3 f   libucrt:fgets.obj
 0001:000630eb       ?fin$0@?0??_fclose_internal@@YAHQEAU_iobuf@@AEAV__crt_cached_ptd_host@@@Z@4HA 00000001800640eb f   libucrt:fclose.obj
 0001:00063103       ?fin$0@?0???$?RV<lambda_0ae27a3a962d80f24befdcbee591983d>@@AEAV<lambda_8d0ee55de4b1038c4002e0adecdf1839>@@V<lambda_dc504788e8f1664fe9b84e20bfb512f2>@@@?$__crt_seh_guarded_call@X@@QEAAX$$QEAV<lambda_0ae27a3a962d80f24befdcbee591983d>@@AEAV<lambda_8d0ee55de4b1038c4002e0adecdf1839>@@$$QEAV<lambda_dc504788e8f1664fe9b84e20bfb512f2>@@@Z@4HA 0000000180064103 f   libucrt:per_thread_data.obj
 0001:00063103       ?fin$0@?0???$?RV<lambda_2d41944a1d46af3157314b8a01080d33>@@AEAV<lambda_8f455de75cd7d7f24b4096f044d8b9e6>@@V<lambda_aa500f224e6afead328df44964fe2772>@@@?$__crt_seh_guarded_call@X@@QEAAX$$QEAV<lambda_2d41944a1d46af3157314b8a01080d33>@@AEAV<lambda_8f455de75cd7d7f24b4096f044d8b9e6>@@$$QEAV<lambda_aa500f224e6afead328df44964fe2772>@@@Z@4HA 0000000180064103 f   libucrt:per_thread_data.obj
 0001:00063103       ?fin$0@?0???$?RV<lambda_aa87e3671a710a21b5dc78c0bdf72e11>@@AEAV<lambda_92619d2358a28f41a33ba319515a20b9>@@V<lambda_6992ecaafeb10aed2b74cb1fae11a551>@@@?$__crt_seh_guarded_call@X@@QEAAX$$QEAV<lambda_aa87e3671a710a21b5dc78c0bdf72e11>@@AEAV<lambda_92619d2358a28f41a33ba319515a20b9>@@$$QEAV<lambda_6992ecaafeb10aed2b74cb1fae11a551>@@@Z@4HA 0000000180064103 f   libucrt:per_thread_data.obj
 0001:00063103       ?fin$0@?0???$?RV<lambda_f2e299630e499de9f9a165e60fcd3db5>@@AEAV<lambda_2ae9d31cdba2644fcbeaf08da7c24588>@@V<lambda_40d01ff24d0e7b3814fdbdcee8eab3c7>@@@?$__crt_seh_guarded_call@X@@QEAAX$$QEAV<lambda_f2e299630e499de9f9a165e60fcd3db5>@@AEAV<lambda_2ae9d31cdba2644fcbeaf08da7c24588>@@$$QEAV<lambda_40d01ff24d0e7b3814fdbdcee8eab3c7>@@@Z@4HA 0000000180064103 f   libucrt:per_thread_data.obj
 0001:00063103       ?fin$0@?0???$?RV<lambda_48fc4a32460bb0512d3b13f8499328be>@@AEAV<lambda_6c3dac0a4f3f9cefca9bb494422f9b77>@@V<lambda_0a2f2c9f9a56eb2b08bfa6ff61d331c5>@@@?$__crt_seh_guarded_call@H@@QEAAH$$QEAV<lambda_48fc4a32460bb0512d3b13f8499328be>@@AEAV<lambda_6c3dac0a4f3f9cefca9bb494422f9b77>@@$$QEAV<lambda_0a2f2c9f9a56eb2b08bfa6ff61d331c5>@@@Z@4HA 0000000180064103 f   libucrt:winapi_thunks.obj
 0001:00063103       ?fin$0@?0???$?RV<lambda_e9ce07acdb0b138e546925ae9f1a2c9c>@@AEAV<lambda_2116bde18c9e5f34230805ea4a4660ed>@@V<lambda_5d037afbfc54bf1ca80d3d1ee4062886>@@@?$__crt_seh_guarded_call@PEAD@@QEAAPEAD$$QEAV<lambda_e9ce07acdb0b138e546925ae9f1a2c9c>@@AEAV<lambda_2116bde18c9e5f34230805ea4a4660ed>@@$$QEAV<lambda_5d037afbfc54bf1ca80d3d1ee4062886>@@@Z@4HA 0000000180064103 f   libucrt:setlocale.obj
 0001:00063103       ?fin$0@?0???$?RV<lambda_1d892b297fdedeee07ed8124eeb2f2fa>@@AEAV<lambda_ffc046909424fd52df0ac47e64813305>@@V<lambda_01a7098693036236037e7cdb9bca3d73>@@@?$__crt_seh_guarded_call@X@@QEAAX$$QEAV<lambda_1d892b297fdedeee07ed8124eeb2f2fa>@@AEAV<lambda_ffc046909424fd52df0ac47e64813305>@@$$QEAV<lambda_01a7098693036236037e7cdb9bca3d73>@@@Z@4HA 0000000180064103 f   libucrt:wsetlocale.obj
 0001:00063103       ?fin$0@?0???$?RV<lambda_450d765d439847d4c735a33c368b5fc0>@@AEAV<lambda_44731a7d0e6d81c3e6aa82d741081786>@@V<lambda_601a2a7da3b7a96e9554ac7215c4b07c>@@@?$__crt_seh_guarded_call@P6AXH@Z@@QEAAP6AXH@Z$$QEAV<lambda_450d765d439847d4c735a33c368b5fc0>@@AEAV<lambda_44731a7d0e6d81c3e6aa82d741081786>@@$$QEAV<lambda_601a2a7da3b7a96e9554ac7215c4b07c>@@@Z@4HA 0000000180064103 f   libucrt:signal.obj
 0001:00063103       ?fin$0@?0???$?RV<lambda_d80eeec6fff315bfe5c115232f3240e3>@@AEAV<lambda_6e4b09c48022b2350581041d5f6b0c4c>@@V<lambda_2358e3775559c9db80273638284d5e45>@@@?$__crt_seh_guarded_call@X@@QEAAX$$QEAV<lambda_d80eeec6fff315bfe5c115232f3240e3>@@AEAV<lambda_6e4b09c48022b2350581041d5f6b0c4c>@@$$QEAV<lambda_2358e3775559c9db80273638284d5e45>@@@Z@4HA 0000000180064103 f   libucrt:exit.obj
 0001:00063103       ?fin$0@?0???$?RV<lambda_638799b9deba96c50f710eeac98168cd>@@AEAV<lambda_22ebabd17bc4fa466a2aca6d8deb888d>@@V<lambda_a6f7d7db0129f75315ebf26d50c089f1>@@@?$__crt_seh_guarded_call@H@@QEAAH$$QEAV<lambda_638799b9deba96c50f710eeac98168cd>@@AEAV<lambda_22ebabd17bc4fa466a2aca6d8deb888d>@@$$QEAV<lambda_a6f7d7db0129f75315ebf26d50c089f1>@@@Z@4HA 0000000180064103 f   libucrt:onexit.obj
 0001:00063103       ?fin$0@?0???$?RV<lambda_7777bce6b2f8c936911f934f8298dc43>@@AEAV<lambda_f03950bc5685219e0bcd2087efbe011e>@@V<lambda_3883c3dff614d5e0c5f61bb1ac94921c>@@@?$__crt_seh_guarded_call@H@@QEAAH$$QEAV<lambda_7777bce6b2f8c936911f934f8298dc43>@@AEAV<lambda_f03950bc5685219e0bcd2087efbe011e>@@$$QEAV<lambda_3883c3dff614d5e0c5f61bb1ac94921c>@@@Z@4HA 0000000180064103 f   libucrt:onexit.obj
 0001:0006311d       _query_new_handler$fin$0   000000018006411d f   libucrt:new_handler.obj
 0001:00063133       ?filt$0@?0???R<lambda_6e4b09c48022b2350581041d5f6b0c4c>@@QEBA@XZ@4HA 0000000180064133 f   libucrt:exit.obj
 0001:00063160       ?fin$0@?0???$?RV<lambda_410d79af7f07d98d83a3f525b3859a53>@@AEAV<lambda_3e16ef9562a7dcce91392c22ab16ea36>@@V<lambda_38119f0e861e05405d8a144b9b982f0a>@@@?$__crt_seh_guarded_call@X@@QEAAX$$QEAV<lambda_410d79af7f07d98d83a3f525b3859a53>@@AEAV<lambda_3e16ef9562a7dcce91392c22ab16ea36>@@$$QEAV<lambda_38119f0e861e05405d8a144b9b982f0a>@@@Z@4HA 0000000180064160 f   libucrt:wsetlocale.obj
 0001:0006317a       ?fin$0@?0???$?RV<lambda_e9338f07fe435327d97d4ef86149e64d>@@AEAV<lambda_2a444430fde8c29194d880d93eed5e8f>@@AEAV<lambda_02db5278e8aef8b5e4976579d73f5304>@@@?$__crt_seh_guarded_call@X@@QEAAX$$QEAV<lambda_e9338f07fe435327d97d4ef86149e64d>@@AEAV<lambda_2a444430fde8c29194d880d93eed5e8f>@@AEAV<lambda_02db5278e8aef8b5e4976579d73f5304>@@@Z@4HA 000000018006417a f   libucrt:wsetlocale.obj
 0001:0006319b       _fcloseall$fin$0           000000018006419b f   libucrt:closeall.obj
 0001:0006319b       ?fin$0@?0??__acrt_stdio_allocate_stream@@YA?AV__crt_stdio_stream@@XZ@4HA 000000018006419b f   libucrt:stream.obj
 0001:000631b4       __acrt_initialize_lowio$fin$0 00000001800641b4 f   libucrt:ioinit.obj
 0001:000631b4       __acrt_lowio_ensure_fh_exists$fin$0 00000001800641b4 f   libucrt:osfinfo.obj
 0001:000631b4       _alloc_osfhnd$fin$0        00000001800641b4 f   libucrt:osfinfo.obj
 0001:000631cd       ?fin$0@?0???$?RV<lambda_ad8af0d99a0adf03d037d7dffe354bb5>@@AEAV<lambda_c9ba49e555ba839a7b07aa3fbecb7617>@@V<lambda_2f1ebd5d68526518146ae959c9e734c8>@@@?$__crt_seh_guarded_call@H@@QEAAH$$QEAV<lambda_ad8af0d99a0adf03d037d7dffe354bb5>@@AEAV<lambda_c9ba49e555ba839a7b07aa3fbecb7617>@@$$QEAV<lambda_2f1ebd5d68526518146ae959c9e734c8>@@@Z@4HA 00000001800641cd f   libucrt:close.obj
 0001:000631cd       ?fin$0@?0???$?RV<lambda_a37b2b86f63e897a80ea819b0eb08c01>@@AEAV<lambda_38ce7e780aa69e748d6df282ebc68efe>@@V<lambda_99fb1378e971ab6e7edea83e3a7a83a2>@@@?$__crt_seh_guarded_call@H@@QEAAH$$QEAV<lambda_a37b2b86f63e897a80ea819b0eb08c01>@@AEAV<lambda_38ce7e780aa69e748d6df282ebc68efe>@@$$QEAV<lambda_99fb1378e971ab6e7edea83e3a7a83a2>@@@Z@4HA 00000001800641cd f   libucrt:commit.obj
 0001:000631e7       ?fin$0@?0???$?RV<lambda_842d9ff0dc9ef11c61343bbaebe7f885>@@AEAV<lambda_c5860995281e5c4ce005b3de8f5874ee>@@V<lambda_d90129c13df834fdcbf8d2b88dafcf2d>@@@?$__crt_seh_guarded_call@X@@QEAAX$$QEAV<lambda_842d9ff0dc9ef11c61343bbaebe7f885>@@AEAV<lambda_c5860995281e5c4ce005b3de8f5874ee>@@$$QEAV<lambda_d90129c13df834fdcbf8d2b88dafcf2d>@@@Z@4HA 00000001800641e7 f   libucrt:fflush.obj
 0001:00063202       ?fin$0@?0???$?RV<lambda_886d6c58226a84441f68b9f2b8217b83>@@AEAV<lambda_ab61a845afdef5b7c387490eaf3616ee>@@V<lambda_f7f22ab5edc0698d5f6905b0d3f44752>@@@?$__crt_seh_guarded_call@X@@QEAAX$$QEAV<lambda_886d6c58226a84441f68b9f2b8217b83>@@AEAV<lambda_ab61a845afdef5b7c387490eaf3616ee>@@$$QEAV<lambda_f7f22ab5edc0698d5f6905b0d3f44752>@@@Z@4HA 0000000180064202 f   libucrt:fflush.obj
 0001:0006321f       _read$fin$0                000000018006421f f   libucrt:read.obj
 0001:00063236       _ctrlfp$filt$0             0000000180064236 f   libucrt:fpctrl.obj
 0001:00063236       common_control87$filt$0    0000000180064236 f   libucrt:ieee.obj
 0001:00063262       raise$fin$0                0000000180064262 f   libucrt:signal.obj
 0001:00063283       ?fin$0@?0???$?RV<lambda_efdfa57d1f175319df784efa44bb7b81>@@AEAV<lambda_5f0a4c1567f8adc6734073e5d1e1b35c>@@V<lambda_2e8a7d3640ea6ccb4c2413664c2db6fd>@@@?$__crt_seh_guarded_call@X@@QEAAX$$QEAV<lambda_efdfa57d1f175319df784efa44bb7b81>@@AEAV<lambda_5f0a4c1567f8adc6734073e5d1e1b35c>@@$$QEAV<lambda_2e8a7d3640ea6ccb4c2413664c2db6fd>@@@Z@4HA 0000000180064283 f   libucrt:mbctype.obj
 0001:0006329d       ?fin$0@?0??update_thread_multibyte_data_internal@@YAPEAU__crt_multibyte_data@@QEAU__acrt_ptd@@QEAPEAU1@@Z@4HA 000000018006429d f   libucrt:mbctype.obj
 0001:000632b6       __acrt_update_thread_locale_data$fin$0 00000001800642b6 f   libucrt:locale_refcounting.obj
 0001:000632cf       ?fin$0@?0???$common_sopen_dispatch@_W@@YAHQEB_WHHHQEAHH@Z@4HA 00000001800642cf f   libucrt:open.obj
 0001:00063322       _write_internal$fin$0      0000000180064322 f   libucrt:write.obj
 0001:00063340       _IsNonwritableInCurrentImage$filt$0 0000000180064340 f   LIBCMT:pesect.obj
 0001:00063360       ??__FSupportedHashes@@YAXXZ 0000000180064360 f   hashing.obj
 0001:0006337c       ??__F_Fac_tidy_reg@std@@YAXXZ 000000018006437c f   libcpmt:locale0.obj
 0001:000633d8       ??__Fclassic_locale@std@@YAXXZ 00000001800643d8 f   libcpmt:locale0.obj
 0001:00063418       ??__Finitlocks@std@@YAXXZ  0000000180064418 f   libcpmt:xlock.obj
 0001:00063424       ??__Finit_atexit@@YAXXZ    0000000180064424 f   libcpmt:iosptrs.obj
 0001:00063464       ??__Finitlocks@std@@YAXXZ  0000000180064464 f   libcpmt:iosptrs.obj
 0002:000003a8       ?initlocks$initializer$@std@@3P6AXXZEA 00000001800653a8     libcpmt:xlock.obj
 0002:000003b0       ?initlocks$initializer$@std@@3P6AXXZEA 00000001800653b0     libcpmt:iosptrs.obj
 0002:000003b8       ?init_atexit$initializer$@@3P6AXXZEA 00000001800653b8     libcpmt:iosptrs.obj
 0002:000003c0       ?_Fac_tidy_reg$initializer$@std@@3P6AXXZEA 00000001800653c0     libcpmt:locale0.obj
 0002:000003c8       ?classic_locale$initializer$@std@@3P6AXXZEA 00000001800653c8     libcpmt:locale0.obj
 0002:000003d0       ?SupportedHashes$initializer$@@3P6AXXZEA 00000001800653d0     hashing.obj
 0002:000003e8       ?pinit@@3P6AHXZEA          00000001800653e8     libcpmt:winapisupp.obj
 0002:00000b60       ?_Win_errtab@?A0x7cf63ef4@@3QBU_Win_errtab_t@1@B 0000000180065b60     libcpmt:syserror.obj
 0002:00000de0       ?_Sys_errtab@?A0x7cf63ef4@@3QBU_Sys_errtab_t@1@B 0000000180065de0     libcpmt:syserror.obj
 0002:00001980       ?_Whitespace_bitmap@?A0xc841f2b0@@3U_Whitespace_bitmap_t@1@B 0000000180066980     libcpmt:syserror_import_lib.obj
 0002:00001fc8       digits                     0000000180066fc8     libcpmt:xstoul.obj
 0002:00001ff0       ndigs                      0000000180066ff0     libcpmt:xstoul.obj
 0002:00002018       digits                     0000000180067018     libcpmt:xstoull.obj
 0002:00002040       ndigs                      0000000180067040     libcpmt:xstoull.obj
 0002:00002080       GS_ExceptionPointers       0000000180067080     LIBCMT:gs_report.obj
 0002:000020b0       ?ExceptionTemplate@?1??UnwindNestedFrames@__FrameHandler4@@SAXPEA_KPEAUEHExceptionRecord@@PEAU_CONTEXT@@0PEAXPEAUFuncInfo4@FH4@@HHPEAUHandlerType4@6@PEAU_xDISPATCHER_CONTEXT@@E@Z@4U_EXCEPTION_RECORD@@B 00000001800670b0     libvcruntime:risctrnsctrl.obj
 0002:00002150       ?ExceptionTemplate@?1??UnwindNestedFrames@__FrameHandler3@@SAXPEA_KPEAUEHExceptionRecord@@PEAU_CONTEXT@@0PEAXPEBU_s_FuncInfo@@HHPEBU_s_HandlerType@@PEAU_xDISPATCHER_CONTEXT@@E@Z@4U_EXCEPTION_RECORD@@B 0000000180067150     libvcruntime:risctrnsctrl.obj
 0002:00002220       ?tokenTable@@3QBUStringLiteral@@B 0000000180067220     libvcruntime:undname.obj
 0002:00002320       ?nameTable@@3QBUStringLiteral@@B 0000000180067320     libvcruntime:undname.obj
 0002:00002850       ?rttiTable@@3QBUStringLiteral@@B 0000000180067850     libvcruntime:undname.obj
 0002:000028a0       ?IndirectionName@@3QBUStringLiteral@@B 00000001800678a0     libvcruntime:undname.obj
 0002:00002900       ?PrefixName@@3QBUStringLiteral@@B 0000000180067900     libvcruntime:undname.obj
 0002:00002fd0       ?module_names@?A0x6b2bd6b2@@3QBQEB_WB 0000000180067fd0     libvcruntime:winapi_downlevel.obj
 0002:00003090       ?candidate_modules@?1??try_get_FlsAlloc@@YAP6AKP6AXPEAX@Z@ZXZ@4QBW4module_id@?A0x6b2bd6b2@@B 0000000180068090     libvcruntime:winapi_downlevel.obj
 0002:00003098       ?candidate_modules@?1??try_get_FlsFree@@YAP6AHK@ZXZ@4QBW4module_id@?A0x6b2bd6b2@@B 0000000180068098     libvcruntime:winapi_downlevel.obj
 0002:000030a0       ?candidate_modules@?1??try_get_FlsGetValue@@YAP6APEAXK@ZXZ@4QBW4module_id@?A0x6b2bd6b2@@B 00000001800680a0     libvcruntime:winapi_downlevel.obj
 0002:000030a8       ?candidate_modules@?1??try_get_FlsSetValue@@YAP6AHKPEAX@ZXZ@4QBW4module_id@?A0x6b2bd6b2@@B 00000001800680a8     libvcruntime:winapi_downlevel.obj
 0002:000030b0       ?candidate_modules@?1??try_get_InitializeCriticalSectionEx@@YAP6AHPEAU_RTL_CRITICAL_SECTION@@KK@ZXZ@4QBW4module_id@?A0x6b2bd6b2@@B 00000001800680b0     libvcruntime:winapi_downlevel.obj
 0002:000031e0       ?errtable@@3QBUerrentry@?A0x31fdb9ec@@B 00000001800681e0     libucrt:errno.obj
 0002:00004530       __flag_x_one_y_snan        0000000180069530     libucrt:pow.obj
 0002:00004534       __flag_x_zero_z_inf        0000000180069534     libucrt:pow.obj
 0002:00004538       __flag_x_nan               0000000180069538     libucrt:pow.obj
 0002:0000453c       __flag_y_nan               000000018006953c     libucrt:pow.obj
 0002:00004540       __flag_x_nan_y_nan         0000000180069540     libucrt:pow.obj
 0002:00004544       __flag_x_neg_y_notint      0000000180069544     libucrt:pow.obj
 0002:00004548       __flag_z_zero              0000000180069548     libucrt:pow.obj
 0002:0000454c       __flag_z_denormal          000000018006954c     libucrt:pow.obj
 0002:00004550       __flag_z_inf               0000000180069550     libucrt:pow.obj
 0002:00004560       __ay_max_bound             0000000180069560     libucrt:pow.obj
 0002:00004568       __ay_min_bound             0000000180069568     libucrt:pow.obj
 0002:00004570       __sign_mask                0000000180069570     libucrt:pow.obj
 0002:00004578       __sign_and_exp_mask        0000000180069578     libucrt:pow.obj
 0002:00004580       __exp_mask                 0000000180069580     libucrt:pow.obj
 0002:00004588       __neg_inf                  0000000180069588     libucrt:pow.obj
 0002:00004590       __pos_inf                  0000000180069590     libucrt:pow.obj
 0002:00004598       __pos_one                  0000000180069598     libucrt:pow.obj
 0002:000045a0       __pos_zero                 00000001800695a0     libucrt:pow.obj
 0002:000045a8       __exp_mant_mask            00000001800695a8     libucrt:pow.obj
 0002:000045b0       __mant_mask                00000001800695b0     libucrt:pow.obj
 0002:000045b8       __ind_pattern              00000001800695b8     libucrt:pow.obj
 0002:000045c0       __neg_qnan                 00000001800695c0     libucrt:pow.obj
 0002:000045c8       __qnan                     00000001800695c8     libucrt:pow.obj
 0002:000045d0       __qnan_set                 00000001800695d0     libucrt:pow.obj
 0002:000045d8       __neg_one                  00000001800695d8     libucrt:pow.obj
 0002:000045e0       __neg_zero                 00000001800695e0     libucrt:pow.obj
 0002:000045e8       __exp_shift                00000001800695e8     libucrt:pow.obj
 0002:000045f0       __exp_bias                 00000001800695f0     libucrt:pow.obj
 0002:000045f8       __exp_bias_m1              00000001800695f8     libucrt:pow.obj
 0002:00004600       __yexp_53                  0000000180069600     libucrt:pow.obj
 0002:00004608       __mant_full                0000000180069608     libucrt:pow.obj
 0002:00004610       __1_before_mant            0000000180069610     libucrt:pow.obj
 0002:00004618       __mask_mant_all8           0000000180069618     libucrt:pow.obj
 0002:00004620       __mask_mant9               0000000180069620     libucrt:pow.obj
 0002:00004630       __real_fffffffff8000000    0000000180069630     libucrt:pow.obj
 0002:00004640       __mask_8000000000000000    0000000180069640     libucrt:pow.obj
 0002:00004650       __real_4090040000000000    0000000180069650     libucrt:pow.obj
 0002:00004660       __real_C090C80000000000    0000000180069660     libucrt:pow.obj
 0002:00004670       __real_ninf                0000000180069670     libucrt:pow.obj
 0002:00004680       __real_inf                 0000000180069680     libucrt:pow.obj
 0002:00004690       __real_nan                 0000000180069690     libucrt:pow.obj
 0002:000046a0       __real_mant                00000001800696a0     libucrt:pow.obj
 0002:000046b0       __mask_1023                00000001800696b0     libucrt:pow.obj
 0002:000046c0       __mask_001                 00000001800696c0     libucrt:pow.obj
 0002:000046d0       __real_log2_lead           00000001800696d0     libucrt:pow.obj
 0002:000046e0       __real_log2_tail           00000001800696e0     libucrt:pow.obj
 0002:000046f0       __real_two                 00000001800696f0     libucrt:pow.obj
 0002:00004700       __real_one                 0000000180069700     libucrt:pow.obj
 0002:00004710       __real_half                0000000180069710     libucrt:pow.obj
 0002:00004720       __mask_100                 0000000180069720     libucrt:pow.obj
 0002:00004730       __real_1_over_2            0000000180069730     libucrt:pow.obj
 0002:00004740       __real_1_over_3            0000000180069740     libucrt:pow.obj
 0002:00004750       __real_1_over_4            0000000180069750     libucrt:pow.obj
 0002:00004760       __real_1_over_5            0000000180069760     libucrt:pow.obj
 0002:00004770       __real_1_over_6            0000000180069770     libucrt:pow.obj
 0002:00004780       __real_1_over_7            0000000180069780     libucrt:pow.obj
 0002:00004790       __mask_1023_f              0000000180069790     libucrt:pow.obj
 0002:000047a0       __mask_2045                00000001800697a0     libucrt:pow.obj
 0002:000047b0       __real_threshold           00000001800697b0     libucrt:pow.obj
 0002:000047c0       __real_notsign             00000001800697c0     libucrt:pow.obj
 0002:000047d0       __log_F_inv_head           00000001800697d0     libucrt:pow.obj
 0002:00004fe0       __log_F_inv_tail           0000000180069fe0     libucrt:pow.obj
 0002:000057f0       __denormal_threshold       000000018006a7f0     libucrt:pow.obj
 0002:00005800       __enable_almost_inf        000000018006a800     libucrt:pow.obj
 0002:00005810       __real_zero                000000018006a810     libucrt:pow.obj
 0002:00005820       __real_smallest_denormal   000000018006a820     libucrt:pow.obj
 0002:00005830       __denormal_tiny_threshold  000000018006a830     libucrt:pow.obj
 0002:00005840       __real_p65536              000000018006a840     libucrt:pow.obj
 0002:00005850       __real_m68800              000000018006a850     libucrt:pow.obj
 0002:00005860       __real_64_by_log2          000000018006a860     libucrt:pow.obj
 0002:00005870       __real_log2_by_64_head     000000018006a870     libucrt:pow.obj
 0002:00005880       __real_log2_by_64_tail     000000018006a880     libucrt:pow.obj
 0002:00005890       __real_1_by_720            000000018006a890     libucrt:pow.obj
 0002:000058a0       __real_1_by_120            000000018006a8a0     libucrt:pow.obj
 0002:000058b0       __real_1_by_24             000000018006a8b0     libucrt:pow.obj
 0002:000058c0       __real_1_by_6              000000018006a8c0     libucrt:pow.obj
 0002:000058d0       __real_1_by_2              000000018006a8d0     libucrt:pow.obj
 0002:000058e0       __flag_x_one_y_snan        000000018006a8e0     libucrt:powf.obj
 0002:000058e4       __flag_x_zero_z_inf        000000018006a8e4     libucrt:powf.obj
 0002:000058e8       __flag_x_nan               000000018006a8e8     libucrt:powf.obj
 0002:000058ec       __flag_y_nan               000000018006a8ec     libucrt:powf.obj
 0002:000058f0       __flag_x_nan_y_nan         000000018006a8f0     libucrt:powf.obj
 0002:000058f4       __flag_x_neg_y_notint      000000018006a8f4     libucrt:powf.obj
 0002:000058f8       __flag_z_zero              000000018006a8f8     libucrt:powf.obj
 0002:000058fc       __flag_z_denormal          000000018006a8fc     libucrt:powf.obj
 0002:00005900       __flag_z_inf               000000018006a900     libucrt:powf.obj
 0002:00005904       L__1_by_3                  000000018006a904     libucrt:powf.obj
 0002:0000590c       L__log2                    000000018006a90c     libucrt:powf.obj
 0002:00005914       L__max_exp_arg             000000018006a914     libucrt:powf.obj
 0002:0000591c       L__min_exp_arg             000000018006a91c     libucrt:powf.obj
 0002:00005924       L__real_log2_by_64         000000018006a924     libucrt:powf.obj
 0002:0000592c       L__1_by_6                  000000018006a92c     libucrt:powf.obj
 0002:00005934       L__real_threshold          000000018006a934     libucrt:powf.obj
 0002:0000593c       L__real_one                000000018006a93c     libucrt:powf.obj
 0002:00005944       L__real_two                000000018006a944     libucrt:powf.obj
 0002:0000594c       L__neg_zero                000000018006a94c     libucrt:powf.obj
 0002:00005960       L__real_ca42               000000018006a960     libucrt:powf.obj
 0002:00005968       L__real_ca4                000000018006a968     libucrt:powf.obj
 0002:00005970       L__real_ca31               000000018006a970     libucrt:powf.obj
 0002:00005978       L__real_ca3                000000018006a978     libucrt:powf.obj
 0002:00005980       L__clear_sign              000000018006a980     libucrt:powf.obj
 0002:00005990       L__real_64_by_log2         000000018006a990     libucrt:powf.obj
 0002:000059a0       L__1_by_2                  000000018006a9a0     libucrt:powf.obj
 0002:000059b0       L__1023                    000000018006a9b0     libucrt:powf.obj
 0002:000059c0       L__xexp_bits_xmantissa_bits 000000018006a9c0     libucrt:powf.obj
 0002:000062b8       $cppxdata$?try_cor_exit_process@@YAXI@Z 000000018006b2b8     libucrt:exit.obj
 0002:000062e0       $cppxdata$?common_exit@@YAXHW4_crt_exit_cleanup_mode@@W4_crt_exit_return_mode@@@Z 000000018006b2e0     libucrt:exit.obj
 0002:00006330       $cppxdata$__dcrt_uninitialize_environments_nolock 000000018006b330     libucrt:environment_initialization.obj
 0002:00006358       $cppxdata$_execute_onexit_table 000000018006b358     libucrt:onexit.obj
 0002:00006380       __acrt_initializers        000000018006b380     libucrt:initialization.obj
 0002:00006480       _first_127char             000000018006b480     libucrt:wsetlocale.obj
 0002:00006d00       ?strings@?1??fp_format_nan_or_infinity@@YAHW4__acrt_fp_class@@_NPEAD_K1@Z@4QAY03QEBDA 000000018006bd00     libucrt:cvt.obj
 0002:00006de0       ?module_names@?A0x391cf84c@@3QBQEB_WB 000000018006bde0     libucrt:winapi_thunks.obj
 0002:000072e8       ?candidate_modules@?1??try_get_AreFileApisANSI@@YAP6AHXZXZ@4QBW4module_id@?A0x391cf84c@@B 000000018006c2e8     libucrt:winapi_thunks.obj
 0002:00007300       ?candidate_modules@?1??try_get_CompareStringEx@@YAP6AHPEB_WK0H0HPEAU_nlsversioninfo@@PEAX_J@ZXZ@4QBW4module_id@?A0x391cf84c@@B 000000018006c300     libucrt:winapi_thunks.obj
 0002:00007308       ?candidate_modules@?1??try_get_EnumSystemLocalesEx@@YAP6AHP6AHPEA_WK_J@ZK1PEAX@ZXZ@4QBW4module_id@?A0x391cf84c@@B 000000018006c308     libucrt:winapi_thunks.obj
 0002:00007328       ?candidate_modules@?1??try_get_GetDateFormatEx@@YAP6AHPEB_WKPEBU_SYSTEMTIME@@0PEA_WH0@ZXZ@4QBW4module_id@?A0x391cf84c@@B 000000018006c328     libucrt:winapi_thunks.obj
 0002:00007340       ?candidate_modules@?1??try_get_GetLocaleInfoEx@@YAP6AHPEB_WKPEA_WH@ZXZ@4QBW4module_id@?A0x391cf84c@@B 000000018006c340     libucrt:winapi_thunks.obj
 0002:00007348       ?candidate_modules@?1??try_get_GetTimeFormatEx@@YAP6AHPEB_WKPEBU_SYSTEMTIME@@0PEA_WH@ZXZ@4QBW4module_id@?A0x391cf84c@@B 000000018006c348     libucrt:winapi_thunks.obj
 0002:00007360       ?candidate_modules@?1??try_get_GetUserDefaultLocaleName@@YAP6AHPEA_WH@ZXZ@4QBW4module_id@?A0x391cf84c@@B 000000018006c360     libucrt:winapi_thunks.obj
 0002:00007388       ?candidate_modules@?1??try_get_InitializeCriticalSectionEx@@YAP6AHPEAU_RTL_CRITICAL_SECTION@@KK@ZXZ@4QBW4module_id@?A0x391cf84c@@B 000000018006c388     libucrt:winapi_thunks.obj
 0002:00007390       ?candidate_modules@?1??try_get_IsValidLocaleName@@YAP6AHPEB_W@ZXZ@4QBW4module_id@?A0x391cf84c@@B 000000018006c390     libucrt:winapi_thunks.obj
 0002:000073b0       ?candidate_modules@?1??try_get_LCMapStringEx@@YAP6AHPEB_WK0HPEA_WHPEAU_nlsversioninfo@@PEAX_J@ZXZ@4QBW4module_id@?A0x391cf84c@@B 000000018006c3b0     libucrt:winapi_thunks.obj
 0002:000073b8       ?candidate_modules@?1??try_get_LCIDToLocaleName@@YAP6AHKPEA_WHK@ZXZ@4QBW4module_id@?A0x391cf84c@@B 000000018006c3b8     libucrt:winapi_thunks.obj
 0002:000073d8       ?candidate_modules@?1??try_get_LocaleNameToLCID@@YAP6AKPEB_WK@ZXZ@4QBW4module_id@?A0x391cf84c@@B 000000018006c3d8     libucrt:winapi_thunks.obj
 0002:000073f4       ?candidate_modules@?1??try_get_AppPolicyGetProcessTerminationMethod@@YAP6AJPEAXPEAW4AppPolicyProcessTerminationMethod@@@ZXZ@4QBW4module_id@?A0x391cf84c@@B 000000018006c3f4     libucrt:winapi_thunks.obj
 0002:00007420       ?candidate_modules@?1??try_get_SystemFunction036@@YAP6AEPEAXK@ZXZ@4QBW4module_id@?A0x391cf84c@@B 000000018006c420     libucrt:winapi_thunks.obj
 0002:00007440       $cppxdata$?_mbstowcs_l_helper@@YA_KPEA_WPEBD_KAEAV__crt_cached_ptd_host@@@Z 000000018006c440     libucrt:mbstowcs.obj
 0002:000092c0       ?_mb_locale_names@@3QBQEB_WB 000000018006e2c0     libucrt:mbctype.obj
 0002:0000a310       $cppxdata$?write_double_translated_ansi_nolock@@YA?AUwrite_result@?A0x17268360@@HQEBDIAEAV__crt_cached_ptd_host@@@Z 000000018006f310     libucrt:write.obj
 0002:0000a360       ?LcidToLocaleNameTable@?A0x881e4c05@@3QBULcidToLocaleName@1@B 000000018006f360     libucrt:lcidtoname_downlevel.obj
 0002:0000bdb0       ?LocaleNameToIndexTable@?A0x881e4c05@@3QBULocaleNameIndex@1@B 0000000180070db0     libucrt:lcidtoname_downlevel.obj
 0002:0000d650       __real@433fffffffffffff    0000000180072650     libucrt:fpsr.obj
 0002:0000d658       __real@c33fffffffffffff    0000000180072658     libucrt:fpsr.obj
 0002:0000d660       __real_ninf                0000000180072660     libucrt:log10.obj
 0002:0000d670       __real_inf                 0000000180072670     libucrt:log10.obj
 0002:0000d680       __real_neg_qnan            0000000180072680     libucrt:log10.obj
 0002:0000d690       __real_qnanbit             0000000180072690     libucrt:log10.obj
 0002:0000d6a0       __int_1023                 00000001800726a0     libucrt:log10.obj
 0002:0000d6b0       __mask_001                 00000001800726b0     libucrt:log10.obj
 0002:0000d6c0       __mask_mant                00000001800726c0     libucrt:log10.obj
 0002:0000d6d0       __mask_mant_top8           00000001800726d0     libucrt:log10.obj
 0002:0000d6e0       __mask_mant9               00000001800726e0     libucrt:log10.obj
 0002:0000d6f0       __real_log10_e             00000001800726f0     libucrt:log10.obj
 0002:0000d700       __real_log10_e_lead        0000000180072700     libucrt:log10.obj
 0002:0000d710       __real_log10_e_tail        0000000180072710     libucrt:log10.obj
 0002:0000d720       __real_log10_2_lead        0000000180072720     libucrt:log10.obj
 0002:0000d730       __real_log10_2_tail        0000000180072730     libucrt:log10.obj
 0002:0000d740       __real_two                 0000000180072740     libucrt:log10.obj
 0002:0000d750       __real_one                 0000000180072750     libucrt:log10.obj
 0002:0000d760       __real_half                0000000180072760     libucrt:log10.obj
 0002:0000d770       __mask_100                 0000000180072770     libucrt:log10.obj
 0002:0000d780       __real_1_over_512          0000000180072780     libucrt:log10.obj
 0002:0000d790       __real_1_over_2            0000000180072790     libucrt:log10.obj
 0002:0000d7a0       __real_1_over_3            00000001800727a0     libucrt:log10.obj
 0002:0000d7b0       __real_1_over_4            00000001800727b0     libucrt:log10.obj
 0002:0000d7c0       __real_1_over_5            00000001800727c0     libucrt:log10.obj
 0002:0000d7d0       __real_1_over_6            00000001800727d0     libucrt:log10.obj
 0002:0000d7e0       __real_neg_1023            00000001800727e0     libucrt:log10.obj
 0002:0000d7f0       __mask_2045                00000001800727f0     libucrt:log10.obj
 0002:0000d800       __real_threshold           0000000180072800     libucrt:log10.obj
 0002:0000d810       __real_near_one_lt         0000000180072810     libucrt:log10.obj
 0002:0000d820       __real_near_one_gt         0000000180072820     libucrt:log10.obj
 0002:0000d830       __real_min_norm            0000000180072830     libucrt:log10.obj
 0002:0000d840       __real_notsign             0000000180072840     libucrt:log10.obj
 0002:0000d850       __real_ca1                 0000000180072850     libucrt:log10.obj
 0002:0000d860       __real_ca2                 0000000180072860     libucrt:log10.obj
 0002:0000d870       __real_ca3                 0000000180072870     libucrt:log10.obj
 0002:0000d880       __real_ca4                 0000000180072880     libucrt:log10.obj
 0002:0000d890       __mask_lower               0000000180072890     libucrt:log10.obj
 0002:0000d8a0       __flag_x_zero              00000001800728a0     libucrt:log10.obj
 0002:0000d8a4       __flag_x_neg               00000001800728a4     libucrt:log10.obj
 0002:0000d8a8       __flag_x_nan               00000001800728a8     libucrt:log10.obj
 0002:0000e958       ?SignatureExtensions@?1??FileCanHaveSignature@@YA_NPEB_W@Z@4PAPEB_WA 0000000180073958     trust.obj
 0002:0000f510       ??_7?$_Func_impl_no_alloc@V<lambda_e249c70d12b28e046aa37836257b4bd8>@@HPEB_W@std@@6B@ 0000000180074510     IntChecker2-Far3.obj
 0002:0000f680       ?cntProgressRedrawTimeout@@3HB 0000000180074680     IntChecker2-Far3.obj
 0002:0000f688       ?tail@?1??rhash_byte_to_base64@@9@9 0000000180074688     rhash:hex.obj
 0002:0000f690       url_safe_char_mask         0000000180074690     rhash:hex.obj
 0002:0000f6b0       keccak_round_constants     00000001800746b0     rhash:sha3.obj
 0002:0000f770       ?SHA384_H0@?1??rhash_sha384_init@@9@9 0000000180074770     rhash:sha512.obj
 0002:0000f7b0       rhash_k512                 00000001800747b0     rhash:sha512.obj
 0002:0000fa30       ?SHA512_H0@?1??rhash_sha512_init@@9@9 0000000180074a30     rhash:sha512.obj
 0002:0000fa80       TR                         0000000180074a80     rhash:gost12.obj
 0002:00013a80       stage2_constant            0000000180078a80     rhash:gost12.obj
 0002:00013ac0       gost12_iteration_constants 0000000180078ac0     rhash:gost12.obj
 0002:00013dc0       zero_512                   0000000180078dc0     rhash:gost12.obj
 0002:00013e00       ?rc@?1??rhash_whirlpool_process_block@@9@9 0000000180078e00     rhash:whirlpool.obj
 0002:00013e50       blake2b_IV                 0000000180078e50     rhash:blake2b.obj
 0002:00013e90       blake2b_sigma              0000000180078e90     rhash:blake2b.obj
 0002:00013f50       ?EDONR512_H0@?1??rhash_edonr512_init@@9@9 0000000180078f50     rhash:edonr.obj
 0002:00013fd0       ?EDONR384_H0@?1??rhash_edonr384_init@@9@9 0000000180078fd0     rhash:edonr.obj
 0002:00014050       ?EDONR224_H0@?1??rhash_edonr224_init@@9@9 0000000180079050     rhash:edonr.obj
 0002:00014090       ?EDONR256_H0@?1??rhash_edonr256_init@@9@9 0000000180079090     rhash:edonr.obj
 0002:000140d0       rhash_k256                 00000001800790d0     rhash:sha256.obj
 0002:000141d0       ?SHA256_H0@?1??rhash_sha256_init@@9@9 00000001800791d0     rhash:sha256.obj
 0002:000141f0       ?SHA224_H0@?1??rhash_sha224_init@@9@9 00000001800791f0     rhash:sha256.obj
 0002:00014210       blake2s_sigma              0000000180079210     rhash:blake2s.obj
 0002:000142b0       blake2s_IV                 00000001800792b0     rhash:blake2s.obj
 0002:000142d0       rhash_snefru_sbox          00000001800792d0     rhash:snefru.obj
 0002:00021088       ??_R2?$_Func_impl_no_alloc@V<lambda_e249c70d12b28e046aa37836257b4bd8>@@HPEB_W@std@@8 0000000180086088     IntChecker2-Far3.obj
 0002:000212b8       ??_R1A@?0A@EA@?$_Func_impl_no_alloc@V<lambda_e249c70d12b28e046aa37836257b4bd8>@@HPEB_W@std@@8 00000001800862b8     IntChecker2-Far3.obj
 0002:000215c0       ??_R3?$_Func_impl_no_alloc@V<lambda_e249c70d12b28e046aa37836257b4bd8>@@HPEB_W@std@@8 00000001800865c0     IntChecker2-Far3.obj
 0002:000217c8       ??_R4?$_Func_impl_no_alloc@V<lambda_e249c70d12b28e046aa37836257b4bd8>@@HPEB_W@std@@6B@ 00000001800867c8     IntChecker2-Far3.obj
 0002:00021f78       $unwind$??1FarMenu@@QEAA@XZ 0000000180086f78     IntChecker2-Far3.obj
 0002:00021f78       $unwind$??1PanelFileInfo@@QEAA@XZ 0000000180086f78     IntChecker2-Far3.obj
 0002:00021f78       $unwind$??1filesystem_error@filesystem@std@@UEAA@XZ 0000000180086f78     IntChecker2-Far3.obj
 0002:00021f78       $unwind$??_GPluginListControlBinding@@UEAAPEAXI@Z 0000000180086f78     IntChecker2-Far3.obj
 0002:00021f78       $unwind$?CreateRadioButtonBinding@PluginDialogBuilder@@MEAAPEAU?$DialogItemBinding@UFarDialogItem@@@@PEAH@Z 0000000180086f78     IntChecker2-Far3.obj
 0002:00021f78       $unwind$?SaveValue@PluginRadioButtonBinding@@UEAAXPEAUFarDialogItem@@H@Z 0000000180086f78     IntChecker2-Far3.obj
 0002:00021f78       $unwind$?_Delete_this@?$_Func_impl_no_alloc@V?$_Binder@U_Unforced@std@@A6AXAEBV?$basic_string@_WU?$char_traits@_W@std@@V?$allocator@_W@2@@2@@ZAEAV32@@std@@X_J@std@@EEAAX_N@Z 0000000180086f78     IntChecker2-Far3.obj
 0002:00021f78       $unwind$??0_System_error@std@@QEAA@AEBV01@@Z 0000000180086f78     hashing.obj
 0002:00021f78       $unwind$??0failure@ios_base@std@@QEAA@AEBV012@@Z 0000000180086f78     hashing.obj
 0002:00021f78       $unwind$??0system_error@std@@QEAA@AEBV01@@Z 0000000180086f78     hashing.obj
 0002:00021f78       $unwind$??1?$_Tgt_state_t@PEBD@std@@QEAA@XZ 0000000180086f78     hashing.obj
 0002:00021f78       $unwind$??1?$_Uninitialized_backout_al@V?$allocator@UFileHashInfo@@@std@@@std@@QEAA@XZ 0000000180086f78     hashing.obj
 0002:00021f78       $unwind$??1FileHashInfo@@QEAA@XZ 0000000180086f78     hashing.obj
 0002:00021f78       $unwind$??1HashAlgoInfo@@QEAA@XZ 0000000180086f78     hashing.obj
 0002:00021f78       $unwind$??4?$basic_string@DU?$char_traits@D@std@@V?$allocator@D@2@@std@@QEAAAEAV01@$$QEAV01@@Z 0000000180086f78     hashing.obj
 0002:00021f78       $unwind$??_G?$_Node_str@D@std@@UEAAPEAXI@Z 0000000180086f78     hashing.obj
 0002:00021f78       $unwind$??_G?$basic_stringbuf@DU?$char_traits@D@std@@V?$allocator@D@2@@std@@UEAAPEAXI@Z 0000000180086f78     hashing.obj
 0002:00021f78       $unwind$??_G?$basic_stringbuf@_WU?$char_traits@_W@std@@V?$allocator@_W@2@@std@@UEAAPEAXI@Z 0000000180086f78     hashing.obj
 0002:00021f78       $unwind$??_G?$basic_stringstream@DU?$char_traits@D@std@@V?$allocator@D@2@@std@@UEAAPEAXI@Z 0000000180086f78     hashing.obj
 0002:00021f78       $unwind$??_G?$basic_stringstream@_WU?$char_traits@_W@std@@V?$allocator@_W@2@@std@@UEAAPEAXI@Z 0000000180086f78     hashing.obj
 0002:00021f78       $unwind$??_G?$collate@D@std@@MEAAPEAXI@Z 0000000180086f78     hashing.obj
 0002:00021f78       $unwind$??_G?$ctype@D@std@@MEAAPEAXI@Z 0000000180086f78     hashing.obj
 0002:00021f78       $unwind$??_G?$ctype@_W@std@@MEAAPEAXI@Z 0000000180086f78     hashing.obj
 0002:00021f78       $unwind$??_G_System_error@std@@UEAAPEAXI@Z 0000000180086f78     hashing.obj
 0002:00021f78       $unwind$??_Gbad_cast@std@@UEAAPEAXI@Z 0000000180086f78     hashing.obj
 0002:00021f78       $unwind$??_Gfailure@ios_base@std@@UEAAPEAXI@Z 0000000180086f78     hashing.obj
 0002:00021f78       $unwind$??_Gruntime_error@std@@UEAAPEAXI@Z 0000000180086f78     hashing.obj
 0002:00021f78       $unwind$??_Gsystem_error@std@@UEAAPEAXI@Z 0000000180086f78     hashing.obj
 0002:00021f78       $unwind$?_Alternative@?$_Parser@PEBDDV?$regex_traits@D@std@@@std@@AEAA_NXZ 0000000180086f78     hashing.obj
 0002:00021f78       $unwind$?_Buy_raw@?$vector@U_Grp_t@?$_Tgt_state_t@PEBD@std@@V?$allocator@U_Grp_t@?$_Tgt_state_t@PEBD@std@@@3@@std@@AEAAX_K@Z 0000000180086f78     hashing.obj
 0002:00021f78       $unwind$?_Clear_and_reserve_geometric@?$vector@IV?$allocator@I@std@@@std@@AEAAX_K@Z 0000000180086f78     hashing.obj
 0002:00021f78       $unwind$?_Clear_and_reserve_geometric@?$vector@U_Grp_t@?$_Tgt_state_t@PEBD@std@@V?$allocator@U_Grp_t@?$_Tgt_state_t@PEBD@std@@@3@@std@@AEAAX_K@Z 0000000180086f78     hashing.obj
 0002:00021f78       $unwind$?_DecimalDigits@?$_Parser@PEBDDV?$regex_traits@D@std@@@std@@AEAA_NXZ 0000000180086f78     hashing.obj
 0002:00021f78       $unwind$?_HexDigits@?$_Parser@PEBDDV?$regex_traits@D@std@@@std@@AEAAXH@Z 0000000180086f78     hashing.obj
 0002:00021f78       $unwind$?_Resize@?$match_results@PEBDV?$allocator@V?$sub_match@PEBD@std@@@std@@@std@@QEAAXI@Z 0000000180086f78     hashing.obj
 0002:00021f78       $unwind$?_Trans@?$_Parser@PEBDDV?$regex_traits@D@std@@@std@@AEAAXXZ 0000000180086f78     hashing.obj
 0002:00021f78       $unwind$??4?$basic_string@_WU?$char_traits@_W@std@@V?$allocator@_W@2@@std@@QEAAAEAV01@$$QEAV01@@Z 0000000180086f78     trust.obj
 0002:00021f78       $unwind$??_Gbad_alloc@std@@UEAAPEAXI@Z 0000000180086f78     trust.obj
 0002:00021f78       $unwind$??_Gbad_array_new_length@std@@UEAAPEAXI@Z 0000000180086f78     trust.obj
 0002:00021f78       $unwind$??_Gexception@std@@UEAAPEAXI@Z 0000000180086f78     trust.obj
 0002:00021f78       $unwind$_RTC_Initialize    0000000180086f78     LIBCMT:initsect.obj
 0002:00021f78       $unwind$_RTC_Terminate     0000000180086f78     LIBCMT:initsect.obj
 0002:00021f78       $unwind$??_G_Locimp@locale@std@@MEAAPEAXI@Z 0000000180086f78     libcpmt:locale0.obj
 0002:00021f78       $unwind$?_Locinfo_ctor@_Locinfo@std@@SAXPEAV12@PEBD@Z 0000000180086f78     libcpmt:locale0.obj
 0002:00021f78       $unwind$??0_Init_locks@std@@QEAA@XZ 0000000180086f78     libcpmt:xlock.obj
 0002:00021f78       $unwind$??0regex_error@std@@QEAA@AEBV01@@Z 0000000180086f78     libcpmt:xthrow.obj
 0002:00021f78       $unwind$??_Gbad_function_call@std@@UEAAPEAXI@Z 0000000180086f78     libcpmt:xthrow.obj
 0002:00021f78       $unwind$??_Glength_error@std@@UEAAPEAXI@Z 0000000180086f78     libcpmt:xthrow.obj
 0002:00021f78       $unwind$??_Glogic_error@std@@UEAAPEAXI@Z 0000000180086f78     libcpmt:xthrow.obj
 0002:00021f78       $unwind$??_Gout_of_range@std@@UEAAPEAXI@Z 0000000180086f78     libcpmt:xthrow.obj
 0002:00021f78       $unwind$??_Gregex_error@std@@UEAAPEAXI@Z 0000000180086f78     libcpmt:xthrow.obj
 0002:00021f78       $unwind$_Getcvt            0000000180086f78     libcpmt:xwctomb.obj
 0002:00021f78       $unwind$__C_specific_handler_noexcept 0000000180086f78     libvcruntime:chandler_noexcept.obj
 0002:00021f78       $unwind$__FrameUnwindFilter 0000000180086f78     libvcruntime:ehhelpers.obj
 0002:00021f78       $unwind$?SetUnwindTryBlock@__FrameHandler3@@SAXPEA_KPEAU_xDISPATCHER_CONTEXT@@PEBU_s_FuncInfo@@H@Z 0000000180086f78     libvcruntime:ehstate.obj
 0002:00021f78       $unwind$??_Gbad_exception@std@@UEAAPEAXI@Z 0000000180086f78     libvcruntime:frame.obj
 0002:00021f78       $unwind$?ExFilterRethrowFH4@@YAHPEAU_EXCEPTION_POINTERS@@PEAUEHExceptionRecord@@HPEAH@Z 0000000180086f78     libvcruntime:frame.obj
 0002:00021f78       $unwind$__vcrt_getptd_noinit 0000000180086f78     libvcruntime:per_thread_data.obj
 0002:00021f78       $unwind$_FindAndUnlinkFrame 0000000180086f78     libvcruntime:risctrnsctrl.obj
 0002:00021f78       $unwind$__vcrt_FlsSetValue 0000000180086f78     libvcruntime:winapi_downlevel.obj
 0002:00021f78       $unwind$??$common_initialize_environment_nolock@D@@YAHXZ 0000000180086f78     libucrt:environment_initialization.obj
 0002:00021f78       $unwind$islower            0000000180086f78     libucrt:_ctype.obj
 0002:00021f78       $unwind$isspace            0000000180086f78     libucrt:_ctype.obj
 0002:00021f78       $unwind$isupper            0000000180086f78     libucrt:_ctype.obj
 0002:00021f78       $unwind$isxdigit           0000000180086f78     libucrt:_ctype.obj
 0002:00021f78       $unwind$_aligned_malloc    0000000180086f78     libucrt:align.obj
 0002:00021f78       $unwind$_realloc_base      0000000180086f78     libucrt:realloc_base.obj
 0002:00021f78       $unwind$?replace_current_thread_locale_nolock@@YAXQEAU__acrt_ptd@@QEAU__crt_locale_data@@@Z 0000000180086f78     libucrt:per_thread_data.obj
 0002:00021f78       $unwind$__acrt_execute_uninitializers 0000000180086f78     libucrt:shared_initialization.obj
 0002:00021f78       $unwind$__acrt_GetUserDefaultLocaleName 0000000180086f78     libucrt:winapi_thunks.obj
 0002:00021f78       $unwind$__acrt_LocaleNameToLCID 0000000180086f78     libucrt:winapi_thunks.obj
 0002:00021f78       $unwind$__acrt_RtlGenRandom 0000000180086f78     libucrt:winapi_thunks.obj
 0002:00021f78       $unwind$GetLocaleNameFromLangCountry 0000000180086f78     libucrt:get_qualified_locale.obj
 0002:00021f78       $unwind$GetLocaleNameFromLanguage 0000000180086f78     libucrt:get_qualified_locale.obj
 0002:00021f78       $unwind$GetLcidFromLangCountry 0000000180086f78     libucrt:getqloc_downlevel.obj
 0002:00021f78       $unwind$GetLcidFromLanguage 0000000180086f78     libucrt:getqloc_downlevel.obj
 0002:00021f78       $unwind$?free_crt_array_internal@@YAXQEAPEBX_K@Z 0000000180086f78     libucrt:inittime.obj
 0002:00021f78       $unwind$_updatetlocinfoEx_nolock 0000000180086f78     libucrt:locale_refcounting.obj
 0002:00021f78       $unwind$__acrt_uninitialize_lowio 0000000180086f78     libucrt:ioinit.obj
 0002:00021f78       $unwind$?setSBCS@@YAXPEAU__crt_multibyte_data@@@Z 0000000180086f78     libucrt:mbctype.obj
 0002:00021f78       $unwind$_initterm_e        0000000180086f78     libucrt:initterm.obj
 0002:00021f78       $unwind$__acrt_stdio_allocate_buffer_nolock 0000000180086f78     libucrt:_getbuf.obj
 0002:00021f78       $unwind$_wfopen_s          0000000180086f78     libucrt:fopen.obj
 0002:00021f78       $unwind$wcsncat_s          0000000180086f78     libucrt:wcsncat_s.obj
 0002:00021f78       $unwind$rhash_blake2b_final 0000000180086f78     rhash:blake2b.obj
 0002:00021f78       $unwind$rhash_blake2s_final 0000000180086f78     rhash:blake2s.obj
 0002:00021f78       $unwind$rhash_md4_final    0000000180086f78     rhash:md4.obj
 0002:00021f78       $unwind$bt_cleanup         0000000180086f78     rhash:torrent.obj
 0002:00021f78       $unwind$bt_final           0000000180086f78     rhash:torrent.obj
 0002:00021f84       $unwind$??0?$basic_string@DU?$char_traits@D@std@@V?$allocator@D@2@@std@@QEAA@AEBV01@@Z 0000000180086f84     hashing.obj
 0002:00021f84       $unwind$??0?$basic_string@_WU?$char_traits@_W@std@@V?$allocator@_W@2@@std@@QEAA@AEBV01@@Z 0000000180086f84     trust.obj
 0002:00021f98       $unwind$?_Xlength@?$vector@PEB_WV?$allocator@PEB_W@std@@@std@@CAXXZ 0000000180086f98     IntChecker2-Far3.obj
 0002:00021f98       $unwind$?_Xlength@?$vector@UFarMenuItem@@V?$allocator@UFarMenuItem@@@std@@@std@@CAXXZ 0000000180086f98     IntChecker2-Far3.obj
 0002:00021f98       $unwind$?_Xlength@?$vector@UPanelFileInfo@@V?$allocator@UPanelFileInfo@@@std@@@std@@CAXXZ 0000000180086f98     IntChecker2-Far3.obj
 0002:00021f98       $unwind$?_Xlength@?$vector@U_Find_file_handle@filesystem@std@@V?$allocator@U_Find_file_handle@filesystem@std@@@3@@std@@CAXXZ 0000000180086f98     IntChecker2-Far3.obj
 0002:00021f98       $unwind$?_Xlength@?$vector@V?$basic_string@_WU?$char_traits@_W@std@@V?$allocator@_W@2@@std@@V?$allocator@V?$basic_string@_WU?$char_traits@_W@std@@V?$allocator@_W@2@@std@@@2@@std@@CAXXZ 0000000180086f98     IntChecker2-Far3.obj
 0002:00021f98       $unwind$?_Xlength@?$vector@V?$function@$$A6AX_J@Z@std@@V?$allocator@V?$function@$$A6AX_J@Z@std@@@2@@std@@CAXXZ 0000000180086f98     IntChecker2-Far3.obj
 0002:00021f98       $unwind$?_Xlength@?$vector@_KV?$allocator@_K@std@@@std@@CAXXZ 0000000180086f98     IntChecker2-Far3.obj
 0002:00021f98       $unwind$?_Xlength@?$vector@_WV?$allocator@_W@std@@@std@@CAXXZ 0000000180086f98     IntChecker2-Far3.obj
 0002:00021f98       $unwind$?_Xrange@?$vector@UFileHashInfo@@V?$allocator@UFileHashInfo@@@std@@@std@@CAXXZ 0000000180086f98     IntChecker2-Far3.obj
 0002:00021f98       $unwind$?deallocate@?$allocator@UPanelFileInfo@@@std@@QEAAXQEAUPanelFileInfo@@_K@Z 0000000180086f98     IntChecker2-Far3.obj
 0002:00021f98       $unwind$?deallocate@?$allocator@V?$basic_string@_WU?$char_traits@_W@std@@V?$allocator@_W@2@@std@@@std@@QEAAXQEAV?$basic_string@_WU?$char_traits@_W@std@@V?$allocator@_W@2@@2@_K@Z 0000000180086f98     IntChecker2-Far3.obj
 0002:00021f98       $unwind$?deallocate@?$allocator@V?$function@$$A6AX_J@Z@std@@@std@@QEAAXQEAV?$function@$$A6AX_J@Z@2@_K@Z 0000000180086f98     IntChecker2-Far3.obj
 0002:00021f98       $unwind$GetGlobalInfoW     0000000180086f98     IntChecker2-Far3.obj
 0002:00021f98       $unwind$??1?$regex_traits@D@std@@QEAA@XZ 0000000180086f98     hashing.obj
 0002:00021f98       $unwind$??1locale@std@@QEAA@XZ 0000000180086f98     hashing.obj
 0002:00021f98       $unwind$?_Error@?$_Parser@PEBDDV?$regex_traits@D@std@@@std@@AEAAXW4error_type@regex_constants@2@@Z 0000000180086f98     hashing.obj
 0002:00021f98       $unwind$?_Throw_tree_length_error@std@@YAXXZ 0000000180086f98     hashing.obj
 0002:00021f98       $unwind$?_Xlen@?$vector@_NV?$allocator@_N@std@@@std@@QEBAXXZ 0000000180086f98     hashing.obj
 0002:00021f98       $unwind$?_Xlength@?$vector@DV?$allocator@D@std@@@std@@CAXXZ 0000000180086f98     hashing.obj
 0002:00021f98       $unwind$?_Xlength@?$vector@HV?$allocator@H@std@@@std@@CAXXZ 0000000180086f98     hashing.obj
 0002:00021f98       $unwind$?_Xlength@?$vector@IV?$allocator@I@std@@@std@@CAXXZ 0000000180086f98     hashing.obj
 0002:00021f98       $unwind$?_Xlength@?$vector@UFileHashInfo@@V?$allocator@UFileHashInfo@@@std@@@std@@CAXXZ 0000000180086f98     hashing.obj
 0002:00021f98       $unwind$?_Xlength@?$vector@U_Grp_t@?$_Tgt_state_t@PEBD@std@@V?$allocator@U_Grp_t@?$_Tgt_state_t@PEBD@std@@@3@@std@@CAXXZ 0000000180086f98     hashing.obj
 0002:00021f98       $unwind$?_Xlength@?$vector@U_Loop_vals_t@std@@V?$allocator@U_Loop_vals_t@std@@@2@@std@@CAXXZ 0000000180086f98     hashing.obj
 0002:00021f98       $unwind$?_Xlength@?$vector@V?$basic_string@DU?$char_traits@D@std@@V?$allocator@D@2@@std@@V?$allocator@V?$basic_string@DU?$char_traits@D@std@@V?$allocator@D@2@@std@@@2@@std@@CAXXZ 0000000180086f98     hashing.obj
 0002:00021f98       $unwind$?_Xlength@?$vector@V?$sub_match@PEBD@std@@V?$allocator@V?$sub_match@PEBD@std@@@2@@std@@CAXXZ 0000000180086f98     hashing.obj
 0002:00021f98       $unwind$?_Xlength@?$vector@W4rhash_ids@@V?$allocator@W4rhash_ids@@@std@@@std@@CAXXZ 0000000180086f98     hashing.obj
 0002:00021f98       $unwind$?_Xran@?$_String_val@U?$_Simple_types@_W@std@@@std@@SAXXZ 0000000180086f98     hashing.obj
 0002:00021f98       $unwind$?allocate@?$allocator@I@std@@QEAAPEAI_K@Z 0000000180086f98     hashing.obj
 0002:00021f98       $unwind$?deallocate@?$allocator@UFileHashInfo@@@std@@QEAAXQEAUFileHashInfo@@_K@Z 0000000180086f98     hashing.obj
 0002:00021f98       $unwind$?_Xlen_string@std@@YAXXZ 0000000180086f98     trust.obj
 0002:00021f98       $unwind$__scrt_initialize_default_local_stdio_options 0000000180086f98     LIBCMT:default_local_stdio_options.obj
 0002:00021f98       $unwind$?dllmain_crt_dispatch@@YAHQEAUHINSTANCE__@@KQEAX@Z 0000000180086f98     LIBCMT:dll_dllmain.obj
 0002:00021f98       $unwind$__report_rangecheckfailure 0000000180086f98     LIBCMT:gs_report.obj
 0002:00021f98       $unwind$__GSHandlerCheck   0000000180086f98     LIBCMT:gshandler.obj
 0002:00021f98       $unwind$__scrt_acquire_startup_lock 0000000180086f98     LIBCMT:utility.obj
 0002:00021f98       $unwind$__scrt_dllmain_after_initialize_c 0000000180086f98     LIBCMT:utility.obj
 0002:00021f98       $unwind$__scrt_dllmain_before_initialize_c 0000000180086f98     LIBCMT:utility.obj
 0002:00021f98       $unwind$__scrt_dllmain_crt_thread_attach 0000000180086f98     LIBCMT:utility.obj
 0002:00021f98       $unwind$__scrt_dllmain_crt_thread_detach 0000000180086f98     LIBCMT:utility.obj
 0002:00021f98       $unwind$__scrt_dllmain_uninitialize_c 0000000180086f98     LIBCMT:utility.obj
 0002:00021f98       $unwind$__scrt_dllmain_uninitialize_critical 0000000180086f98     LIBCMT:utility.obj
 0002:00021f98       $unwind$atexit             0000000180086f98     LIBCMT:utility.obj
 0002:00021f98       $unwind$__std_fs_code_page 0000000180086f98     libcpmt:filesystem.obj
 0002:00021f98       $unwind$__std_fs_directory_iterator_advance 0000000180086f98     libcpmt:filesystem.obj
 0002:00021f98       $unwind$__std_fs_directory_iterator_close 0000000180086f98     libcpmt:filesystem.obj
 0002:00021f98       $unwind$??__Einitlocks@std@@YAXXZ 0000000180086f98     libcpmt:iosptrs.obj
 0002:00021f98       $unwind$?_Atexit@@YAXP6AXXZ@Z 0000000180086f98     libcpmt:iosptrs.obj
 0002:00021f98       $unwind$??__Fclassic_locale@std@@YAXXZ 0000000180086f98     libcpmt:locale0.obj
 0002:00021f98       $unwind$?_Locinfo_dtor@_Locinfo@std@@SAXPEAV12@@Z 0000000180086f98     libcpmt:locale0.obj
 0002:00021f98       $unwind$_Deletegloballocale 0000000180086f98     libcpmt:locale0.obj
 0002:00021f98       $unwind$tidy_global        0000000180086f98     libcpmt:locale0.obj
 0002:00021f98       $unwind$??1_Lockit@std@@QEAA@XZ 0000000180086f98     libcpmt:xlock.obj
 0002:00021f98       $unwind$??__Einitlocks@std@@YAXXZ 0000000180086f98     libcpmt:xlock.obj
 0002:00021f98       $unwind$?_Random_device@std@@YAIXZ 0000000180086f98     libcpmt:xrngdev.obj
 0002:00021f98       $unwind$_Query_perf_counter 0000000180086f98     libcpmt:xtime.obj
 0002:00021f98       $unwind$_Query_perf_frequency 0000000180086f98     libcpmt:xtime.obj
 0002:00021f98       $unwind$_Xtime_get_ticks   0000000180086f98     libcpmt:xtime.obj
 0002:00021f98       $unwind$__current_exception 0000000180086f98     libvcruntime:ehhelpers.obj
 0002:00021f98       $unwind$__current_exception_context 0000000180086f98     libvcruntime:ehhelpers.obj
 0002:00021f98       $unwind$__std_terminate    0000000180086f98     libvcruntime:ehhelpers.obj
 0002:00021f98       $unwind$?GetCurrentState@__FrameHandler3@@SAHPEA_KPEAU_xDISPATCHER_CONTEXT@@PEBU_s_FuncInfo@@@Z 0000000180086f98     libvcruntime:ehstate.obj
 0002:00021f98       $unwind$__vcrt_initialize  0000000180086f98     libvcruntime:initialization.obj
 0002:00021f98       $unwind$__vcrt_thread_attach 0000000180086f98     libvcruntime:initialization.obj
 0002:00021f98       $unwind$__vcrt_thread_detach 0000000180086f98     libvcruntime:initialization.obj
 0002:00021f98       $unwind$__vcrt_uninitialize 0000000180086f98     libvcruntime:initialization.obj
 0002:00021f98       $unwind$__vcrt_uninitialize_critical 0000000180086f98     libvcruntime:initialization.obj
 0002:00021f98       $unwind$__vcrt_initialize_locks 0000000180086f98     libvcruntime:locks.obj
 0002:00021f98       $unwind$__vcrt_freefls     0000000180086f98     libvcruntime:per_thread_data.obj
 0002:00021f98       $unwind$__vcrt_getptd      0000000180086f98     libvcruntime:per_thread_data.obj
 0002:00021f98       $unwind$__vcrt_initialize_ptd 0000000180086f98     libvcruntime:per_thread_data.obj
 0002:00021f98       $unwind$__vcrt_uninitialize_ptd 0000000180086f98     libvcruntime:per_thread_data.obj
 0002:00021f98       $unwind$_purecall          0000000180086f98     libvcruntime:purevirt.obj
 0002:00021f98       $unwind$?FrameUnwindToEmptyState@__FrameHandler4@@SAXPEA_KPEAU_xDISPATCHER_CONTEXT@@PEAUFuncInfo4@FH4@@@Z 0000000180086f98     libvcruntime:risctrnsctrl.obj
 0002:00021f98       $unwind$_GetImageBase      0000000180086f98     libvcruntime:risctrnsctrl.obj
 0002:00021f98       $unwind$_GetThrowImageBase 0000000180086f98     libvcruntime:risctrnsctrl.obj
 0002:00021f98       $unwind$__uncaught_exception 0000000180086f98     libvcruntime:uncaught_exception.obj
 0002:00021f98       $unwind$__dcrt_terminate_console_output 0000000180086f98     libucrt:initcon.obj
 0002:00021f98       $unwind$??$uninitialize_environment_internal@D@@YAXAEAPEAPEAD@Z 0000000180086f98     libucrt:environment_initialization.obj
 0002:00021f98       $unwind$??$uninitialize_environment_internal@_W@@YAXAEAPEAPEA_W@Z 0000000180086f98     libucrt:environment_initialization.obj
 0002:00021f98       $unwind$_aligned_free      0000000180086f98     libucrt:align.obj
 0002:00021f98       $unwind$__acrt_initialize_heap 0000000180086f98     libucrt:heap_handle.obj
 0002:00021f98       $unwind$_msize_base        0000000180086f98     libucrt:msize.obj
 0002:00021f98       $unwind$?initialize_multibyte@@YAHXZ 0000000180086f98     libucrt:multibyte_initializer.obj
 0002:00021f98       $unwind$__acrt_thread_attach 0000000180086f98     libucrt:initialization.obj
 0002:00021f98       $unwind$__acrt_thread_detach 0000000180086f98     libucrt:initialization.obj
 0002:00021f98       $unwind$__acrt_uninitialize 0000000180086f98     libucrt:initialization.obj
 0002:00021f98       $unwind$__acrt_uninitialize_critical 0000000180086f98     libucrt:initialization.obj
 0002:00021f98       $unwind$initialize_c       0000000180086f98     libucrt:initialization.obj
 0002:00021f98       $unwind$uninitialize_allocated_io_buffers 0000000180086f98     libucrt:initialization.obj
 0002:00021f98       $unwind$uninitialize_environment 0000000180086f98     libucrt:initialization.obj
 0002:00021f98       $unwind$_lock_locales      0000000180086f98     libucrt:locks.obj
 0002:00021f98       $unwind$__acrt_initialize_ptd 0000000180086f98     libucrt:per_thread_data.obj
 0002:00021f98       $unwind$__acrt_uninitialize_ptd 0000000180086f98     libucrt:per_thread_data.obj
 0002:00021f98       $unwind$__acrt_AreFileApisANSI 0000000180086f98     libucrt:winapi_thunks.obj
 0002:00021f98       $unwind$__acrt_can_use_vista_locale_apis 0000000180086f98     libucrt:winapi_thunks.obj
 0002:00021f98       $unwind$__acrt_eagerly_load_locale_apis 0000000180086f98     libucrt:winapi_thunks.obj
 0002:00021f98       $unwind$__pctype_func      0000000180086f98     libucrt:ctype.obj
 0002:00021f98       $unwind$___lc_codepage_func 0000000180086f98     libucrt:initctype.obj
 0002:00021f98       $unwind$___lc_collate_cp_func 0000000180086f98     libucrt:initctype.obj
 0002:00021f98       $unwind$___lc_locale_name_func 0000000180086f98     libucrt:initctype.obj
 0002:00021f98       $unwind$___mb_cur_max_func 0000000180086f98     libucrt:initctype.obj
 0002:00021f98       $unwind$__acrt_release_locale_ref 0000000180086f98     libucrt:locale_refcounting.obj
 0002:00021f98       $unwind$_copytlocinfo_nolock 0000000180086f98     libucrt:wsetlocale.obj
 0002:00021f98       $unwind$_isatty            0000000180086f98     libucrt:isatty.obj
 0002:00021f98       $unwind$_get_osfhandle     0000000180086f98     libucrt:osfinfo.obj
 0002:00021f98       $unwind$_get_fmode         0000000180086f98     libucrt:setmode.obj
 0002:00021f98       $unwind$__acrt_initialize_multibyte 0000000180086f98     libucrt:mbctype.obj
 0002:00021f98       $unwind$__acrt_update_thread_multibyte_data 0000000180086f98     libucrt:mbctype.obj
 0002:00021f98       $unwind$__doserrno         0000000180086f98     libucrt:errno.obj
 0002:00021f98       $unwind$_errno             0000000180086f98     libucrt:errno.obj
 0002:00021f98       $unwind$_invoke_watson     0000000180086f98     libucrt:invalid_parameter.obj
 0002:00021f98       $unwind$abort              0000000180086f98     libucrt:abort.obj
 0002:00021f98       $unwind$__acrt_initialize_command_line 0000000180086f98     libucrt:argv_data.obj
 0002:00021f98       $unwind$?should_call_terminate_process@@YA_NXZ 0000000180086f98     libucrt:exit.obj
 0002:00021f98       $unwind$_fgetc_nolock      0000000180086f98     libucrt:fgetc.obj
 0002:00021f98       $unwind$?validate_stream_is_ansi_if_required@?$__acrt_stdio_char_traits@D@@SA_NQEAU_iobuf@@@Z 0000000180086f98     libucrt:fgets.obj
 0002:00021f98       $unwind$_fileno            0000000180086f98     libucrt:fileno.obj
 0002:00021f98       $unwind$rand_s             0000000180086f98     libucrt:rand_s.obj
 0002:00021f98       $unwind$_stricmp           0000000180086f98     libucrt:stricmp.obj
 0002:00021f98       $unwind$_wcsicmp           0000000180086f98     libucrt:wcsicmp.obj
 0002:00021f98       $unwind$_wcsnicmp          0000000180086f98     libucrt:wcsnicmp.obj
 0002:00021f98       $unwind$_statfp            0000000180086f98     libucrt:fpctrl.obj
 0002:00021f98       $unwind$fegetround         0000000180086f98     libucrt:fegetround.obj
 0002:00021f98       $unwind$_set_errno_from_matherr 0000000180086f98     libucrt:fpexcept.obj
 0002:00021fa0       $unwind$??$_Uninitialized_move@PEAV?$basic_string@_WU?$char_traits@_W@std@@V?$allocator@_W@2@@std@@V?$allocator@V?$basic_string@_WU?$char_traits@_W@std@@V?$allocator@_W@2@@std@@@2@@std@@YAPEAV?$basic_string@_WU?$char_traits@_W@std@@V?$allocator@_W@2@@0@QEAV10@0PEAV10@AEAV?$allocator@V?$basic_string@_WU?$char_traits@_W@std@@V?$allocator@_W@2@@std@@@0@@Z 0000000180086fa0     IntChecker2-Far3.obj
 0002:00021fa0       $unwind$??1?$_Func_class@X_J@std@@QEAA@XZ 0000000180086fa0     IntChecker2-Far3.obj
 0002:00021fa0       $unwind$??1?$function@$$A6AHPEB_W@Z@std@@QEAA@XZ 0000000180086fa0     IntChecker2-Far3.obj
 0002:00021fa0       $unwind$??1?$function@$$A6AX_J@Z@std@@QEAA@XZ 0000000180086fa0     IntChecker2-Far3.obj
 0002:00021fa0       $unwind$??1?$shared_ptr@U_Recursive_dir_enum_impl@filesystem@std@@@std@@QEAA@XZ 0000000180086fa0     IntChecker2-Far3.obj
 0002:00021fa0       $unwind$??1?$vector@UFarMenuItem@@V?$allocator@UFarMenuItem@@@std@@@std@@QEAA@XZ 0000000180086fa0     IntChecker2-Far3.obj
 0002:00021fa0       $unwind$??1?$vector@_KV?$allocator@_K@std@@@std@@QEAA@XZ 0000000180086fa0     IntChecker2-Far3.obj
 0002:00021fa0       $unwind$??1?$vector@_WV?$allocator@_W@std@@@std@@QEAA@XZ 0000000180086fa0     IntChecker2-Far3.obj
 0002:00021fa0       $unwind$??1HashGenerationParams@@QEAA@XZ 0000000180086fa0     IntChecker2-Far3.obj
 0002:00021fa0       $unwind$??1_Creator@_Dir_enum_impl@filesystem@std@@QEAA@XZ 0000000180086fa0     IntChecker2-Far3.obj
 0002:00021fa0       $unwind$??1_Dir_enum_impl@filesystem@std@@QEAA@XZ 0000000180086fa0     IntChecker2-Far3.obj
 0002:00021fa0       $unwind$??1directory_entry@filesystem@std@@QEAA@XZ 0000000180086fa0     IntChecker2-Far3.obj
 0002:00021fa0       $unwind$??1path@filesystem@std@@QEAA@XZ 0000000180086fa0     IntChecker2-Far3.obj
 0002:00021fa0       $unwind$??1recursive_directory_iterator@filesystem@std@@QEAA@XZ 0000000180086fa0     IntChecker2-Far3.obj
 0002:00021fa0       $unwind$??_G?$DialogBuilderBase@UFarDialogItem@@@@MEAAPEAXI@Z 0000000180086fa0     IntChecker2-Far3.obj
 0002:00021fa0       $unwind$??_G?$DialogItemBinding@UFarDialogItem@@@@UEAAPEAXI@Z 0000000180086fa0     IntChecker2-Far3.obj
 0002:00021fa0       $unwind$??_G?$_Ref_count_obj2@U_Recursive_dir_enum_impl@filesystem@std@@@std@@UEAAPEAXI@Z 0000000180086fa0     IntChecker2-Far3.obj
 0002:00021fa0       $unwind$??_GPluginCheckBoxBinding@@UEAAPEAXI@Z 0000000180086fa0     IntChecker2-Far3.obj
 0002:00021fa0       $unwind$??_GPluginEditFieldBinding@@UEAAPEAXI@Z 0000000180086fa0     IntChecker2-Far3.obj
 0002:00021fa0       $unwind$??_GPluginIntEditFieldBinding@@UEAAPEAXI@Z 0000000180086fa0     IntChecker2-Far3.obj
 0002:00021fa0       $unwind$??_GPluginRadioButtonBinding@@UEAAPEAXI@Z 0000000180086fa0     IntChecker2-Far3.obj
 0002:00021fa0       $unwind$??_GPluginUIntEditFieldBinding@@UEAAPEAXI@Z 0000000180086fa0     IntChecker2-Far3.obj
 0002:00021fa0       $unwind$??_G_Generic_error_category@std@@UEAAPEAXI@Z 0000000180086fa0     IntChecker2-Far3.obj
 0002:00021fa0       $unwind$??_G_System_error_category@std@@UEAAPEAXI@Z 0000000180086fa0     IntChecker2-Far3.obj
 0002:00021fa0       $unwind$?ClearSelection@Far3Panel@@QEAAXXZ 0000000180086fa0     IntChecker2-Far3.obj
 0002:00021fa0       $unwind$?FreeMacroCall@@YAXPEAXPEAUFarMacroValue@@_K@Z 0000000180086fa0     IntChecker2-Far3.obj
 0002:00021fa0       $unwind$?GetFarWindowSize@@YA_NAEAURectSize@@@Z 0000000180086fa0     IntChecker2-Far3.obj
 0002:00021fa0       $unwind$?SaveValue@PluginCheckBoxBinding@@UEAAXPEAUFarDialogItem@@H@Z 0000000180086fa0     IntChecker2-Far3.obj
 0002:00021fa0       $unwind$?SaveValue@PluginEditFieldBinding@@UEAAXPEAUFarDialogItem@@H@Z 0000000180086fa0     IntChecker2-Far3.obj
 0002:00021fa0       $unwind$?SaveValue@PluginIntEditFieldBinding@@UEAAXPEAUFarDialogItem@@H@Z 0000000180086fa0     IntChecker2-Far3.obj
 0002:00021fa0       $unwind$?SaveValue@PluginUIntEditFieldBinding@@UEAAXPEAUFarDialogItem@@H@Z 0000000180086fa0     IntChecker2-Far3.obj
 0002:00021fa0       $unwind$?_Copy@?$_Func_impl_no_alloc@V?$_Binder@U_Unforced@std@@A6AXAEAVFar3Panel@@@ZAEAV3@@std@@X_J@std@@EEBAPEAV?$_Func_base@X_J@2@PEAX@Z 0000000180086fa0     IntChecker2-Far3.obj
 0002:00021fa0       $unwind$?_Copy@?$_Func_impl_no_alloc@V?$_Binder@U_Unforced@std@@A6AXAEBV?$basic_string@_WU?$char_traits@_W@std@@V?$allocator@_W@2@@2@@ZAEAV32@@std@@X_J@std@@EEBAPEAV?$_Func_base@X_J@2@PEAX@Z 0000000180086fa0     IntChecker2-Far3.obj
 0002:00021fa0       $unwind$?_Destroy@?$_Ref_count_obj2@U_Recursive_dir_enum_impl@filesystem@std@@@std@@EEAAXXZ 0000000180086fa0     IntChecker2-Far3.obj
 0002:00021fa0       $unwind$?_Tidy@?$vector@V?$basic_string@_WU?$char_traits@_W@std@@V?$allocator@_W@2@@std@@V?$allocator@V?$basic_string@_WU?$char_traits@_W@std@@V?$allocator@_W@2@@std@@@2@@std@@AEAAXXZ 0000000180086fa0     IntChecker2-Far3.obj
 0002:00021fa0       $unwind$?message@_Generic_error_category@std@@UEBA?AV?$basic_string@DU?$char_traits@D@std@@V?$allocator@D@2@@2@H@Z 0000000180086fa0     IntChecker2-Far3.obj
 0002:00021fa0       $unwind$GetPluginInfoW     0000000180086fa0     IntChecker2-Far3.obj
 0002:00021fa0       $unwind$??0?$basic_string@DU?$char_traits@D@std@@V?$allocator@D@2@@std@@QEAA@QEBD@Z 0000000180086fa0     hashing.obj
 0002:00021fa0       $unwind$??0bad_cast@std@@QEAA@AEBV01@@Z 0000000180086fa0     hashing.obj
 0002:00021fa0       $unwind$??0runtime_error@std@@QEAA@AEBV01@@Z 0000000180086fa0     hashing.obj
 0002:00021fa0       $unwind$??1?$_Bt_state_t@PEBD@std@@QEAA@XZ 0000000180086fa0     hashing.obj
 0002:00021fa0       $unwind$??1?$_Matcher@PEBDDV?$regex_traits@D@std@@PEBD@std@@QEAA@XZ 0000000180086fa0     hashing.obj
 0002:00021fa0       $unwind$??1?$_Parser@PEBDDV?$regex_traits@D@std@@@std@@QEAA@XZ 0000000180086fa0     hashing.obj
 0002:00021fa0       $unwind$??1?$_Vb_val@V?$allocator@_N@std@@@std@@QEAA@XZ 0000000180086fa0     hashing.obj
 0002:00021fa0       $unwind$??1?$_Yarn@D@std@@QEAA@XZ 0000000180086fa0     hashing.obj
 0002:00021fa0       $unwind$??1?$_Yarn@_W@std@@QEAA@XZ 0000000180086fa0     hashing.obj
 0002:00021fa0       $unwind$??1?$basic_regex@DV?$regex_traits@D@std@@@std@@QEAA@XZ 0000000180086fa0     hashing.obj
 0002:00021fa0       $unwind$??1?$basic_string@DU?$char_traits@D@std@@V?$allocator@D@2@@std@@QEAA@XZ 0000000180086fa0     hashing.obj
 0002:00021fa0       $unwind$??1?$basic_stringbuf@DU?$char_traits@D@std@@V?$allocator@D@2@@std@@UEAA@XZ 0000000180086fa0     hashing.obj
 0002:00021fa0       $unwind$??1?$basic_stringbuf@_WU?$char_traits@_W@std@@V?$allocator@_W@2@@std@@UEAA@XZ 0000000180086fa0     hashing.obj
 0002:00021fa0       $unwind$??1?$match_results@PEBDV?$allocator@V?$sub_match@PEBD@std@@@std@@@std@@QEAA@XZ 0000000180086fa0     hashing.obj
 0002:00021fa0       $unwind$??1?$pair@$$CBV?$basic_string@_WU?$char_traits@_W@std@@V?$allocator@_W@2@@std@@V?$vector@UFileHashInfo@@V?$allocator@UFileHashInfo@@@std@@@2@@std@@QEAA@XZ 0000000180086fa0     hashing.obj
 0002:00021fa0       $unwind$??1?$vector@DV?$allocator@D@std@@@std@@QEAA@XZ 0000000180086fa0     hashing.obj
 0002:00021fa0       $unwind$??1?$vector@HV?$allocator@H@std@@@std@@QEAA@XZ 0000000180086fa0     hashing.obj
 0002:00021fa0       $unwind$??1?$vector@U_Loop_vals_t@std@@V?$allocator@U_Loop_vals_t@std@@@2@@std@@QEAA@XZ 0000000180086fa0     hashing.obj
 0002:00021fa0       $unwind$??1?$vector@V?$basic_string@DU?$char_traits@D@std@@V?$allocator@D@2@@std@@V?$allocator@V?$basic_string@DU?$char_traits@D@std@@V?$allocator@D@2@@std@@@2@@std@@QEAA@XZ 0000000180086fa0     hashing.obj
 0002:00021fa0       $unwind$??1?$vector@W4rhash_ids@@V?$allocator@W4rhash_ids@@@std@@@std@@QEAA@XZ 0000000180086fa0     hashing.obj
 0002:00021fa0       $unwind$??1?$vector@_NV?$allocator@_N@std@@@std@@QEAA@XZ 0000000180086fa0     hashing.obj
 0002:00021fa0       $unwind$??_G_Facet_base@std@@UEAAPEAXI@Z 0000000180086fa0     hashing.obj
 0002:00021fa0       $unwind$??_G_Iostream_error_category2@std@@UEAAPEAXI@Z 0000000180086fa0     hashing.obj
 0002:00021fa0       $unwind$??_G_Node_back@std@@UEAAPEAXI@Z 0000000180086fa0     hashing.obj
 0002:00021fa0       $unwind$??_G_Node_base@std@@UEAAPEAXI@Z 0000000180086fa0     hashing.obj
 0002:00021fa0       $unwind$??_G_Node_capture@std@@UEAAPEAXI@Z 0000000180086fa0     hashing.obj
 0002:00021fa0       $unwind$??_G_Node_end_group@std@@UEAAPEAXI@Z 0000000180086fa0     hashing.obj
 0002:00021fa0       $unwind$??_G_Node_end_rep@std@@UEAAPEAXI@Z 0000000180086fa0     hashing.obj
 0002:00021fa0       $unwind$??_G_Node_endif@std@@UEAAPEAXI@Z 0000000180086fa0     hashing.obj
 0002:00021fa0       $unwind$??_G_Node_rep@std@@UEAAPEAXI@Z 0000000180086fa0     hashing.obj
 0002:00021fa0       $unwind$??_G_Root_node@std@@UEAAPEAXI@Z 0000000180086fa0     hashing.obj
 0002:00021fa0       $unwind$?_Add_class@?$_Builder@PEBDDV?$regex_traits@D@std@@@std@@QEAAXXZ 0000000180086fa0     hashing.obj
 0002:00021fa0       $unwind$?_AtomEscape@?$_Parser@PEBDDV?$regex_traits@D@std@@@std@@AEAAXXZ 0000000180086fa0     hashing.obj
 0002:00021fa0       $unwind$?_CharacterEscape@?$_Parser@PEBDDV?$regex_traits@D@std@@@std@@AEAA_NXZ 0000000180086fa0     hashing.obj
 0002:00021fa0       $unwind$?_ClassAtom@?$_Parser@PEBDDV?$regex_traits@D@std@@@std@@AEAA?AW4_Prs_ret@2@XZ 0000000180086fa0     hashing.obj
 0002:00021fa0       $unwind$?_ClassRanges@?$_Parser@PEBDDV?$regex_traits@D@std@@@std@@AEAAXXZ 0000000180086fa0     hashing.obj
 0002:00021fa0       $unwind$?do_is@?$ctype@_W@std@@MEBA_NF_W@Z 0000000180086fa0     hashing.obj
 0002:00021fa0       $unwind$?do_narrow@?$ctype@D@std@@MEBAPEBDPEBD0DPEAD@Z 0000000180086fa0     hashing.obj
 0002:00021fa0       $unwind$?do_widen@?$ctype@D@std@@MEBAPEBDPEBD0PEAD@Z 0000000180086fa0     hashing.obj
 0002:00021fa0       $unwind$?message@_Iostream_error_category2@std@@UEBA?AV?$basic_string@DU?$char_traits@D@std@@V?$allocator@D@2@@2@H@Z 0000000180086fa0     hashing.obj
 0002:00021fa0       $unwind$?uflow@?$basic_streambuf@DU?$char_traits@D@std@@@std@@MEAAHXZ 0000000180086fa0     hashing.obj
 0002:00021fa0       $unwind$?uflow@?$basic_streambuf@_WU?$char_traits@_W@std@@@std@@MEAAGXZ 0000000180086fa0     hashing.obj
 0002:00021fa0       $unwind$??0bad_alloc@std@@QEAA@AEBV01@@Z 0000000180086fa0     trust.obj
 0002:00021fa0       $unwind$??0bad_array_new_length@std@@QEAA@AEBV01@@Z 0000000180086fa0     trust.obj
 0002:00021fa0       $unwind$??0exception@std@@QEAA@AEBV01@@Z 0000000180086fa0     trust.obj
 0002:00021fa0       $unwind$??1?$basic_string@_WU?$char_traits@_W@std@@V?$allocator@_W@2@@std@@QEAA@XZ 0000000180086fa0     trust.obj
 0002:00021fa0       $unwind$__raise_securityfailure 0000000180086fa0     LIBCMT:gs_report.obj
 0002:00021fa0       $unwind$??2@YAPEAX_K@Z     0000000180086fa0     LIBCMT:new_scalar.obj
 0002:00021fa0       $unwind$??_Gtype_info@@UEAAPEAXI@Z 0000000180086fa0     LIBCMT:std_type_info_static.obj
 0002:00021fa0       $unwind$__scrt_initialize_crt 0000000180086fa0     LIBCMT:utility.obj
 0002:00021fa0       $unwind$__scrt_initialize_onexit_tables 0000000180086fa0     LIBCMT:utility.obj
 0002:00021fa0       $unwind$__scrt_release_startup_lock 0000000180086fa0     LIBCMT:utility.obj
 0002:00021fa0       $unwind$__scrt_uninitialize_crt 0000000180086fa0     LIBCMT:utility.obj
 0002:00021fa0       $unwind$_onexit            0000000180086fa0     LIBCMT:utility.obj
 0002:00021fa0       $unwind$_Getctype          0000000180086fa0     libcpmt:_tolower.obj
 0002:00021fa0       $unwind$?_Ios_base_dtor@ios_base@std@@CAXPEAV12@@Z 0000000180086fa0     libcpmt:ios.obj
 0002:00021fa0       $unwind$??__F_Fac_tidy_reg@std@@YAXXZ 0000000180086fa0     libcpmt:locale0.obj
 0002:00021fa0       $unwind$?_Facet_Register@std@@YAXPEAV_Facet_base@1@@Z 0000000180086fa0     libcpmt:locale0.obj
 0002:00021fa0       $unwind$?_New_Locimp@_Locimp@locale@std@@CAPEAV123@_N@Z 0000000180086fa0     libcpmt:locale0.obj
 0002:00021fa0       $unwind$?_Setgloballocale@locale@std@@CAXPEAX@Z 0000000180086fa0     libcpmt:locale0.obj
 0002:00021fa0       $unwind$?initialize_pointers@@YAHXZ 0000000180086fa0     libcpmt:winapisupp.obj
 0002:00021fa0       $unwind$_Getwctypes        0000000180086fa0     libcpmt:xgetwctype.obj
 0002:00021fa0       $unwind$??0_Lockit@std@@QEAA@H@Z 0000000180086fa0     libcpmt:xlock.obj
 0002:00021fa0       $unwind$??1_Init_locks@std@@QEAA@XZ 0000000180086fa0     libcpmt:xlock.obj
 0002:00021fa0       $unwind$_Getcoll           0000000180086fa0     libcpmt:xstrcoll.obj
 0002:00021fa0       $unwind$??0bad_function_call@std@@QEAA@AEBV01@@Z 0000000180086fa0     libcpmt:xthrow.obj
 0002:00021fa0       $unwind$??0length_error@std@@QEAA@AEBV01@@Z 0000000180086fa0     libcpmt:xthrow.obj
 0002:00021fa0       $unwind$??0logic_error@std@@QEAA@AEBV01@@Z 0000000180086fa0     libcpmt:xthrow.obj
 0002:00021fa0       $unwind$??0out_of_range@std@@QEAA@AEBV01@@Z 0000000180086fa0     libcpmt:xthrow.obj
 0002:00021fa0       $unwind$_IsExceptionObjectToBeDestroyed 0000000180086fa0     libvcruntime:ehhelpers.obj
 0002:00021fa0       $unwind$?GetUnwindTryBlock@__FrameHandler3@@SAHPEA_KPEAU_xDISPATCHER_CONTEXT@@PEBU_s_FuncInfo@@@Z 0000000180086fa0     libvcruntime:ehstate.obj
 0002:00021fa0       $unwind$?StateFromIp@__FrameHandler3@@SAHPEBU_s_FuncInfo@@PEAU_xDISPATCHER_CONTEXT@@_K@Z 0000000180086fa0     libvcruntime:ehstate.obj
 0002:00021fa0       $unwind$??0HandlerMap4@FH4@@QEAA@PEBUTryBlockMapEntry4@1@_KH@Z 0000000180086fa0     libvcruntime:frame.obj
 0002:00021fa0       $unwind$??0bad_exception@std@@QEAA@AEBV01@@Z 0000000180086fa0     libvcruntime:frame.obj
 0002:00021fa0       $unwind$?ExFilterRethrow@@YAHPEAU_EXCEPTION_POINTERS@@PEAUEHExceptionRecord@@PEAH@Z 0000000180086fa0     libvcruntime:frame.obj
 0002:00021fa0       $unwind$__vcrt_uninitialize_locks 0000000180086fa0     libvcruntime:locks.obj
 0002:00021fa0       $unwind$__vcrt_freeptd     0000000180086fa0     libvcruntime:per_thread_data.obj
 0002:00021fa0       $unwind$?ExecutionInCatch@__FrameHandler3@@SA_NPEAU_xDISPATCHER_CONTEXT@@PEBU_s_FuncInfo@@@Z 0000000180086fa0     libvcruntime:risctrnsctrl.obj
 0002:00021fa0       $unwind$_CreateFrameInfo   0000000180086fa0     libvcruntime:risctrnsctrl.obj
 0002:00021fa0       $unwind$_SetImageBase      0000000180086fa0     libvcruntime:risctrnsctrl.obj
 0002:00021fa0       $unwind$_SetThrowImageBase 0000000180086fa0     libvcruntime:risctrnsctrl.obj
 0002:00021fa0       $unwind$__std_exception_destroy 0000000180086fa0     libvcruntime:std_exception.obj
 0002:00021fa0       $unwind$__std_type_info_destroy_list 0000000180086fa0     libvcruntime:std_type_info.obj
 0002:00021fa0       $unwind$__vcrt_FlsAlloc    0000000180086fa0     libvcruntime:winapi_downlevel.obj
 0002:00021fa0       $unwind$__vcrt_FlsFree     0000000180086fa0     libvcruntime:winapi_downlevel.obj
 0002:00021fa0       $unwind$__vcrt_FlsGetValue 0000000180086fa0     libvcruntime:winapi_downlevel.obj
 0002:00021fa0       $unwind$?__c16rtomb_utf8@__crt_mbstring@@YA_KPEAD_SPEAU_Mbstatet@@AEAV__crt_cached_ptd_host@@@Z 0000000180086fa0     libucrt:c16rtomb.obj
 0002:00021fa0       $unwind$_calloc_base       0000000180086fa0     libucrt:calloc_base.obj
 0002:00021fa0       $unwind$_malloc_base       0000000180086fa0     libucrt:malloc_base.obj
 0002:00021fa0       $unwind$_callnewh          0000000180086fa0     libucrt:new_handler.obj
 0002:00021fa0       $unwind$initialize_pointers 0000000180086fa0     libucrt:initialization.obj
 0002:00021fa0       $unwind$uninitialize_allocated_memory 0000000180086fa0     libucrt:initialization.obj
 0002:00021fa0       $unwind$__acrt_initialize_locks 0000000180086fa0     libucrt:locks.obj
 0002:00021fa0       $unwind$__acrt_uninitialize_locks 0000000180086fa0     libucrt:locks.obj
 0002:00021fa0       $unwind$__acrt_freeptd     0000000180086fa0     libucrt:per_thread_data.obj
 0002:00021fa0       $unwind$__acrt_getptd_head 0000000180086fa0     libucrt:per_thread_data.obj
 0002:00021fa0       $unwind$__acrt_get_process_end_policy 0000000180086fa0     libucrt:win_policies.obj
 0002:00021fa0       $unwind$__acrt_AppPolicyGetProcessTerminationMethodInternal 0000000180086fa0     libucrt:winapi_thunks.obj
 0002:00021fa0       $unwind$__acrt_IsValidLocaleName 0000000180086fa0     libucrt:winapi_thunks.obj
 0002:00021fa0       $unwind$__acrt_uninitialize_winapi_thunks 0000000180086fa0     libucrt:winapi_thunks.obj
 0002:00021fa0       $unwind$__acrt_update_locale_info 0000000180086fa0     libucrt:locale_update.obj
 0002:00021fa0       $unwind$__acrt_update_locale_info_explicit 0000000180086fa0     libucrt:locale_update.obj
 0002:00021fa0       $unwind$__acrt_update_multibyte_info 0000000180086fa0     libucrt:locale_update.obj
 0002:00021fa0       $unwind$__acrt_update_multibyte_info_explicit 0000000180086fa0     libucrt:locale_update.obj
 0002:00021fa0       $unwind$__acrt_errno_map_os_error 0000000180086fa0     libucrt:errno.obj
 0002:00021fa0       $unwind$__acrt_errno_map_os_error_ptd 0000000180086fa0     libucrt:errno.obj
 0002:00021fa0       $unwind$__acrt_allocate_buffer_for_argv 0000000180086fa0     libucrt:argv_parsing.obj
 0002:00021fa0       $unwind$?exit_or_terminate_process@@YAXI@Z 0000000180086fa0     libucrt:exit.obj
 0002:00021fa0       $unwind$__acrt_uninitialize_stdio 0000000180086fa0     libucrt:_file.obj
 0002:00021fa0       $unwind$__acrt_stdio_free_buffer_nolock 0000000180086fa0     libucrt:_freebuf.obj
 0002:00021fa0       $unwind$strcpy_s           0000000180086fa0     libucrt:strcpy_s.obj
 0002:00021fa0       $unwind$wcscat_s           0000000180086fa0     libucrt:wcscat_s.obj
 0002:00021fa0       $unwind$wcscpy_s           0000000180086fa0     libucrt:wcscpy_s.obj
 0002:00021fa0       $unwind$_time64            0000000180086fa0     libucrt:time.obj
 0002:00021fa0       $unwind$_clrfp             0000000180086fa0     libucrt:fpctrl.obj
 0002:00021fa0       $unwind$_set_statfp        0000000180086fa0     libucrt:fpctrl.obj
 0002:00021fa0       $unwind$_clearfp           0000000180086fa0     libucrt:ieee.obj
 0002:00021fa0       $unwind$_controlfp_s       0000000180086fa0     libucrt:contrlfp.obj
 0002:00021fa0       $unwind$fegetenv           0000000180086fa0     libucrt:fegetenv.obj
 0002:00021fa0       $unwind$feholdexcept       0000000180086fa0     libucrt:feholdexcept.obj
 0002:00021fa0       $unwind$fesetenv           0000000180086fa0     libucrt:fesetenv.obj
 0002:00021fa0       $unwind$rhash_crc32_update 0000000180086fa0     rhash:algorithms.obj
 0002:00021fa0       $unwind$rhash_crc32c_update 0000000180086fa0     rhash:algorithms.obj
 0002:00021fa0       $unwind$rhash_gost12_256_init 0000000180086fa0     rhash:gost12.obj
 0002:00021fa0       $unwind$rhash_gost12_512_init 0000000180086fa0     rhash:gost12.obj
 0002:00021fa0       $unwind$rhash_sha3_224_init 0000000180086fa0     rhash:sha3.obj
 0002:00021fa0       $unwind$rhash_sha3_256_init 0000000180086fa0     rhash:sha3.obj
 0002:00021fa0       $unwind$rhash_sha3_384_init 0000000180086fa0     rhash:sha3.obj
 0002:00021fa0       $unwind$rhash_sha3_512_init 0000000180086fa0     rhash:sha3.obj
 0002:00021fa8       $unwind$?_Throw_bad_cast@std@@YAXXZ 0000000180086fa8     hashing.obj
 0002:00021fa8       $unwind$?_Throw_bad_array_new_length@std@@YAXXZ 0000000180086fa8     trust.obj
 0002:00021fa8       $unwind$?__scrt_throw_std_bad_alloc@@YAXXZ 0000000180086fa8     LIBCMT:throw_bad_alloc.obj
 0002:00021fa8       $unwind$?__scrt_throw_std_bad_array_new_length@@YAXXZ 0000000180086fa8     LIBCMT:throw_bad_alloc.obj
 0002:00021fa8       $unwind$?_Xbad_alloc@std@@YAXXZ 0000000180086fa8     libcpmt:xthrow.obj
 0002:00021fa8       $unwind$?_Xbad_function_call@std@@YAXXZ 0000000180086fa8     libcpmt:xthrow.obj
 0002:00021fa8       $unwind$?_Xlength_error@std@@YAXPEBD@Z 0000000180086fa8     libcpmt:xthrow.obj
 0002:00021fa8       $unwind$?_Xout_of_range@std@@YAXPEBD@Z 0000000180086fa8     libcpmt:xthrow.obj
 0002:00021fa8       $unwind$?_Xregex_error@std@@YAXW4error_type@regex_constants@1@@Z 0000000180086fa8     libcpmt:xthrow.obj
 0002:00021fa8       $unwind$?_Xruntime_error@std@@YAXPEBD@Z 0000000180086fa8     libcpmt:xthrow.obj
 0002:00021fa8       $unwind$_raise_exc         0000000180086fa8     libucrt:fpexcept.obj
 0002:00021fa8       $unwind$_raise_excf        0000000180086fa8     libucrt:fpexcept.obj
 0002:00021fb0       $unwind$?overflow@?$basic_stringbuf@DU?$char_traits@D@std@@V?$allocator@D@2@@std@@MEAAHH@Z 0000000180086fb0     hashing.obj
 0002:00021fb0       $unwind$?assign@?$basic_string@_WU?$char_traits@_W@std@@V?$allocator@_W@2@@std@@QEAAAEAV12@QEB_W_K@Z 0000000180086fb0     trust.obj
 0002:00021fb0       $unwind$rhash_gost12_update 0000000180086fb0     rhash:gost12.obj
 0002:00021fcc       $unwind$??1?$_Tidy_guard@V?$_Builder@PEBDDV?$regex_traits@D@std@@@std@@@std@@QEAA@XZ 0000000180086fcc     hashing.obj
 0002:00021fcc       $unwind$??_G_Node_assert@std@@UEAAPEAXI@Z 0000000180086fcc     hashing.obj
 0002:00021fd4       $chain$1$??_G_Node_assert@std@@UEAAPEAXI@Z 0000000180086fd4     hashing.obj
 0002:00021fec       $chain$2$??_G_Node_assert@std@@UEAAPEAXI@Z 0000000180086fec     hashing.obj
 0002:00022000       $chain$3$??_G_Node_assert@std@@UEAAPEAXI@Z 0000000180087000     hashing.obj
 0002:00022010       $chain$4$??_G_Node_assert@std@@UEAAPEAXI@Z 0000000180087010     hashing.obj
 0002:00022020       $unwind$??_G_Node_if@std@@UEAAPEAXI@Z 0000000180087020     hashing.obj
 0002:00022028       $chain$1$??_G_Node_if@std@@UEAAPEAXI@Z 0000000180087028     hashing.obj
 0002:00022040       $chain$4$??_G_Node_if@std@@UEAAPEAXI@Z 0000000180087040     hashing.obj
 0002:0002205c       $chain$5$??_G_Node_if@std@@UEAAPEAXI@Z 000000018008705c     hashing.obj
 0002:0002206c       $chain$6$??_G_Node_if@std@@UEAAPEAXI@Z 000000018008706c     hashing.obj
 0002:0002207c       $unwind$?_Calculate_loop_simplicity@std@@YAXPEAV_Node_base@1@0PEAV_Node_rep@1@@Z 000000018008707c     hashing.obj
 0002:0002208c       $chain$1$?_Calculate_loop_simplicity@std@@YAXPEAV_Node_base@1@0PEAV_Node_rep@1@@Z 000000018008708c     hashing.obj
 0002:000220a4       $chain$2$?_Calculate_loop_simplicity@std@@YAXPEAV_Node_base@1@0PEAV_Node_rep@1@@Z 00000001800870a4     hashing.obj
 0002:000220b4       $unwind$??__ESupportedHashes@@YAXXZ 00000001800870b4     hashing.obj
 0002:000220c4       $cppxdata$??__ESupportedHashes@@YAXXZ 00000001800870c4     hashing.obj
 0002:000220cd       $stateUnwindMap$??__ESupportedHashes@@YAXXZ 00000001800870cd     hashing.obj
 0002:0002210f       $ip2state$??__ESupportedHashes@@YAXXZ 000000018008710f     hashing.obj
 0002:0002212c       $unwind$?SetFileHash@HashList@@QEAAXAEBV?$basic_string@_WU?$char_traits@_W@std@@V?$allocator@_W@2@@std@@V?$basic_string@DU?$char_traits@D@std@@V?$allocator@D@2@@3@W4rhash_ids@@@Z 000000018008712c     hashing.obj
 0002:00022150       $cppxdata$?SetFileHash@HashList@@QEAAXAEBV?$basic_string@_WU?$char_traits@_W@std@@V?$allocator@_W@2@@std@@V?$basic_string@DU?$char_traits@D@std@@V?$allocator@D@2@@3@W4rhash_ids@@@Z 0000000180087150     hashing.obj
 0002:00022159       $stateUnwindMap$?SetFileHash@HashList@@QEAAXAEBV?$basic_string@_WU?$char_traits@_W@std@@V?$allocator@_W@2@@std@@V?$basic_string@DU?$char_traits@D@std@@V?$allocator@D@2@@3@W4rhash_ids@@@Z 0000000180087159     hashing.obj
 0002:0002216c       $ip2state$?SetFileHash@HashList@@QEAAXAEBV?$basic_string@_WU?$char_traits@_W@std@@V?$allocator@_W@2@@std@@V?$basic_string@DU?$char_traits@D@std@@V?$allocator@D@2@@3@W4rhash_ids@@@Z 000000018008716c     hashing.obj
 0002:0002217c       $unwind$?SaveHashesToFile@HashList@@AEAA_NAEBV?$basic_string@_WU?$char_traits@_W@std@@V?$allocator@_W@2@@std@@AEAV?$vector@UFileHashInfo@@V?$allocator@UFileHashInfo@@@std@@@3@I_N@Z 000000018008717c     hashing.obj
 0002:000221a4       $cppxdata$?SaveHashesToFile@HashList@@AEAA_NAEBV?$basic_string@_WU?$char_traits@_W@std@@V?$allocator@_W@2@@std@@AEAV?$vector@UFileHashInfo@@V?$allocator@UFileHashInfo@@@std@@@3@I_N@Z 00000001800871a4     hashing.obj
 0002:000221ad       $stateUnwindMap$?SaveHashesToFile@HashList@@AEAA_NAEBV?$basic_string@_WU?$char_traits@_W@std@@V?$allocator@_W@2@@std@@AEAV?$vector@UFileHashInfo@@V?$allocator@UFileHashInfo@@@std@@@3@I_N@Z 00000001800871ad     hashing.obj
 0002:000221c8       $ip2state$?SaveHashesToFile@HashList@@AEAA_NAEBV?$basic_string@_WU?$char_traits@_W@std@@V?$allocator@_W@2@@std@@AEAV?$vector@UFileHashInfo@@V?$allocator@UFileHashInfo@@@std@@@3@I_N@Z 00000001800871c8     hashing.obj
 0002:000221dc       $unwind$?dtor$0@?0???$_Convert_wide_to_narrow_replace_chars@U?$char_traits@D@std@@V?$allocator@D@2@@filesystem@std@@YA?AV?$basic_string@DU?$char_traits@D@std@@V?$allocator@D@2@@1@W4__std_code_page@@V?$basic_string_view@_WU?$char_traits@_W@std@@@1@AEBV?$allocator@D@1@@Z@4HA 00000001800871dc     IntChecker2-Far3.obj
 0002:000221dc       $unwind$?dtor$0@?0??AddIntEditField@PluginDialogBuilder@@UEAAPEAUFarDialogItem@@PEAHH@Z@4HA 00000001800871dc     IntChecker2-Far3.obj
 0002:000221dc       $unwind$?dtor$0@?0??AddUIntEditField@PluginDialogBuilder@@UEAAPEAUFarDialogItem@@PEAIH@Z@4HA 00000001800871dc     IntChecker2-Far3.obj
 0002:000221dc       $unwind$?dtor$0@?0??GetSelectedItemPath@Far3Panel@@QEAA?AV?$basic_string@_WU?$char_traits@_W@std@@V?$allocator@_W@2@@std@@XZ@4HA 00000001800871dc     IntChecker2-Far3.obj
 0002:000221dc       $unwind$?dtor$0@?0??ProgressBarString@@YA?AV?$basic_string@_WU?$char_traits@_W@std@@V?$allocator@_W@2@@std@@_J0@Z@4HA 00000001800871dc     IntChecker2-Far3.obj
 0002:000221dc       $unwind$?dtor$0@?0??_Pretty_message@filesystem_error@filesystem@std@@CA?AV?$basic_string@DU?$char_traits@D@std@@V?$allocator@D@2@@3@V?$basic_string_view@DU?$char_traits@D@std@@@3@AEBVpath@23@1@Z@4HA 00000001800871dc     IntChecker2-Far3.obj
 0002:000221dc       $unwind$?dtor$2@?0??SelectBenchmarkParams@@YA_NAEAHPEAH@Z@4HA 00000001800871dc     IntChecker2-Far3.obj
 0002:000221dc       $unwind$?dtor$5@?0???$_Initialize_dir_enum@U_Recursive_dir_enum_impl@filesystem@std@@@_Dir_enum_impl@filesystem@std@@SA?AW4__std_win_error@@AEAV?$shared_ptr@U_Recursive_dir_enum_impl@filesystem@std@@@2@AEBVpath@12@W4directory_options@12@@Z@4HA 00000001800871dc     IntChecker2-Far3.obj
 0002:000221dc       $unwind$?dtor$0@?0??PrependLongPrefix@@YA?AV?$basic_string@_WU?$char_traits@_W@std@@V?$allocator@_W@2@@std@@AEBV12@@Z@4HA 00000001800871dc     Utils.obj
 0002:000221dc       $unwind$?dtor$1@?0??ExtractFileExt@@YA?AV?$basic_string@_WU?$char_traits@_W@std@@V?$allocator@_W@2@@std@@AEBV12@@Z@4HA 00000001800871dc     Utils.obj
 0002:000221dc       $unwind$?dtor$3@?0??CopyTextToClipboard@@YA_NAEAV?$vector@V?$basic_string@_WU?$char_traits@_W@std@@V?$allocator@_W@2@@std@@V?$allocator@V?$basic_string@_WU?$char_traits@_W@std@@V?$allocator@_W@2@@std@@@2@@std@@@Z@4HA 00000001800871dc     Utils.obj
 0002:000221dc       $unwind$?dtor$0@?0???$transform_primary@PEAD@?$_Regex_traits@D@std@@QEBA?AV?$basic_string@DU?$char_traits@D@std@@V?$allocator@D@2@@1@PEAD0@Z@4HA 00000001800871dc     hashing.obj
 0002:000221dc       $unwind$?dtor$0@?0???$transform_primary@PEBD@?$_Regex_traits@D@std@@QEBA?AV?$basic_string@DU?$char_traits@D@std@@V?$allocator@D@2@@1@PEBD0@Z@4HA 00000001800871dc     hashing.obj
 0002:000221dc       $unwind$?dtor$0@?0???0?$basic_stringstream@_WU?$char_traits@_W@std@@V?$allocator@_W@2@@std@@QEAA@XZ@4HA 00000001800871dc     hashing.obj
 0002:000221dc       $unwind$?dtor$0@?0??DetectHashAlgo@@YA?AV?$vector@HV?$allocator@H@std@@@std@@AEBV?$basic_string@DU?$char_traits@D@std@@V?$allocator@D@2@@2@@Z@4HA 00000001800871dc     hashing.obj
 0002:000221dc       $unwind$?dtor$0@?0??_Getcat@?$collate@D@std@@SA_KPEAPEBVfacet@locale@2@PEBV42@@Z@4HA 00000001800871dc     hashing.obj
 0002:000221dc       $unwind$?dtor$0@?0??_Getcat@?$ctype@D@std@@SA_KPEAPEBVfacet@locale@2@PEBV42@@Z@4HA 00000001800871dc     hashing.obj
 0002:000221dc       $unwind$?dtor$0@?0??_Getcat@?$ctype@_W@std@@SA_KPEAPEBVfacet@locale@2@PEBV42@@Z@4HA 00000001800871dc     hashing.obj
 0002:000221dc       $unwind$?dtor$0@?0??do_transform@?$collate@D@std@@MEBA?AV?$basic_string@DU?$char_traits@D@std@@V?$allocator@D@2@@2@PEBD0@Z@4HA 00000001800871dc     hashing.obj
 0002:000221dc       $unwind$?dtor$1@?0??SaveListEachDir@HashList@@QEAA_NPEB_WIAEAH1@Z@4HA 00000001800871dc     hashing.obj
 0002:000221dc       $unwind$?dtor$1@?0??_Getcat@?$collate@D@std@@SA_KPEAPEBVfacet@locale@2@PEBV42@@Z@4HA 00000001800871dc     hashing.obj
 0002:000221dc       $unwind$?dtor$2@?0??SaveHashesToFile@HashList@@AEAA_NAEBV?$basic_string@_WU?$char_traits@_W@std@@V?$allocator@_W@2@@std@@AEAV?$vector@UFileHashInfo@@V?$allocator@UFileHashInfo@@@std@@@3@I_N@Z@4HA 00000001800871dc     hashing.obj
 0002:000221dc       $unwind$?dtor$4@?0??SaveListSeparate@HashList@@QEAA_NPEB_WIAEAH1@Z@4HA 00000001800871dc     hashing.obj
 0002:000221dc       $unwind$?dtor$7@?0??ToString@FileHashInfo@@QEBA?AV?$basic_string@_WU?$char_traits@_W@std@@V?$allocator@_W@2@@std@@XZ@4HA 00000001800871dc     hashing.obj
 0002:000221dc       $unwind$?dtor$8@?0??SaveHashesToFile@HashList@@AEAA_NAEBV?$basic_string@_WU?$char_traits@_W@std@@V?$allocator@_W@2@@std@@AEAV?$vector@UFileHashInfo@@V?$allocator@UFileHashInfo@@@std@@@3@I_N@Z@4HA 00000001800871dc     hashing.obj
 0002:000221dc       $unwind$?fin$0@?0??dllmain_crt_process_attach@@YAHQEAUHINSTANCE__@@QEAX@Z@4HA 00000001800871dc     LIBCMT:dll_dllmain.obj
 0002:000221dc       $unwind$?fin$0@?0??dllmain_crt_process_detach@@YAH_N@Z@4HA 00000001800871dc     LIBCMT:dll_dllmain.obj
 0002:000221dc       $unwind$?fin$1@?0??dllmain_crt_process_detach@@YAH_N@Z@4HA 00000001800871dc     LIBCMT:dll_dllmain.obj
 0002:000221dc       $unwind$?fin$0@?0???_M@YAXPEAX_K1P6AX0@Z@Z@4HA 00000001800871dc     LIBCMT:ehvecdtr.obj
 0002:000221dc       $unwind$_IsNonwritableInCurrentImage$filt$0 00000001800871dc     LIBCMT:pesect.obj
 0002:000221dc       $unwind$?filt$0@?0??CxxCallCatchBlock@__FrameHandler3@@SAPEAXPEAU_EXCEPTION_RECORD@@@Z@4HA 00000001800871dc     libvcruntime:frame.obj
 0002:000221dc       $unwind$?filt$0@?0??CxxCallCatchBlock@__FrameHandler4@@SAPEAXPEAU_EXCEPTION_RECORD@@@Z@4HA 00000001800871dc     libvcruntime:frame.obj
 0002:000221dc       $unwind$?filt$0@?0??FrameUnwindToState@__FrameHandler3@@SAXPEA_KPEAU_xDISPATCHER_CONTEXT@@PEBU_s_FuncInfo@@H@Z@4HA 00000001800871dc     libvcruntime:frame.obj
 0002:000221dc       $unwind$?fin$1@?0??FrameUnwindToState@__FrameHandler3@@SAXPEA_KPEAU_xDISPATCHER_CONTEXT@@PEBU_s_FuncInfo@@H@Z@4HA 00000001800871dc     libvcruntime:frame.obj
 0002:000221dc       $unwind$_query_new_handler$fin$0 00000001800871dc     libucrt:new_handler.obj
 0002:000221dc       $unwind$?fin$0@?0???$?RV<lambda_0ae27a3a962d80f24befdcbee591983d>@@AEAV<lambda_8d0ee55de4b1038c4002e0adecdf1839>@@V<lambda_dc504788e8f1664fe9b84e20bfb512f2>@@@?$__crt_seh_guarded_call@X@@QEAAX$$QEAV<lambda_0ae27a3a962d80f24befdcbee591983d>@@AEAV<lambda_8d0ee55de4b1038c4002e0adecdf1839>@@$$QEAV<lambda_dc504788e8f1664fe9b84e20bfb512f2>@@@Z@4HA 00000001800871dc     libucrt:per_thread_data.obj
 0002:000221dc       $unwind$?fin$0@?0???$?RV<lambda_2d41944a1d46af3157314b8a01080d33>@@AEAV<lambda_8f455de75cd7d7f24b4096f044d8b9e6>@@V<lambda_aa500f224e6afead328df44964fe2772>@@@?$__crt_seh_guarded_call@X@@QEAAX$$QEAV<lambda_2d41944a1d46af3157314b8a01080d33>@@AEAV<lambda_8f455de75cd7d7f24b4096f044d8b9e6>@@$$QEAV<lambda_aa500f224e6afead328df44964fe2772>@@@Z@4HA 00000001800871dc     libucrt:per_thread_data.obj
 0002:000221dc       $unwind$?fin$0@?0???$?RV<lambda_aa87e3671a710a21b5dc78c0bdf72e11>@@AEAV<lambda_92619d2358a28f41a33ba319515a20b9>@@V<lambda_6992ecaafeb10aed2b74cb1fae11a551>@@@?$__crt_seh_guarded_call@X@@QEAAX$$QEAV<lambda_aa87e3671a710a21b5dc78c0bdf72e11>@@AEAV<lambda_92619d2358a28f41a33ba319515a20b9>@@$$QEAV<lambda_6992ecaafeb10aed2b74cb1fae11a551>@@@Z@4HA 00000001800871dc     libucrt:per_thread_data.obj
 0002:000221dc       $unwind$?fin$0@?0???$?RV<lambda_f2e299630e499de9f9a165e60fcd3db5>@@AEAV<lambda_2ae9d31cdba2644fcbeaf08da7c24588>@@V<lambda_40d01ff24d0e7b3814fdbdcee8eab3c7>@@@?$__crt_seh_guarded_call@X@@QEAAX$$QEAV<lambda_f2e299630e499de9f9a165e60fcd3db5>@@AEAV<lambda_2ae9d31cdba2644fcbeaf08da7c24588>@@$$QEAV<lambda_40d01ff24d0e7b3814fdbdcee8eab3c7>@@@Z@4HA 00000001800871dc     libucrt:per_thread_data.obj
 0002:000221dc       $unwind$?fin$0@?0???$?RV<lambda_48fc4a32460bb0512d3b13f8499328be>@@AEAV<lambda_6c3dac0a4f3f9cefca9bb494422f9b77>@@V<lambda_0a2f2c9f9a56eb2b08bfa6ff61d331c5>@@@?$__crt_seh_guarded_call@H@@QEAAH$$QEAV<lambda_48fc4a32460bb0512d3b13f8499328be>@@AEAV<lambda_6c3dac0a4f3f9cefca9bb494422f9b77>@@$$QEAV<lambda_0a2f2c9f9a56eb2b08bfa6ff61d331c5>@@@Z@4HA 00000001800871dc     libucrt:winapi_thunks.obj
 0002:000221dc       $unwind$__acrt_update_thread_locale_data$fin$0 00000001800871dc     libucrt:locale_refcounting.obj
 0002:000221dc       $unwind$?fin$0@?0???$?RV<lambda_e9ce07acdb0b138e546925ae9f1a2c9c>@@AEAV<lambda_2116bde18c9e5f34230805ea4a4660ed>@@V<lambda_5d037afbfc54bf1ca80d3d1ee4062886>@@@?$__crt_seh_guarded_call@PEAD@@QEAAPEAD$$QEAV<lambda_e9ce07acdb0b138e546925ae9f1a2c9c>@@AEAV<lambda_2116bde18c9e5f34230805ea4a4660ed>@@$$QEAV<lambda_5d037afbfc54bf1ca80d3d1ee4062886>@@@Z@4HA 00000001800871dc     libucrt:setlocale.obj
 0002:000221dc       $unwind$?fin$0@?0???$?RV<lambda_1d892b297fdedeee07ed8124eeb2f2fa>@@AEAV<lambda_ffc046909424fd52df0ac47e64813305>@@V<lambda_01a7098693036236037e7cdb9bca3d73>@@@?$__crt_seh_guarded_call@X@@QEAAX$$QEAV<lambda_1d892b297fdedeee07ed8124eeb2f2fa>@@AEAV<lambda_ffc046909424fd52df0ac47e64813305>@@$$QEAV<lambda_01a7098693036236037e7cdb9bca3d73>@@@Z@4HA 00000001800871dc     libucrt:wsetlocale.obj
 0002:000221dc       $unwind$?fin$0@?0???$?RV<lambda_410d79af7f07d98d83a3f525b3859a53>@@AEAV<lambda_3e16ef9562a7dcce91392c22ab16ea36>@@V<lambda_38119f0e861e05405d8a144b9b982f0a>@@@?$__crt_seh_guarded_call@X@@QEAAX$$QEAV<lambda_410d79af7f07d98d83a3f525b3859a53>@@AEAV<lambda_3e16ef9562a7dcce91392c22ab16ea36>@@$$QEAV<lambda_38119f0e861e05405d8a144b9b982f0a>@@@Z@4HA 00000001800871dc     libucrt:wsetlocale.obj
 0002:000221dc       $unwind$?fin$0@?0???$?RV<lambda_e9338f07fe435327d97d4ef86149e64d>@@AEAV<lambda_2a444430fde8c29194d880d93eed5e8f>@@AEAV<lambda_02db5278e8aef8b5e4976579d73f5304>@@@?$__crt_seh_guarded_call@X@@QEAAX$$QEAV<lambda_e9338f07fe435327d97d4ef86149e64d>@@AEAV<lambda_2a444430fde8c29194d880d93eed5e8f>@@AEAV<lambda_02db5278e8aef8b5e4976579d73f5304>@@@Z@4HA 00000001800871dc     libucrt:wsetlocale.obj
 0002:000221dc       $unwind$?fin$0@?0???$?RV<lambda_ad8af0d99a0adf03d037d7dffe354bb5>@@AEAV<lambda_c9ba49e555ba839a7b07aa3fbecb7617>@@V<lambda_2f1ebd5d68526518146ae959c9e734c8>@@@?$__crt_seh_guarded_call@H@@QEAAH$$QEAV<lambda_ad8af0d99a0adf03d037d7dffe354bb5>@@AEAV<lambda_c9ba49e555ba839a7b07aa3fbecb7617>@@$$QEAV<lambda_2f1ebd5d68526518146ae959c9e734c8>@@@Z@4HA 00000001800871dc     libucrt:close.obj
 0002:000221dc       $unwind$?fin$0@?0???$?RV<lambda_a37b2b86f63e897a80ea819b0eb08c01>@@AEAV<lambda_38ce7e780aa69e748d6df282ebc68efe>@@V<lambda_99fb1378e971ab6e7edea83e3a7a83a2>@@@?$__crt_seh_guarded_call@H@@QEAAH$$QEAV<lambda_a37b2b86f63e897a80ea819b0eb08c01>@@AEAV<lambda_38ce7e780aa69e748d6df282ebc68efe>@@$$QEAV<lambda_99fb1378e971ab6e7edea83e3a7a83a2>@@@Z@4HA 00000001800871dc     libucrt:commit.obj
 0002:000221dc       $unwind$__acrt_initialize_lowio$fin$0 00000001800871dc     libucrt:ioinit.obj
 0002:000221dc       $unwind$__acrt_lowio_ensure_fh_exists$fin$0 00000001800871dc     libucrt:osfinfo.obj
 0002:000221dc       $unwind$_alloc_osfhnd$fin$0 00000001800871dc     libucrt:osfinfo.obj
 0002:000221dc       $unwind$_read$fin$0        00000001800871dc     libucrt:read.obj
 0002:000221dc       $unwind$?fin$0@?0???$?RV<lambda_efdfa57d1f175319df784efa44bb7b81>@@AEAV<lambda_5f0a4c1567f8adc6734073e5d1e1b35c>@@V<lambda_2e8a7d3640ea6ccb4c2413664c2db6fd>@@@?$__crt_seh_guarded_call@X@@QEAAX$$QEAV<lambda_efdfa57d1f175319df784efa44bb7b81>@@AEAV<lambda_5f0a4c1567f8adc6734073e5d1e1b35c>@@$$QEAV<lambda_2e8a7d3640ea6ccb4c2413664c2db6fd>@@@Z@4HA 00000001800871dc     libucrt:mbctype.obj
 0002:000221dc       $unwind$?fin$0@?0??update_thread_multibyte_data_internal@@YAPEAU__crt_multibyte_data@@QEAU__acrt_ptd@@QEAPEAU1@@Z@4HA 00000001800871dc     libucrt:mbctype.obj
 0002:000221dc       $unwind$?fin$0@?0???$?RV<lambda_450d765d439847d4c735a33c368b5fc0>@@AEAV<lambda_44731a7d0e6d81c3e6aa82d741081786>@@V<lambda_601a2a7da3b7a96e9554ac7215c4b07c>@@@?$__crt_seh_guarded_call@P6AXH@Z@@QEAAP6AXH@Z$$QEAV<lambda_450d765d439847d4c735a33c368b5fc0>@@AEAV<lambda_44731a7d0e6d81c3e6aa82d741081786>@@$$QEAV<lambda_601a2a7da3b7a96e9554ac7215c4b07c>@@@Z@4HA 00000001800871dc     libucrt:signal.obj
 0002:000221dc       $unwind$raise$fin$0        00000001800871dc     libucrt:signal.obj
 0002:000221dc       $unwind$?filt$0@?0???R<lambda_6e4b09c48022b2350581041d5f6b0c4c>@@QEBA@XZ@4HA 00000001800871dc     libucrt:exit.obj
 0002:000221dc       $unwind$?fin$0@?0???$?RV<lambda_d80eeec6fff315bfe5c115232f3240e3>@@AEAV<lambda_6e4b09c48022b2350581041d5f6b0c4c>@@V<lambda_2358e3775559c9db80273638284d5e45>@@@?$__crt_seh_guarded_call@X@@QEAAX$$QEAV<lambda_d80eeec6fff315bfe5c115232f3240e3>@@AEAV<lambda_6e4b09c48022b2350581041d5f6b0c4c>@@$$QEAV<lambda_2358e3775559c9db80273638284d5e45>@@@Z@4HA 00000001800871dc     libucrt:exit.obj
 0002:000221dc       $unwind$?fin$0@?0???$?RV<lambda_638799b9deba96c50f710eeac98168cd>@@AEAV<lambda_22ebabd17bc4fa466a2aca6d8deb888d>@@V<lambda_a6f7d7db0129f75315ebf26d50c089f1>@@@?$__crt_seh_guarded_call@H@@QEAAH$$QEAV<lambda_638799b9deba96c50f710eeac98168cd>@@AEAV<lambda_22ebabd17bc4fa466a2aca6d8deb888d>@@$$QEAV<lambda_a6f7d7db0129f75315ebf26d50c089f1>@@@Z@4HA 00000001800871dc     libucrt:onexit.obj
 0002:000221dc       $unwind$?fin$0@?0???$?RV<lambda_7777bce6b2f8c936911f934f8298dc43>@@AEAV<lambda_f03950bc5685219e0bcd2087efbe011e>@@V<lambda_3883c3dff614d5e0c5f61bb1ac94921c>@@@?$__crt_seh_guarded_call@H@@QEAAH$$QEAV<lambda_7777bce6b2f8c936911f934f8298dc43>@@AEAV<lambda_f03950bc5685219e0bcd2087efbe011e>@@$$QEAV<lambda_3883c3dff614d5e0c5f61bb1ac94921c>@@@Z@4HA 00000001800871dc     libucrt:onexit.obj
 0002:000221dc       $unwind$_fcloseall$fin$0   00000001800871dc     libucrt:closeall.obj
 0002:000221dc       $unwind$?fin$0@?0???$?RV<lambda_842d9ff0dc9ef11c61343bbaebe7f885>@@AEAV<lambda_c5860995281e5c4ce005b3de8f5874ee>@@V<lambda_d90129c13df834fdcbf8d2b88dafcf2d>@@@?$__crt_seh_guarded_call@X@@QEAAX$$QEAV<lambda_842d9ff0dc9ef11c61343bbaebe7f885>@@AEAV<lambda_c5860995281e5c4ce005b3de8f5874ee>@@$$QEAV<lambda_d90129c13df834fdcbf8d2b88dafcf2d>@@@Z@4HA 00000001800871dc     libucrt:fflush.obj
 0002:000221dc       $unwind$?fin$0@?0???$?RV<lambda_886d6c58226a84441f68b9f2b8217b83>@@AEAV<lambda_ab61a845afdef5b7c387490eaf3616ee>@@V<lambda_f7f22ab5edc0698d5f6905b0d3f44752>@@@?$__crt_seh_guarded_call@X@@QEAAX$$QEAV<lambda_886d6c58226a84441f68b9f2b8217b83>@@AEAV<lambda_ab61a845afdef5b7c387490eaf3616ee>@@$$QEAV<lambda_f7f22ab5edc0698d5f6905b0d3f44752>@@@Z@4HA 00000001800871dc     libucrt:fflush.obj
 0002:000221dc       $unwind$?fin$0@?0???$common_fgets@D@@YAPEADQEADHV__crt_stdio_stream@@@Z@4HA 00000001800871dc     libucrt:fgets.obj
 0002:000221dc       $unwind$?fin$0@?0???$common_fsopen@_W@@YAPEAU_iobuf@@QEB_W0H@Z@4HA 00000001800871dc     libucrt:fopen.obj
 0002:000221dc       $unwind$?fin$0@?0??__acrt_stdio_allocate_stream@@YA?AV__crt_stdio_stream@@XZ@4HA 00000001800871dc     libucrt:stream.obj
 0002:000221dc       $unwind$_ctrlfp$filt$0     00000001800871dc     libucrt:fpctrl.obj
 0002:000221dc       $unwind$common_control87$filt$0 00000001800871dc     libucrt:ieee.obj
 0002:000221e4       $unwind$??_D?$basic_stringstream@DU?$char_traits@D@std@@V?$allocator@D@2@@std@@QEAAXXZ 00000001800871e4     hashing.obj
 0002:000221e4       $unwind$??_D?$basic_stringstream@_WU?$char_traits@_W@std@@V?$allocator@_W@2@@std@@QEAAXXZ 00000001800871e4     hashing.obj
 0002:000221f8       $cppxdata$??_D?$basic_stringstream@DU?$char_traits@D@std@@V?$allocator@D@2@@std@@QEAAXXZ 00000001800871f8     hashing.obj
 0002:000221f8       $cppxdata$??_D?$basic_stringstream@_WU?$char_traits@_W@std@@V?$allocator@_W@2@@std@@QEAAXXZ 00000001800871f8     hashing.obj
 0002:00022201       $stateUnwindMap$??1ProgressContext@@QEAA@XZ 0000000180087201     IntChecker2-Far3.obj
 0002:00022201       $stateUnwindMap$??_GPluginDialogBuilder@@UEAAPEAXI@Z 0000000180087201     IntChecker2-Far3.obj
 0002:00022201       $stateUnwindMap$?_Advance_and_reset_if_no_more_files@_Recursive_dir_enum_impl@filesystem@std@@SA?AW4__std_win_error@@AEAV?$shared_ptr@U_Recursive_dir_enum_impl@filesystem@std@@@3@@Z 0000000180087201     IntChecker2-Far3.obj
 0002:00022201       $stateUnwindMap$??1?$basic_ios@DU?$char_traits@D@std@@@std@@UEAA@XZ 0000000180087201     hashing.obj
 0002:00022201       $stateUnwindMap$??1?$basic_ios@_WU?$char_traits@_W@std@@@std@@UEAA@XZ 0000000180087201     hashing.obj
 0002:00022201       $stateUnwindMap$??1sentry@?$basic_ostream@DU?$char_traits@D@std@@@std@@QEAA@XZ 0000000180087201     hashing.obj
 0002:00022201       $stateUnwindMap$??1sentry@?$basic_ostream@_WU?$char_traits@_W@std@@@std@@QEAA@XZ 0000000180087201     hashing.obj
 0002:00022201       $stateUnwindMap$??_D?$basic_stringstream@DU?$char_traits@D@std@@V?$allocator@D@2@@std@@QEAAXXZ 0000000180087201     hashing.obj
 0002:00022201       $stateUnwindMap$??_D?$basic_stringstream@_WU?$char_traits@_W@std@@V?$allocator@_W@2@@std@@QEAAXXZ 0000000180087201     hashing.obj
 0002:00022201       $stateUnwindMap$??_G?$basic_ios@DU?$char_traits@D@std@@@std@@UEAAPEAXI@Z 0000000180087201     hashing.obj
 0002:00022201       $stateUnwindMap$??_G?$basic_ios@_WU?$char_traits@_W@std@@@std@@UEAAPEAXI@Z 0000000180087201     hashing.obj
 0002:00022201       $stateUnwindMap$??_G?$basic_iostream@DU?$char_traits@D@std@@@std@@UEAAPEAXI@Z 0000000180087201     hashing.obj
 0002:00022201       $stateUnwindMap$??_G?$basic_iostream@_WU?$char_traits@_W@std@@@std@@UEAAPEAXI@Z 0000000180087201     hashing.obj
 0002:00022201       $stateUnwindMap$??_G?$basic_istream@DU?$char_traits@D@std@@@std@@UEAAPEAXI@Z 0000000180087201     hashing.obj
 0002:00022201       $stateUnwindMap$??_G?$basic_istream@_WU?$char_traits@_W@std@@@std@@UEAAPEAXI@Z 0000000180087201     hashing.obj
 0002:00022201       $stateUnwindMap$??_G?$basic_ostream@DU?$char_traits@D@std@@@std@@UEAAPEAXI@Z 0000000180087201     hashing.obj
 0002:00022201       $stateUnwindMap$??_G?$basic_ostream@_WU?$char_traits@_W@std@@@std@@UEAAPEAXI@Z 0000000180087201     hashing.obj
 0002:00022201       $stateUnwindMap$??_Gios_base@std@@UEAAPEAXI@Z 0000000180087201     hashing.obj
 0002:00022201       $stateUnwindMap$??__Finit_atexit@@YAXXZ 0000000180087201     libcpmt:iosptrs.obj
 0002:00022207       $ip2state$??_D?$basic_stringstream@DU?$char_traits@D@std@@V?$allocator@D@2@@std@@QEAAXXZ 0000000180087207     hashing.obj
 0002:00022207       $ip2state$??_D?$basic_stringstream@_WU?$char_traits@_W@std@@V?$allocator@_W@2@@std@@QEAAXXZ 0000000180087207     hashing.obj
 0002:0002220c       $unwind$?SaveList@HashList@@QEAA_NPEB_WI@Z 000000018008720c     hashing.obj
 0002:00022224       $cppxdata$?SaveList@HashList@@QEAA_NPEB_WI@Z 0000000180087224     hashing.obj
 0002:0002222d       $stateUnwindMap$?SaveList@HashList@@QEAA_NPEB_WI@Z 000000018008722d     hashing.obj
 0002:00022234       $ip2state$?SaveList@HashList@@QEAA_NPEB_WI@Z 0000000180087234     hashing.obj
 0002:0002223c       $unwind$?SaveListSeparate@HashList@@QEAA_NPEB_WIAEAH1@Z 000000018008723c     hashing.obj
 0002:00022264       $cppxdata$?SaveListSeparate@HashList@@QEAA_NPEB_WIAEAH1@Z 0000000180087264     hashing.obj
 0002:0002226d       $stateUnwindMap$?SaveListSeparate@HashList@@QEAA_NPEB_WIAEAH1@Z 000000018008726d     hashing.obj
 0002:000222b6       $ip2state$?SaveListSeparate@HashList@@QEAA_NPEB_WIAEAH1@Z 00000001800872b6     hashing.obj
 0002:000222d8       $unwind$?SaveListEachDir@HashList@@QEAA_NPEB_WIAEAH1@Z 00000001800872d8     hashing.obj
 0002:00022300       $cppxdata$?SaveListEachDir@HashList@@QEAA_NPEB_WIAEAH1@Z 0000000180087300     hashing.obj
 0002:00022309       $stateUnwindMap$?SaveListEachDir@HashList@@QEAA_NPEB_WIAEAH1@Z 0000000180087309     hashing.obj
 0002:00022370       $ip2state$?SaveListEachDir@HashList@@QEAA_NPEB_WIAEAH1@Z 0000000180087370     hashing.obj
 0002:000223a0       $unwind$?LoadList@HashList@@QEAA_NPEB_WI_N@Z 00000001800873a0     hashing.obj
 0002:000223c8       $cppxdata$?LoadList@HashList@@QEAA_NPEB_WI_N@Z 00000001800873c8     hashing.obj
 0002:000223d1       $stateUnwindMap$?LoadList@HashList@@QEAA_NPEB_WI_N@Z 00000001800873d1     hashing.obj
 0002:000223e4       $ip2state$?LoadList@HashList@@QEAA_NPEB_WI_N@Z 00000001800873e4     hashing.obj
 0002:000223f8       $unwind$?DetectFormat@HashList@@AEAA_NPEBDIPEB_WAEAHAEAW4HashListFormat@@@Z 00000001800873f8     hashing.obj
 0002:00022420       $cppxdata$?DetectFormat@HashList@@AEAA_NPEBDIPEB_WAEAHAEAW4HashListFormat@@@Z 0000000180087420     hashing.obj
 0002:00022429       $stateUnwindMap$?DetectFormat@HashList@@AEAA_NPEBDIPEB_WAEAHAEAW4HashListFormat@@@Z 0000000180087429     hashing.obj
 0002:0002243c       $ip2state$?DetectFormat@HashList@@AEAA_NPEBDIPEB_WAEAHAEAW4HashListFormat@@@Z 000000018008743c     hashing.obj
 0002:0002244c       $unwind$?TryParseBSD@HashList@@AEAA_NPEBDIAEAUFileHashInfo@@@Z 000000018008744c     hashing.obj
 0002:00022474       $cppxdata$?TryParseBSD@HashList@@AEAA_NPEBDIAEAUFileHashInfo@@@Z 0000000180087474     hashing.obj
 0002:0002247d       $stateUnwindMap$?TryParseBSD@HashList@@AEAA_NPEBDIAEAUFileHashInfo@@@Z 000000018008747d     hashing.obj
 0002:00022499       $ip2state$?TryParseBSD@HashList@@AEAA_NPEBDIAEAUFileHashInfo@@@Z 0000000180087499     hashing.obj
 0002:000224ac       $unwind$?TryParseSfv@HashList@@AEAA_NPEBDIHAEAUFileHashInfo@@@Z 00000001800874ac     hashing.obj
 0002:000224ac       $unwind$?TryParseSimple@HashList@@AEAA_NPEBDIHAEAUFileHashInfo@@@Z 00000001800874ac     hashing.obj
 0002:000224d4       $cppxdata$?TryParseSfv@HashList@@AEAA_NPEBDIHAEAUFileHashInfo@@@Z 00000001800874d4     hashing.obj
 0002:000224d4       $cppxdata$?TryParseSimple@HashList@@AEAA_NPEBDIHAEAUFileHashInfo@@@Z 00000001800874d4     hashing.obj
 0002:000224dd       $stateUnwindMap$?TryParseSfv@HashList@@AEAA_NPEBDIHAEAUFileHashInfo@@@Z 00000001800874dd     hashing.obj
 0002:000224dd       $stateUnwindMap$?TryParseSimple@HashList@@AEAA_NPEBDIHAEAUFileHashInfo@@@Z 00000001800874dd     hashing.obj
 0002:000224ff       $ip2state$?TryParseSfv@HashList@@AEAA_NPEBDIHAEAUFileHashInfo@@@Z 00000001800874ff     hashing.obj
 0002:000224ff       $ip2state$?TryParseSimple@HashList@@AEAA_NPEBDIHAEAUFileHashInfo@@@Z 00000001800874ff     hashing.obj
 0002:00022514       $unwind$?ToString@FileHashInfo@@QEBA?AV?$basic_string@_WU?$char_traits@_W@std@@V?$allocator@_W@2@@std@@XZ 0000000180087514     hashing.obj
 0002:00022538       $cppxdata$?ToString@FileHashInfo@@QEBA?AV?$basic_string@_WU?$char_traits@_W@std@@V?$allocator@_W@2@@std@@XZ 0000000180087538     hashing.obj
 0002:00022541       $stateUnwindMap$?ToString@FileHashInfo@@QEBA?AV?$basic_string@_WU?$char_traits@_W@std@@V?$allocator@_W@2@@std@@XZ 0000000180087541     hashing.obj
 0002:00022554       $ip2state$?ToString@FileHashInfo@@QEBA?AV?$basic_string@_WU?$char_traits@_W@std@@V?$allocator@_W@2@@std@@XZ 0000000180087554     hashing.obj
 0002:00022568       $unwind$?GenerateHash@@YA?AW4GenResult@@AEBV?$basic_string@_WU?$char_traits@_W@std@@V?$allocator@_W@2@@std@@V?$vector@W4rhash_ids@@V?$allocator@W4rhash_ids@@@std@@@3@AEAV?$vector@V?$basic_string@DU?$char_traits@D@std@@V?$allocator@D@2@@std@@V?$allocator@V?$basic_string@DU?$char_traits@D@std@@V?$allocator@D@2@@std@@@2@@3@_NP6A_NPEAX_J@Z4@Z 0000000180087568     hashing.obj
 0002:00022590       $cppxdata$?GenerateHash@@YA?AW4GenResult@@AEBV?$basic_string@_WU?$char_traits@_W@std@@V?$allocator@_W@2@@std@@V?$vector@W4rhash_ids@@V?$allocator@W4rhash_ids@@@std@@@3@AEAV?$vector@V?$basic_string@DU?$char_traits@D@std@@V?$allocator@D@2@@std@@V?$allocator@V?$basic_string@DU?$char_traits@D@std@@V?$allocator@D@2@@std@@@2@@3@_NP6A_NPEAX_J@Z4@Z 0000000180087590     hashing.obj
 0002:00022599       $stateUnwindMap$?GenerateHash@@YA?AW4GenResult@@AEBV?$basic_string@_WU?$char_traits@_W@std@@V?$allocator@_W@2@@std@@V?$vector@W4rhash_ids@@V?$allocator@W4rhash_ids@@@std@@@3@AEAV?$vector@V?$basic_string@DU?$char_traits@D@std@@V?$allocator@D@2@@std@@V?$allocator@V?$basic_string@DU?$char_traits@D@std@@V?$allocator@D@2@@std@@@2@@3@_NP6A_NPEAX_J@Z4@Z 0000000180087599     hashing.obj
 0002:000225ad       $ip2state$?GenerateHash@@YA?AW4GenResult@@AEBV?$basic_string@_WU?$char_traits@_W@std@@V?$allocator@_W@2@@std@@V?$vector@W4rhash_ids@@V?$allocator@W4rhash_ids@@@std@@@3@AEAV?$vector@V?$basic_string@DU?$char_traits@D@std@@V?$allocator@D@2@@std@@V?$allocator@V?$basic_string@DU?$char_traits@D@std@@V?$allocator@D@2@@std@@@2@@3@_NP6A_NPEAX_J@Z4@Z 00000001800875ad     hashing.obj
 0002:000225c0       $unwind$?GenerateHash@@YA?AW4GenResult@@AEBV?$basic_string@_WU?$char_traits@_W@std@@V?$allocator@_W@2@@std@@W4rhash_ids@@AEAV?$basic_string@DU?$char_traits@D@std@@V?$allocator@D@2@@3@_NP6A_NPEAX_J@Z4@Z 00000001800875c0     hashing.obj
 0002:000225e0       $cppxdata$?GenerateHash@@YA?AW4GenResult@@AEBV?$basic_string@_WU?$char_traits@_W@std@@V?$allocator@_W@2@@std@@W4rhash_ids@@AEAV?$basic_string@DU?$char_traits@D@std@@V?$allocator@D@2@@3@_NP6A_NPEAX_J@Z4@Z 00000001800875e0     hashing.obj
 0002:000225e9       $stateUnwindMap$?GenerateHash@@YA?AW4GenResult@@AEBV?$basic_string@_WU?$char_traits@_W@std@@V?$allocator@_W@2@@std@@W4rhash_ids@@AEAV?$basic_string@DU?$char_traits@D@std@@V?$allocator@D@2@@3@_NP6A_NPEAX_J@Z4@Z 00000001800875e9     hashing.obj
 0002:000225f6       $ip2state$?GenerateHash@@YA?AW4GenResult@@AEBV?$basic_string@_WU?$char_traits@_W@std@@V?$allocator@_W@2@@std@@W4rhash_ids@@AEAV?$basic_string@DU?$char_traits@D@std@@V?$allocator@D@2@@3@_NP6A_NPEAX_J@Z4@Z 00000001800875f6     hashing.obj
 0002:00022604       $unwind$?DetectHashAlgo@@YA?AV?$vector@HV?$allocator@H@std@@@std@@AEBV?$basic_string@DU?$char_traits@D@std@@V?$allocator@D@2@@2@@Z 0000000180087604     hashing.obj
 0002:00022620       $cppxdata$?DetectHashAlgo@@YA?AV?$vector@HV?$allocator@H@std@@@std@@AEBV?$basic_string@DU?$char_traits@D@std@@V?$allocator@D@2@@2@@Z 0000000180087620     hashing.obj
 0002:00022629       $stateUnwindMap$?DetectHashAlgo@@YA?AV?$vector@HV?$allocator@H@std@@@std@@AEBV?$basic_string@DU?$char_traits@D@std@@V?$allocator@D@2@@2@@Z 0000000180087629     hashing.obj
 0002:0002262f       $ip2state$?DetectHashAlgo@@YA?AV?$vector@HV?$allocator@H@std@@@std@@AEBV?$basic_string@DU?$char_traits@D@std@@V?$allocator@D@2@@2@@Z 000000018008762f     hashing.obj
 0002:00022634       $unwind$?seekpos@?$basic_stringbuf@_WU?$char_traits@_W@std@@V?$allocator@_W@2@@std@@MEAA?AV?$fpos@U_Mbstatet@@@2@V32@H@Z 0000000180087634     hashing.obj
 0002:00022644       $chain$0$?seekpos@?$basic_stringbuf@_WU?$char_traits@_W@std@@V?$allocator@_W@2@@std@@MEAA?AV?$fpos@U_Mbstatet@@@2@V32@H@Z 0000000180087644     hashing.obj
 0002:00022658       $chain$1$?seekpos@?$basic_stringbuf@_WU?$char_traits@_W@std@@V?$allocator@_W@2@@std@@MEAA?AV?$fpos@U_Mbstatet@@@2@V32@H@Z 0000000180087658     hashing.obj
 0002:00022668       $unwind$?seekoff@?$basic_stringbuf@DU?$char_traits@D@std@@V?$allocator@D@2@@std@@MEAA?AV?$fpos@U_Mbstatet@@@2@_JHH@Z 0000000180087668     hashing.obj
 0002:00022668       $unwind$?seekoff@?$basic_stringbuf@_WU?$char_traits@_W@std@@V?$allocator@_W@2@@std@@MEAA?AV?$fpos@U_Mbstatet@@@2@_JHH@Z 0000000180087668     hashing.obj
 0002:00022680       $unwind$??0?$basic_string@_WU?$char_traits@_W@std@@V?$allocator@_W@2@@std@@QEAA@U_String_constructor_concat_tag@1@AEAV01@1@Z 0000000180087680     IntChecker2-Far3.obj
 0002:00022680       $unwind$??$_Compare@PEBDPEBDV?$regex_traits@D@std@@@std@@YAPEBDPEBD000AEBV?$regex_traits@D@0@W4syntax_option_type@regex_constants@0@@Z 0000000180087680     hashing.obj
 0002:00022680       $unwind$?overflow@?$basic_stringbuf@_WU?$char_traits@_W@std@@V?$allocator@_W@2@@std@@MEAAGG@Z 0000000180087680     hashing.obj
 0002:00022680       $unwind$?try_get_function@@YAPEAXW4function_id@?A0x6b2bd6b2@@QEBDQEBW4module_id@2@2@Z 0000000180087680     libvcruntime:winapi_downlevel.obj
 0002:00022680       $unwind$?try_get_function@@YAPEAXW4function_id@?A0x391cf84c@@QEBDQEBW4module_id@2@2@Z 0000000180087680     libucrt:winapi_thunks.obj
 0002:00022680       $unwind$bt_generate_torrent 0000000180087680     rhash:torrent.obj
 0002:00022680       $unwind$rhash_tth_update   0000000180087680     rhash:tth.obj
 0002:0002269c       $unwind$?xsgetn@?$basic_streambuf@_WU?$char_traits@_W@std@@@std@@MEAA_JPEA_W_J@Z 000000018008769c     hashing.obj
 0002:0002269c       $unwind$?xsputn@?$basic_streambuf@_WU?$char_traits@_W@std@@@std@@MEAA_JPEB_W_J@Z 000000018008769c     hashing.obj
 0002:000226ac       $chain$2$?xsputn@?$basic_streambuf@_WU?$char_traits@_W@std@@@std@@MEAA_JPEB_W_J@Z 00000001800876ac     hashing.obj
 0002:000226c8       $chain$3$?xsputn@?$basic_streambuf@_WU?$char_traits@_W@std@@@std@@MEAA_JPEB_W_J@Z 00000001800876c8     hashing.obj
 0002:000226d8       $chain$2$?xsgetn@?$basic_streambuf@_WU?$char_traits@_W@std@@@std@@MEAA_JPEA_W_J@Z 00000001800876d8     hashing.obj
 0002:000226f4       $chain$3$?xsgetn@?$basic_streambuf@_WU?$char_traits@_W@std@@@std@@MEAA_JPEA_W_J@Z 00000001800876f4     hashing.obj
 0002:00022704       $unwind$??0?$basic_stringstream@_WU?$char_traits@_W@std@@V?$allocator@_W@2@@std@@QEAA@XZ 0000000180087704     hashing.obj
 0002:0002271c       $cppxdata$??0?$basic_stringstream@_WU?$char_traits@_W@std@@V?$allocator@_W@2@@std@@QEAA@XZ 000000018008771c     hashing.obj
 0002:00022725       $stateUnwindMap$??0?$basic_stringstream@_WU?$char_traits@_W@std@@V?$allocator@_W@2@@std@@QEAA@XZ 0000000180087725     hashing.obj
 0002:00022735       $ip2state$??0?$basic_stringstream@_WU?$char_traits@_W@std@@V?$allocator@_W@2@@std@@QEAA@XZ 0000000180087735     hashing.obj
 0002:0002273c       $unwind$??1?$basic_ios@DU?$char_traits@D@std@@@std@@UEAA@XZ 000000018008773c     hashing.obj
 0002:0002273c       $unwind$??1?$basic_ios@_WU?$char_traits@_W@std@@@std@@UEAA@XZ 000000018008773c     hashing.obj
 0002:0002274c       $cppxdata$??1?$basic_ios@DU?$char_traits@D@std@@@std@@UEAA@XZ 000000018008774c     hashing.obj
 0002:0002274c       $cppxdata$??1?$basic_ios@_WU?$char_traits@_W@std@@@std@@UEAA@XZ 000000018008774c     hashing.obj
 0002:00022755       $ip2state$??1?$basic_ios@DU?$char_traits@D@std@@@std@@UEAA@XZ 0000000180087755     hashing.obj
 0002:00022755       $ip2state$??1?$basic_ios@_WU?$char_traits@_W@std@@@std@@UEAA@XZ 0000000180087755     hashing.obj
 0002:00022758       $unwind$??0?$basic_regex@DV?$regex_traits@D@std@@@std@@QEAA@PEBDW4syntax_option_type@regex_constants@1@@Z 0000000180087758     hashing.obj
 0002:00022774       $cppxdata$??0?$basic_regex@DV?$regex_traits@D@std@@@std@@QEAA@PEBDW4syntax_option_type@regex_constants@1@@Z 0000000180087774     hashing.obj
 0002:0002277d       $stateUnwindMap$??0?$basic_regex@DV?$regex_traits@D@std@@@std@@QEAA@PEBDW4syntax_option_type@regex_constants@1@@Z 000000018008777d     hashing.obj
 0002:0002279a       $ip2state$??0?$basic_regex@DV?$regex_traits@D@std@@@std@@QEAA@PEBDW4syntax_option_type@regex_constants@1@@Z 000000018008779a     hashing.obj
 0002:000227ac       $unwind$?count@?$_Tree@V?$_Tmap_traits@V?$basic_string@_WU?$char_traits@_W@std@@V?$allocator@_W@2@@std@@V?$vector@UFileHashInfo@@V?$allocator@UFileHashInfo@@@std@@@2@U?$less@V?$basic_string@_WU?$char_traits@_W@std@@V?$allocator@_W@2@@std@@@2@V?$allocator@U?$pair@$$CBV?$basic_string@_WU?$char_traits@_W@std@@V?$allocator@_W@2@@std@@V?$vector@UFileHashInfo@@V?$allocator@UFileHashInfo@@@std@@@2@@std@@@2@$0A@@std@@@std@@QEBA_KAEBV?$basic_string@_WU?$char_traits@_W@std@@V?$allocator@_W@2@@2@@Z 00000001800877ac     hashing.obj
 0002:000227b8       $chain$2$?count@?$_Tree@V?$_Tmap_traits@V?$basic_string@_WU?$char_traits@_W@std@@V?$allocator@_W@2@@std@@V?$vector@UFileHashInfo@@V?$allocator@UFileHashInfo@@@std@@@2@U?$less@V?$basic_string@_WU?$char_traits@_W@std@@V?$allocator@_W@2@@std@@@2@V?$allocator@U?$pair@$$CBV?$basic_string@_WU?$char_traits@_W@std@@V?$allocator@_W@2@@std@@V?$vector@UFileHashInfo@@V?$allocator@UFileHashInfo@@@std@@@2@@std@@@2@$0A@@std@@@std@@QEBA_KAEBV?$basic_string@_WU?$char_traits@_W@std@@V?$allocator@_W@2@@2@@Z 00000001800877b8     hashing.obj
 0002:000227d4       $chain$3$?count@?$_Tree@V?$_Tmap_traits@V?$basic_string@_WU?$char_traits@_W@std@@V?$allocator@_W@2@@std@@V?$vector@UFileHashInfo@@V?$allocator@UFileHashInfo@@@std@@@2@U?$less@V?$basic_string@_WU?$char_traits@_W@std@@V?$allocator@_W@2@@std@@@2@V?$allocator@U?$pair@$$CBV?$basic_string@_WU?$char_traits@_W@std@@V?$allocator@_W@2@@std@@V?$vector@UFileHashInfo@@V?$allocator@UFileHashInfo@@@std@@@2@@std@@@2@$0A@@std@@@std@@QEBA_KAEBV?$basic_string@_WU?$char_traits@_W@std@@V?$allocator@_W@2@@2@@Z 00000001800877d4     hashing.obj
 0002:000227d4       $chain$5$?count@?$_Tree@V?$_Tmap_traits@V?$basic_string@_WU?$char_traits@_W@std@@V?$allocator@_W@2@@std@@V?$vector@UFileHashInfo@@V?$allocator@UFileHashInfo@@@std@@@2@U?$less@V?$basic_string@_WU?$char_traits@_W@std@@V?$allocator@_W@2@@std@@@2@V?$allocator@U?$pair@$$CBV?$basic_string@_WU?$char_traits@_W@std@@V?$allocator@_W@2@@std@@V?$vector@UFileHashInfo@@V?$allocator@UFileHashInfo@@@std@@@2@@std@@@2@$0A@@std@@@std@@QEBA_KAEBV?$basic_string@_WU?$char_traits@_W@std@@V?$allocator@_W@2@@2@@Z 00000001800877d4     hashing.obj
 0002:000227e4       $chain$4$?count@?$_Tree@V?$_Tmap_traits@V?$basic_string@_WU?$char_traits@_W@std@@V?$allocator@_W@2@@std@@V?$vector@UFileHashInfo@@V?$allocator@UFileHashInfo@@@std@@@2@U?$less@V?$basic_string@_WU?$char_traits@_W@std@@V?$allocator@_W@2@@std@@@2@V?$allocator@U?$pair@$$CBV?$basic_string@_WU?$char_traits@_W@std@@V?$allocator@_W@2@@std@@V?$vector@UFileHashInfo@@V?$allocator@UFileHashInfo@@@std@@@2@@std@@@2@$0A@@std@@@std@@QEBA_KAEBV?$basic_string@_WU?$char_traits@_W@std@@V?$allocator@_W@2@@2@@Z 00000001800877e4     hashing.obj
 0002:00022800       $unwind$??1?$_Tree@V?$_Tmap_traits@V?$basic_string@_WU?$char_traits@_W@std@@V?$allocator@_W@2@@std@@V?$vector@UFileHashInfo@@V?$allocator@UFileHashInfo@@@std@@@2@U?$less@V?$basic_string@_WU?$char_traits@_W@std@@V?$allocator@_W@2@@std@@@2@V?$allocator@U?$pair@$$CBV?$basic_string@_WU?$char_traits@_W@std@@V?$allocator@_W@2@@std@@V?$vector@UFileHashInfo@@V?$allocator@UFileHashInfo@@@std@@@2@@std@@@2@$0A@@std@@@std@@QEAA@XZ 0000000180087800     hashing.obj
 0002:00022800       $unwind$?_Tidy@?$basic_regex@DV?$regex_traits@D@std@@@std@@AEAAXXZ 0000000180087800     hashing.obj
 0002:0002280c       $chain$0$??1?$_Tree@V?$_Tmap_traits@V?$basic_string@_WU?$char_traits@_W@std@@V?$allocator@_W@2@@std@@V?$vector@UFileHashInfo@@V?$allocator@UFileHashInfo@@@std@@@2@U?$less@V?$basic_string@_WU?$char_traits@_W@std@@V?$allocator@_W@2@@std@@@2@V?$allocator@U?$pair@$$CBV?$basic_string@_WU?$char_traits@_W@std@@V?$allocator@_W@2@@std@@V?$vector@UFileHashInfo@@V?$allocator@UFileHashInfo@@@std@@@2@@std@@@2@$0A@@std@@@std@@QEAA@XZ 000000018008780c     hashing.obj
 0002:00022820       $chain$1$??1?$_Tree@V?$_Tmap_traits@V?$basic_string@_WU?$char_traits@_W@std@@V?$allocator@_W@2@@std@@V?$vector@UFileHashInfo@@V?$allocator@UFileHashInfo@@@std@@@2@U?$less@V?$basic_string@_WU?$char_traits@_W@std@@V?$allocator@_W@2@@std@@@2@V?$allocator@U?$pair@$$CBV?$basic_string@_WU?$char_traits@_W@std@@V?$allocator@_W@2@@std@@V?$vector@UFileHashInfo@@V?$allocator@UFileHashInfo@@@std@@@2@@std@@@2@$0A@@std@@@std@@QEAA@XZ 0000000180087820     hashing.obj
 0002:00022830       $unwind$?seekpos@?$basic_stringbuf@DU?$char_traits@D@std@@V?$allocator@D@2@@std@@MEAA?AV?$fpos@U_Mbstatet@@@2@V32@H@Z 0000000180087830     hashing.obj
 0002:00022840       $chain$0$?seekpos@?$basic_stringbuf@DU?$char_traits@D@std@@V?$allocator@D@2@@std@@MEAA?AV?$fpos@U_Mbstatet@@@2@V32@H@Z 0000000180087840     hashing.obj
 0002:00022854       $chain$1$?seekpos@?$basic_stringbuf@DU?$char_traits@D@std@@V?$allocator@D@2@@std@@MEAA?AV?$fpos@U_Mbstatet@@@2@V32@H@Z 0000000180087854     hashing.obj
 0002:00022864       $unwind$?xsgetn@?$basic_streambuf@DU?$char_traits@D@std@@@std@@MEAA_JPEAD_J@Z 0000000180087864     hashing.obj
 0002:00022864       $unwind$?xsputn@?$basic_streambuf@DU?$char_traits@D@std@@@std@@MEAA_JPEBD_J@Z 0000000180087864     hashing.obj
 0002:00022878       $chain$0$?xsputn@?$basic_streambuf@DU?$char_traits@D@std@@@std@@MEAA_JPEBD_J@Z 0000000180087878     hashing.obj
 0002:0002288c       $chain$1$?xsputn@?$basic_streambuf@DU?$char_traits@D@std@@@std@@MEAA_JPEBD_J@Z 000000018008788c     hashing.obj
 0002:0002289c       $chain$0$?xsgetn@?$basic_streambuf@DU?$char_traits@D@std@@@std@@MEAA_JPEAD_J@Z 000000018008789c     hashing.obj
 0002:000228b0       $chain$1$?xsgetn@?$basic_streambuf@DU?$char_traits@D@std@@@std@@MEAA_JPEAD_J@Z 00000001800878b0     hashing.obj
 0002:000228c0       $unwind$??_Gfilesystem_error@filesystem@std@@UEAAPEAXI@Z 00000001800878c0     IntChecker2-Far3.obj
 0002:000228c0       $unwind$?AddCheckbox@?$DialogBuilderBase@UFarDialogItem@@@@QEAAPEAUFarDialogItem@@PEB_WPEAHH_N@Z 00000001800878c0     IntChecker2-Far3.obj
 0002:000228c0       $unwind$?AddTextBefore@?$DialogBuilderBase@UFarDialogItem@@@@QEAAPEAUFarDialogItem@@PEAU2@PEB_W@Z 00000001800878c0     IntChecker2-Far3.obj
 0002:000228c0       $unwind$?CreateCheckBoxBinding@PluginDialogBuilder@@MEAAPEAU?$DialogItemBinding@UFarDialogItem@@@@PEAHH@Z 00000001800878c0     IntChecker2-Far3.obj
 0002:000228c0       $unwind$??$_Move_unchecked@PEAUFileHashInfo@@PEAU1@@std@@YAPEAUFileHashInfo@@PEAU1@00@Z 00000001800878c0     hashing.obj
 0002:000228c0       $unwind$??_G?$basic_streambuf@DU?$char_traits@D@std@@@std@@UEAAPEAXI@Z 00000001800878c0     hashing.obj
 0002:000228c0       $unwind$??_G?$basic_streambuf@_WU?$char_traits@_W@std@@@std@@UEAAPEAXI@Z 00000001800878c0     hashing.obj
 0002:000228c0       $unwind$_DllMainCRTStartup 00000001800878c0     LIBCMT:dll_dllmain.obj
 0002:000228c0       $unwind$??4?$_Yarn@D@std@@QEAAAEAV01@PEBD@Z 00000001800878c0     libcpmt:locale0.obj
 0002:000228c0       $unwind$__vcrt_getptd_noexit 00000001800878c0     libvcruntime:per_thread_data.obj
 0002:000228c0       $unwind$?CatchTryBlock@__FrameHandler3@@SAPEBU_s_TryBlockMapEntry@@PEBU_s_FuncInfo@@H@Z 00000001800878c0     libvcruntime:risctrnsctrl.obj
 0002:000228c0       $unwind$?FrameUnwindToEmptyState@__FrameHandler3@@SAXPEA_KPEAU_xDISPATCHER_CONTEXT@@PEBU_s_FuncInfo@@@Z 00000001800878c0     libvcruntime:risctrnsctrl.obj
 0002:000228c0       $unwind$__vcrt_InitializeCriticalSectionEx 00000001800878c0     libvcruntime:winapi_downlevel.obj
 0002:000228c0       $unwind$memcpy_s           00000001800878c0     libucrt:cfout.obj
 0002:000228c0       $unwind$memcpy_s           00000001800878c0     libucrt:strtod.obj
 0002:000228c0       $unwind$__acrt_getptd      00000001800878c0     libucrt:per_thread_data.obj
 0002:000228c0       $unwind$__acrt_getptd_noexit 00000001800878c0     libucrt:per_thread_data.obj
 0002:000228c0       $unwind$__acrt_getptd_noexit_explicit 00000001800878c0     libucrt:per_thread_data.obj
 0002:000228c0       $unwind$__acrt_execute_initializers 00000001800878c0     libucrt:shared_initialization.obj
 0002:000228c0       $unwind$__acrt_InitializeCriticalSectionEx 00000001800878c0     libucrt:winapi_thunks.obj
 0002:000228c0       $unwind$__acrt_locale_initialize_time 00000001800878c0     libucrt:inittime.obj
 0002:000228c0       $unwind$_close_nolock_internal 00000001800878c0     libucrt:close.obj
 0002:000228c0       $unwind$?value@?$dual_state_global@P6AXPEB_W00I_K@Z@__crt_state_management@@QEAAAEAP6AXPEB_W00I_K@ZAEAV__crt_cached_ptd_host@@@Z 00000001800878c0     libucrt:invalid_parameter.obj
 0002:000228c0       $unwind$?type_case_Z@?$output_processor@_WV?$string_output_adapter@_W@__crt_stdio_output@@V?$format_validation_base@_WV?$string_output_adapter@_W@__crt_stdio_output@@@2@@__crt_stdio_output@@AEAA_NXZ 00000001800878c0     libucrt:output.obj
 0002:000228c0       $unwind$?type_case_s@?$output_processor@_WV?$string_output_adapter@_W@__crt_stdio_output@@V?$format_validation_base@_WV?$string_output_adapter@_W@__crt_stdio_output@@@2@@__crt_stdio_output@@AEAA_NXZ 00000001800878c0     libucrt:output.obj
 0002:000228c0       $unwind$?type_case_s_compute_narrow_string_length@?$output_processor@_WV?$string_output_adapter@_W@__crt_stdio_output@@V?$format_validation_base@_WV?$string_output_adapter@_W@__crt_stdio_output@@@2@@__crt_stdio_output@@AEAAHH_W@Z 00000001800878c0     libucrt:output.obj
 0002:000228c0       $unwind$?update_locale_slow@__crt_cached_ptd_host@@AEAAXXZ 00000001800878c0     libucrt:output.obj
 0002:000228c0       $unwind$strncpy_s          00000001800878c0     libucrt:strncpy_s.obj
 0002:000228c0       $unwind$??0_LocaleUpdate@@QEAA@QEAU__crt_locale_pointers@@@Z 00000001800878c0     libucrt:wcsicmp.obj
 0002:000228c0       $unwind$wcsncpy_s          00000001800878c0     libucrt:wcsncpy_s.obj
 0002:000228c0       $unwind$_exception_enabled 00000001800878c0     libucrt:libm_error.obj
 0002:000228c0       $unwind$rhash_edonr256_final 00000001800878c0     rhash:edonr.obj
 0002:000228c0       $unwind$rhash_edonr512_final 00000001800878c0     rhash:edonr.obj
 0002:000228c0       $unwind$rhash_gost94_final 00000001800878c0     rhash:gost94.obj
 0002:000228c0       $unwind$rhash_has160_final 00000001800878c0     rhash:has160.obj
 0002:000228c0       $unwind$rhash_md5_final    00000001800878c0     rhash:md5.obj
 0002:000228c0       $unwind$rhash_put_digest   00000001800878c0     rhash:rhash.obj
 0002:000228c0       $unwind$rhash_ripemd160_final 00000001800878c0     rhash:ripemd-160.obj
 0002:000228c0       $unwind$rhash_sha1_final   00000001800878c0     rhash:sha1.obj
 0002:000228c0       $unwind$rhash_sha256_final 00000001800878c0     rhash:sha256.obj
 0002:000228c0       $unwind$rhash_sha512_final 00000001800878c0     rhash:sha512.obj
 0002:000228c0       $unwind$rhash_tiger_final  00000001800878c0     rhash:tiger.obj
 0002:000228c0       $unwind$bt_store_piece_sha1 00000001800878c0     rhash:torrent.obj
 0002:000228c0       $unwind$rhash_whirlpool_final 00000001800878c0     rhash:whirlpool.obj
 0002:000228d0       $unwind$??_G?$basic_iostream@DU?$char_traits@D@std@@@std@@UEAAPEAXI@Z 00000001800878d0     hashing.obj
 0002:000228d0       $unwind$??_G?$basic_iostream@_WU?$char_traits@_W@std@@@std@@UEAAPEAXI@Z 00000001800878d0     hashing.obj
 0002:000228e4       $cppxdata$??_G?$basic_iostream@DU?$char_traits@D@std@@@std@@UEAAPEAXI@Z 00000001800878e4     hashing.obj
 0002:000228e4       $cppxdata$??_G?$basic_iostream@_WU?$char_traits@_W@std@@@std@@UEAAPEAXI@Z 00000001800878e4     hashing.obj
 0002:000228ed       $ip2state$??_G?$basic_iostream@DU?$char_traits@D@std@@@std@@UEAAPEAXI@Z 00000001800878ed     hashing.obj
 0002:000228ed       $ip2state$??_G?$basic_iostream@_WU?$char_traits@_W@std@@@std@@UEAAPEAXI@Z 00000001800878ed     hashing.obj
 0002:000228f4       $unwind$??_G?$basic_istream@DU?$char_traits@D@std@@@std@@UEAAPEAXI@Z 00000001800878f4     hashing.obj
 0002:000228f4       $unwind$??_G?$basic_istream@_WU?$char_traits@_W@std@@@std@@UEAAPEAXI@Z 00000001800878f4     hashing.obj
 0002:000228f4       $unwind$??_G?$basic_ostream@DU?$char_traits@D@std@@@std@@UEAAPEAXI@Z 00000001800878f4     hashing.obj
 0002:000228f4       $unwind$??_G?$basic_ostream@_WU?$char_traits@_W@std@@@std@@UEAAPEAXI@Z 00000001800878f4     hashing.obj
 0002:00022908       $cppxdata$??_G?$basic_istream@DU?$char_traits@D@std@@@std@@UEAAPEAXI@Z 0000000180087908     hashing.obj
 0002:00022908       $cppxdata$??_G?$basic_istream@_WU?$char_traits@_W@std@@@std@@UEAAPEAXI@Z 0000000180087908     hashing.obj
 0002:00022908       $cppxdata$??_G?$basic_ostream@DU?$char_traits@D@std@@@std@@UEAAPEAXI@Z 0000000180087908     hashing.obj
 0002:00022908       $cppxdata$??_G?$basic_ostream@_WU?$char_traits@_W@std@@@std@@UEAAPEAXI@Z 0000000180087908     hashing.obj
 0002:00022911       $ip2state$??_G?$basic_istream@DU?$char_traits@D@std@@@std@@UEAAPEAXI@Z 0000000180087911     hashing.obj
 0002:00022911       $ip2state$??_G?$basic_istream@_WU?$char_traits@_W@std@@@std@@UEAAPEAXI@Z 0000000180087911     hashing.obj
 0002:00022911       $ip2state$??_G?$basic_ostream@DU?$char_traits@D@std@@@std@@UEAAPEAXI@Z 0000000180087911     hashing.obj
 0002:00022911       $ip2state$??_G?$basic_ostream@_WU?$char_traits@_W@std@@@std@@UEAAPEAXI@Z 0000000180087911     hashing.obj
 0002:00022914       $unwind$??_G?$basic_ios@DU?$char_traits@D@std@@@std@@UEAAPEAXI@Z 0000000180087914     hashing.obj
 0002:00022914       $unwind$??_G?$basic_ios@_WU?$char_traits@_W@std@@@std@@UEAAPEAXI@Z 0000000180087914     hashing.obj
 0002:00022914       $unwind$??_Gios_base@std@@UEAAPEAXI@Z 0000000180087914     hashing.obj
 0002:00022928       $cppxdata$??_G?$basic_ios@DU?$char_traits@D@std@@@std@@UEAAPEAXI@Z 0000000180087928     hashing.obj
 0002:00022928       $cppxdata$??_G?$basic_ios@_WU?$char_traits@_W@std@@@std@@UEAAPEAXI@Z 0000000180087928     hashing.obj
 0002:00022928       $cppxdata$??_Gios_base@std@@UEAAPEAXI@Z 0000000180087928     hashing.obj
 0002:00022931       $ip2state$??_G?$basic_ios@DU?$char_traits@D@std@@@std@@UEAAPEAXI@Z 0000000180087931     hashing.obj
 0002:00022931       $ip2state$??_G?$basic_ios@_WU?$char_traits@_W@std@@@std@@UEAAPEAXI@Z 0000000180087931     hashing.obj
 0002:00022931       $ip2state$??_Gios_base@std@@UEAAPEAXI@Z 0000000180087931     hashing.obj
 0002:00022934       $unwind$??0?$basic_iostream@_WU?$char_traits@_W@std@@@std@@QEAA@PEAV?$basic_streambuf@_WU?$char_traits@_W@std@@@1@@Z 0000000180087934     hashing.obj
 0002:00022950       $cppxdata$??0?$basic_iostream@_WU?$char_traits@_W@std@@@std@@QEAA@PEAV?$basic_streambuf@_WU?$char_traits@_W@std@@@1@@Z 0000000180087950     hashing.obj
 0002:00022959       $stateUnwindMap$??0?$basic_iostream@_WU?$char_traits@_W@std@@@std@@QEAA@PEAV?$basic_streambuf@_WU?$char_traits@_W@std@@@1@@Z 0000000180087959     hashing.obj
 0002:0002296d       $ip2state$??0?$basic_iostream@DU?$char_traits@D@std@@@std@@QEAA@PEAV?$basic_streambuf@DU?$char_traits@D@std@@@1@@Z 000000018008796d     hashing.obj
 0002:0002296d       $ip2state$??0?$basic_iostream@_WU?$char_traits@_W@std@@@std@@QEAA@PEAV?$basic_streambuf@_WU?$char_traits@_W@std@@@1@@Z 000000018008796d     hashing.obj
 0002:0002297c       $chain$0$?_Tidy@?$basic_regex@DV?$regex_traits@D@std@@@std@@AEAAXXZ 000000018008797c     hashing.obj
 0002:00022990       $chain$1$?_Tidy@?$basic_regex@DV?$regex_traits@D@std@@@std@@AEAAXXZ 0000000180087990     hashing.obj
 0002:000229a0       $unwind$??0?$basic_iostream@DU?$char_traits@D@std@@@std@@QEAA@PEAV?$basic_streambuf@DU?$char_traits@D@std@@@1@@Z 00000001800879a0     hashing.obj
 0002:000229bc       $cppxdata$??0?$basic_iostream@DU?$char_traits@D@std@@@std@@QEAA@PEAV?$basic_streambuf@DU?$char_traits@D@std@@@1@@Z 00000001800879bc     hashing.obj
 0002:000229c5       $stateUnwindMap$??0?$basic_iostream@DU?$char_traits@D@std@@@std@@QEAA@PEAV?$basic_streambuf@DU?$char_traits@D@std@@@1@@Z 00000001800879c5     hashing.obj
 0002:000229dc       $unwind$??1?$DialogBuilderBase@UFarDialogItem@@@@MEAA@XZ 00000001800879dc     IntChecker2-Far3.obj
 0002:000229dc       $unwind$??1?$vector@UPanelFileInfo@@V?$allocator@UPanelFileInfo@@@std@@@std@@QEAA@XZ 00000001800879dc     IntChecker2-Far3.obj
 0002:000229dc       $unwind$??1?$vector@U_Find_file_handle@filesystem@std@@V?$allocator@U_Find_file_handle@filesystem@std@@@3@@std@@QEAA@XZ 00000001800879dc     IntChecker2-Far3.obj
 0002:000229dc       $unwind$?_Begin_capture_group@?$_Builder@PEBDDV?$regex_traits@D@std@@@std@@QEAAPEAV_Node_base@2@I@Z 00000001800879dc     hashing.obj
 0002:000229dc       $unwind$?_New_node@?$_Builder@PEBDDV?$regex_traits@D@std@@@std@@AEAAPEAV_Node_base@2@W4_Node_type@2@@Z 00000001800879dc     hashing.obj
 0002:000229dc       $unwind$?_Tidy@?$vector@UFileHashInfo@@V?$allocator@UFileHashInfo@@@std@@@std@@AEAAXXZ 00000001800879dc     hashing.obj
 0002:000229dc       $unwind$?do_tolower@?$ctype@D@std@@MEBAPEBDPEADPEBD@Z 00000001800879dc     hashing.obj
 0002:000229dc       $unwind$?do_tolower@?$ctype@_W@std@@MEBAPEB_WPEA_WPEB_W@Z 00000001800879dc     hashing.obj
 0002:000229dc       $unwind$?do_toupper@?$ctype@D@std@@MEBAPEBDPEADPEBD@Z 00000001800879dc     hashing.obj
 0002:000229dc       $unwind$?do_toupper@?$ctype@_W@std@@MEBAPEB_WPEA_WPEB_W@Z 00000001800879dc     hashing.obj
 0002:000229dc       $unwind$?_Locimp_dtor@_Locimp@locale@std@@CAXPEAV123@@Z 00000001800879dc     libcpmt:locale0.obj
 0002:000229dc       $unwind$iswctype           00000001800879dc     libucrt:iswctype.obj
 0002:000229dc       $unwind$?get_raw_ptd@__crt_cached_ptd_host@@QEAAPEAU__acrt_ptd@@XZ 00000001800879dc     libucrt:invalid_parameter.obj
 0002:000229e8       $chain$0$?_Tidy@?$vector@UFileHashInfo@@V?$allocator@UFileHashInfo@@@std@@@std@@AEAAXXZ 00000001800879e8     hashing.obj
 0002:000229fc       $chain$1$?_Tidy@?$vector@UFileHashInfo@@V?$allocator@UFileHashInfo@@@std@@@std@@AEAAXXZ 00000001800879fc     hashing.obj
 0002:00022a0c       $unwind$?_Destroy@?$vector@UPanelFileInfo@@V?$allocator@UPanelFileInfo@@@std@@@std@@AEAAXPEAUPanelFileInfo@@0@Z 0000000180087a0c     IntChecker2-Far3.obj
 0002:00022a0c       $unwind$?_Destroy@?$vector@UFileHashInfo@@V?$allocator@UFileHashInfo@@@std@@@std@@AEAAXPEAUFileHashInfo@@0@Z 0000000180087a0c     hashing.obj
 0002:00022a0c       $unwind$??$free_environment@D@@YAXQEAPEAD@Z 0000000180087a0c     libucrt:environment_initialization.obj
 0002:00022a0c       $unwind$??$free_environment@_W@@YAXQEAPEA_W@Z 0000000180087a0c     libucrt:environment_initialization.obj
 0002:00022a0c       $unwind$_initterm          0000000180087a0c     libucrt:initterm.obj
 0002:00022a18       $unwind$??$?6U?$char_traits@D@std@@@std@@YAAEAV?$basic_ostream@DU?$char_traits@D@std@@@0@AEAV10@PEBD@Z 0000000180087a18     hashing.obj
 0002:00022a38       $cppxdata$??$?6U?$char_traits@D@std@@@std@@YAAEAV?$basic_ostream@DU?$char_traits@D@std@@@0@AEAV10@PEBD@Z 0000000180087a38     hashing.obj
 0002:00022a45       $stateUnwindMap$??$?6U?$char_traits@D@std@@@std@@YAAEAV?$basic_ostream@DU?$char_traits@D@std@@@0@AEAV10@PEBD@Z 0000000180087a45     hashing.obj
 0002:00022a45       $stateUnwindMap$??$_Insert_string@DU?$char_traits@D@std@@_K@std@@YAAEAV?$basic_ostream@DU?$char_traits@D@std@@@0@AEAV10@QEBD_K@Z 0000000180087a45     hashing.obj
 0002:00022a45       $stateUnwindMap$?put@?$basic_ostream@DU?$char_traits@D@std@@@std@@QEAAAEAV12@D@Z 0000000180087a45     hashing.obj
 0002:00022a5e       $tryMap$??$?6U?$char_traits@D@std@@@std@@YAAEAV?$basic_ostream@DU?$char_traits@D@std@@@0@AEAV10@PEBD@Z 0000000180087a5e     hashing.obj
 0002:00022a66       $handlerMap$??$?6U?$char_traits@D@std@@@std@@YAAEAV?$basic_ostream@DU?$char_traits@D@std@@@0@AEAV10@PEBD@Z 0000000180087a66     hashing.obj
 0002:00022a6f       $ip2state$??$?6U?$char_traits@D@std@@@std@@YAAEAV?$basic_ostream@DU?$char_traits@D@std@@@0@AEAV10@PEBD@Z 0000000180087a6f     hashing.obj
 0002:00022a80       $unwind$?catch$0@?0???$_Emplace_reallocate@AEBV?$basic_string@_WU?$char_traits@_W@std@@V?$allocator@_W@2@@std@@@?$vector@V?$basic_string@_WU?$char_traits@_W@std@@V?$allocator@_W@2@@std@@V?$allocator@V?$basic_string@_WU?$char_traits@_W@std@@V?$allocator@_W@2@@std@@@2@@std@@QEAAPEAV?$basic_string@_WU?$char_traits@_W@std@@V?$allocator@_W@2@@1@QEAV21@AEBV21@@Z@4HA 0000000180087a80     IntChecker2-Far3.obj
 0002:00022a80       $unwind$?catch$2@?0???$_Emplace_reallocate@AEBUPanelFileInfo@@@?$vector@UPanelFileInfo@@V?$allocator@UPanelFileInfo@@@std@@@std@@QEAAPEAUPanelFileInfo@@QEAU2@AEBU2@@Z@4HA 0000000180087a80     IntChecker2-Far3.obj
 0002:00022a80       $unwind$?catch$2@?0???$_Emplace_reallocate@AEBV?$function@$$A6AX_J@Z@std@@@?$vector@V?$function@$$A6AX_J@Z@std@@V?$allocator@V?$function@$$A6AX_J@Z@std@@@2@@std@@QEAAPEAV?$function@$$A6AX_J@Z@1@QEAV21@AEBV21@@Z@4HA 0000000180087a80     IntChecker2-Far3.obj
 0002:00022a80       $unwind$?catch$4@?0???$?6_WU?$char_traits@_W@std@@@std@@YAAEAV?$basic_ostream@_WU?$char_traits@_W@std@@@0@AEAV10@D@Z@4HA 0000000180087a80     Utils.obj
 0002:00022a80       $unwind$?catch$0@?0??_Osfx@?$basic_ostream@DU?$char_traits@D@std@@@std@@QEAAXXZ@4HA 0000000180087a80     hashing.obj
 0002:00022a80       $unwind$?catch$0@?0??_Osfx@?$basic_ostream@_WU?$char_traits@_W@std@@@std@@QEAAXXZ@4HA 0000000180087a80     hashing.obj
 0002:00022a80       $unwind$?catch$2@?0???$_Emplace_reallocate@AEBUFileHashInfo@@@?$vector@UFileHashInfo@@V?$allocator@UFileHashInfo@@@std@@@std@@QEAAPEAUFileHashInfo@@QEAU2@AEBU2@@Z@4HA 0000000180087a80     hashing.obj
 0002:00022a80       $unwind$?catch$3@?0???$?6_WU?$char_traits@_W@std@@@std@@YAAEAV?$basic_ostream@_WU?$char_traits@_W@std@@@0@AEAV10@PEB_W@Z@4HA 0000000180087a80     hashing.obj
 0002:00022a80       $unwind$?catch$3@?0???$_Insert_string@_WU?$char_traits@_W@std@@_K@std@@YAAEAV?$basic_ostream@_WU?$char_traits@_W@std@@@0@AEAV10@QEB_W_K@Z@4HA 0000000180087a80     hashing.obj
 0002:00022a80       $unwind$?catch$4@?0???$?6U?$char_traits@D@std@@@std@@YAAEAV?$basic_ostream@DU?$char_traits@D@std@@@0@AEAV10@PEBD@Z@4HA 0000000180087a80     hashing.obj
 0002:00022a80       $unwind$?catch$4@?0???$_Insert_string@DU?$char_traits@D@std@@_K@std@@YAAEAV?$basic_ostream@DU?$char_traits@D@std@@@0@AEAV10@QEBD_K@Z@4HA 0000000180087a80     hashing.obj
 0002:00022a80       $unwind$?catch$4@?0??put@?$basic_ostream@DU?$char_traits@D@std@@@std@@QEAAAEAV12@D@Z@4HA 0000000180087a80     hashing.obj
 0002:00022a80       $unwind$?catch$9@?0???$_Insert_range@PEAUFileHashInfo@@@?$vector@UFileHashInfo@@V?$allocator@UFileHashInfo@@@std@@@std@@AEAAXV?$_Vector_const_iterator@V?$_Vector_val@U?$_Simple_types@UFileHashInfo@@@std@@@std@@@1@PEAUFileHashInfo@@1Uforward_iterator_tag@1@@Z@4HA 0000000180087a80     hashing.obj
 0002:00022a88       $unwind$??$endl@DU?$char_traits@D@std@@@std@@YAAEAV?$basic_ostream@DU?$char_traits@D@std@@@0@AEAV10@@Z 0000000180087a88     hashing.obj
 0002:00022aa0       $cppxdata$??$endl@DU?$char_traits@D@std@@@std@@YAAEAV?$basic_ostream@DU?$char_traits@D@std@@@0@AEAV10@@Z 0000000180087aa0     hashing.obj
 0002:00022aa9       $stateUnwindMap$??$endl@DU?$char_traits@D@std@@@std@@YAAEAV?$basic_ostream@DU?$char_traits@D@std@@@0@AEAV10@@Z 0000000180087aa9     hashing.obj
 0002:00022ab0       $ip2state$??$endl@DU?$char_traits@D@std@@@std@@YAAEAV?$basic_ostream@DU?$char_traits@D@std@@@0@AEAV10@@Z 0000000180087ab0     hashing.obj
 0002:00022ab8       $unwind$??$?6_WU?$char_traits@_W@std@@@std@@YAAEAV?$basic_ostream@_WU?$char_traits@_W@std@@@0@AEAV10@PEB_W@Z 0000000180087ab8     hashing.obj
 0002:00022ad8       $cppxdata$??$?6_WU?$char_traits@_W@std@@@std@@YAAEAV?$basic_ostream@_WU?$char_traits@_W@std@@@0@AEAV10@PEB_W@Z 0000000180087ad8     hashing.obj
 0002:00022ae5       $stateUnwindMap$??$?6_WU?$char_traits@_W@std@@@std@@YAAEAV?$basic_ostream@_WU?$char_traits@_W@std@@@0@AEAV10@PEB_W@Z 0000000180087ae5     hashing.obj
 0002:00022ae5       $stateUnwindMap$??$_Insert_string@_WU?$char_traits@_W@std@@_K@std@@YAAEAV?$basic_ostream@_WU?$char_traits@_W@std@@@0@AEAV10@QEB_W_K@Z 0000000180087ae5     hashing.obj
 0002:00022af8       $tryMap$??$?6_WU?$char_traits@_W@std@@@std@@YAAEAV?$basic_ostream@_WU?$char_traits@_W@std@@@0@AEAV10@PEB_W@Z 0000000180087af8     hashing.obj
 0002:00022b00       $handlerMap$??$?6_WU?$char_traits@_W@std@@@std@@YAAEAV?$basic_ostream@_WU?$char_traits@_W@std@@@0@AEAV10@PEB_W@Z 0000000180087b00     hashing.obj
 0002:00022b09       $ip2state$??$?6_WU?$char_traits@_W@std@@@std@@YAAEAV?$basic_ostream@_WU?$char_traits@_W@std@@@0@AEAV10@PEB_W@Z 0000000180087b09     hashing.obj
 0002:00022b18       $unwind$??$_Emplace_reallocate@V?$basic_string@DU?$char_traits@D@std@@V?$allocator@D@2@@std@@@?$vector@V?$basic_string@DU?$char_traits@D@std@@V?$allocator@D@2@@std@@V?$allocator@V?$basic_string@DU?$char_traits@D@std@@V?$allocator@D@2@@std@@@2@@std@@QEAAPEAV?$basic_string@DU?$char_traits@D@std@@V?$allocator@D@2@@1@QEAV21@$$QEAV21@@Z 0000000180087b18     hashing.obj
 0002:00022b28       $chain$3$??$_Emplace_reallocate@V?$basic_string@DU?$char_traits@D@std@@V?$allocator@D@2@@std@@@?$vector@V?$basic_string@DU?$char_traits@D@std@@V?$allocator@D@2@@std@@V?$allocator@V?$basic_string@DU?$char_traits@D@std@@V?$allocator@D@2@@std@@@2@@std@@QEAAPEAV?$basic_string@DU?$char_traits@D@std@@V?$allocator@D@2@@1@QEAV21@$$QEAV21@@Z 0000000180087b28     hashing.obj
 0002:00022b48       $chain$5$??$_Emplace_reallocate@V?$basic_string@DU?$char_traits@D@std@@V?$allocator@D@2@@std@@@?$vector@V?$basic_string@DU?$char_traits@D@std@@V?$allocator@D@2@@std@@V?$allocator@V?$basic_string@DU?$char_traits@D@std@@V?$allocator@D@2@@std@@@2@@std@@QEAAPEAV?$basic_string@DU?$char_traits@D@std@@V?$allocator@D@2@@1@QEAV21@$$QEAV21@@Z 0000000180087b48     hashing.obj
 0002:00022b68       $chain$6$??$_Emplace_reallocate@V?$basic_string@DU?$char_traits@D@std@@V?$allocator@D@2@@std@@@?$vector@V?$basic_string@DU?$char_traits@D@std@@V?$allocator@D@2@@std@@V?$allocator@V?$basic_string@DU?$char_traits@D@std@@V?$allocator@D@2@@std@@@2@@std@@QEAAPEAV?$basic_string@DU?$char_traits@D@std@@V?$allocator@D@2@@1@QEAV21@$$QEAV21@@Z 0000000180087b68     hashing.obj
 0002:00022b78       $unwind$??$_Emplace_reallocate@AEB_K@?$vector@_KV?$allocator@_K@std@@@std@@QEAAPEA_KQEA_KAEB_K@Z 0000000180087b78     IntChecker2-Far3.obj
 0002:00022b78       $unwind$??$_Emplace_reallocate@PEB_W@?$vector@PEB_WV?$allocator@PEB_W@std@@@std@@QEAAPEAPEB_WQEAPEB_W$$QEAPEB_W@Z 0000000180087b78     IntChecker2-Far3.obj
 0002:00022b78       $unwind$??$_Emplace_reallocate@AEBH@?$vector@HV?$allocator@H@std@@@std@@QEAAPEAHQEAHAEBH@Z 0000000180087b78     hashing.obj
 0002:00022b78       $unwind$??$_Emplace_reallocate@AEBW4rhash_ids@@@?$vector@W4rhash_ids@@V?$allocator@W4rhash_ids@@@std@@@std@@QEAAPEAW4rhash_ids@@QEAW42@AEBW42@@Z 0000000180087b78     hashing.obj
 0002:00022b88       $chain$3$??$_Emplace_reallocate@AEBH@?$vector@HV?$allocator@H@std@@@std@@QEAAPEAHQEAHAEBH@Z 0000000180087b88     hashing.obj
 0002:00022b88       $chain$3$??$_Emplace_reallocate@AEBW4rhash_ids@@@?$vector@W4rhash_ids@@V?$allocator@W4rhash_ids@@@std@@@std@@QEAAPEAW4rhash_ids@@QEAW42@AEBW42@@Z 0000000180087b88     hashing.obj
 0002:00022ba8       $chain$5$??$_Emplace_reallocate@AEBH@?$vector@HV?$allocator@H@std@@@std@@QEAAPEAHQEAHAEBH@Z 0000000180087ba8     hashing.obj
 0002:00022ba8       $chain$5$??$_Emplace_reallocate@AEBW4rhash_ids@@@?$vector@W4rhash_ids@@V?$allocator@W4rhash_ids@@@std@@@std@@QEAAPEAW4rhash_ids@@QEAW42@AEBW42@@Z 0000000180087ba8     hashing.obj
 0002:00022bc8       $chain$6$??$_Emplace_reallocate@AEBH@?$vector@HV?$allocator@H@std@@@std@@QEAAPEAHQEAHAEBH@Z 0000000180087bc8     hashing.obj
 0002:00022bc8       $chain$6$??$_Emplace_reallocate@AEBW4rhash_ids@@@?$vector@W4rhash_ids@@V?$allocator@W4rhash_ids@@@std@@@std@@QEAAPEAW4rhash_ids@@QEAW42@AEBW42@@Z 0000000180087bc8     hashing.obj
 0002:00022bd8       $unwind$??$_Reset@PEBD@?$basic_regex@DV?$regex_traits@D@std@@@std@@AEAAXPEBD0W4syntax_option_type@regex_constants@1@Uforward_iterator_tag@1@@Z 0000000180087bd8     hashing.obj
 0002:00022bf8       $cppxdata$??$_Reset@PEBD@?$basic_regex@DV?$regex_traits@D@std@@@std@@AEAAXPEBD0W4syntax_option_type@regex_constants@1@Uforward_iterator_tag@1@@Z 0000000180087bf8     hashing.obj
 0002:00022c01       $stateUnwindMap$??$_Reset@PEBD@?$basic_regex@DV?$regex_traits@D@std@@@std@@AEAAXPEBD0W4syntax_option_type@regex_constants@1@Uforward_iterator_tag@1@@Z 0000000180087c01     hashing.obj
 0002:00022c1b       $ip2state$??$_Reset@PEBD@?$basic_regex@DV?$regex_traits@D@std@@@std@@AEAAXPEBD0W4syntax_option_type@regex_constants@1@Uforward_iterator_tag@1@@Z 0000000180087c1b     hashing.obj
 0002:00022c28       $unwind$??$_Try_emplace@AEBV?$basic_string@_WU?$char_traits@_W@std@@V?$allocator@_W@2@@std@@$$V@?$map@V?$basic_string@_WU?$char_traits@_W@std@@V?$allocator@_W@2@@std@@V?$vector@UFileHashInfo@@V?$allocator@UFileHashInfo@@@std@@@2@U?$less@V?$basic_string@_WU?$char_traits@_W@std@@V?$allocator@_W@2@@std@@@2@V?$allocator@U?$pair@$$CBV?$basic_string@_WU?$char_traits@_W@std@@V?$allocator@_W@2@@std@@V?$vector@UFileHashInfo@@V?$allocator@UFileHashInfo@@@std@@@2@@std@@@2@@std@@AEAA?AU?$pair@PEAU?$_Tree_node@U?$pair@$$CBV?$basic_string@_WU?$char_traits@_W@std@@V?$allocator@_W@2@@std@@V?$vector@UFileHashInfo@@V?$allocator@UFileHashInfo@@@std@@@2@@std@@PEAX@std@@_N@1@AEBV?$basic_string@_WU?$char_traits@_W@std@@V?$allocator@_W@2@@1@@Z 0000000180087c28     hashing.obj
 0002:00022c4c       $cppxdata$??$_Try_emplace@AEBV?$basic_string@_WU?$char_traits@_W@std@@V?$allocator@_W@2@@std@@$$V@?$map@V?$basic_string@_WU?$char_traits@_W@std@@V?$allocator@_W@2@@std@@V?$vector@UFileHashInfo@@V?$allocator@UFileHashInfo@@@std@@@2@U?$less@V?$basic_string@_WU?$char_traits@_W@std@@V?$allocator@_W@2@@std@@@2@V?$allocator@U?$pair@$$CBV?$basic_string@_WU?$char_traits@_W@std@@V?$allocator@_W@2@@std@@V?$vector@UFileHashInfo@@V?$allocator@UFileHashInfo@@@std@@@2@@std@@@2@@std@@AEAA?AU?$pair@PEAU?$_Tree_node@U?$pair@$$CBV?$basic_string@_WU?$char_traits@_W@std@@V?$allocator@_W@2@@std@@V?$vector@UFileHashInfo@@V?$allocator@UFileHashInfo@@@std@@@2@@std@@PEAX@std@@_N@1@AEBV?$basic_string@_WU?$char_traits@_W@std@@V?$allocator@_W@2@@1@@Z 0000000180087c4c     hashing.obj
 0002:00022c55       $stateUnwindMap$??$_Try_emplace@AEBV?$basic_string@_WU?$char_traits@_W@std@@V?$allocator@_W@2@@std@@$$V@?$map@V?$basic_string@_WU?$char_traits@_W@std@@V?$allocator@_W@2@@std@@V?$vector@UFileHashInfo@@V?$allocator@UFileHashInfo@@@std@@@2@U?$less@V?$basic_string@_WU?$char_traits@_W@std@@V?$allocator@_W@2@@std@@@2@V?$allocator@U?$pair@$$CBV?$basic_string@_WU?$char_traits@_W@std@@V?$allocator@_W@2@@std@@V?$vector@UFileHashInfo@@V?$allocator@UFileHashInfo@@@std@@@2@@std@@@2@@std@@AEAA?AU?$pair@PEAU?$_Tree_node@U?$pair@$$CBV?$basic_string@_WU?$char_traits@_W@std@@V?$allocator@_W@2@@std@@V?$vector@UFileHashInfo@@V?$allocator@UFileHashInfo@@@std@@@2@@std@@PEAX@std@@_N@1@AEBV?$basic_string@_WU?$char_traits@_W@std@@V?$allocator@_W@2@@1@@Z 0000000180087c55     hashing.obj
 0002:00022c62       $ip2state$??$_Try_emplace@AEBV?$basic_string@_WU?$char_traits@_W@std@@V?$allocator@_W@2@@std@@$$V@?$map@V?$basic_string@_WU?$char_traits@_W@std@@V?$allocator@_W@2@@std@@V?$vector@UFileHashInfo@@V?$allocator@UFileHashInfo@@@std@@@2@U?$less@V?$basic_string@_WU?$char_traits@_W@std@@V?$allocator@_W@2@@std@@@2@V?$allocator@U?$pair@$$CBV?$basic_string@_WU?$char_traits@_W@std@@V?$allocator@_W@2@@std@@V?$vector@UFileHashInfo@@V?$allocator@UFileHashInfo@@@std@@@2@@std@@@2@@std@@AEAA?AU?$pair@PEAU?$_Tree_node@U?$pair@$$CBV?$basic_string@_WU?$char_traits@_W@std@@V?$allocator@_W@2@@std@@V?$vector@UFileHashInfo@@V?$allocator@UFileHashInfo@@@std@@@2@@std@@PEAX@std@@_N@1@AEBV?$basic_string@_WU?$char_traits@_W@std@@V?$allocator@_W@2@@1@@Z 0000000180087c62     hashing.obj
 0002:00022c6c       $unwind$??$_Emplace_reallocate@AEBUFileHashInfo@@@?$vector@UFileHashInfo@@V?$allocator@UFileHashInfo@@@std@@@std@@QEAAPEAUFileHashInfo@@QEAU2@AEBU2@@Z 0000000180087c6c     hashing.obj
 0002:00022c88       $cppxdata$??$_Emplace_reallocate@AEBUFileHashInfo@@@?$vector@UFileHashInfo@@V?$allocator@UFileHashInfo@@@std@@@std@@QEAAPEAUFileHashInfo@@QEAU2@AEBU2@@Z 0000000180087c88     hashing.obj
 0002:00022c95       $stateUnwindMap$??$_Emplace_reallocate@AEBUPanelFileInfo@@@?$vector@UPanelFileInfo@@V?$allocator@UPanelFileInfo@@@std@@@std@@QEAAPEAUPanelFileInfo@@QEAU2@AEBU2@@Z 0000000180087c95     IntChecker2-Far3.obj
 0002:00022c95       $stateUnwindMap$??$_Emplace_reallocate@AEBUFileHashInfo@@@?$vector@UFileHashInfo@@V?$allocator@UFileHashInfo@@@std@@@std@@QEAAPEAUFileHashInfo@@QEAU2@AEBU2@@Z 0000000180087c95     hashing.obj
 0002:00022c9e       $tryMap$??$_Emplace_reallocate@AEBUFileHashInfo@@@?$vector@UFileHashInfo@@V?$allocator@UFileHashInfo@@@std@@@std@@QEAAPEAUFileHashInfo@@QEAU2@AEBU2@@Z 0000000180087c9e     hashing.obj
 0002:00022ca6       $handlerMap$??$_Emplace_reallocate@AEBUFileHashInfo@@@?$vector@UFileHashInfo@@V?$allocator@UFileHashInfo@@@std@@@std@@QEAAPEAUFileHashInfo@@QEAU2@AEBU2@@Z 0000000180087ca6     hashing.obj
 0002:00022cad       $ip2state$??$_Emplace_reallocate@AEBUFileHashInfo@@@?$vector@UFileHashInfo@@V?$allocator@UFileHashInfo@@@std@@@std@@QEAAPEAUFileHashInfo@@QEAU2@AEBU2@@Z 0000000180087cad     hashing.obj
 0002:00022cbc       $unwind$??$_Destroy_range@V?$allocator@V?$basic_string@_WU?$char_traits@_W@std@@V?$allocator@_W@2@@std@@@std@@@std@@YAXPEAV?$basic_string@_WU?$char_traits@_W@std@@V?$allocator@_W@2@@0@QEAV10@AEAV?$allocator@V?$basic_string@_WU?$char_traits@_W@std@@V?$allocator@_W@2@@std@@@0@@Z 0000000180087cbc     IntChecker2-Far3.obj
 0002:00022cbc       $unwind$?_Destroy@?$vector@V?$function@$$A6AX_J@Z@std@@V?$allocator@V?$function@$$A6AX_J@Z@std@@@2@@std@@AEAAXPEAV?$function@$$A6AX_J@Z@2@0@Z 0000000180087cbc     IntChecker2-Far3.obj
 0002:00022cbc       $unwind$??$_Destroy_range@V?$allocator@V?$basic_string@DU?$char_traits@D@std@@V?$allocator@D@2@@std@@@std@@@std@@YAXPEAV?$basic_string@DU?$char_traits@D@std@@V?$allocator@D@2@@0@QEAV10@AEAV?$allocator@V?$basic_string@DU?$char_traits@D@std@@V?$allocator@D@2@@std@@@0@@Z 0000000180087cbc     hashing.obj
 0002:00022cc8       $chain$0$??$_Destroy_range@V?$allocator@V?$basic_string@DU?$char_traits@D@std@@V?$allocator@D@2@@std@@@std@@@std@@YAXPEAV?$basic_string@DU?$char_traits@D@std@@V?$allocator@D@2@@0@QEAV10@AEAV?$allocator@V?$basic_string@DU?$char_traits@D@std@@V?$allocator@D@2@@std@@@0@@Z 0000000180087cc8     hashing.obj
 0002:00022cdc       $chain$1$??$_Destroy_range@V?$allocator@V?$basic_string@DU?$char_traits@D@std@@V?$allocator@D@2@@std@@@std@@@std@@YAXPEAV?$basic_string@DU?$char_traits@D@std@@V?$allocator@D@2@@0@QEAV10@AEAV?$allocator@V?$basic_string@DU?$char_traits@D@std@@V?$allocator@D@2@@std@@@0@@Z 0000000180087cdc     hashing.obj
 0002:00022cec       $chain$2$??$_Destroy_range@V?$allocator@V?$basic_string@DU?$char_traits@D@std@@V?$allocator@D@2@@std@@@std@@@std@@YAXPEAV?$basic_string@DU?$char_traits@D@std@@V?$allocator@D@2@@0@QEAV10@AEAV?$allocator@V?$basic_string@DU?$char_traits@D@std@@V?$allocator@D@2@@std@@@0@@Z 0000000180087cec     hashing.obj
 0002:00022d00       $unwind$??$use_facet@V?$ctype@D@std@@@std@@YAAEBV?$ctype@D@0@AEBVlocale@0@@Z 0000000180087d00     hashing.obj
 0002:00022d00       $unwind$??$use_facet@V?$ctype@_W@std@@@std@@YAAEBV?$ctype@_W@0@AEBVlocale@0@@Z 0000000180087d00     hashing.obj
 0002:00022d18       $cppxdata$??$use_facet@V?$ctype@D@std@@@std@@YAAEBV?$ctype@D@0@AEBVlocale@0@@Z 0000000180087d18     hashing.obj
 0002:00022d18       $cppxdata$??$use_facet@V?$ctype@_W@std@@@std@@YAAEBV?$ctype@_W@0@AEBVlocale@0@@Z 0000000180087d18     hashing.obj
 0002:00022d21       $stateUnwindMap$??$use_facet@V?$ctype@D@std@@@std@@YAAEBV?$ctype@D@0@AEBVlocale@0@@Z 0000000180087d21     hashing.obj
 0002:00022d21       $stateUnwindMap$??$use_facet@V?$ctype@_W@std@@@std@@YAAEBV?$ctype@_W@0@AEBVlocale@0@@Z 0000000180087d21     hashing.obj
 0002:00022d2e       $ip2state$??$use_facet@V?$ctype@D@std@@@std@@YAAEBV?$ctype@D@0@AEBVlocale@0@@Z 0000000180087d2e     hashing.obj
 0002:00022d2e       $ip2state$??$use_facet@V?$ctype@_W@std@@@std@@YAAEBV?$ctype@_W@0@AEBVlocale@0@@Z 0000000180087d2e     hashing.obj
 0002:00022d38       $unwind$?do_transform@?$collate@D@std@@MEBA?AV?$basic_string@DU?$char_traits@D@std@@V?$allocator@D@2@@2@PEBD0@Z 0000000180087d38     hashing.obj
 0002:00022d58       $cppxdata$?do_transform@?$collate@D@std@@MEBA?AV?$basic_string@DU?$char_traits@D@std@@V?$allocator@D@2@@2@PEBD0@Z 0000000180087d58     hashing.obj
 0002:00022d61       $stateUnwindMap$?do_transform@?$collate@D@std@@MEBA?AV?$basic_string@DU?$char_traits@D@std@@V?$allocator@D@2@@2@PEBD0@Z 0000000180087d61     hashing.obj
 0002:00022d67       $ip2state$?do_transform@?$collate@D@std@@MEBA?AV?$basic_string@DU?$char_traits@D@std@@V?$allocator@D@2@@2@PEBD0@Z 0000000180087d67     hashing.obj
 0002:00022d6c       $unwind$?append@?$basic_string@_WU?$char_traits@_W@std@@V?$allocator@_W@2@@std@@QEAAAEAV12@QEB_W_K@Z 0000000180087d6c     hashing.obj
 0002:00022d6c       $unwind$?do_compare@?$collate@D@std@@MEBAHPEBD000@Z 0000000180087d6c     hashing.obj
 0002:00022d6c       $unwind$?equivalent@error_category@std@@UEBA_NHAEBVerror_condition@2@@Z 0000000180087d6c     hashing.obj
 0002:00022d6c       $unwind$??0length_error@std@@QEAA@PEBD@Z 0000000180087d6c     libcpmt:xthrow.obj
 0002:00022d6c       $unwind$??0out_of_range@std@@QEAA@PEBD@Z 0000000180087d6c     libcpmt:xthrow.obj
 0002:00022d6c       $unwind$??0runtime_error@std@@QEAA@PEBD@Z 0000000180087d6c     libcpmt:xthrow.obj
 0002:00022d6c       $unwind$??$common_xtox_s@K_W@@YAHKQEA_W_KI_N@Z 0000000180087d6c     libucrt:xtoa.obj
 0002:00022d74       $unwind$?_Getcat@?$collate@D@std@@SA_KPEAPEBVfacet@locale@2@PEBV42@@Z 0000000180087d74     hashing.obj
 0002:00022d98       $cppxdata$?_Getcat@?$collate@D@std@@SA_KPEAPEBVfacet@locale@2@PEBV42@@Z 0000000180087d98     hashing.obj
 0002:00022da1       $stateUnwindMap$?_Getcat@?$collate@D@std@@SA_KPEAPEBVfacet@locale@2@PEBV42@@Z 0000000180087da1     hashing.obj
 0002:00022ddb       $ip2state$?_Getcat@?$collate@D@std@@SA_KPEAPEBVfacet@locale@2@PEBV42@@Z 0000000180087ddb     hashing.obj
 0002:00022dec       $unwind$??1sentry@?$basic_ostream@DU?$char_traits@D@std@@@std@@QEAA@XZ 0000000180087dec     hashing.obj
 0002:00022dec       $unwind$??1sentry@?$basic_ostream@_WU?$char_traits@_W@std@@@std@@QEAA@XZ 0000000180087dec     hashing.obj
 0002:00022dfc       $cppxdata$??1sentry@?$basic_ostream@DU?$char_traits@D@std@@@std@@QEAA@XZ 0000000180087dfc     hashing.obj
 0002:00022dfc       $cppxdata$??1sentry@?$basic_ostream@_WU?$char_traits@_W@std@@@std@@QEAA@XZ 0000000180087dfc     hashing.obj
 0002:00022e05       $ip2state$??1sentry@?$basic_ostream@DU?$char_traits@D@std@@@std@@QEAA@XZ 0000000180087e05     hashing.obj
 0002:00022e05       $ip2state$??1sentry@?$basic_ostream@_WU?$char_traits@_W@std@@@std@@QEAA@XZ 0000000180087e05     hashing.obj
 0002:00022e0c       $unwind$??0sentry@?$basic_ostream@_WU?$char_traits@_W@std@@@std@@QEAA@AEAV12@@Z 0000000180087e0c     hashing.obj
 0002:00022e28       $cppxdata$??0sentry@?$basic_ostream@_WU?$char_traits@_W@std@@@std@@QEAA@AEAV12@@Z 0000000180087e28     hashing.obj
 0002:00022e31       $stateUnwindMap$??0sentry@?$basic_ostream@_WU?$char_traits@_W@std@@@std@@QEAA@AEAV12@@Z 0000000180087e31     hashing.obj
 0002:00022e48       $ip2state$??0sentry@?$basic_ostream@_WU?$char_traits@_W@std@@@std@@QEAA@AEAV12@@Z 0000000180087e48     hashing.obj
 0002:00022e58       $unwind$??0sentry@?$basic_ostream@DU?$char_traits@D@std@@@std@@QEAA@AEAV12@@Z 0000000180087e58     hashing.obj
 0002:00022e6c       $cppxdata$??0sentry@?$basic_ostream@DU?$char_traits@D@std@@@std@@QEAA@AEAV12@@Z 0000000180087e6c     hashing.obj
 0002:00022e75       $stateUnwindMap$??0sentry@?$basic_ostream@DU?$char_traits@D@std@@@std@@QEAA@AEAV12@@Z 0000000180087e75     hashing.obj
 0002:00022e7c       $ip2state$??0sentry@?$basic_ostream@DU?$char_traits@D@std@@@std@@QEAA@AEAV12@@Z 0000000180087e7c     hashing.obj
 0002:00022e84       $unwind$?_Do_call@?$_Func_impl_no_alloc@V<lambda_e249c70d12b28e046aa37836257b4bd8>@@HPEB_W@std@@EEAAH$$QEAPEB_W@Z 0000000180087e84     IntChecker2-Far3.obj
 0002:00022e84       $unwind$?_Better_match@?$_Matcher@PEBDDV?$regex_traits@D@std@@PEBD@std@@AEAA_NXZ 0000000180087e84     hashing.obj
 0002:00022e84       $unwind$?_Insert_node@?$_Tree_val@U?$_Tree_simple_types@U?$pair@$$CBV?$basic_string@_WU?$char_traits@_W@std@@V?$allocator@_W@2@@std@@V?$vector@UFileHashInfo@@V?$allocator@UFileHashInfo@@@std@@@2@@std@@@std@@@std@@QEAAPEAU?$_Tree_node@U?$pair@$$CBV?$basic_string@_WU?$char_traits@_W@std@@V?$allocator@_W@2@@std@@V?$vector@UFileHashInfo@@V?$allocator@UFileHashInfo@@@std@@@2@@std@@PEAX@2@U?$_Tree_id@PEAU?$_Tree_node@U?$pair@$$CBV?$basic_string@_WU?$char_traits@_W@std@@V?$allocator@_W@2@@std@@V?$vector@UFileHashInfo@@V?$allocator@UFileHashInfo@@@std@@@2@@std@@PEAX@std@@@2@QEAU32@@Z 0000000180087e84     hashing.obj
 0002:00022e90       $unwind$?flush@?$basic_ostream@DU?$char_traits@D@std@@@std@@QEAAAEAV12@XZ 0000000180087e90     hashing.obj
 0002:00022ea4       $cppxdata$?flush@?$basic_ostream@DU?$char_traits@D@std@@@std@@QEAAAEAV12@XZ 0000000180087ea4     hashing.obj
 0002:00022ead       $stateUnwindMap$?flush@?$basic_ostream@DU?$char_traits@D@std@@@std@@QEAAAEAV12@XZ 0000000180087ead     hashing.obj
 0002:00022ebe       $ip2state$?flush@?$basic_ostream@DU?$char_traits@D@std@@@std@@QEAAAEAV12@XZ 0000000180087ebe     hashing.obj
 0002:00022ecc       $unwind$?put@?$basic_ostream@DU?$char_traits@D@std@@@std@@QEAAAEAV12@D@Z 0000000180087ecc     hashing.obj
 0002:00022ee4       $cppxdata$?put@?$basic_ostream@DU?$char_traits@D@std@@@std@@QEAAAEAV12@D@Z 0000000180087ee4     hashing.obj
 0002:00022ef1       $tryMap$?put@?$basic_ostream@DU?$char_traits@D@std@@@std@@QEAAAEAV12@D@Z 0000000180087ef1     hashing.obj
 0002:00022ef9       $handlerMap$?put@?$basic_ostream@DU?$char_traits@D@std@@@std@@QEAAAEAV12@D@Z 0000000180087ef9     hashing.obj
 0002:00022f02       $ip2state$?put@?$basic_ostream@DU?$char_traits@D@std@@@std@@QEAAAEAV12@D@Z 0000000180087f02     hashing.obj
 0002:00022f10       $unwind$?_Change_array@?$vector@UFileHashInfo@@V?$allocator@UFileHashInfo@@@std@@@std@@AEAAXQEAUFileHashInfo@@_K1@Z 0000000180087f10     hashing.obj
 0002:00022f24       $chain$0$?_Change_array@?$vector@UFileHashInfo@@V?$allocator@UFileHashInfo@@@std@@@std@@AEAAXQEAUFileHashInfo@@_K1@Z 0000000180087f24     hashing.obj
 0002:00022f38       $chain$1$?_Change_array@?$vector@UFileHashInfo@@V?$allocator@UFileHashInfo@@@std@@@std@@AEAAXQEAUFileHashInfo@@_K1@Z 0000000180087f38     hashing.obj
 0002:00022f48       $unwind$??1_Sentry_base@?$basic_ostream@DU?$char_traits@D@std@@@std@@QEAA@XZ 0000000180087f48     hashing.obj
 0002:00022f48       $unwind$??1_Sentry_base@?$basic_ostream@_WU?$char_traits@_W@std@@@std@@QEAA@XZ 0000000180087f48     hashing.obj
 0002:00022f58       $cppxdata$??1_Sentry_base@?$basic_ostream@DU?$char_traits@D@std@@@std@@QEAA@XZ 0000000180087f58     hashing.obj
 0002:00022f58       $cppxdata$??1_Sentry_base@?$basic_ostream@_WU?$char_traits@_W@std@@@std@@QEAA@XZ 0000000180087f58     hashing.obj
 0002:00022f5d       $ip2state$??1_Sentry_base@?$basic_ostream@DU?$char_traits@D@std@@@std@@QEAA@XZ 0000000180087f5d     hashing.obj
 0002:00022f5d       $ip2state$??1_Sentry_base@?$basic_ostream@_WU?$char_traits@_W@std@@@std@@QEAA@XZ 0000000180087f5d     hashing.obj
 0002:00022f60       $unwind$?_Osfx@?$basic_ostream@DU?$char_traits@D@std@@@std@@QEAAXXZ 0000000180087f60     hashing.obj
 0002:00022f60       $unwind$?_Osfx@?$basic_ostream@_WU?$char_traits@_W@std@@@std@@QEAAXXZ 0000000180087f60     hashing.obj
 0002:00022f70       $cppxdata$?_Osfx@?$basic_ostream@DU?$char_traits@D@std@@@std@@QEAAXXZ 0000000180087f70     hashing.obj
 0002:00022f70       $cppxdata$?_Osfx@?$basic_ostream@_WU?$char_traits@_W@std@@@std@@QEAAXXZ 0000000180087f70     hashing.obj
 0002:00022f7d       $stateUnwindMap$??$_Emplace_reallocate@AEBV?$basic_string@_WU?$char_traits@_W@std@@V?$allocator@_W@2@@std@@@?$vector@V?$basic_string@_WU?$char_traits@_W@std@@V?$allocator@_W@2@@std@@V?$allocator@V?$basic_string@_WU?$char_traits@_W@std@@V?$allocator@_W@2@@std@@@2@@std@@QEAAPEAV?$basic_string@_WU?$char_traits@_W@std@@V?$allocator@_W@2@@1@QEAV21@AEBV21@@Z 0000000180087f7d     IntChecker2-Far3.obj
 0002:00022f7d       $stateUnwindMap$?_Osfx@?$basic_ostream@DU?$char_traits@D@std@@@std@@QEAAXXZ 0000000180087f7d     hashing.obj
 0002:00022f7d       $stateUnwindMap$?_Osfx@?$basic_ostream@_WU?$char_traits@_W@std@@@std@@QEAAXXZ 0000000180087f7d     hashing.obj
 0002:00022f80       $tryMap$?_Osfx@?$basic_ostream@DU?$char_traits@D@std@@@std@@QEAAXXZ 0000000180087f80     hashing.obj
 0002:00022f80       $tryMap$?_Osfx@?$basic_ostream@_WU?$char_traits@_W@std@@@std@@QEAAXXZ 0000000180087f80     hashing.obj
 0002:00022f88       $handlerMap$?_Osfx@?$basic_ostream@DU?$char_traits@D@std@@@std@@QEAAXXZ 0000000180087f88     hashing.obj
 0002:00022f88       $handlerMap$?_Osfx@?$basic_ostream@_WU?$char_traits@_W@std@@@std@@QEAAXXZ 0000000180087f88     hashing.obj
 0002:00022f90       $ip2state$?_Osfx@?$basic_ostream@DU?$char_traits@D@std@@@std@@QEAAXXZ 0000000180087f90     hashing.obj
 0002:00022f90       $ip2state$?_Osfx@?$basic_ostream@_WU?$char_traits@_W@std@@@std@@QEAAXXZ 0000000180087f90     hashing.obj
 0002:00022f98       $chain$1$?append@?$basic_string@_WU?$char_traits@_W@std@@V?$allocator@_W@2@@std@@QEAAAEAV12@QEB_W_K@Z 0000000180087f98     hashing.obj
 0002:00022fb0       $chain$2$?append@?$basic_string@_WU?$char_traits@_W@std@@V?$allocator@_W@2@@std@@QEAAAEAV12@QEB_W_K@Z 0000000180087fb0     hashing.obj
 0002:00022fc0       $unwind$?do_widen@?$ctype@_W@std@@MEBA_WD@Z 0000000180087fc0     hashing.obj
 0002:00022fc0       $unwind$?resize@?$basic_string@DU?$char_traits@D@std@@V?$allocator@D@2@@std@@QEAAX_KD@Z 0000000180087fc0     hashing.obj
 0002:00022fc0       $unwind$_itow_s            0000000180087fc0     libucrt:xtoa.obj
 0002:00022fc0       $unwind$parse_bcp47_code_page 0000000180087fc0     libucrt:wsetlocale.obj
 0002:00022fc0       $unwind$_wsopen_s          0000000180087fc0     libucrt:open.obj
 0002:00022fc0       $unwind$_invalid_parameter_noinfo 0000000180087fc0     libucrt:invalid_parameter.obj
 0002:00022fc0       $unwind$_invalid_parameter_noinfo_noreturn 0000000180087fc0     libucrt:invalid_parameter.obj
 0002:00022fc0       $unwind$?state_case_size@?$output_processor@_WV?$string_output_adapter@_W@__crt_stdio_output@@V?$format_validation_base@_WV?$string_output_adapter@_W@__crt_stdio_output@@@2@@__crt_stdio_output@@AEAA_NXZ 0000000180087fc0     libucrt:output.obj
 0002:00022fc0       $unwind$_log10_special     0000000180087fc0     libucrt:log_special.obj
 0002:00022fc8       $chain$1$?resize@?$basic_string@DU?$char_traits@D@std@@V?$allocator@D@2@@std@@QEAAX_KD@Z 0000000180087fc8     hashing.obj
 0002:00022fe0       $chain$3$?resize@?$basic_string@DU?$char_traits@D@std@@V?$allocator@D@2@@std@@QEAAX_KD@Z 0000000180087fe0     hashing.obj
 0002:00022ff4       $unwind$??$_Insert_range@PEAUFileHashInfo@@@?$vector@UFileHashInfo@@V?$allocator@UFileHashInfo@@@std@@@std@@AEAAXV?$_Vector_const_iterator@V?$_Vector_val@U?$_Simple_types@UFileHashInfo@@@std@@@std@@@1@PEAUFileHashInfo@@1Uforward_iterator_tag@1@@Z 0000000180087ff4     hashing.obj
 0002:00023010       $cppxdata$??$_Insert_range@PEAUFileHashInfo@@@?$vector@UFileHashInfo@@V?$allocator@UFileHashInfo@@@std@@@std@@AEAAXV?$_Vector_const_iterator@V?$_Vector_val@U?$_Simple_types@UFileHashInfo@@@std@@@std@@@1@PEAUFileHashInfo@@1Uforward_iterator_tag@1@@Z 0000000180088010     hashing.obj
 0002:0002301d       $stateUnwindMap$??$_Insert_range@PEAUFileHashInfo@@@?$vector@UFileHashInfo@@V?$allocator@UFileHashInfo@@@std@@@std@@AEAAXV?$_Vector_const_iterator@V?$_Vector_val@U?$_Simple_types@UFileHashInfo@@@std@@@std@@@1@PEAUFileHashInfo@@1Uforward_iterator_tag@1@@Z 000000018008801d     hashing.obj
 0002:0002304b       $tryMap$??$_Insert_range@PEAUFileHashInfo@@@?$vector@UFileHashInfo@@V?$allocator@UFileHashInfo@@@std@@@std@@AEAAXV?$_Vector_const_iterator@V?$_Vector_val@U?$_Simple_types@UFileHashInfo@@@std@@@std@@@1@PEAUFileHashInfo@@1Uforward_iterator_tag@1@@Z 000000018008804b     hashing.obj
 0002:00023061       $handlerMap$??$_Insert_range@PEAUFileHashInfo@@@?$vector@UFileHashInfo@@V?$allocator@UFileHashInfo@@@std@@@std@@AEAAXV?$_Vector_const_iterator@V?$_Vector_val@U?$_Simple_types@UFileHashInfo@@@std@@@std@@@1@PEAUFileHashInfo@@1Uforward_iterator_tag@1@@Z 0000000180088061     hashing.obj
 0002:00023068       $handlerMap$0$??$_Insert_range@PEAUFileHashInfo@@@?$vector@UFileHashInfo@@V?$allocator@UFileHashInfo@@@std@@@std@@AEAAXV?$_Vector_const_iterator@V?$_Vector_val@U?$_Simple_types@UFileHashInfo@@@std@@@std@@@1@PEAUFileHashInfo@@1Uforward_iterator_tag@1@@Z 0000000180088068     hashing.obj
 0002:0002306f       $handlerMap$1$??$_Insert_range@PEAUFileHashInfo@@@?$vector@UFileHashInfo@@V?$allocator@UFileHashInfo@@@std@@@std@@AEAAXV?$_Vector_const_iterator@V?$_Vector_val@U?$_Simple_types@UFileHashInfo@@@std@@@std@@@1@PEAUFileHashInfo@@1Uforward_iterator_tag@1@@Z 000000018008806f     hashing.obj
 0002:00023076       $ip2state$??$_Insert_range@PEAUFileHashInfo@@@?$vector@UFileHashInfo@@V?$allocator@UFileHashInfo@@@std@@@std@@AEAAXV?$_Vector_const_iterator@V?$_Vector_val@U?$_Simple_types@UFileHashInfo@@@std@@@std@@@1@PEAUFileHashInfo@@1Uforward_iterator_tag@1@@Z 0000000180088076     hashing.obj
 0002:0002308c       $unwind$?catch$10@?0???$_Insert_range@PEAUFileHashInfo@@@?$vector@UFileHashInfo@@V?$allocator@UFileHashInfo@@@std@@@std@@AEAAXV?$_Vector_const_iterator@V?$_Vector_val@U?$_Simple_types@UFileHashInfo@@@std@@@std@@@1@PEAUFileHashInfo@@1Uforward_iterator_tag@1@@Z@4HA 000000018008808c     hashing.obj
 0002:00023098       $unwind$?catch$11@?0???$_Insert_range@PEAUFileHashInfo@@@?$vector@UFileHashInfo@@V?$allocator@UFileHashInfo@@@std@@@std@@AEAAXV?$_Vector_const_iterator@V?$_Vector_val@U?$_Simple_types@UFileHashInfo@@@std@@@std@@@1@PEAUFileHashInfo@@1Uforward_iterator_tag@1@@Z@4HA 0000000180088098     hashing.obj
 0002:000230a4       $unwind$??$_Regex_match1@PEBDV?$allocator@V?$sub_match@PEBD@std@@@std@@DV?$regex_traits@D@2@PEBD@std@@YA_NPEBD0PEAV?$match_results@PEBDV?$allocator@V?$sub_match@PEBD@std@@@std@@@0@AEBV?$basic_regex@DV?$regex_traits@D@std@@@0@W4match_flag_type@regex_constants@0@_N@Z 00000001800880a4     hashing.obj
 0002:000230c0       $cppxdata$??$_Regex_match1@PEBDV?$allocator@V?$sub_match@PEBD@std@@@std@@DV?$regex_traits@D@2@PEBD@std@@YA_NPEBD0PEAV?$match_results@PEBDV?$allocator@V?$sub_match@PEBD@std@@@std@@@0@AEBV?$basic_regex@DV?$regex_traits@D@std@@@0@W4match_flag_type@regex_constants@0@_N@Z 00000001800880c0     hashing.obj
 0002:000230c9       $stateUnwindMap$??$_Regex_match1@PEBDV?$allocator@V?$sub_match@PEBD@std@@@std@@DV?$regex_traits@D@2@PEBD@std@@YA_NPEBD0PEAV?$match_results@PEBDV?$allocator@V?$sub_match@PEBD@std@@@std@@@0@AEBV?$basic_regex@DV?$regex_traits@D@std@@@0@W4match_flag_type@regex_constants@0@_N@Z 00000001800880c9     hashing.obj
 0002:000230e0       $ip2state$??$_Regex_match1@PEBDV?$allocator@V?$sub_match@PEBD@std@@@std@@DV?$regex_traits@D@2@PEBD@std@@YA_NPEBD0PEAV?$match_results@PEBDV?$allocator@V?$sub_match@PEBD@std@@@std@@@0@AEBV?$basic_regex@DV?$regex_traits@D@std@@@0@W4match_flag_type@regex_constants@0@_N@Z 00000001800880e0     hashing.obj
 0002:000230e8       $unwind$??$_Insert_string@_WU?$char_traits@_W@std@@_K@std@@YAAEAV?$basic_ostream@_WU?$char_traits@_W@std@@@0@AEAV10@QEB_W_K@Z 00000001800880e8     hashing.obj
 0002:00023108       $cppxdata$??$_Insert_string@_WU?$char_traits@_W@std@@_K@std@@YAAEAV?$basic_ostream@_WU?$char_traits@_W@std@@@0@AEAV10@QEB_W_K@Z 0000000180088108     hashing.obj
 0002:00023115       $tryMap$??$_Insert_string@_WU?$char_traits@_W@std@@_K@std@@YAAEAV?$basic_ostream@_WU?$char_traits@_W@std@@@0@AEAV10@QEB_W_K@Z 0000000180088115     hashing.obj
 0002:0002311d       $handlerMap$??$_Insert_string@_WU?$char_traits@_W@std@@_K@std@@YAAEAV?$basic_ostream@_WU?$char_traits@_W@std@@@0@AEAV10@QEB_W_K@Z 000000018008811d     hashing.obj
 0002:00023126       $ip2state$??$_Insert_string@_WU?$char_traits@_W@std@@_K@std@@YAAEAV?$basic_ostream@_WU?$char_traits@_W@std@@@0@AEAV10@QEB_W_K@Z 0000000180088126     hashing.obj
 0002:00023138       $unwind$??$_Insert_string@DU?$char_traits@D@std@@_K@std@@YAAEAV?$basic_ostream@DU?$char_traits@D@std@@@0@AEAV10@QEBD_K@Z 0000000180088138     hashing.obj
 0002:00023158       $cppxdata$??$_Insert_string@DU?$char_traits@D@std@@_K@std@@YAAEAV?$basic_ostream@DU?$char_traits@D@std@@@0@AEAV10@QEBD_K@Z 0000000180088158     hashing.obj
 0002:00023165       $tryMap$??$_Insert_string@DU?$char_traits@D@std@@_K@std@@YAAEAV?$basic_ostream@DU?$char_traits@D@std@@@0@AEAV10@QEBD_K@Z 0000000180088165     hashing.obj
 0002:0002316d       $handlerMap$??$_Insert_string@DU?$char_traits@D@std@@_K@std@@YAAEAV?$basic_ostream@DU?$char_traits@D@std@@@0@AEAV10@QEBD_K@Z 000000018008816d     hashing.obj
 0002:00023176       $ip2state$??$_Insert_string@DU?$char_traits@D@std@@_K@std@@YAAEAV?$basic_ostream@DU?$char_traits@D@std@@@0@AEAV10@QEBD_K@Z 0000000180088176     hashing.obj
 0002:0002318c       $unwind$??$_Erase_tree@V?$allocator@U?$_Tree_node@U?$pair@$$CBV?$basic_string@_WU?$char_traits@_W@std@@V?$allocator@_W@2@@std@@V?$vector@UFileHashInfo@@V?$allocator@UFileHashInfo@@@std@@@2@@std@@PEAX@std@@@std@@@?$_Tree_val@U?$_Tree_simple_types@U?$pair@$$CBV?$basic_string@_WU?$char_traits@_W@std@@V?$allocator@_W@2@@std@@V?$vector@UFileHashInfo@@V?$allocator@UFileHashInfo@@@std@@@2@@std@@@std@@@std@@QEAAXAEAV?$allocator@U?$_Tree_node@U?$pair@$$CBV?$basic_string@_WU?$char_traits@_W@std@@V?$allocator@_W@2@@std@@V?$vector@UFileHashInfo@@V?$allocator@UFileHashInfo@@@std@@@2@@std@@PEAX@std@@@1@PEAU?$_Tree_node@U?$pair@$$CBV?$basic_string@_WU?$char_traits@_W@std@@V?$allocator@_W@2@@std@@V?$vector@UFileHashInfo@@V?$allocator@UFileHashInfo@@@std@@@2@@std@@PEAX@1@@Z 000000018008818c     hashing.obj
 0002:0002318c       $unwind$?_CharacterClassEscape@?$_Parser@PEBDDV?$regex_traits@D@std@@@std@@AEAA_N_N@Z 000000018008818c     hashing.obj
 0002:0002318c       $unwind$?_Quantifier@?$_Parser@PEBDDV?$regex_traits@D@std@@@std@@AEAAXXZ 000000018008818c     hashing.obj
 0002:0002319c       $chain$0$??$_Erase_tree@V?$allocator@U?$_Tree_node@U?$pair@$$CBV?$basic_string@_WU?$char_traits@_W@std@@V?$allocator@_W@2@@std@@V?$vector@UFileHashInfo@@V?$allocator@UFileHashInfo@@@std@@@2@@std@@PEAX@std@@@std@@@?$_Tree_val@U?$_Tree_simple_types@U?$pair@$$CBV?$basic_string@_WU?$char_traits@_W@std@@V?$allocator@_W@2@@std@@V?$vector@UFileHashInfo@@V?$allocator@UFileHashInfo@@@std@@@2@@std@@@std@@@std@@QEAAXAEAV?$allocator@U?$_Tree_node@U?$pair@$$CBV?$basic_string@_WU?$char_traits@_W@std@@V?$allocator@_W@2@@std@@V?$vector@UFileHashInfo@@V?$allocator@UFileHashInfo@@@std@@@2@@std@@PEAX@std@@@1@PEAU?$_Tree_node@U?$pair@$$CBV?$basic_string@_WU?$char_traits@_W@std@@V?$allocator@_W@2@@std@@V?$vector@UFileHashInfo@@V?$allocator@UFileHashInfo@@@std@@@2@@std@@PEAX@1@@Z 000000018008819c     hashing.obj
 0002:000231b0       $chain$1$??$_Erase_tree@V?$allocator@U?$_Tree_node@U?$pair@$$CBV?$basic_string@_WU?$char_traits@_W@std@@V?$allocator@_W@2@@std@@V?$vector@UFileHashInfo@@V?$allocator@UFileHashInfo@@@std@@@2@@std@@PEAX@std@@@std@@@?$_Tree_val@U?$_Tree_simple_types@U?$pair@$$CBV?$basic_string@_WU?$char_traits@_W@std@@V?$allocator@_W@2@@std@@V?$vector@UFileHashInfo@@V?$allocator@UFileHashInfo@@@std@@@2@@std@@@std@@@std@@QEAAXAEAV?$allocator@U?$_Tree_node@U?$pair@$$CBV?$basic_string@_WU?$char_traits@_W@std@@V?$allocator@_W@2@@std@@V?$vector@UFileHashInfo@@V?$allocator@UFileHashInfo@@@std@@@2@@std@@PEAX@std@@@1@PEAU?$_Tree_node@U?$pair@$$CBV?$basic_string@_WU?$char_traits@_W@std@@V?$allocator@_W@2@@std@@V?$vector@UFileHashInfo@@V?$allocator@UFileHashInfo@@@std@@@2@@std@@PEAX@1@@Z 00000001800881b0     hashing.obj
 0002:000231c0       $unwind$??$_Reallocate_grow_by@V<lambda_1dfe18491bcca09701d8ccb01d0b0af4>@@PEB_W_K@?$basic_string@_WU?$char_traits@_W@std@@V?$allocator@_W@2@@std@@AEAAAEAV01@_KV<lambda_1dfe18491bcca09701d8ccb01d0b0af4>@@PEB_W_K@Z 00000001800881c0     hashing.obj
 0002:000231d0       $chain$3$??$_Reallocate_grow_by@V<lambda_1dfe18491bcca09701d8ccb01d0b0af4>@@PEB_W_K@?$basic_string@_WU?$char_traits@_W@std@@V?$allocator@_W@2@@std@@AEAAAEAV01@_KV<lambda_1dfe18491bcca09701d8ccb01d0b0af4>@@PEB_W_K@Z 00000001800881d0     hashing.obj
 0002:000231f0       $chain$5$??$_Reallocate_grow_by@V<lambda_1dfe18491bcca09701d8ccb01d0b0af4>@@PEB_W_K@?$basic_string@_WU?$char_traits@_W@std@@V?$allocator@_W@2@@std@@AEAAAEAV01@_KV<lambda_1dfe18491bcca09701d8ccb01d0b0af4>@@PEB_W_K@Z 00000001800881f0     hashing.obj
 0002:00023210       $chain$6$??$_Reallocate_grow_by@V<lambda_1dfe18491bcca09701d8ccb01d0b0af4>@@PEB_W_K@?$basic_string@_WU?$char_traits@_W@std@@V?$allocator@_W@2@@std@@AEAAAEAV01@_KV<lambda_1dfe18491bcca09701d8ccb01d0b0af4>@@PEB_W_K@Z 0000000180088210     hashing.obj
 0002:00023220       $unwind$??$_Reallocate_grow_by@V<lambda_e1befb086ad3257e3f042a63030725f7>@@_KD@?$basic_string@DU?$char_traits@D@std@@V?$allocator@D@2@@std@@AEAAAEAV01@_KV<lambda_e1befb086ad3257e3f042a63030725f7>@@_KD@Z 0000000180088220     hashing.obj
 0002:00023230       $chain$3$??$_Reallocate_grow_by@V<lambda_e1befb086ad3257e3f042a63030725f7>@@_KD@?$basic_string@DU?$char_traits@D@std@@V?$allocator@D@2@@std@@AEAAAEAV01@_KV<lambda_e1befb086ad3257e3f042a63030725f7>@@_KD@Z 0000000180088230     hashing.obj
 0002:00023250       $chain$5$??$_Reallocate_grow_by@V<lambda_e1befb086ad3257e3f042a63030725f7>@@_KD@?$basic_string@DU?$char_traits@D@std@@V?$allocator@D@2@@std@@AEAAAEAV01@_KV<lambda_e1befb086ad3257e3f042a63030725f7>@@_KD@Z 0000000180088250     hashing.obj
 0002:00023270       $chain$6$??$_Reallocate_grow_by@V<lambda_e1befb086ad3257e3f042a63030725f7>@@_KD@?$basic_string@DU?$char_traits@D@std@@V?$allocator@D@2@@std@@AEAAAEAV01@_KV<lambda_e1befb086ad3257e3f042a63030725f7>@@_KD@Z 0000000180088270     hashing.obj
 0002:00023280       $chain$1$??1?$_Tidy_guard@V?$_Builder@PEBDDV?$regex_traits@D@std@@@std@@@std@@QEAA@XZ 0000000180088280     hashing.obj
 0002:00023298       $chain$2$??1?$_Tidy_guard@V?$_Builder@PEBDDV?$regex_traits@D@std@@@std@@@std@@QEAA@XZ 0000000180088298     hashing.obj
 0002:000232a8       $unwind$?_Trim@?$vector@_NV?$allocator@_N@std@@@std@@QEAAX_K@Z 00000001800882a8     hashing.obj
 0002:000232b4       $chain$0$?_Trim@?$vector@_NV?$allocator@_N@std@@@std@@QEAAX_K@Z 00000001800882b4     hashing.obj
 0002:000232c8       $chain$1$?_Trim@?$vector@_NV?$allocator@_N@std@@@std@@QEAAX_K@Z 00000001800882c8     hashing.obj
 0002:000232dc       $chain$2$?_Trim@?$vector@_NV?$allocator@_N@std@@@std@@QEAAX_K@Z 00000001800882dc     hashing.obj
 0002:000232f0       $chain$3$?_Trim@?$vector@_NV?$allocator@_N@std@@@std@@QEAAX_K@Z 00000001800882f0     hashing.obj
 0002:00023300       $chain$4$?_Trim@?$vector@_NV?$allocator@_N@std@@@std@@QEAAX_K@Z 0000000180088300     hashing.obj
 0002:00023310       $chain$5$?_Trim@?$vector@_NV?$allocator@_N@std@@@std@@QEAAX_K@Z 0000000180088310     hashing.obj
 0002:00023320       $unwind$??R?$mersenne_twister@I$0CA@$0CHA@$0BIN@$0BP@$0JJAILANP@$0L@$06$0JNCMFGIA@$0P@$0OPMGAAAA@$0BC@@std@@QEAAIXZ 0000000180088320     hashing.obj
 0002:00023328       $chain$0$??R?$mersenne_twister@I$0CA@$0CHA@$0BIN@$0BP@$0JJAILANP@$0L@$06$0JNCMFGIA@$0P@$0OPMGAAAA@$0BC@@std@@QEAAIXZ 0000000180088328     hashing.obj
 0002:0002333c       $chain$1$??R?$mersenne_twister@I$0CA@$0CHA@$0BIN@$0BP@$0JJAILANP@$0L@$06$0JNCMFGIA@$0P@$0OPMGAAAA@$0BC@@std@@QEAAIXZ 000000018008833c     hashing.obj
 0002:0002334c       $unwind$?_Disjunction@?$_Parser@PEBDDV?$regex_traits@D@std@@@std@@AEAAXXZ 000000018008834c     hashing.obj
 0002:00023358       $chain$3$?_Disjunction@?$_Parser@PEBDDV?$regex_traits@D@std@@@std@@AEAAXXZ 0000000180088358     hashing.obj
 0002:00023378       $chain$4$?_Disjunction@?$_Parser@PEBDDV?$regex_traits@D@std@@@std@@AEAAXXZ 0000000180088378     hashing.obj
 0002:0002338c       $chain$5$?_Disjunction@?$_Parser@PEBDDV?$regex_traits@D@std@@@std@@AEAAXXZ 000000018008838c     hashing.obj
 0002:0002339c       $chain$6$?_Disjunction@?$_Parser@PEBDDV?$regex_traits@D@std@@@std@@AEAAXXZ 000000018008839c     hashing.obj
 0002:000233ac       $unwind$?_Add_char_to_array@?$_Builder@PEBDDV?$regex_traits@D@std@@@std@@AEAAXD@Z 00000001800883ac     hashing.obj
 0002:000233ac       $unwind$?_End_group@?$_Builder@PEBDDV?$regex_traits@D@std@@@std@@QEAAXPEAV_Node_base@2@@Z 00000001800883ac     hashing.obj
 0002:000233ac       $unwind$ProcessCodePage    00000001800883ac     libucrt:get_qualified_locale.obj
 0002:000233ac       $unwind$ProcessCodePage    00000001800883ac     libucrt:getqloc_downlevel.obj
 0002:000233ac       $unwind$TestDefaultLanguage 00000001800883ac     libucrt:getqloc_downlevel.obj
 0002:000233ac       $unwind$?get_raw_ptd_noexit@__crt_cached_ptd_host@@QEAAPEAU__acrt_ptd@@XZ 00000001800883ac     libucrt:invalid_parameter.obj
 0002:000233ac       $unwind$?type_case_c_tchar@?$output_processor@_WV?$string_output_adapter@_W@__crt_stdio_output@@V?$format_validation_base@_WV?$string_output_adapter@_W@__crt_stdio_output@@@2@@__crt_stdio_output@@AEAA_N_W@Z 00000001800883ac     libucrt:output.obj
 0002:000233bc       $unwind$?AddDialogItem@?$DialogBuilderBase@UFarDialogItem@@@@IEAAPEAUFarDialogItem@@W4FARDIALOGITEMTYPES@@PEB_W@Z 00000001800883bc     IntChecker2-Far3.obj
 0002:000233bc       $unwind$??$_Match@V?$allocator@V?$sub_match@PEBD@std@@@std@@@?$_Matcher@PEBDDV?$regex_traits@D@std@@PEBD@std@@QEAA_NPEAV?$match_results@PEBDV?$allocator@V?$sub_match@PEBD@std@@@std@@@1@_N@Z 00000001800883bc     hashing.obj
 0002:000233bc       $unwind$rhash_edonr256_update 00000001800883bc     rhash:edonr.obj
 0002:000233bc       $unwind$rhash_edonr512_update 00000001800883bc     rhash:edonr.obj
 0002:000233bc       $unwind$rhash_has160_update 00000001800883bc     rhash:has160.obj
 0002:000233bc       $unwind$rhash_md5_update   00000001800883bc     rhash:md5.obj
 0002:000233bc       $unwind$rhash_ripemd160_update 00000001800883bc     rhash:ripemd-160.obj
 0002:000233bc       $unwind$rhash_sha1_update  00000001800883bc     rhash:sha1.obj
 0002:000233bc       $unwind$rhash_sha256_update 00000001800883bc     rhash:sha256.obj
 0002:000233bc       $unwind$rhash_sha512_update 00000001800883bc     rhash:sha512.obj
 0002:000233bc       $unwind$rhash_snefru_final 00000001800883bc     rhash:snefru.obj
 0002:000233d4       $unwind$?_Throw_system_error@std@@YAXW4errc@1@@Z 00000001800883d4     IntChecker2-Far3.obj
 0002:000233d4       $unwind$?_Throw_system_error_from_std_win_error@filesystem@std@@YAXW4__std_win_error@@@Z 00000001800883d4     IntChecker2-Far3.obj
 0002:000233d4       $unwind$?resize@?$vector@_NV?$allocator@_N@std@@@std@@QEAAX_K_N@Z 00000001800883d4     hashing.obj
 0002:000233dc       $unwind$?_Insert_n@?$vector@_NV?$allocator@_N@std@@@std@@QEAA?AV?$_Vb_iterator@U?$_Wrap_alloc@V?$allocator@I@std@@@std@@@2@V?$_Vb_const_iterator@U?$_Wrap_alloc@V?$allocator@I@std@@@std@@@2@_KAEB_N@Z 00000001800883dc     hashing.obj
 0002:000233f0       $chain$0$?_Insert_n@?$vector@_NV?$allocator@_N@std@@@std@@QEAA?AV?$_Vb_iterator@U?$_Wrap_alloc@V?$allocator@I@std@@@std@@@2@V?$_Vb_const_iterator@U?$_Wrap_alloc@V?$allocator@I@std@@@std@@@2@_KAEB_N@Z 00000001800883f0     hashing.obj
 0002:00023404       $chain$1$?_Insert_n@?$vector@_NV?$allocator@_N@std@@@std@@QEAA?AV?$_Vb_iterator@U?$_Wrap_alloc@V?$allocator@I@std@@@std@@@2@V?$_Vb_const_iterator@U?$_Wrap_alloc@V?$allocator@I@std@@@std@@@2@_KAEB_N@Z 0000000180088404     hashing.obj
 0002:00023414       $unwind$?erase@?$vector@_NV?$allocator@_N@std@@@std@@QEAA?AV?$_Vb_iterator@U?$_Wrap_alloc@V?$allocator@I@std@@@std@@@2@V?$_Vb_const_iterator@U?$_Wrap_alloc@V?$allocator@I@std@@@std@@@2@0@Z 0000000180088414     hashing.obj
 0002:00023430       $cppxdata$?erase@?$vector@_NV?$allocator@_N@std@@@std@@QEAA?AV?$_Vb_iterator@U?$_Wrap_alloc@V?$allocator@I@std@@@std@@@2@V?$_Vb_const_iterator@U?$_Wrap_alloc@V?$allocator@I@std@@@std@@@2@0@Z 0000000180088430     hashing.obj
 0002:00023435       $ip2state$?erase@?$vector@_NV?$allocator@_N@std@@@std@@QEAA?AV?$_Vb_iterator@U?$_Wrap_alloc@V?$allocator@I@std@@@std@@@2@V?$_Vb_const_iterator@U?$_Wrap_alloc@V?$allocator@I@std@@@std@@@2@0@Z 0000000180088435     hashing.obj
 0002:0002343c       $unwind$?_Insert_x@?$vector@_NV?$allocator@_N@std@@@std@@QEAA_KV?$_Vb_const_iterator@U?$_Wrap_alloc@V?$allocator@I@std@@@std@@@2@_K@Z 000000018008843c     hashing.obj
 0002:00023448       $chain$1$?_Insert_x@?$vector@_NV?$allocator@_N@std@@@std@@QEAA_KV?$_Vb_const_iterator@U?$_Wrap_alloc@V?$allocator@I@std@@@std@@@2@_K@Z 0000000180088448     hashing.obj
 0002:00023460       $chain$2$?_Insert_x@?$vector@_NV?$allocator@_N@std@@@std@@QEAA_KV?$_Vb_const_iterator@U?$_Wrap_alloc@V?$allocator@I@std@@@std@@@2@_K@Z 0000000180088460     hashing.obj
 0002:00023470       $unwind$?_Match_pat@?$_Matcher@PEBDDV?$regex_traits@D@std@@PEBD@std@@AEAA_NPEAV_Node_base@2@@Z 0000000180088470     hashing.obj
 0002:00023494       $cppxdata$?_Match_pat@?$_Matcher@PEBDDV?$regex_traits@D@std@@PEBD@std@@AEAA_NPEAV_Node_base@2@@Z 0000000180088494     hashing.obj
 0002:0002349d       $stateUnwindMap$?_Match_pat@?$_Matcher@PEBDDV?$regex_traits@D@std@@PEBD@std@@AEAA_NPEAV_Node_base@2@@Z 000000018008849d     hashing.obj
 0002:000234a4       $ip2state$?_Match_pat@?$_Matcher@PEBDDV?$regex_traits@D@std@@PEBD@std@@AEAA_NPEAV_Node_base@2@@Z 00000001800884a4     hashing.obj
 0002:000234b0       $unwind$??$_Resize_reallocate@U_Value_init_tag@std@@@?$vector@U_Grp_t@?$_Tgt_state_t@PEBD@std@@V?$allocator@U_Grp_t@?$_Tgt_state_t@PEBD@std@@@3@@std@@AEAAX_KAEBU_Value_init_tag@1@@Z 00000001800884b0     hashing.obj
 0002:000234b0       $unwind$??$_Resize_reallocate@U_Value_init_tag@std@@@?$vector@U_Loop_vals_t@std@@V?$allocator@U_Loop_vals_t@std@@@2@@std@@AEAAX_KAEBU_Value_init_tag@1@@Z 00000001800884b0     hashing.obj
 0002:000234bc       $chain$2$??$_Resize_reallocate@U_Value_init_tag@std@@@?$vector@U_Grp_t@?$_Tgt_state_t@PEBD@std@@V?$allocator@U_Grp_t@?$_Tgt_state_t@PEBD@std@@@3@@std@@AEAAX_KAEBU_Value_init_tag@1@@Z 00000001800884bc     hashing.obj
 0002:000234bc       $chain$2$??$_Resize_reallocate@U_Value_init_tag@std@@@?$vector@U_Loop_vals_t@std@@V?$allocator@U_Loop_vals_t@std@@@2@@std@@AEAAX_KAEBU_Value_init_tag@1@@Z 00000001800884bc     hashing.obj
 0002:000234d8       $chain$4$??$_Resize_reallocate@U_Value_init_tag@std@@@?$vector@U_Grp_t@?$_Tgt_state_t@PEBD@std@@V?$allocator@U_Grp_t@?$_Tgt_state_t@PEBD@std@@@3@@std@@AEAAX_KAEBU_Value_init_tag@1@@Z 00000001800884d8     hashing.obj
 0002:000234d8       $chain$4$??$_Resize_reallocate@U_Value_init_tag@std@@@?$vector@U_Loop_vals_t@std@@V?$allocator@U_Loop_vals_t@std@@@2@@std@@AEAAX_KAEBU_Value_init_tag@1@@Z 00000001800884d8     hashing.obj
 0002:000234f4       $chain$5$??$_Resize_reallocate@U_Value_init_tag@std@@@?$vector@U_Grp_t@?$_Tgt_state_t@PEBD@std@@V?$allocator@U_Grp_t@?$_Tgt_state_t@PEBD@std@@@3@@std@@AEAAX_KAEBU_Value_init_tag@1@@Z 00000001800884f4     hashing.obj
 0002:000234f4       $chain$5$??$_Resize_reallocate@U_Value_init_tag@std@@@?$vector@U_Loop_vals_t@std@@V?$allocator@U_Loop_vals_t@std@@@2@@std@@AEAAX_KAEBU_Value_init_tag@1@@Z 00000001800884f4     hashing.obj
 0002:00023504       $unwind$??0?$_Bt_state_t@PEBD@std@@QEAA@AEBV01@@Z 0000000180088504     hashing.obj
 0002:00023514       $chain$1$??0?$_Bt_state_t@PEBD@std@@QEAA@AEBV01@@Z 0000000180088514     hashing.obj
 0002:0002352c       $chain$2$??0?$_Bt_state_t@PEBD@std@@QEAA@AEBV01@@Z 000000018008852c     hashing.obj
 0002:0002353c       $unwind$??4?$_Tgt_state_t@PEBD@std@@QEAAAEAV01@AEBV01@@Z 000000018008853c     hashing.obj
 0002:00023548       $chain$2$??4?$_Tgt_state_t@PEBD@std@@QEAAAEAV01@AEBV01@@Z 0000000180088548     hashing.obj
 0002:00023564       $chain$3$??4?$_Tgt_state_t@PEBD@std@@QEAAAEAV01@AEBV01@@Z 0000000180088564     hashing.obj
 0002:00023574       $unwind$??4?$_Bt_state_t@PEBD@std@@QEAAAEAV01@AEBV01@@Z 0000000180088574     hashing.obj
 0002:00023580       $chain$2$??4?$_Bt_state_t@PEBD@std@@QEAAAEAV01@AEBV01@@Z 0000000180088580     hashing.obj
 0002:0002359c       $chain$3$??4?$_Bt_state_t@PEBD@std@@QEAAAEAV01@AEBV01@@Z 000000018008859c     hashing.obj
 0002:000235ac       $unwind$??1?$vector@V?$function@$$A6AX_J@Z@std@@V?$allocator@V?$function@$$A6AX_J@Z@std@@@2@@std@@QEAA@XZ 00000001800885ac     IntChecker2-Far3.obj
 0002:000235ac       $unwind$?_CharacterClass@?$_Parser@PEBDDV?$regex_traits@D@std@@@std@@AEAAXXZ 00000001800885ac     hashing.obj
 0002:000235b8       $chain$0$?_CharacterClass@?$_Parser@PEBDDV?$regex_traits@D@std@@@std@@AEAAXXZ 00000001800885b8     hashing.obj
 0002:000235cc       $chain$1$?_CharacterClass@?$_Parser@PEBDDV?$regex_traits@D@std@@@std@@AEAAXXZ 00000001800885cc     hashing.obj
 0002:000235dc       $chain$0$?_AtomEscape@?$_Parser@PEBDDV?$regex_traits@D@std@@@std@@AEAAXXZ 00000001800885dc     hashing.obj
 0002:000235f0       $chain$1$?_AtomEscape@?$_Parser@PEBDDV?$regex_traits@D@std@@@std@@AEAAXXZ 00000001800885f0     hashing.obj
 0002:000235f0       $chain$3$?_AtomEscape@?$_Parser@PEBDDV?$regex_traits@D@std@@@std@@AEAAXXZ 00000001800885f0     hashing.obj
 0002:000235f0       $chain$5$?_AtomEscape@?$_Parser@PEBDDV?$regex_traits@D@std@@@std@@AEAAXXZ 00000001800885f0     hashing.obj
 0002:00023600       $chain$2$?_AtomEscape@?$_Parser@PEBDDV?$regex_traits@D@std@@@std@@AEAAXXZ 0000000180088600     hashing.obj
 0002:00023600       $chain$4$?_AtomEscape@?$_Parser@PEBDDV?$regex_traits@D@std@@@std@@AEAAXXZ 0000000180088600     hashing.obj
 0002:00023600       $chain$6$?_AtomEscape@?$_Parser@PEBDDV?$regex_traits@D@std@@@std@@AEAAXXZ 0000000180088600     hashing.obj
 0002:00023614       $unwind$?_Wrapped_disjunction@?$_Parser@PEBDDV?$regex_traits@D@std@@@std@@AEAA_NXZ 0000000180088614     hashing.obj
 0002:0002361c       $chain$1$?_Wrapped_disjunction@?$_Parser@PEBDDV?$regex_traits@D@std@@@std@@AEAA_NXZ 000000018008861c     hashing.obj
 0002:00023634       $chain$3$?_Wrapped_disjunction@?$_Parser@PEBDDV?$regex_traits@D@std@@@std@@AEAA_NXZ 0000000180088634     hashing.obj
 0002:00023634       $chain$5$?_Wrapped_disjunction@?$_Parser@PEBDDV?$regex_traits@D@std@@@std@@AEAA_NXZ 0000000180088634     hashing.obj
 0002:00023634       $chain$9$?_Wrapped_disjunction@?$_Parser@PEBDDV?$regex_traits@D@std@@@std@@AEAA_NXZ 0000000180088634     hashing.obj
 0002:0002364c       $chain$6$?_Wrapped_disjunction@?$_Parser@PEBDDV?$regex_traits@D@std@@@std@@AEAA_NXZ 000000018008864c     hashing.obj
 0002:00023660       $chain$7$?_Wrapped_disjunction@?$_Parser@PEBDDV?$regex_traits@D@std@@@std@@AEAA_NXZ 0000000180088660     hashing.obj
 0002:00023670       $chain$10$?_Wrapped_disjunction@?$_Parser@PEBDDV?$regex_traits@D@std@@@std@@AEAA_NXZ 0000000180088670     hashing.obj
 0002:00023680       $chain$0$?_Quantifier@?$_Parser@PEBDDV?$regex_traits@D@std@@@std@@AEAAXXZ 0000000180088680     hashing.obj
 0002:00023694       $chain$1$?_Quantifier@?$_Parser@PEBDDV?$regex_traits@D@std@@@std@@AEAAXXZ 0000000180088694     hashing.obj
 0002:00023694       $chain$3$?_Quantifier@?$_Parser@PEBDDV?$regex_traits@D@std@@@std@@AEAAXXZ 0000000180088694     hashing.obj
 0002:000236a4       $chain$2$?_Quantifier@?$_Parser@PEBDDV?$regex_traits@D@std@@@std@@AEAAXXZ 00000001800886a4     hashing.obj
 0002:000236b8       $unwind$?_Add_char@?$_Builder@PEBDDV?$regex_traits@D@std@@@std@@QEAAXD@Z 00000001800886b8     hashing.obj
 0002:000236c8       $unwind$?_Do_if@?$_Matcher@PEBDDV?$regex_traits@D@std@@PEBD@std@@AEAA_NPEAV_Node_if@2@@Z 00000001800886c8     hashing.obj
 0002:000236f0       $cppxdata$?_Do_if@?$_Matcher@PEBDDV?$regex_traits@D@std@@PEBD@std@@AEAA_NPEAV_Node_if@2@@Z 00000001800886f0     hashing.obj
 0002:000236f9       $stateUnwindMap$?_Do_if@?$_Matcher@PEBDDV?$regex_traits@D@std@@PEBD@std@@AEAA_NPEAV_Node_if@2@@Z 00000001800886f9     hashing.obj
 0002:00023712       $ip2state$?_Do_if@?$_Matcher@PEBDDV?$regex_traits@D@std@@PEBD@std@@AEAA_NPEAV_Node_if@2@@Z 0000000180088712     hashing.obj
 0002:00023728       $unwind$?_Do_rep@?$_Matcher@PEBDDV?$regex_traits@D@std@@PEBD@std@@AEAA_NPEAV_Node_rep@2@_NH@Z 0000000180088728     hashing.obj
 0002:00023748       $cppxdata$?_Do_rep@?$_Matcher@PEBDDV?$regex_traits@D@std@@PEBD@std@@AEAA_NPEAV_Node_rep@2@_NH@Z 0000000180088748     hashing.obj
 0002:00023751       $stateUnwindMap$?_Do_rep@?$_Matcher@PEBDDV?$regex_traits@D@std@@PEBD@std@@AEAA_NPEAV_Node_rep@2@_NH@Z 0000000180088751     hashing.obj
 0002:0002375e       $ip2state$?_Do_rep@?$_Matcher@PEBDDV?$regex_traits@D@std@@PEBD@std@@AEAA_NPEAV_Node_rep@2@_NH@Z 000000018008875e     hashing.obj
 0002:00023768       $unwind$?_Do_class@?$_Matcher@PEBDDV?$regex_traits@D@std@@PEBD@std@@AEAA_NPEAV_Node_base@2@@Z 0000000180088768     hashing.obj
 0002:00023774       $chain$5$?_Do_class@?$_Matcher@PEBDDV?$regex_traits@D@std@@PEBD@std@@AEAA_NPEAV_Node_base@2@@Z 0000000180088774     hashing.obj
 0002:0002379c       $chain$6$?_Do_class@?$_Matcher@PEBDDV?$regex_traits@D@std@@PEBD@std@@AEAA_NPEAV_Node_base@2@@Z 000000018008879c     hashing.obj
 0002:000237ac       $unwind$??$_Resize_reallocate@U_Value_init_tag@std@@@?$vector@V?$sub_match@PEBD@std@@V?$allocator@V?$sub_match@PEBD@std@@@2@@std@@AEAAX_KAEBU_Value_init_tag@1@@Z 00000001800887ac     hashing.obj
 0002:000237b8       $chain$4$??$_Resize_reallocate@U_Value_init_tag@std@@@?$vector@V?$sub_match@PEBD@std@@V?$allocator@V?$sub_match@PEBD@std@@@2@@std@@AEAAX_KAEBU_Value_init_tag@1@@Z 00000001800887b8     hashing.obj
 0002:000237dc       $chain$6$??$_Resize_reallocate@U_Value_init_tag@std@@@?$vector@V?$sub_match@PEBD@std@@V?$allocator@V?$sub_match@PEBD@std@@@2@@std@@AEAAX_KAEBU_Value_init_tag@1@@Z 00000001800887dc     hashing.obj
 0002:00023800       $chain$7$??$_Resize_reallocate@U_Value_init_tag@std@@@?$vector@V?$sub_match@PEBD@std@@V?$allocator@V?$sub_match@PEBD@std@@@2@@std@@AEAAX_KAEBU_Value_init_tag@1@@Z 0000000180088800     hashing.obj
 0002:00023810       $unwind$??$_Resize_reallocate@I@?$vector@IV?$allocator@I@std@@@std@@AEAAX_KAEBI@Z 0000000180088810     hashing.obj
 0002:00023810       $unwind$?_Add_range@?$_Builder@PEBDDV?$regex_traits@D@std@@@std@@QEAAXDD@Z 0000000180088810     hashing.obj
 0002:00023820       $chain$0$??$_Resize_reallocate@I@?$vector@IV?$allocator@I@std@@@std@@AEAAX_KAEBI@Z 0000000180088820     hashing.obj
 0002:00023834       $chain$1$??$_Resize_reallocate@I@?$vector@IV?$allocator@I@std@@@std@@AEAAX_KAEBI@Z 0000000180088834     hashing.obj
 0002:00023848       $chain$2$??$_Resize_reallocate@I@?$vector@IV?$allocator@I@std@@@std@@AEAAX_KAEBI@Z 0000000180088848     hashing.obj
 0002:00023858       $chain$3$??$_Resize_reallocate@I@?$vector@IV?$allocator@I@std@@@std@@AEAAX_KAEBI@Z 0000000180088858     hashing.obj
 0002:00023868       $chain$4$??$_Resize_reallocate@I@?$vector@IV?$allocator@I@std@@@std@@AEAAX_KAEBI@Z 0000000180088868     hashing.obj
 0002:0002387c       $unwind$?translate@?$_Regex_traits@D@std@@QEBADD@Z 000000018008887c     hashing.obj
 0002:0002388c       $unwind$?CompareParamsDlgProc@@YA_JPEAX_J10@Z 000000018008888c     IntChecker2-Far3.obj
 0002:0002388c       $unwind$??_G?$_Node_class@DV?$regex_traits@D@std@@@std@@UEAAPEAXI@Z 000000018008888c     hashing.obj
 0002:0002388c       $unwind$?do_scan_is@?$ctype@_W@std@@MEBAPEB_WFPEB_W0@Z 000000018008888c     hashing.obj
 0002:0002388c       $unwind$?do_scan_not@?$ctype@_W@std@@MEBAPEB_WFPEB_W0@Z 000000018008888c     hashing.obj
 0002:0002388c       $unwind$__scrt_dllmain_exception_filter 000000018008888c     LIBCMT:utility.obj
 0002:0002388c       $unwind$?GetHandlerSearchState@__FrameHandler3@@SAHPEA_KPEAU_xDISPATCHER_CONTEXT@@PEBU_s_FuncInfo@@@Z 000000018008888c     libvcruntime:frame.obj
 0002:0002388c       $unwind$?Is_bad_exception_allowed@@YAEPEBU_s_ESTypeList@@@Z 000000018008888c     libvcruntime:frame.obj
 0002:0002388c       $unwind$_recalloc_base     000000018008888c     libucrt:recalloc.obj
 0002:0002388c       $unwind$__acrt_free_locale 000000018008888c     libucrt:locale_refcounting.obj
 0002:0002388c       $unwind$__acrt_lowio_create_handle_array 000000018008888c     libucrt:osfinfo.obj
 0002:0002388c       $unwind$_seh_filter_exe    000000018008888c     libucrt:exception_filter.obj
 0002:0002388c       $unwind$__acrt_stdio_flush_nolock 000000018008888c     libucrt:fflush.obj
 0002:0002388c       $unwind$??$ensure_buffer_is_big_enough@D@formatting_buffer@__crt_stdio_output@@QEAA_N_KAEAV__crt_cached_ptd_host@@@Z 000000018008888c     libucrt:output.obj
 0002:0002388c       $unwind$??$ensure_buffer_is_big_enough@_W@formatting_buffer@__crt_stdio_output@@QEAA_N_KAEAV__crt_cached_ptd_host@@@Z 000000018008888c     libucrt:output.obj
 0002:0002388c       $unwind$rhash_gost94_update 000000018008888c     rhash:gost94.obj
 0002:0002388c       $unwind$rhash_md4_update   000000018008888c     rhash:md4.obj
 0002:0002388c       $unwind$rhash_sha3_final   000000018008888c     rhash:sha3.obj
 0002:0002388c       $unwind$rhash_tiger_update 000000018008888c     rhash:tiger.obj
 0002:0002388c       $unwind$rhash_whirlpool_update 000000018008888c     rhash:whirlpool.obj
 0002:000238a0       $chain$0$?_CharacterClassEscape@?$_Parser@PEBDDV?$regex_traits@D@std@@@std@@AEAA_N_N@Z 00000001800888a0     hashing.obj
 0002:000238b4       $chain$1$?_CharacterClassEscape@?$_Parser@PEBDDV?$regex_traits@D@std@@@std@@AEAA_N_N@Z 00000001800888b4     hashing.obj
 0002:000238c4       $chain$1$?_ClassRanges@?$_Parser@PEBDDV?$regex_traits@D@std@@@std@@AEAAXXZ 00000001800888c4     hashing.obj
 0002:000238dc       $chain$3$?_ClassRanges@?$_Parser@PEBDDV?$regex_traits@D@std@@@std@@AEAAXXZ 00000001800888dc     hashing.obj
 0002:000238dc       $chain$5$?_ClassRanges@?$_Parser@PEBDDV?$regex_traits@D@std@@@std@@AEAAXXZ 00000001800888dc     hashing.obj
 0002:000238f4       $chain$4$?_ClassRanges@?$_Parser@PEBDDV?$regex_traits@D@std@@@std@@AEAAXXZ 00000001800888f4     hashing.obj
 0002:00023904       $chain$0$?_CharacterEscape@?$_Parser@PEBDDV?$regex_traits@D@std@@@std@@AEAA_NXZ 0000000180088904     hashing.obj
 0002:00023918       $chain$1$?_CharacterEscape@?$_Parser@PEBDDV?$regex_traits@D@std@@@std@@AEAA_NXZ 0000000180088918     hashing.obj
 0002:00023928       $unwind$?_Do_assert_group@?$_Parser@PEBDDV?$regex_traits@D@std@@@std@@AEAAX_N@Z 0000000180088928     hashing.obj
 0002:00023944       $cppxdata$?_Do_assert_group@?$_Parser@PEBDDV?$regex_traits@D@std@@@std@@AEAAX_N@Z 0000000180088944     hashing.obj
 0002:0002394d       $stateUnwindMap$?_Do_assert_group@?$_Parser@PEBDDV?$regex_traits@D@std@@@std@@AEAAX_N@Z 000000018008894d     hashing.obj
 0002:00023954       $ip2state$?_Do_assert_group@?$_Parser@PEBDDV?$regex_traits@D@std@@@std@@AEAAX_N@Z 0000000180088954     hashing.obj
 0002:0002395c       $unwind$?_Add_rep@?$_Builder@PEBDDV?$regex_traits@D@std@@@std@@QEAAXHH_N@Z 000000018008895c     hashing.obj
 0002:00023974       $chain$2$?_Add_rep@?$_Builder@PEBDDV?$regex_traits@D@std@@@std@@QEAAXHH_N@Z 0000000180088974     hashing.obj
 0002:00023988       $chain$3$?_Add_rep@?$_Builder@PEBDDV?$regex_traits@D@std@@@std@@QEAAXHH_N@Z 0000000180088988     hashing.obj
 0002:00023998       $unwind$?_Do_rep0@?$_Matcher@PEBDDV?$regex_traits@D@std@@PEBD@std@@AEAA_NPEAV_Node_rep@2@_N@Z 0000000180088998     hashing.obj
 0002:000239bc       $cppxdata$?_Do_rep0@?$_Matcher@PEBDDV?$regex_traits@D@std@@PEBD@std@@AEAA_NPEAV_Node_rep@2@_N@Z 00000001800889bc     hashing.obj
 0002:000239c5       $stateUnwindMap$?_Do_rep0@?$_Matcher@PEBDDV?$regex_traits@D@std@@PEBD@std@@AEAA_NPEAV_Node_rep@2@_N@Z 00000001800889c5     hashing.obj
 0002:000239e0       $ip2state$?_Do_rep0@?$_Matcher@PEBDDV?$regex_traits@D@std@@PEBD@std@@AEAA_NPEAV_Node_rep@2@_N@Z 00000001800889e0     hashing.obj
 0002:000239f4       $chain$0$?_ClassAtom@?$_Parser@PEBDDV?$regex_traits@D@std@@@std@@AEAA?AW4_Prs_ret@2@XZ 00000001800889f4     hashing.obj
 0002:00023a08       $chain$2$?_ClassAtom@?$_Parser@PEBDDV?$regex_traits@D@std@@@std@@AEAA?AW4_Prs_ret@2@XZ 0000000180088a08     hashing.obj
 0002:00023a1c       $chain$3$?_ClassAtom@?$_Parser@PEBDDV?$regex_traits@D@std@@@std@@AEAA?AW4_Prs_ret@2@XZ 0000000180088a1c     hashing.obj
 0002:00023a2c       $chain$0$?_Add_range@?$_Builder@PEBDDV?$regex_traits@D@std@@@std@@QEAAXDD@Z 0000000180088a2c     hashing.obj
 0002:00023a40       $chain$1$?_Add_range@?$_Builder@PEBDDV?$regex_traits@D@std@@@std@@QEAAXDD@Z 0000000180088a40     hashing.obj
 0002:00023a50       $chain$2$?_Add_range@?$_Builder@PEBDDV?$regex_traits@D@std@@@std@@QEAAXDD@Z 0000000180088a50     hashing.obj
 0002:00023a64       $unwind$?_Add_named_class@?$_Builder@PEBDDV?$regex_traits@D@std@@@std@@QEAAXF_N@Z 0000000180088a64     hashing.obj
 0002:00023a64       $unwind$?GetEstablisherFrame@__FrameHandler3@@SAPEA_KPEA_KPEAU_xDISPATCHER_CONTEXT@@PEBU_s_FuncInfo@@0@Z 0000000180088a64     libvcruntime:risctrnsctrl.obj
 0002:00023a7c       $unwind$??$lookup_classname@PEBD@?$_Regex_traits@D@std@@QEBAFPEBD0_N@Z 0000000180088a7c     hashing.obj
 0002:00023a84       $chain$2$??$lookup_classname@PEBD@?$_Regex_traits@D@std@@QEBAFPEBD0_N@Z 0000000180088a84     hashing.obj
 0002:00023aa0       $chain$6$??$lookup_classname@PEBD@?$_Regex_traits@D@std@@QEBAFPEBD0_N@Z 0000000180088aa0     hashing.obj
 0002:00023ac0       $chain$7$??$lookup_classname@PEBD@?$_Regex_traits@D@std@@QEBAFPEBD0_N@Z 0000000180088ac0     hashing.obj
 0002:00023ad0       $chain$8$??$lookup_classname@PEBD@?$_Regex_traits@D@std@@QEBAFPEBD0_N@Z 0000000180088ad0     hashing.obj
 0002:00023ae0       $chain$9$??$lookup_classname@PEBD@?$_Regex_traits@D@std@@QEBAFPEBD0_N@Z 0000000180088ae0     hashing.obj
 0002:00023b0c       $unwind$??$_Reallocate_grow_by@V<lambda_319d5e083f45f90dcdce5dce53cbb275>@@D@?$basic_string@DU?$char_traits@D@std@@V?$allocator@D@2@@std@@AEAAAEAV01@_KV<lambda_319d5e083f45f90dcdce5dce53cbb275>@@D@Z 0000000180088b0c     hashing.obj
 0002:00023b1c       $chain$2$??$_Reallocate_grow_by@V<lambda_319d5e083f45f90dcdce5dce53cbb275>@@D@?$basic_string@DU?$char_traits@D@std@@V?$allocator@D@2@@std@@AEAAAEAV01@_KV<lambda_319d5e083f45f90dcdce5dce53cbb275>@@D@Z 0000000180088b1c     hashing.obj
 0002:00023b38       $chain$4$??$_Reallocate_grow_by@V<lambda_319d5e083f45f90dcdce5dce53cbb275>@@D@?$basic_string@DU?$char_traits@D@std@@V?$allocator@D@2@@std@@AEAAAEAV01@_KV<lambda_319d5e083f45f90dcdce5dce53cbb275>@@D@Z 0000000180088b38     hashing.obj
 0002:00023b54       $chain$5$??$_Reallocate_grow_by@V<lambda_319d5e083f45f90dcdce5dce53cbb275>@@D@?$basic_string@DU?$char_traits@D@std@@V?$allocator@D@2@@std@@AEAAAEAV01@_KV<lambda_319d5e083f45f90dcdce5dce53cbb275>@@D@Z 0000000180088b54     hashing.obj
 0002:00023b64       $unwind$?_Do_ex_class@?$_Parser@PEBDDV?$regex_traits@D@std@@@std@@AEAAXW4_Meta_type@2@@Z 0000000180088b64     hashing.obj
 0002:00023b7c       $unwind$?_Add_equiv@?$_Builder@PEBDDV?$regex_traits@D@std@@@std@@QEAAXPEBD0_J@Z 0000000180088b7c     hashing.obj
 0002:00023b98       $cppxdata$?_Add_equiv@?$_Builder@PEBDDV?$regex_traits@D@std@@@std@@QEAAXPEBD0_J@Z 0000000180088b98     hashing.obj
 0002:00023ba1       $stateUnwindMap$??0system_error@std@@QEAA@Verror_code@1@@Z 0000000180088ba1     IntChecker2-Far3.obj
 0002:00023ba1       $stateUnwindMap$??0failure@ios_base@std@@QEAA@PEBDAEBVerror_code@2@@Z 0000000180088ba1     hashing.obj
 0002:00023ba1       $stateUnwindMap$?_Add_equiv@?$_Builder@PEBDDV?$regex_traits@D@std@@@std@@QEAAXPEBD0_J@Z 0000000180088ba1     hashing.obj
 0002:00023ba8       $ip2state$?_Add_equiv@?$_Builder@PEBDDV?$regex_traits@D@std@@@std@@QEAAXPEBD0_J@Z 0000000180088ba8     hashing.obj
 0002:00023bb4       $unwind$?_Char_to_elts@?$_Builder@PEBDDV?$regex_traits@D@std@@@std@@AEAAXPEBD0_JPEAPEAU?$_Sequence@D@2@@Z 0000000180088bb4     hashing.obj
 0002:00023bc8       $chain$0$?_Char_to_elts@?$_Builder@PEBDDV?$regex_traits@D@std@@@std@@AEAAXPEBD0_JPEAPEAU?$_Sequence@D@2@@Z 0000000180088bc8     hashing.obj
 0002:00023bdc       $chain$1$?_Char_to_elts@?$_Builder@PEBDDV?$regex_traits@D@std@@@std@@AEAAXPEBD0_JPEAPEAU?$_Sequence@D@2@@Z 0000000180088bdc     hashing.obj
 0002:00023bec       $unwind$??$transform_primary@PEAD@?$_Regex_traits@D@std@@QEBA?AV?$basic_string@DU?$char_traits@D@std@@V?$allocator@D@2@@1@PEAD0@Z 0000000180088bec     hashing.obj
 0002:00023bec       $unwind$??$transform_primary@PEBD@?$_Regex_traits@D@std@@QEBA?AV?$basic_string@DU?$char_traits@D@std@@V?$allocator@D@2@@1@PEBD0@Z 0000000180088bec     hashing.obj
 0002:00023c10       $cppxdata$??$transform_primary@PEAD@?$_Regex_traits@D@std@@QEBA?AV?$basic_string@DU?$char_traits@D@std@@V?$allocator@D@2@@1@PEAD0@Z 0000000180088c10     hashing.obj
 0002:00023c10       $cppxdata$??$transform_primary@PEBD@?$_Regex_traits@D@std@@QEBA?AV?$basic_string@DU?$char_traits@D@std@@V?$allocator@D@2@@1@PEBD0@Z 0000000180088c10     hashing.obj
 0002:00023c19       $stateUnwindMap$??$transform_primary@PEAD@?$_Regex_traits@D@std@@QEBA?AV?$basic_string@DU?$char_traits@D@std@@V?$allocator@D@2@@1@PEAD0@Z 0000000180088c19     hashing.obj
 0002:00023c19       $stateUnwindMap$??$transform_primary@PEBD@?$_Regex_traits@D@std@@QEBA?AV?$basic_string@DU?$char_traits@D@std@@V?$allocator@D@2@@1@PEBD0@Z 0000000180088c19     hashing.obj
 0002:00023c25       $ip2state$??$transform_primary@PEAD@?$_Regex_traits@D@std@@QEBA?AV?$basic_string@DU?$char_traits@D@std@@V?$allocator@D@2@@1@PEAD0@Z 0000000180088c25     hashing.obj
 0002:00023c25       $ip2state$??$transform_primary@PEBD@?$_Regex_traits@D@std@@QEBA?AV?$basic_string@DU?$char_traits@D@std@@V?$allocator@D@2@@1@PEBD0@Z 0000000180088c25     hashing.obj
 0002:00023c34       $chain$0$?do_tolower@?$ctype@_W@std@@MEBAPEB_WPEA_WPEB_W@Z 0000000180088c34     hashing.obj
 0002:00023c48       $chain$1$?do_tolower@?$ctype@_W@std@@MEBAPEB_WPEA_WPEB_W@Z 0000000180088c48     hashing.obj
 0002:00023c58       $chain$0$?do_toupper@?$ctype@_W@std@@MEBAPEB_WPEA_WPEB_W@Z 0000000180088c58     hashing.obj
 0002:00023c6c       $chain$1$?do_toupper@?$ctype@_W@std@@MEBAPEB_WPEA_WPEB_W@Z 0000000180088c6c     hashing.obj
 0002:00023c7c       $unwind$?do_widen@?$ctype@_W@std@@MEBAPEBDPEBD0PEA_W@Z 0000000180088c7c     hashing.obj
 0002:00023c88       $chain$2$?do_widen@?$ctype@_W@std@@MEBAPEBDPEBD0PEA_W@Z 0000000180088c88     hashing.obj
 0002:00023ca4       $chain$3$?do_widen@?$ctype@_W@std@@MEBAPEBDPEBD0PEA_W@Z 0000000180088ca4     hashing.obj
 0002:00023cb4       $unwind$?do_narrow@?$ctype@_W@std@@MEBAPEB_WPEB_W0DPEAD@Z 0000000180088cb4     hashing.obj
 0002:00023ccc       $chain$1$?do_narrow@?$ctype@_W@std@@MEBAPEB_WPEB_W0DPEAD@Z 0000000180088ccc     hashing.obj
 0002:00023ce4       $chain$2$?do_narrow@?$ctype@_W@std@@MEBAPEB_WPEB_W0DPEAD@Z 0000000180088ce4     hashing.obj
 0002:00023cf4       $unwind$?do_narrow@?$ctype@_W@std@@MEBAD_WD@Z 0000000180088cf4     hashing.obj
 0002:00023d04       $unwind$?_Getcat@?$ctype@_W@std@@SA_KPEAPEBVfacet@locale@2@PEBV42@@Z 0000000180088d04     hashing.obj
 0002:00023d24       $cppxdata$?_Getcat@?$ctype@_W@std@@SA_KPEAPEBVfacet@locale@2@PEBV42@@Z 0000000180088d24     hashing.obj
 0002:00023d2d       $stateUnwindMap$?_Getcat@?$ctype@_W@std@@SA_KPEAPEBVfacet@locale@2@PEBV42@@Z 0000000180088d2d     hashing.obj
 0002:00023d5d       $ip2state$?_Getcat@?$ctype@_W@std@@SA_KPEAPEBVfacet@locale@2@PEBV42@@Z 0000000180088d5d     hashing.obj
 0002:00023d68       $unwind$??$_Reallocate_grow_by@V<lambda_65e615be2a453ca0576c979606f46740>@@PEBD_K@?$basic_string@DU?$char_traits@D@std@@V?$allocator@D@2@@std@@AEAAAEAV01@_KV<lambda_65e615be2a453ca0576c979606f46740>@@PEBD_K@Z 0000000180088d68     hashing.obj
 0002:00023d78       $chain$3$??$_Reallocate_grow_by@V<lambda_65e615be2a453ca0576c979606f46740>@@PEBD_K@?$basic_string@DU?$char_traits@D@std@@V?$allocator@D@2@@std@@AEAAAEAV01@_KV<lambda_65e615be2a453ca0576c979606f46740>@@PEBD_K@Z 0000000180088d78     hashing.obj
 0002:00023d98       $chain$5$??$_Reallocate_grow_by@V<lambda_65e615be2a453ca0576c979606f46740>@@PEBD_K@?$basic_string@DU?$char_traits@D@std@@V?$allocator@D@2@@std@@AEAAAEAV01@_KV<lambda_65e615be2a453ca0576c979606f46740>@@PEBD_K@Z 0000000180088d98     hashing.obj
 0002:00023db8       $chain$6$??$_Reallocate_grow_by@V<lambda_65e615be2a453ca0576c979606f46740>@@PEBD_K@?$basic_string@DU?$char_traits@D@std@@V?$allocator@D@2@@std@@AEAAAEAV01@_KV<lambda_65e615be2a453ca0576c979606f46740>@@PEBD_K@Z 0000000180088db8     hashing.obj
 0002:00023dc8       $unwind$?append@?$basic_string@DU?$char_traits@D@std@@V?$allocator@D@2@@std@@QEAAAEAV12@QEBD_K@Z 0000000180088dc8     hashing.obj
 0002:00023dd4       $chain$0$?append@?$basic_string@DU?$char_traits@D@std@@V?$allocator@D@2@@std@@QEAAAEAV12@QEBD_K@Z 0000000180088dd4     hashing.obj
 0002:00023de8       $chain$1$?append@?$basic_string@DU?$char_traits@D@std@@V?$allocator@D@2@@std@@QEAAAEAV12@QEBD_K@Z 0000000180088de8     hashing.obj
 0002:00023df8       $unwind$??0_System_error@std@@IEAA@Verror_code@1@AEBV?$basic_string@DU?$char_traits@D@std@@V?$allocator@D@2@@1@@Z 0000000180088df8     hashing.obj
 0002:00023e18       $cppxdata$??0_System_error@std@@IEAA@Verror_code@1@AEBV?$basic_string@DU?$char_traits@D@std@@V?$allocator@D@2@@1@@Z 0000000180088e18     hashing.obj
 0002:00023e21       $stateUnwindMap$??0_System_error@std@@IEAA@Verror_code@1@AEBV?$basic_string@DU?$char_traits@D@std@@V?$allocator@D@2@@1@@Z 0000000180088e21     hashing.obj
 0002:00023e2e       $ip2state$??0_System_error@std@@IEAA@Verror_code@1@AEBV?$basic_string@DU?$char_traits@D@std@@V?$allocator@D@2@@1@@Z 0000000180088e2e     hashing.obj
 0002:00023e3c       $unwind$??0failure@ios_base@std@@QEAA@PEBDAEBVerror_code@2@@Z 0000000180088e3c     hashing.obj
 0002:00023e54       $cppxdata$??0failure@ios_base@std@@QEAA@PEBDAEBVerror_code@2@@Z 0000000180088e54     hashing.obj
 0002:00023e5d       $ip2state$??0failure@ios_base@std@@QEAA@PEBDAEBVerror_code@2@@Z 0000000180088e5d     hashing.obj
 0002:00023e64       $unwind$?clear@ios_base@std@@QEAAXH_N@Z 0000000180088e64     hashing.obj
 0002:00023e6c       $chain$0$?do_tolower@?$ctype@D@std@@MEBAPEBDPEADPEBD@Z 0000000180088e6c     hashing.obj
 0002:00023e80       $chain$1$?do_tolower@?$ctype@D@std@@MEBAPEBDPEADPEBD@Z 0000000180088e80     hashing.obj
 0002:00023e90       $chain$0$?do_toupper@?$ctype@D@std@@MEBAPEBDPEADPEBD@Z 0000000180088e90     hashing.obj
 0002:00023ea4       $chain$1$?do_toupper@?$ctype@D@std@@MEBAPEBDPEADPEBD@Z 0000000180088ea4     hashing.obj
 0002:00023eb4       $unwind$?_Getcat@?$ctype@D@std@@SA_KPEAPEBVfacet@locale@2@PEBV42@@Z 0000000180088eb4     hashing.obj
 0002:00023ed4       $cppxdata$?_Getcat@?$ctype@D@std@@SA_KPEAPEBVfacet@locale@2@PEBV42@@Z 0000000180088ed4     hashing.obj
 0002:00023edd       $stateUnwindMap$?_Getcat@?$ctype@D@std@@SA_KPEAPEBVfacet@locale@2@PEBV42@@Z 0000000180088edd     hashing.obj
 0002:00023f0d       $ip2state$?_Getcat@?$ctype@D@std@@SA_KPEAPEBVfacet@locale@2@PEBV42@@Z 0000000180088f0d     hashing.obj
 0002:00023f18       $unwind$?assign@?$basic_string@DU?$char_traits@D@std@@V?$allocator@D@2@@std@@QEAAAEAV12@QEBD_K@Z 0000000180088f18     hashing.obj
 0002:00023f2c       $chain$0$?assign@?$basic_string@DU?$char_traits@D@std@@V?$allocator@D@2@@std@@QEAAAEAV12@QEBD_K@Z 0000000180088f2c     hashing.obj
 0002:00023f40       $chain$1$?assign@?$basic_string@DU?$char_traits@D@std@@V?$allocator@D@2@@std@@QEAAAEAV12@QEBD_K@Z 0000000180088f40     hashing.obj
 0002:00023f50       $chain$2$?assign@?$basic_string@DU?$char_traits@D@std@@V?$allocator@D@2@@std@@QEAAAEAV12@QEBD_K@Z 0000000180088f50     hashing.obj
 0002:00023f64       $unwind$?SaveValue@PluginListControlBinding@@UEAAXPEAUFarDialogItem@@H@Z 0000000180088f64     IntChecker2-Far3.obj
 0002:00023f64       $unwind$__std_system_error_allocate_message 0000000180088f64     libcpmt:syserror_import_lib.obj
 0002:00023f64       $unwind$__dcrt_lowio_ensure_console_output_initialized 0000000180088f64     libucrt:initcon.obj
 0002:00023f64       $unwind$?__mbrtowc_utf8@__crt_mbstring@@YA_KPEA_WPEBD_KPEAU_Mbstatet@@AEAV__crt_cached_ptd_host@@@Z 0000000180088f64     libucrt:mbrtowc.obj
 0002:00023f64       $unwind$?getSystemCP@@YAHH@Z 0000000180088f64     libucrt:mbctype.obj
 0002:00023f6c       $unwind$?DoShowDialog@PluginDialogBuilder@@MEAA_JXZ 0000000180088f6c     IntChecker2-Far3.obj
 0002:00023f78       $unwind$?AddListControl@PluginDialogBuilder@@IEAAPEAUFarDialogItem@@W4FARDIALOGITEMTYPES@@PEAHPEA_WHHPEBQEB_W_K4@Z 0000000180088f78     IntChecker2-Far3.obj
 0002:00023f90       $unwind$??1PluginDialogBuilder@@UEAA@XZ 0000000180088f90     IntChecker2-Far3.obj
 0002:00023fa8       $cppxdata$??1PluginDialogBuilder@@UEAA@XZ 0000000180088fa8     IntChecker2-Far3.obj
 0002:00023fad       $ip2state$??1PluginDialogBuilder@@UEAA@XZ 0000000180088fad     IntChecker2-Far3.obj
 0002:00023fb0       $unwind$?AddIntEditField@PluginDialogBuilder@@UEAAPEAUFarDialogItem@@PEAHH@Z 0000000180088fb0     IntChecker2-Far3.obj
 0002:00023fb0       $unwind$?AddUIntEditField@PluginDialogBuilder@@UEAAPEAUFarDialogItem@@PEAIH@Z 0000000180088fb0     IntChecker2-Far3.obj
 0002:00023fd0       $cppxdata$?AddIntEditField@PluginDialogBuilder@@UEAAPEAUFarDialogItem@@PEAHH@Z 0000000180088fd0     IntChecker2-Far3.obj
 0002:00023fd0       $cppxdata$?AddUIntEditField@PluginDialogBuilder@@UEAAPEAUFarDialogItem@@PEAIH@Z 0000000180088fd0     IntChecker2-Far3.obj
 0002:00023fd9       $stateUnwindMap$?AddIntEditField@PluginDialogBuilder@@UEAAPEAUFarDialogItem@@PEAHH@Z 0000000180088fd9     IntChecker2-Far3.obj
 0002:00023fd9       $stateUnwindMap$?AddUIntEditField@PluginDialogBuilder@@UEAAPEAUFarDialogItem@@PEAIH@Z 0000000180088fd9     IntChecker2-Far3.obj
 0002:00023fe5       $ip2state$?AddIntEditField@PluginDialogBuilder@@UEAAPEAUFarDialogItem@@PEAHH@Z 0000000180088fe5     IntChecker2-Far3.obj
 0002:00023fe5       $ip2state$?AddUIntEditField@PluginDialogBuilder@@UEAAPEAUFarDialogItem@@PEAIH@Z 0000000180088fe5     IntChecker2-Far3.obj
 0002:00023fec       $unwind$??_GPluginDialogBuilder@@UEAAPEAXI@Z 0000000180088fec     IntChecker2-Far3.obj
 0002:00024008       $cppxdata$??_GPluginDialogBuilder@@UEAAPEAXI@Z 0000000180089008     IntChecker2-Far3.obj
 0002:00024011       $ip2state$??_GPluginDialogBuilder@@UEAAPEAXI@Z 0000000180089011     IntChecker2-Far3.obj
 0002:00024014       $unwind$??1PluginSettings@@QEAA@XZ 0000000180089014     IntChecker2-Far3.obj
 0002:00024024       $cppxdata$??1PluginSettings@@QEAA@XZ 0000000180089024     IntChecker2-Far3.obj
 0002:00024029       $ip2state$??1PluginSettings@@QEAA@XZ 0000000180089029     IntChecker2-Far3.obj
 0002:0002402c       $unwind$??1FarScreenSave@@QEAA@XZ 000000018008902c     IntChecker2-Far3.obj
 0002:0002403c       $cppxdata$??1FarScreenSave@@QEAA@XZ 000000018008903c     IntChecker2-Far3.obj
 0002:00024041       $ip2state$??1FarScreenSave@@QEAA@XZ 0000000180089041     IntChecker2-Far3.obj
 0002:00024044       $unwind$??0ProgressContext@@QEAA@H_J@Z 0000000180089044     IntChecker2-Far3.obj
 0002:00024058       $cppxdata$??0ProgressContext@@QEAA@H_J@Z 0000000180089058     IntChecker2-Far3.obj
 0002:00024061       $stateUnwindMap$??0ProgressContext@@QEAA@H_J@Z 0000000180089061     IntChecker2-Far3.obj
 0002:00024072       $ip2state$??0ProgressContext@@QEAA@H_J@Z 0000000180089072     IntChecker2-Far3.obj
 0002:00024078       $unwind$?ProgressBarString@@YA?AV?$basic_string@_WU?$char_traits@_W@std@@V?$allocator@_W@2@@std@@_J0@Z 0000000180089078     IntChecker2-Far3.obj
 0002:00024094       $cppxdata$?ProgressBarString@@YA?AV?$basic_string@_WU?$char_traits@_W@std@@V?$allocator@_W@2@@std@@_J0@Z 0000000180089094     IntChecker2-Far3.obj
 0002:0002409d       $stateUnwindMap$?ProgressBarString@@YA?AV?$basic_string@_WU?$char_traits@_W@std@@V?$allocator@_W@2@@std@@_J0@Z 000000018008909d     IntChecker2-Far3.obj
 0002:000240af       $ip2state$?ProgressBarString@@YA?AV?$basic_string@_WU?$char_traits@_W@std@@V?$allocator@_W@2@@std@@_J0@Z 00000001800890af     IntChecker2-Far3.obj
 0002:000240bc       $unwind$?JoinProgressLine@@YA?AV?$basic_string@_WU?$char_traits@_W@std@@V?$allocator@_W@2@@std@@AEBV12@0_K1@Z 00000001800890bc     IntChecker2-Far3.obj
 0002:000240e0       $cppxdata$?JoinProgressLine@@YA?AV?$basic_string@_WU?$char_traits@_W@std@@V?$allocator@_W@2@@std@@AEBV12@0_K1@Z 00000001800890e0     IntChecker2-Far3.obj
 0002:000240e9       $stateUnwindMap$?JoinProgressLine@@YA?AV?$basic_string@_WU?$char_traits@_W@std@@V?$allocator@_W@2@@std@@AEBV12@0_K1@Z 00000001800890e9     IntChecker2-Far3.obj
 0002:00024103       $ip2state$?JoinProgressLine@@YA?AV?$basic_string@_WU?$char_traits@_W@std@@V?$allocator@_W@2@@std@@AEBV12@0_K1@Z 0000000180089103     IntChecker2-Far3.obj
 0002:00024114       $unwind$?ConvertPathToNative@@YA?AV?$basic_string@_WU?$char_traits@_W@std@@V?$allocator@_W@2@@std@@AEBV12@@Z 0000000180089114     IntChecker2-Far3.obj
 0002:00024134       $cppxdata$?ConvertPathToNative@@YA?AV?$basic_string@_WU?$char_traits@_W@std@@V?$allocator@_W@2@@std@@AEBV12@@Z 0000000180089134     IntChecker2-Far3.obj
 0002:0002413d       $stateUnwindMap$?ConvertPathToNative@@YA?AV?$basic_string@_WU?$char_traits@_W@std@@V?$allocator@_W@2@@std@@AEBV12@@Z 000000018008913d     IntChecker2-Far3.obj
 0002:00024144       $ip2state$?ConvertPathToNative@@YA?AV?$basic_string@_WU?$char_traits@_W@std@@V?$allocator@_W@2@@std@@AEBV12@@Z 0000000180089144     IntChecker2-Far3.obj
 0002:0002414c       $unwind$??0FarMenu@@QEAA@PEBUPluginStartupInfo@@PEBU_GUID@@1PEB_W2@Z 000000018008914c     IntChecker2-Far3.obj
 0002:00024164       $cppxdata$??0FarMenu@@QEAA@PEBUPluginStartupInfo@@PEBU_GUID@@1PEB_W2@Z 0000000180089164     IntChecker2-Far3.obj
 0002:0002416d       $stateUnwindMap$??0FarMenu@@QEAA@PEBUPluginStartupInfo@@PEBU_GUID@@1PEB_W2@Z 000000018008916d     IntChecker2-Far3.obj
 0002:00024187       $ip2state$??0FarMenu@@QEAA@PEBUPluginStartupInfo@@PEBU_GUID@@1PEB_W2@Z 0000000180089187     IntChecker2-Far3.obj
 0002:00024190       $unwind$?AddItemEx@FarMenu@@QEAAXPEB_WV?$function@$$A6AX_J@Z@std@@_K_J@Z 0000000180089190     IntChecker2-Far3.obj
 0002:000241b0       $cppxdata$?AddItemEx@FarMenu@@QEAAXPEB_WV?$function@$$A6AX_J@Z@std@@_K_J@Z 00000001800891b0     IntChecker2-Far3.obj
 0002:000241b9       $stateUnwindMap$?AddItemEx@FarMenu@@QEAAXPEB_WV?$function@$$A6AX_J@Z@std@@_K_J@Z 00000001800891b9     IntChecker2-Far3.obj
 0002:000241c6       $ip2state$?AddItemEx@FarMenu@@QEAAXPEB_WV?$function@$$A6AX_J@Z@std@@_K_J@Z 00000001800891c6     IntChecker2-Far3.obj
 0002:000241d0       $unwind$?Run@FarMenu@@QEAA_JXZ 00000001800891d0     IntChecker2-Far3.obj
 0002:000241d0       $unwind$__acrt_LCMapStringA 00000001800891d0     libucrt:lcmapstringa.obj
 0002:000241e0       $unwind$??_0path@filesystem@std@@QEAAAEAV012@AEBV012@@Z 00000001800891e0     IntChecker2-Far3.obj
 0002:00024200       $unwind$??0filesystem_error@filesystem@std@@QEAA@AEBV?$basic_string@DU?$char_traits@D@std@@V?$allocator@D@2@@2@Verror_code@2@@Z 0000000180089200     IntChecker2-Far3.obj
 0002:00024210       $cppxdata$??0filesystem_error@filesystem@std@@QEAA@AEBV?$basic_string@DU?$char_traits@D@std@@V?$allocator@D@2@@2@Verror_code@2@@Z 0000000180089210     IntChecker2-Far3.obj
 0002:00024219       $stateUnwindMap$??0filesystem_error@filesystem@std@@QEAA@AEBV?$basic_string@DU?$char_traits@D@std@@V?$allocator@D@2@@2@Verror_code@2@@Z 0000000180089219     IntChecker2-Far3.obj
 0002:0002422a       $ip2state$??0filesystem_error@filesystem@std@@QEAA@AEBV?$basic_string@DU?$char_traits@D@std@@V?$allocator@D@2@@2@Verror_code@2@@Z 000000018008922a     IntChecker2-Far3.obj
 0002:00024230       $unwind$??0filesystem_error@filesystem@std@@QEAA@AEBV?$basic_string@DU?$char_traits@D@std@@V?$allocator@D@2@@2@AEBVpath@12@Verror_code@2@@Z 0000000180089230     IntChecker2-Far3.obj
 0002:00024248       $cppxdata$??0filesystem_error@filesystem@std@@QEAA@AEBV?$basic_string@DU?$char_traits@D@std@@V?$allocator@D@2@@2@AEBVpath@12@Verror_code@2@@Z 0000000180089248     IntChecker2-Far3.obj
 0002:00024251       $stateUnwindMap$??0filesystem_error@filesystem@std@@QEAA@AEBV?$basic_string@DU?$char_traits@D@std@@V?$allocator@D@2@@2@AEBVpath@12@Verror_code@2@@Z 0000000180089251     IntChecker2-Far3.obj
 0002:00024268       $ip2state$??0filesystem_error@filesystem@std@@QEAA@AEBV?$basic_string@DU?$char_traits@D@std@@V?$allocator@D@2@@2@AEBVpath@12@Verror_code@2@@Z 0000000180089268     IntChecker2-Far3.obj
 0002:00024274       $unwind$?_Pretty_message@filesystem_error@filesystem@std@@CA?AV?$basic_string@DU?$char_traits@D@std@@V?$allocator@D@2@@3@V?$basic_string_view@DU?$char_traits@D@std@@@3@AEBVpath@23@1@Z 0000000180089274     IntChecker2-Far3.obj
 0002:0002429c       $cppxdata$?_Pretty_message@filesystem_error@filesystem@std@@CA?AV?$basic_string@DU?$char_traits@D@std@@V?$allocator@D@2@@3@V?$basic_string_view@DU?$char_traits@D@std@@@3@AEBVpath@23@1@Z 000000018008929c     IntChecker2-Far3.obj
 0002:000242a5       $stateUnwindMap$?_Pretty_message@filesystem_error@filesystem@std@@CA?AV?$basic_string@DU?$char_traits@D@std@@V?$allocator@D@2@@3@V?$basic_string_view@DU?$char_traits@D@std@@@3@AEBVpath@23@1@Z 00000001800892a5     IntChecker2-Far3.obj
 0002:000242b7       $ip2state$?_Pretty_message@filesystem_error@filesystem@std@@CA?AV?$basic_string@DU?$char_traits@D@std@@V?$allocator@D@2@@3@V?$basic_string_view@DU?$char_traits@D@std@@@3@AEBVpath@23@1@Z 00000001800892b7     IntChecker2-Far3.obj
 0002:000242c8       $unwind$?_Throw_fs_error@filesystem@std@@YAXPEBDW4__std_win_error@@@Z 00000001800892c8     IntChecker2-Far3.obj
 0002:000242d8       $cppxdata$?_Throw_fs_error@filesystem@std@@YAXPEBDW4__std_win_error@@@Z 00000001800892d8     IntChecker2-Far3.obj
 0002:000242e1       $stateUnwindMap$?_Throw_fs_error@filesystem@std@@YAXPEBDW4__std_win_error@@@Z 00000001800892e1     IntChecker2-Far3.obj
 0002:000242e1       $stateUnwindMap$?_Throw_fs_error@filesystem@std@@YAXPEBDW4__std_win_error@@AEBVpath@12@@Z 00000001800892e1     IntChecker2-Far3.obj
 0002:000242e8       $ip2state$?_Throw_fs_error@filesystem@std@@YAXPEBDW4__std_win_error@@@Z 00000001800892e8     IntChecker2-Far3.obj
 0002:000242f0       $unwind$??0filesystem_error@filesystem@std@@QEAA@AEBV012@@Z 00000001800892f0     IntChecker2-Far3.obj
 0002:00024304       $cppxdata$??0filesystem_error@filesystem@std@@QEAA@AEBV012@@Z 0000000180089304     IntChecker2-Far3.obj
 0002:0002430d       $stateUnwindMap$??0filesystem_error@filesystem@std@@QEAA@AEBV012@@Z 000000018008930d     IntChecker2-Far3.obj
 0002:0002431e       $ip2state$??0filesystem_error@filesystem@std@@QEAA@AEBV012@@Z 000000018008931e     IntChecker2-Far3.obj
 0002:00024328       $unwind$?_Throw_fs_error@filesystem@std@@YAXPEBDW4__std_win_error@@AEBVpath@12@@Z 0000000180089328     IntChecker2-Far3.obj
 0002:0002433c       $cppxdata$?_Throw_fs_error@filesystem@std@@YAXPEBDW4__std_win_error@@AEBVpath@12@@Z 000000018008933c     IntChecker2-Far3.obj
 0002:00024345       $ip2state$?_Throw_fs_error@filesystem@std@@YAXPEBDW4__std_win_error@@AEBVpath@12@@Z 0000000180089345     IntChecker2-Far3.obj
 0002:0002434c       $unwind$?_Get_any_status@directory_entry@filesystem@std@@AEBA?AU_File_status_and_error@23@W4__std_fs_stats_flags@@@Z 000000018008934c     IntChecker2-Far3.obj
 0002:0002434c       $unwind$?CheckEsc@@YA_NXZ  000000018008934c     Utils.obj
 0002:0002435c       $unwind$?_Open_dir@_Dir_enum_impl@filesystem@std@@SA?AW4__std_win_error@@AEAVpath@23@W4directory_options@23@AEAU_Find_file_handle@23@AEAU__std_fs_find_data@@@Z 000000018008935c     IntChecker2-Far3.obj
 0002:00024378       $cppxdata$?_Open_dir@_Dir_enum_impl@filesystem@std@@SA?AW4__std_win_error@@AEAVpath@23@W4directory_options@23@AEAU_Find_file_handle@23@AEAU__std_fs_find_data@@@Z 0000000180089378     IntChecker2-Far3.obj
 0002:00024381       $stateUnwindMap$?GetPanelDirectory@Far3Panel@@QEAA?AV?$basic_string@_WU?$char_traits@_W@std@@V?$allocator@_W@2@@std@@XZ 0000000180089381     IntChecker2-Far3.obj
 0002:00024381       $stateUnwindMap$?_Open_dir@_Dir_enum_impl@filesystem@std@@SA?AW4__std_win_error@@AEAVpath@23@W4directory_options@23@AEAU_Find_file_handle@23@AEAU__std_fs_find_data@@@Z 0000000180089381     IntChecker2-Far3.obj
 0002:00024388       $ip2state$?_Open_dir@_Dir_enum_impl@filesystem@std@@SA?AW4__std_win_error@@AEAVpath@23@W4directory_options@23@AEAU_Find_file_handle@23@AEAU__std_fs_find_data@@@Z 0000000180089388     IntChecker2-Far3.obj
 0002:00024390       $unwind$?_Refresh@_Dir_enum_impl@filesystem@std@@QEAAXAEBU__std_fs_find_data@@@Z 0000000180089390     IntChecker2-Far3.obj
 0002:000243ac       $cppxdata$?_Refresh@_Dir_enum_impl@filesystem@std@@QEAAXAEBU__std_fs_find_data@@@Z 00000001800893ac     IntChecker2-Far3.obj
 0002:000243b5       $stateUnwindMap$?_Refresh@_Dir_enum_impl@filesystem@std@@QEAAXAEBU__std_fs_find_data@@@Z 00000001800893b5     IntChecker2-Far3.obj
 0002:000243c1       $ip2state$?_Refresh@_Dir_enum_impl@filesystem@std@@QEAAXAEBU__std_fs_find_data@@@Z 00000001800893c1     IntChecker2-Far3.obj
 0002:000243cc       $unwind$?_Advance_and_reset_if_no_more_files@_Recursive_dir_enum_impl@filesystem@std@@SA?AW4__std_win_error@@AEAV?$shared_ptr@U_Recursive_dir_enum_impl@filesystem@std@@@3@@Z 00000001800893cc     IntChecker2-Far3.obj
 0002:000243f8       $cppxdata$?_Advance_and_reset_if_no_more_files@_Recursive_dir_enum_impl@filesystem@std@@SA?AW4__std_win_error@@AEAV?$shared_ptr@U_Recursive_dir_enum_impl@filesystem@std@@@3@@Z 00000001800893f8     IntChecker2-Far3.obj
 0002:00024401       $ip2state$?_Advance_and_reset_if_no_more_files@_Recursive_dir_enum_impl@filesystem@std@@SA?AW4__std_win_error@@AEAV?$shared_ptr@U_Recursive_dir_enum_impl@filesystem@std@@@3@@Z 0000000180089401     IntChecker2-Far3.obj
 0002:0002440c       $chain$0$??1?$shared_ptr@U_Recursive_dir_enum_impl@filesystem@std@@@std@@QEAA@XZ 000000018008940c     IntChecker2-Far3.obj
 0002:0002440c       $chain$0$??1recursive_directory_iterator@filesystem@std@@QEAA@XZ 000000018008940c     IntChecker2-Far3.obj
 0002:00024420       $chain$1$??1?$shared_ptr@U_Recursive_dir_enum_impl@filesystem@std@@@std@@QEAA@XZ 0000000180089420     IntChecker2-Far3.obj
 0002:00024420       $chain$1$??1recursive_directory_iterator@filesystem@std@@QEAA@XZ 0000000180089420     IntChecker2-Far3.obj
 0002:00024430       $unwind$?PathJoin@@YA?AV?$basic_string@_WU?$char_traits@_W@std@@V?$allocator@_W@2@@std@@AEBV12@0@Z 0000000180089430     IntChecker2-Far3.obj
 0002:00024454       $cppxdata$?PathJoin@@YA?AV?$basic_string@_WU?$char_traits@_W@std@@V?$allocator@_W@2@@std@@AEBV12@0@Z 0000000180089454     IntChecker2-Far3.obj
 0002:0002445d       $stateUnwindMap$?PathJoin@@YA?AV?$basic_string@_WU?$char_traits@_W@std@@V?$allocator@_W@2@@std@@AEBV12@0@Z 000000018008945d     IntChecker2-Far3.obj
 0002:00024477       $ip2state$?PathJoin@@YA?AV?$basic_string@_WU?$char_traits@_W@std@@V?$allocator@_W@2@@std@@AEBV12@0@Z 0000000180089477     IntChecker2-Far3.obj
 0002:00024488       $unwind$?GetPanelDirectory@Far3Panel@@QEAA?AV?$basic_string@_WU?$char_traits@_W@std@@V?$allocator@_W@2@@std@@XZ 0000000180089488     IntChecker2-Far3.obj
 0002:000244a8       $cppxdata$?GetPanelDirectory@Far3Panel@@QEAA?AV?$basic_string@_WU?$char_traits@_W@std@@V?$allocator@_W@2@@std@@XZ 00000001800894a8     IntChecker2-Far3.obj
 0002:000244b1       $ip2state$?GetPanelDirectory@Far3Panel@@QEAA?AV?$basic_string@_WU?$char_traits@_W@std@@V?$allocator@_W@2@@std@@XZ 00000001800894b1     IntChecker2-Far3.obj
 0002:000244b8       $unwind$?GetSelectedItemPath@Far3Panel@@QEAA?AV?$basic_string@_WU?$char_traits@_W@std@@V?$allocator@_W@2@@std@@XZ 00000001800894b8     IntChecker2-Far3.obj
 0002:000244dc       $cppxdata$?GetSelectedItemPath@Far3Panel@@QEAA?AV?$basic_string@_WU?$char_traits@_W@std@@V?$allocator@_W@2@@std@@XZ 00000001800894dc     IntChecker2-Far3.obj
 0002:000244e5       $stateUnwindMap$?GetSelectedItemPath@Far3Panel@@QEAA?AV?$basic_string@_WU?$char_traits@_W@std@@V?$allocator@_W@2@@std@@XZ 00000001800894e5     IntChecker2-Far3.obj
 0002:000244f8       $ip2state$?GetSelectedItemPath@Far3Panel@@QEAA?AV?$basic_string@_WU?$char_traits@_W@std@@V?$allocator@_W@2@@std@@XZ 00000001800894f8     IntChecker2-Far3.obj
 0002:00024504       $unwind$?GetSelectedFiles@Far3Panel@@QEAAX_NPEAXAEAV?$vector@UPanelFileInfo@@V?$allocator@UPanelFileInfo@@@std@@@std@@@Z 0000000180089504     IntChecker2-Far3.obj
 0002:0002452c       $cppxdata$?GetSelectedFiles@Far3Panel@@QEAAX_NPEAXAEAV?$vector@UPanelFileInfo@@V?$allocator@UPanelFileInfo@@@std@@@std@@@Z 000000018008952c     IntChecker2-Far3.obj
 0002:00024535       $stateUnwindMap$?GetSelectedFiles@Far3Panel@@QEAAX_NPEAXAEAV?$vector@UPanelFileInfo@@V?$allocator@UPanelFileInfo@@@std@@@std@@@Z 0000000180089535     IntChecker2-Far3.obj
 0002:000245a1       $ip2state$?GetSelectedFiles@Far3Panel@@QEAAX_NPEAXAEAV?$vector@UPanelFileInfo@@V?$allocator@UPanelFileInfo@@@std@@@std@@@Z 00000001800895a1     IntChecker2-Far3.obj
 0002:000245dc       $unwind$?SetItemsSelection@Far3Panel@@QEAAXV?$function@$$A6AHPEB_W@Z@std@@@Z 00000001800895dc     IntChecker2-Far3.obj
 0002:000245f8       $cppxdata$?SetItemsSelection@Far3Panel@@QEAAXV?$function@$$A6AHPEB_W@Z@std@@@Z 00000001800895f8     IntChecker2-Far3.obj
 0002:00024601       $stateUnwindMap$?SetItemsSelection@Far3Panel@@QEAAXV?$function@$$A6AHPEB_W@Z@std@@@Z 0000000180089601     IntChecker2-Far3.obj
 0002:00024608       $ip2state$?SetItemsSelection@Far3Panel@@QEAAXV?$function@$$A6AHPEB_W@Z@std@@@Z 0000000180089608     IntChecker2-Far3.obj
 0002:00024610       $chain$0$?ClearSelection@Far3Panel@@QEAAXXZ 0000000180089610     IntChecker2-Far3.obj
 0002:00024624       $chain$1$?ClearSelection@Far3Panel@@QEAAXXZ 0000000180089624     IntChecker2-Far3.obj
 0002:00024634       $unwind$?DisplayMessage@@YAXHHPEB_W_N1@Z 0000000180089634     IntChecker2-Far3.obj
 0002:00024634       $unwind$__dcrt_write_console 0000000180089634     libucrt:initcon.obj
 0002:00024634       $unwind$??$__acrt_convert_wcs_mbs_cp@_WDV<lambda_f788ae46380686e8b737efdd8c720d07>@@U__crt_win32_buffer_no_resizing@@@@YAHQEB_WAEAV?$__crt_win32_buffer@DU__crt_win32_buffer_no_resizing@@@@AEBV<lambda_f788ae46380686e8b737efdd8c720d07>@@I@Z 0000000180089634     libucrt:strftime.obj
 0002:00024648       $unwind$?LoadSettings@@YAXXZ 0000000180089648     IntChecker2-Far3.obj
 0002:00024670       $cppxdata$?LoadSettings@@YAXXZ 0000000180089670     IntChecker2-Far3.obj
 0002:00024679       $stateUnwindMap$?LoadSettings@@YAXXZ 0000000180089679     IntChecker2-Far3.obj
 0002:00024679       $stateUnwindMap$?SaveSettings@@YAXXZ 0000000180089679     IntChecker2-Far3.obj
 0002:00024685       $ip2state$?LoadSettings@@YAXXZ 0000000180089685     IntChecker2-Far3.obj
 0002:00024690       $unwind$?SaveSettings@@YAXXZ 0000000180089690     IntChecker2-Far3.obj
 0002:000246b4       $cppxdata$?SaveSettings@@YAXXZ 00000001800896b4     IntChecker2-Far3.obj
 0002:000246bd       $ip2state$?SaveSettings@@YAXXZ 00000001800896bd     IntChecker2-Far3.obj
 0002:000246c8       $unwind$?FileHashingProgress@@YA_NPEAX_J@Z 00000001800896c8     IntChecker2-Far3.obj
 0002:000246f4       $cppxdata$?FileHashingProgress@@YA_NPEAX_J@Z 00000001800896f4     IntChecker2-Far3.obj
 0002:000246fd       $stateUnwindMap$?FileHashingProgress@@YA_NPEAX_J@Z 00000001800896fd     IntChecker2-Far3.obj
 0002:000247c7       $ip2state$?FileHashingProgress@@YA_NPEAX_J@Z 00000001800897c7     IntChecker2-Far3.obj
 0002:00024800       $unwind$?RunGeneration@@YA_NAEBV?$basic_string@_WU?$char_traits@_W@std@@V?$allocator@_W@2@@std@@0W4rhash_ids@@_NAEAUProgressContext@@AEAV?$basic_string@DU?$char_traits@D@std@@V?$allocator@D@2@@2@AEA_N5@Z 0000000180089800     IntChecker2-Far3.obj
 0002:00024824       $unwind$?DisplayValidationResults@@YAXAEAVFar3Panel@@AEAV?$vector@V?$basic_string@_WU?$char_traits@_W@std@@V?$allocator@_W@2@@std@@V?$allocator@V?$basic_string@_WU?$char_traits@_W@std@@V?$allocator@_W@2@@std@@@2@@std@@1H@Z 0000000180089824     IntChecker2-Far3.obj
 0002:00024848       $cppxdata$?DisplayValidationResults@@YAXAEAVFar3Panel@@AEAV?$vector@V?$basic_string@_WU?$char_traits@_W@std@@V?$allocator@_W@2@@std@@V?$allocator@V?$basic_string@_WU?$char_traits@_W@std@@V?$allocator@_W@2@@std@@@2@@std@@1H@Z 0000000180089848     IntChecker2-Far3.obj
 0002:00024851       $stateUnwindMap$?DisplayValidationResults@@YAXAEAVFar3Panel@@AEAV?$vector@V?$basic_string@_WU?$char_traits@_W@std@@V?$allocator@_W@2@@std@@V?$allocator@V?$basic_string@_WU?$char_traits@_W@std@@V?$allocator@_W@2@@std@@@2@@std@@1H@Z 0000000180089851     IntChecker2-Far3.obj
 0002:00024890       $ip2state$?DisplayValidationResults@@YAXAEAVFar3Panel@@AEAV?$vector@V?$basic_string@_WU?$char_traits@_W@std@@V?$allocator@_W@2@@std@@V?$allocator@V?$basic_string@_WU?$char_traits@_W@std@@V?$allocator@_W@2@@std@@@2@@std@@1H@Z 0000000180089890     IntChecker2-Far3.obj
 0002:000248c4       $unwind$?AskValidationFileParams@@YA_NAEAIAEAH@Z 00000001800898c4     IntChecker2-Far3.obj
 0002:000248e8       $cppxdata$?AskValidationFileParams@@YA_NAEAIAEAH@Z 00000001800898e8     IntChecker2-Far3.obj
 0002:000248f1       $stateUnwindMap$?AskValidationFileParams@@YA_NAEAIAEAH@Z 00000001800898f1     IntChecker2-Far3.obj
 0002:00024904       $ip2state$?AskValidationFileParams@@YA_NAEAIAEAH@Z 0000000180089904     IntChecker2-Far3.obj
 0002:00024910       $unwind$?RunValidateFiles@@YA_NPEB_W_N1@Z 0000000180089910     IntChecker2-Far3.obj
 0002:0002493c       $cppxdata$?RunValidateFiles@@YA_NPEB_W_N1@Z 000000018008993c     IntChecker2-Far3.obj
 0002:00024945       $stateUnwindMap$?RunValidateFiles@@YA_NPEB_W_N1@Z 0000000180089945     IntChecker2-Far3.obj
 0002:00024988       $ip2state$?RunValidateFiles@@YA_NPEB_W_N1@Z 0000000180089988     IntChecker2-Far3.obj
 0002:000249b4       $unwind$??1ProgressContext@@QEAA@XZ 00000001800899b4     IntChecker2-Far3.obj
 0002:000249c8       $cppxdata$??1ProgressContext@@QEAA@XZ 00000001800899c8     IntChecker2-Far3.obj
 0002:000249d1       $ip2state$??1ProgressContext@@QEAA@XZ 00000001800899d1     IntChecker2-Far3.obj
 0002:000249d4       $unwind$?HashParamsDlgProc@@YA_JPEAX_J10@Z 00000001800899d4     IntChecker2-Far3.obj
 0002:000249f0       $unwind$?AskForHashGenerationParams@@YA_NAEAUHashGenerationParams@@@Z 00000001800899f0     IntChecker2-Far3.obj
 0002:00024a18       $cppxdata$?AskForHashGenerationParams@@YA_NAEAUHashGenerationParams@@@Z 0000000180089a18     IntChecker2-Far3.obj
 0002:00024a21       $stateUnwindMap$?AskForHashGenerationParams@@YA_NAEAUHashGenerationParams@@@Z 0000000180089a21     IntChecker2-Far3.obj
 0002:00024a34       $ip2state$?AskForHashGenerationParams@@YA_NAEAUHashGenerationParams@@@Z 0000000180089a34     IntChecker2-Far3.obj
 0002:00024a44       $unwind$?DisplayHashListOnScreen@@YAXAEBVHashList@@@Z 0000000180089a44     IntChecker2-Far3.obj
 0002:00024a70       $cppxdata$?DisplayHashListOnScreen@@YAXAEBVHashList@@@Z 0000000180089a70     IntChecker2-Far3.obj
 0002:00024a79       $stateUnwindMap$?DisplayHashListOnScreen@@YAXAEBVHashList@@@Z 0000000180089a79     IntChecker2-Far3.obj
 0002:00024ab0       $ip2state$?DisplayHashListOnScreen@@YAXAEBVHashList@@@Z 0000000180089ab0     IntChecker2-Far3.obj
 0002:00024acc       $unwind$?RunGenerateHashes@@YAXAEAVFar3Panel@@@Z 0000000180089acc     IntChecker2-Far3.obj
 0002:00024b00       $cppxdata$?RunGenerateHashes@@YAXAEAVFar3Panel@@@Z 0000000180089b00     IntChecker2-Far3.obj
 0002:00024b09       $stateUnwindMap$?RunGenerateHashes@@YAXAEAVFar3Panel@@@Z 0000000180089b09     IntChecker2-Far3.obj
 0002:00024b5e       $ip2state$?RunGenerateHashes@@YAXAEAVFar3Panel@@@Z 0000000180089b5e     IntChecker2-Far3.obj
 0002:00024b94       $unwind$?AskForCompareParams@@YA_NAEAW4rhash_ids@@AEA_NAEAPEAX@Z 0000000180089b94     IntChecker2-Far3.obj
 0002:00024bb8       $cppxdata$?AskForCompareParams@@YA_NAEAW4rhash_ids@@AEA_NAEAPEAX@Z 0000000180089bb8     IntChecker2-Far3.obj
 0002:00024bc1       $stateUnwindMap$?AskForCompareParams@@YA_NAEAW4rhash_ids@@AEA_NAEAPEAX@Z 0000000180089bc1     IntChecker2-Far3.obj
 0002:00024bd4       $ip2state$?AskForCompareParams@@YA_NAEAW4rhash_ids@@AEA_NAEAPEAX@Z 0000000180089bd4     IntChecker2-Far3.obj
 0002:00024be4       $unwind$?RunComparePanels@@YAXXZ 0000000180089be4     IntChecker2-Far3.obj
 0002:00024c10       $cppxdata$?RunComparePanels@@YAXXZ 0000000180089c10     IntChecker2-Far3.obj
 0002:00024c19       $stateUnwindMap$?RunComparePanels@@YAXXZ 0000000180089c19     IntChecker2-Far3.obj
 0002:00024c7f       $ip2state$?RunComparePanels@@YAXXZ 0000000180089c7f     IntChecker2-Far3.obj
 0002:00024cc4       $unwind$?RunCompareWithClipboard@@YAXAEBV?$basic_string@_WU?$char_traits@_W@std@@V?$allocator@_W@2@@std@@@Z 0000000180089cc4     IntChecker2-Far3.obj
 0002:00024ce8       $cppxdata$?RunCompareWithClipboard@@YAXAEBV?$basic_string@_WU?$char_traits@_W@std@@V?$allocator@_W@2@@std@@@Z 0000000180089ce8     IntChecker2-Far3.obj
 0002:00024cf1       $stateUnwindMap$?RunCompareWithClipboard@@YAXAEBV?$basic_string@_WU?$char_traits@_W@std@@V?$allocator@_W@2@@std@@@Z 0000000180089cf1     IntChecker2-Far3.obj
 0002:00024d13       $ip2state$?RunCompareWithClipboard@@YAXAEBV?$basic_string@_WU?$char_traits@_W@std@@V?$allocator@_W@2@@std@@@Z 0000000180089d13     IntChecker2-Far3.obj
 0002:00024d30       $unwind$?SelectBenchmarkParams@@YA_NAEAHPEAH@Z 0000000180089d30     IntChecker2-Far3.obj
 0002:00024d58       $cppxdata$?SelectBenchmarkParams@@YA_NAEAHPEAH@Z 0000000180089d58     IntChecker2-Far3.obj
 0002:00024d61       $stateUnwindMap$?SelectBenchmarkParams@@YA_NAEAHPEAH@Z 0000000180089d61     IntChecker2-Far3.obj
 0002:00024d7f       $ip2state$?SelectBenchmarkParams@@YA_NAEAHPEAH@Z 0000000180089d7f     IntChecker2-Far3.obj
 0002:00024d98       $unwind$?RunBenchmark@@YAXXZ 0000000180089d98     IntChecker2-Far3.obj
 0002:00024dc4       $cppxdata$?RunBenchmark@@YAXXZ 0000000180089dc4     IntChecker2-Far3.obj
 0002:00024dcd       $stateUnwindMap$?RunBenchmark@@YAXXZ 0000000180089dcd     IntChecker2-Far3.obj
 0002:00024e3a       $ip2state$?RunBenchmark@@YAXXZ 0000000180089e3a     IntChecker2-Far3.obj
 0002:00024e70       $unwind$?RunVerifySignatures@@YAXAEAVFar3Panel@@@Z 0000000180089e70     IntChecker2-Far3.obj
 0002:00024ea4       $cppxdata$?RunVerifySignatures@@YAXAEAVFar3Panel@@@Z 0000000180089ea4     IntChecker2-Far3.obj
 0002:00024ead       $stateUnwindMap$?RunVerifySignatures@@YAXAEAVFar3Panel@@@Z 0000000180089ead     IntChecker2-Far3.obj
 0002:00024ed8       $ip2state$?RunVerifySignatures@@YAXAEAVFar3Panel@@@Z 0000000180089ed8     IntChecker2-Far3.obj
 0002:00024efc       $unwind$?CalculateHashByAlgoName@@YA_NPEB_W0PEA_W_K_NAEA_N@Z 0000000180089efc     IntChecker2-Far3.obj
 0002:00024f24       $cppxdata$?CalculateHashByAlgoName@@YA_NPEB_W0PEA_W_K_NAEA_N@Z 0000000180089f24     IntChecker2-Far3.obj
 0002:00024f2d       $stateUnwindMap$?CalculateHashByAlgoName@@YA_NPEB_W0PEA_W_K_NAEA_N@Z 0000000180089f2d     IntChecker2-Far3.obj
 0002:00024f55       $ip2state$?CalculateHashByAlgoName@@YA_NPEB_W0PEA_W_K_NAEA_N@Z 0000000180089f55     IntChecker2-Far3.obj
 0002:00024f6c       $unwind$ConfigureW         0000000180089f6c     IntChecker2-Far3.obj
 0002:00024f98       $cppxdata$ConfigureW       0000000180089f98     IntChecker2-Far3.obj
 0002:00024fa1       $stateUnwindMap$ConfigureW 0000000180089fa1     IntChecker2-Far3.obj
 0002:00024fa8       $ip2state$ConfigureW       0000000180089fa8     IntChecker2-Far3.obj
 0002:00024fb4       $unwind$OpenW              0000000180089fb4     IntChecker2-Far3.obj
 0002:00024fd0       $chain$1$OpenW             0000000180089fd0     IntChecker2-Far3.obj
 0002:00024fe8       $chain$2$OpenW             0000000180089fe8     IntChecker2-Far3.obj
 0002:00024ff8       $chain$0$??1?$vector@UPanelFileInfo@@V?$allocator@UPanelFileInfo@@@std@@@std@@QEAA@XZ 0000000180089ff8     IntChecker2-Far3.obj
 0002:0002500c       $chain$1$??1?$vector@UPanelFileInfo@@V?$allocator@UPanelFileInfo@@@std@@@std@@QEAA@XZ 000000018008a00c     IntChecker2-Far3.obj
 0002:0002501c       $chain$0$??1?$vector@U_Find_file_handle@filesystem@std@@V?$allocator@U_Find_file_handle@filesystem@std@@@3@@std@@QEAA@XZ 000000018008a01c     IntChecker2-Far3.obj
 0002:00025030       $chain$1$??1?$vector@U_Find_file_handle@filesystem@std@@V?$allocator@U_Find_file_handle@filesystem@std@@@3@@std@@QEAA@XZ 000000018008a030     IntChecker2-Far3.obj
 0002:00025040       $chain$0$??1?$vector@V?$function@$$A6AX_J@Z@std@@V?$allocator@V?$function@$$A6AX_J@Z@std@@@2@@std@@QEAA@XZ 000000018008a040     IntChecker2-Far3.obj
 0002:00025054       $chain$1$??1?$vector@V?$function@$$A6AX_J@Z@std@@V?$allocator@V?$function@$$A6AX_J@Z@std@@@2@@std@@QEAA@XZ 000000018008a054     IntChecker2-Far3.obj
 0002:00025068       $chain$2$??1?$vector@V?$function@$$A6AX_J@Z@std@@V?$allocator@V?$function@$$A6AX_J@Z@std@@@2@@std@@QEAA@XZ 000000018008a068     IntChecker2-Far3.obj
 0002:00025078       $chain$3$??1?$vector@V?$function@$$A6AX_J@Z@std@@V?$allocator@V?$function@$$A6AX_J@Z@std@@@2@@std@@QEAA@XZ 000000018008a078     IntChecker2-Far3.obj
 0002:00025088       $chain$4$??1?$vector@V?$function@$$A6AX_J@Z@std@@V?$allocator@V?$function@$$A6AX_J@Z@std@@@2@@std@@QEAA@XZ 000000018008a088     IntChecker2-Far3.obj
 0002:0002509c       $unwind$?ShowDialogEx@?$DialogBuilderBase@UFarDialogItem@@@@QEAA_JXZ 000000018008a09c     IntChecker2-Far3.obj
 0002:000250a4       $chain$0$?ShowDialogEx@?$DialogBuilderBase@UFarDialogItem@@@@QEAA_JXZ 000000018008a0a4     IntChecker2-Far3.obj
 0002:000250b8       $chain$2$?ShowDialogEx@?$DialogBuilderBase@UFarDialogItem@@@@QEAA_JXZ 000000018008a0b8     IntChecker2-Far3.obj
 0002:000250d0       $chain$4$?ShowDialogEx@?$DialogBuilderBase@UFarDialogItem@@@@QEAA_JXZ 000000018008a0d0     IntChecker2-Far3.obj
 0002:000250e8       $chain$5$?ShowDialogEx@?$DialogBuilderBase@UFarDialogItem@@@@QEAA_JXZ 000000018008a0e8     IntChecker2-Far3.obj
 0002:000250f8       $chain$6$?ShowDialogEx@?$DialogBuilderBase@UFarDialogItem@@@@QEAA_JXZ 000000018008a0f8     IntChecker2-Far3.obj
 0002:00025108       $chain$7$?ShowDialogEx@?$DialogBuilderBase@UFarDialogItem@@@@QEAA_JXZ 000000018008a108     IntChecker2-Far3.obj
 0002:00025118       $unwind$?AddButtons@?$DialogBuilderBase@UFarDialogItem@@@@QEAAPEAUFarDialogItem@@HPEBHHH@Z 000000018008a118     IntChecker2-Far3.obj
 0002:00025120       $chain$2$?AddButtons@?$DialogBuilderBase@UFarDialogItem@@@@QEAAPEAUFarDialogItem@@HPEBHHH@Z 000000018008a120     IntChecker2-Far3.obj
 0002:0002513c       $chain$6$?AddButtons@?$DialogBuilderBase@UFarDialogItem@@@@QEAAPEAUFarDialogItem@@HPEBHHH@Z 000000018008a13c     IntChecker2-Far3.obj
 0002:0002515c       $chain$7$?AddButtons@?$DialogBuilderBase@UFarDialogItem@@@@QEAAPEAUFarDialogItem@@HPEBHHH@Z 000000018008a15c     IntChecker2-Far3.obj
 0002:0002516c       $chain$8$?AddButtons@?$DialogBuilderBase@UFarDialogItem@@@@QEAAPEAUFarDialogItem@@HPEBHHH@Z 000000018008a16c     IntChecker2-Far3.obj
 0002:0002517c       $unwind$?AddRadioButtons@?$DialogBuilderBase@UFarDialogItem@@@@QEAAPEAUFarDialogItem@@PEAHHQEBH_N@Z 000000018008a17c     IntChecker2-Far3.obj
 0002:00025190       $chain$1$?AddRadioButtons@?$DialogBuilderBase@UFarDialogItem@@@@QEAAPEAUFarDialogItem@@PEAHHQEBH_N@Z 000000018008a190     IntChecker2-Far3.obj
 0002:000251a8       $chain$2$?AddRadioButtons@?$DialogBuilderBase@UFarDialogItem@@@@QEAAPEAUFarDialogItem@@PEAHHQEBH_N@Z 000000018008a1a8     IntChecker2-Far3.obj
 0002:000251b8       $chain$0$??1?$DialogBuilderBase@UFarDialogItem@@@@MEAA@XZ 000000018008a1b8     IntChecker2-Far3.obj
 0002:000251cc       $chain$1$??1?$DialogBuilderBase@UFarDialogItem@@@@MEAA@XZ 000000018008a1cc     IntChecker2-Far3.obj
 0002:000251dc       $chain$1$??_G?$DialogBuilderBase@UFarDialogItem@@@@MEAAPEAXI@Z 000000018008a1dc     IntChecker2-Far3.obj
 0002:000251f4       $chain$2$??_G?$DialogBuilderBase@UFarDialogItem@@@@MEAAPEAXI@Z 000000018008a1f4     IntChecker2-Far3.obj
 0002:00025208       $chain$3$??_G?$DialogBuilderBase@UFarDialogItem@@@@MEAAPEAXI@Z 000000018008a208     IntChecker2-Far3.obj
 0002:00025218       $chain$4$??_G?$DialogBuilderBase@UFarDialogItem@@@@MEAAPEAXI@Z 000000018008a218     IntChecker2-Far3.obj
 0002:00025228       $chain$0$?_Destroy@?$vector@V?$function@$$A6AX_J@Z@std@@V?$allocator@V?$function@$$A6AX_J@Z@std@@@2@@std@@AEAAXPEAV?$function@$$A6AX_J@Z@2@0@Z 000000018008a228     IntChecker2-Far3.obj
 0002:0002523c       $chain$1$?_Destroy@?$vector@V?$function@$$A6AX_J@Z@std@@V?$allocator@V?$function@$$A6AX_J@Z@std@@@2@@std@@AEAAXPEAV?$function@$$A6AX_J@Z@2@0@Z 000000018008a23c     IntChecker2-Far3.obj
 0002:0002524c       $unwind$?UpdateBorderSize@?$DialogBuilderBase@UFarDialogItem@@@@IEAAXXZ 000000018008a24c     IntChecker2-Far3.obj
 0002:0002525c       $chain$1$?UpdateBorderSize@?$DialogBuilderBase@UFarDialogItem@@@@IEAAXXZ 000000018008a25c     IntChecker2-Far3.obj
 0002:00025274       $chain$2$?UpdateBorderSize@?$DialogBuilderBase@UFarDialogItem@@@@IEAAXXZ 000000018008a274     IntChecker2-Far3.obj
 0002:00025288       $chain$3$?UpdateBorderSize@?$DialogBuilderBase@UFarDialogItem@@@@IEAAXXZ 000000018008a288     IntChecker2-Far3.obj
 0002:00025298       $chain$4$?UpdateBorderSize@?$DialogBuilderBase@UFarDialogItem@@@@IEAAXXZ 000000018008a298     IntChecker2-Far3.obj
 0002:000252a8       $unwind$??$_Convert_wide_to_narrow_replace_chars@U?$char_traits@D@std@@V?$allocator@D@2@@filesystem@std@@YA?AV?$basic_string@DU?$char_traits@D@std@@V?$allocator@D@2@@1@W4__std_code_page@@V?$basic_string_view@_WU?$char_traits@_W@std@@@1@AEBV?$allocator@D@1@@Z 000000018008a2a8     IntChecker2-Far3.obj
 0002:000252c4       $cppxdata$??$_Convert_wide_to_narrow_replace_chars@U?$char_traits@D@std@@V?$allocator@D@2@@filesystem@std@@YA?AV?$basic_string@DU?$char_traits@D@std@@V?$allocator@D@2@@1@W4__std_code_page@@V?$basic_string_view@_WU?$char_traits@_W@std@@@1@AEBV?$allocator@D@1@@Z 000000018008a2c4     IntChecker2-Far3.obj
 0002:000252cd       $stateUnwindMap$??$_Convert_wide_to_narrow_replace_chars@U?$char_traits@D@std@@V?$allocator@D@2@@filesystem@std@@YA?AV?$basic_string@DU?$char_traits@D@std@@V?$allocator@D@2@@1@W4__std_code_page@@V?$basic_string_view@_WU?$char_traits@_W@std@@@1@AEBV?$allocator@D@1@@Z 000000018008a2cd     IntChecker2-Far3.obj
 0002:000252d3       $ip2state$??$_Convert_wide_to_narrow_replace_chars@U?$char_traits@D@std@@V?$allocator@D@2@@filesystem@std@@YA?AV?$basic_string@DU?$char_traits@D@std@@V?$allocator@D@2@@1@W4__std_code_page@@V?$basic_string_view@_WU?$char_traits@_W@std@@@1@AEBV?$allocator@D@1@@Z 000000018008a2d3     IntChecker2-Far3.obj
 0002:000252d8       $unwind$??$_Initialize_dir_enum@U_Recursive_dir_enum_impl@filesystem@std@@@_Dir_enum_impl@filesystem@std@@SA?AW4__std_win_error@@AEAV?$shared_ptr@U_Recursive_dir_enum_impl@filesystem@std@@@2@AEBVpath@12@W4directory_options@12@@Z 000000018008a2d8     IntChecker2-Far3.obj
 0002:000252fc       $cppxdata$??$_Initialize_dir_enum@U_Recursive_dir_enum_impl@filesystem@std@@@_Dir_enum_impl@filesystem@std@@SA?AW4__std_win_error@@AEAV?$shared_ptr@U_Recursive_dir_enum_impl@filesystem@std@@@2@AEBVpath@12@W4directory_options@12@@Z 000000018008a2fc     IntChecker2-Far3.obj
 0002:00025305       $stateUnwindMap$??$_Initialize_dir_enum@U_Recursive_dir_enum_impl@filesystem@std@@@_Dir_enum_impl@filesystem@std@@SA?AW4__std_win_error@@AEAV?$shared_ptr@U_Recursive_dir_enum_impl@filesystem@std@@@2@AEBVpath@12@W4directory_options@12@@Z 000000018008a305     IntChecker2-Far3.obj
 0002:00025327       $ip2state$??$_Initialize_dir_enum@U_Recursive_dir_enum_impl@filesystem@std@@@_Dir_enum_impl@filesystem@std@@SA?AW4__std_win_error@@AEAV?$shared_ptr@U_Recursive_dir_enum_impl@filesystem@std@@@2@AEBVpath@12@W4directory_options@12@@Z 000000018008a327     IntChecker2-Far3.obj
 0002:00025334       $chain$3$??$_Emplace_reallocate@AEB_K@?$vector@_KV?$allocator@_K@std@@@std@@QEAAPEA_KQEA_KAEB_K@Z 000000018008a334     IntChecker2-Far3.obj
 0002:00025334       $chain$3$??$_Emplace_reallocate@PEB_W@?$vector@PEB_WV?$allocator@PEB_W@std@@@std@@QEAAPEAPEB_WQEAPEB_W$$QEAPEB_W@Z 000000018008a334     IntChecker2-Far3.obj
 0002:00025354       $chain$5$??$_Emplace_reallocate@AEB_K@?$vector@_KV?$allocator@_K@std@@@std@@QEAAPEA_KQEA_KAEB_K@Z 000000018008a354     IntChecker2-Far3.obj
 0002:00025354       $chain$5$??$_Emplace_reallocate@PEB_W@?$vector@PEB_WV?$allocator@PEB_W@std@@@std@@QEAAPEAPEB_WQEAPEB_W$$QEAPEB_W@Z 000000018008a354     IntChecker2-Far3.obj
 0002:00025374       $chain$6$??$_Emplace_reallocate@AEB_K@?$vector@_KV?$allocator@_K@std@@@std@@QEAAPEA_KQEA_KAEB_K@Z 000000018008a374     IntChecker2-Far3.obj
 0002:00025374       $chain$6$??$_Emplace_reallocate@PEB_W@?$vector@PEB_WV?$allocator@PEB_W@std@@@std@@QEAAPEAPEB_WQEAPEB_W$$QEAPEB_W@Z 000000018008a374     IntChecker2-Far3.obj
 0002:00025384       $unwind$??$_Emplace_reallocate@AEBUPanelFileInfo@@@?$vector@UPanelFileInfo@@V?$allocator@UPanelFileInfo@@@std@@@std@@QEAAPEAUPanelFileInfo@@QEAU2@AEBU2@@Z 000000018008a384     IntChecker2-Far3.obj
 0002:000253a0       $cppxdata$??$_Emplace_reallocate@AEBUPanelFileInfo@@@?$vector@UPanelFileInfo@@V?$allocator@UPanelFileInfo@@@std@@@std@@QEAAPEAUPanelFileInfo@@QEAU2@AEBU2@@Z 000000018008a3a0     IntChecker2-Far3.obj
 0002:000253ad       $tryMap$??$_Emplace_reallocate@AEBUPanelFileInfo@@@?$vector@UPanelFileInfo@@V?$allocator@UPanelFileInfo@@@std@@@std@@QEAAPEAUPanelFileInfo@@QEAU2@AEBU2@@Z 000000018008a3ad     IntChecker2-Far3.obj
 0002:000253b5       $handlerMap$??$_Emplace_reallocate@AEBUPanelFileInfo@@@?$vector@UPanelFileInfo@@V?$allocator@UPanelFileInfo@@@std@@@std@@QEAAPEAUPanelFileInfo@@QEAU2@AEBU2@@Z 000000018008a3b5     IntChecker2-Far3.obj
 0002:000253bc       $ip2state$??$_Emplace_reallocate@AEBUPanelFileInfo@@@?$vector@UPanelFileInfo@@V?$allocator@UPanelFileInfo@@@std@@@std@@QEAAPEAUPanelFileInfo@@QEAU2@AEBU2@@Z 000000018008a3bc     IntChecker2-Far3.obj
 0002:000253cc       $unwind$??$_Emplace_reallocate@U_Find_file_handle@filesystem@std@@@?$vector@U_Find_file_handle@filesystem@std@@V?$allocator@U_Find_file_handle@filesystem@std@@@3@@std@@QEAAPEAU_Find_file_handle@filesystem@1@QEAU231@$$QEAU231@@Z 000000018008a3cc     IntChecker2-Far3.obj
 0002:000253dc       $chain$2$??$_Emplace_reallocate@U_Find_file_handle@filesystem@std@@@?$vector@U_Find_file_handle@filesystem@std@@V?$allocator@U_Find_file_handle@filesystem@std@@@3@@std@@QEAAPEAU_Find_file_handle@filesystem@1@QEAU231@$$QEAU231@@Z 000000018008a3dc     IntChecker2-Far3.obj
 0002:000253f8       $chain$3$??$_Emplace_reallocate@U_Find_file_handle@filesystem@std@@@?$vector@U_Find_file_handle@filesystem@std@@V?$allocator@U_Find_file_handle@filesystem@std@@@3@@std@@QEAAPEAU_Find_file_handle@filesystem@1@QEAU231@$$QEAU231@@Z 000000018008a3f8     IntChecker2-Far3.obj
 0002:00025408       $unwind$??$_Emplace_reallocate@AEBV?$function@$$A6AX_J@Z@std@@@?$vector@V?$function@$$A6AX_J@Z@std@@V?$allocator@V?$function@$$A6AX_J@Z@std@@@2@@std@@QEAAPEAV?$function@$$A6AX_J@Z@1@QEAV21@AEBV21@@Z 000000018008a408     IntChecker2-Far3.obj
 0002:00025424       $cppxdata$??$_Emplace_reallocate@AEBV?$function@$$A6AX_J@Z@std@@@?$vector@V?$function@$$A6AX_J@Z@std@@V?$allocator@V?$function@$$A6AX_J@Z@std@@@2@@std@@QEAAPEAV?$function@$$A6AX_J@Z@1@QEAV21@AEBV21@@Z 000000018008a424     IntChecker2-Far3.obj
 0002:00025431       $stateUnwindMap$??$_Emplace_reallocate@AEBV?$function@$$A6AX_J@Z@std@@@?$vector@V?$function@$$A6AX_J@Z@std@@V?$allocator@V?$function@$$A6AX_J@Z@std@@@2@@std@@QEAAPEAV?$function@$$A6AX_J@Z@1@QEAV21@AEBV21@@Z 000000018008a431     IntChecker2-Far3.obj
 0002:0002543a       $tryMap$??$_Emplace_reallocate@AEBV?$function@$$A6AX_J@Z@std@@@?$vector@V?$function@$$A6AX_J@Z@std@@V?$allocator@V?$function@$$A6AX_J@Z@std@@@2@@std@@QEAAPEAV?$function@$$A6AX_J@Z@1@QEAV21@AEBV21@@Z 000000018008a43a     IntChecker2-Far3.obj
 0002:00025442       $handlerMap$??$_Emplace_reallocate@AEBV?$function@$$A6AX_J@Z@std@@@?$vector@V?$function@$$A6AX_J@Z@std@@V?$allocator@V?$function@$$A6AX_J@Z@std@@@2@@std@@QEAAPEAV?$function@$$A6AX_J@Z@1@QEAV21@AEBV21@@Z 000000018008a442     IntChecker2-Far3.obj
 0002:00025449       $ip2state$??$_Emplace_reallocate@AEBV?$function@$$A6AX_J@Z@std@@@?$vector@V?$function@$$A6AX_J@Z@std@@V?$allocator@V?$function@$$A6AX_J@Z@std@@@2@@std@@QEAAPEAV?$function@$$A6AX_J@Z@1@QEAV21@AEBV21@@Z 000000018008a449     IntChecker2-Far3.obj
 0002:00025454       $unwind$??$_Emplace_reallocate@AEBUFarMenuItem@@@?$vector@UFarMenuItem@@V?$allocator@UFarMenuItem@@@std@@@std@@QEAAPEAUFarMenuItem@@QEAU2@AEBU2@@Z 000000018008a454     IntChecker2-Far3.obj
 0002:00025464       $chain$3$??$_Emplace_reallocate@AEBUFarMenuItem@@@?$vector@UFarMenuItem@@V?$allocator@UFarMenuItem@@@std@@@std@@QEAAPEAUFarMenuItem@@QEAU2@AEBU2@@Z 000000018008a464     IntChecker2-Far3.obj
 0002:00025484       $chain$5$??$_Emplace_reallocate@AEBUFarMenuItem@@@?$vector@UFarMenuItem@@V?$allocator@UFarMenuItem@@@std@@@std@@QEAAPEAUFarMenuItem@@QEAU2@AEBU2@@Z 000000018008a484     IntChecker2-Far3.obj
 0002:000254a4       $chain$6$??$_Emplace_reallocate@AEBUFarMenuItem@@@?$vector@UFarMenuItem@@V?$allocator@UFarMenuItem@@@std@@@std@@QEAAPEAUFarMenuItem@@QEAU2@AEBU2@@Z 000000018008a4a4     IntChecker2-Far3.obj
 0002:000254b4       $unwind$??$_Emplace_reallocate@V?$basic_string@_WU?$char_traits@_W@std@@V?$allocator@_W@2@@std@@@?$vector@V?$basic_string@_WU?$char_traits@_W@std@@V?$allocator@_W@2@@std@@V?$allocator@V?$basic_string@_WU?$char_traits@_W@std@@V?$allocator@_W@2@@std@@@2@@std@@QEAAPEAV?$basic_string@_WU?$char_traits@_W@std@@V?$allocator@_W@2@@1@QEAV21@$$QEAV21@@Z 000000018008a4b4     IntChecker2-Far3.obj
 0002:000254c4       $chain$2$??$_Emplace_reallocate@V?$basic_string@_WU?$char_traits@_W@std@@V?$allocator@_W@2@@std@@@?$vector@V?$basic_string@_WU?$char_traits@_W@std@@V?$allocator@_W@2@@std@@V?$allocator@V?$basic_string@_WU?$char_traits@_W@std@@V?$allocator@_W@2@@std@@@2@@std@@QEAAPEAV?$basic_string@_WU?$char_traits@_W@std@@V?$allocator@_W@2@@1@QEAV21@$$QEAV21@@Z 000000018008a4c4     IntChecker2-Far3.obj
 0002:000254e0       $chain$4$??$_Emplace_reallocate@V?$basic_string@_WU?$char_traits@_W@std@@V?$allocator@_W@2@@std@@@?$vector@V?$basic_string@_WU?$char_traits@_W@std@@V?$allocator@_W@2@@std@@V?$allocator@V?$basic_string@_WU?$char_traits@_W@std@@V?$allocator@_W@2@@std@@@2@@std@@QEAAPEAV?$basic_string@_WU?$char_traits@_W@std@@V?$allocator@_W@2@@1@QEAV21@$$QEAV21@@Z 000000018008a4e0     IntChecker2-Far3.obj
 0002:000254fc       $chain$5$??$_Emplace_reallocate@V?$basic_string@_WU?$char_traits@_W@std@@V?$allocator@_W@2@@std@@@?$vector@V?$basic_string@_WU?$char_traits@_W@std@@V?$allocator@_W@2@@std@@V?$allocator@V?$basic_string@_WU?$char_traits@_W@std@@V?$allocator@_W@2@@std@@@2@@std@@QEAAPEAV?$basic_string@_WU?$char_traits@_W@std@@V?$allocator@_W@2@@1@QEAV21@$$QEAV21@@Z 000000018008a4fc     IntChecker2-Far3.obj
 0002:0002550c       $unwind$??$_Emplace_reallocate@AEBV?$basic_string@_WU?$char_traits@_W@std@@V?$allocator@_W@2@@std@@@?$vector@V?$basic_string@_WU?$char_traits@_W@std@@V?$allocator@_W@2@@std@@V?$allocator@V?$basic_string@_WU?$char_traits@_W@std@@V?$allocator@_W@2@@std@@@2@@std@@QEAAPEAV?$basic_string@_WU?$char_traits@_W@std@@V?$allocator@_W@2@@1@QEAV21@AEBV21@@Z 000000018008a50c     IntChecker2-Far3.obj
 0002:00025528       $cppxdata$??$_Emplace_reallocate@AEBV?$basic_string@_WU?$char_traits@_W@std@@V?$allocator@_W@2@@std@@@?$vector@V?$basic_string@_WU?$char_traits@_W@std@@V?$allocator@_W@2@@std@@V?$allocator@V?$basic_string@_WU?$char_traits@_W@std@@V?$allocator@_W@2@@std@@@2@@std@@QEAAPEAV?$basic_string@_WU?$char_traits@_W@std@@V?$allocator@_W@2@@1@QEAV21@AEBV21@@Z 000000018008a528     IntChecker2-Far3.obj
 0002:00025535       $tryMap$??$_Emplace_reallocate@AEBV?$basic_string@_WU?$char_traits@_W@std@@V?$allocator@_W@2@@std@@@?$vector@V?$basic_string@_WU?$char_traits@_W@std@@V?$allocator@_W@2@@std@@V?$allocator@V?$basic_string@_WU?$char_traits@_W@std@@V?$allocator@_W@2@@std@@@2@@std@@QEAAPEAV?$basic_string@_WU?$char_traits@_W@std@@V?$allocator@_W@2@@1@QEAV21@AEBV21@@Z 000000018008a535     IntChecker2-Far3.obj
 0002:0002553d       $handlerMap$??$_Emplace_reallocate@AEBV?$basic_string@_WU?$char_traits@_W@std@@V?$allocator@_W@2@@std@@@?$vector@V?$basic_string@_WU?$char_traits@_W@std@@V?$allocator@_W@2@@std@@V?$allocator@V?$basic_string@_WU?$char_traits@_W@std@@V?$allocator@_W@2@@std@@@2@@std@@QEAAPEAV?$basic_string@_WU?$char_traits@_W@std@@V?$allocator@_W@2@@1@QEAV21@AEBV21@@Z 000000018008a53d     IntChecker2-Far3.obj
 0002:00025544       $ip2state$??$_Emplace_reallocate@AEBV?$basic_string@_WU?$char_traits@_W@std@@V?$allocator@_W@2@@std@@@?$vector@V?$basic_string@_WU?$char_traits@_W@std@@V?$allocator@_W@2@@std@@V?$allocator@V?$basic_string@_WU?$char_traits@_W@std@@V?$allocator@_W@2@@std@@@2@@std@@QEAAPEAV?$basic_string@_WU?$char_traits@_W@std@@V?$allocator@_W@2@@1@QEAV21@AEBV21@@Z 000000018008a544     IntChecker2-Far3.obj
 0002:0002554c       $unwind$??$_Reallocate_grow_by@V<lambda_25953b27f3c43b57ba59f021c7f225c5>@@_W@?$basic_string@_WU?$char_traits@_W@std@@V?$allocator@_W@2@@std@@AEAAAEAV01@_KV<lambda_25953b27f3c43b57ba59f021c7f225c5>@@_W@Z 000000018008a54c     IntChecker2-Far3.obj
 0002:0002555c       $chain$3$??$_Reallocate_grow_by@V<lambda_25953b27f3c43b57ba59f021c7f225c5>@@_W@?$basic_string@_WU?$char_traits@_W@std@@V?$allocator@_W@2@@std@@AEAAAEAV01@_KV<lambda_25953b27f3c43b57ba59f021c7f225c5>@@_W@Z 000000018008a55c     IntChecker2-Far3.obj
 0002:0002557c       $chain$5$??$_Reallocate_grow_by@V<lambda_25953b27f3c43b57ba59f021c7f225c5>@@_W@?$basic_string@_WU?$char_traits@_W@std@@V?$allocator@_W@2@@std@@AEAAAEAV01@_KV<lambda_25953b27f3c43b57ba59f021c7f225c5>@@_W@Z 000000018008a57c     IntChecker2-Far3.obj
 0002:0002559c       $chain$6$??$_Reallocate_grow_by@V<lambda_25953b27f3c43b57ba59f021c7f225c5>@@_W@?$basic_string@_WU?$char_traits@_W@std@@V?$allocator@_W@2@@std@@AEAAAEAV01@_KV<lambda_25953b27f3c43b57ba59f021c7f225c5>@@_W@Z 000000018008a59c     IntChecker2-Far3.obj
 0002:000255ac       $unwind$??$_Reallocate_grow_by@V<lambda_9013ee9e23efe4882b67eff5b0ecf103>@@$$V@?$basic_string@DU?$char_traits@D@std@@V?$allocator@D@2@@std@@AEAAAEAV01@_KV<lambda_9013ee9e23efe4882b67eff5b0ecf103>@@@Z 000000018008a5ac     IntChecker2-Far3.obj
 0002:000255b8       $chain$2$??$_Reallocate_grow_by@V<lambda_9013ee9e23efe4882b67eff5b0ecf103>@@$$V@?$basic_string@DU?$char_traits@D@std@@V?$allocator@D@2@@std@@AEAAAEAV01@_KV<lambda_9013ee9e23efe4882b67eff5b0ecf103>@@@Z 000000018008a5b8     IntChecker2-Far3.obj
 0002:000255d4       $chain$4$??$_Reallocate_grow_by@V<lambda_9013ee9e23efe4882b67eff5b0ecf103>@@$$V@?$basic_string@DU?$char_traits@D@std@@V?$allocator@D@2@@std@@AEAAAEAV01@_KV<lambda_9013ee9e23efe4882b67eff5b0ecf103>@@@Z 000000018008a5d4     IntChecker2-Far3.obj
 0002:000255f0       $chain$5$??$_Reallocate_grow_by@V<lambda_9013ee9e23efe4882b67eff5b0ecf103>@@$$V@?$basic_string@DU?$char_traits@D@std@@V?$allocator@D@2@@std@@AEAAAEAV01@_KV<lambda_9013ee9e23efe4882b67eff5b0ecf103>@@@Z 000000018008a5f0     IntChecker2-Far3.obj
 0002:00025600       $chain$0$??$_Destroy_range@V?$allocator@V?$basic_string@_WU?$char_traits@_W@std@@V?$allocator@_W@2@@std@@@std@@@std@@YAXPEAV?$basic_string@_WU?$char_traits@_W@std@@V?$allocator@_W@2@@0@QEAV10@AEAV?$allocator@V?$basic_string@_WU?$char_traits@_W@std@@V?$allocator@_W@2@@std@@@0@@Z 000000018008a600     IntChecker2-Far3.obj
 0002:00025614       $chain$1$??$_Destroy_range@V?$allocator@V?$basic_string@_WU?$char_traits@_W@std@@V?$allocator@_W@2@@std@@@std@@@std@@YAXPEAV?$basic_string@_WU?$char_traits@_W@std@@V?$allocator@_W@2@@0@QEAV10@AEAV?$allocator@V?$basic_string@_WU?$char_traits@_W@std@@V?$allocator@_W@2@@std@@@0@@Z 000000018008a614     IntChecker2-Far3.obj
 0002:00025624       $chain$2$??$_Destroy_range@V?$allocator@V?$basic_string@_WU?$char_traits@_W@std@@V?$allocator@_W@2@@std@@@std@@@std@@YAXPEAV?$basic_string@_WU?$char_traits@_W@std@@V?$allocator@_W@2@@0@QEAV10@AEAV?$allocator@V?$basic_string@_WU?$char_traits@_W@std@@V?$allocator@_W@2@@std@@@0@@Z 000000018008a624     IntChecker2-Far3.obj
 0002:00025638       $unwind$?insert@?$basic_string@_WU?$char_traits@_W@std@@V?$allocator@_W@2@@std@@QEAAAEAV12@_KQEB_W0@Z 000000018008a638     IntChecker2-Far3.obj
 0002:00025644       $chain$2$?insert@?$basic_string@_WU?$char_traits@_W@std@@V?$allocator@_W@2@@std@@QEAAAEAV12@_KQEB_W0@Z 000000018008a644     IntChecker2-Far3.obj
 0002:00025660       $chain$3$?insert@?$basic_string@_WU?$char_traits@_W@std@@V?$allocator@_W@2@@std@@QEAAAEAV12@_KQEB_W0@Z 000000018008a660     IntChecker2-Far3.obj
 0002:00025670       $unwind$??$_Resize_reallocate@U_Value_init_tag@std@@@?$vector@_WV?$allocator@_W@std@@@std@@AEAAX_KAEBU_Value_init_tag@1@@Z 000000018008a670     IntChecker2-Far3.obj
 0002:0002567c       $chain$1$??$_Resize_reallocate@U_Value_init_tag@std@@@?$vector@_WV?$allocator@_W@std@@@std@@AEAAX_KAEBU_Value_init_tag@1@@Z 000000018008a67c     IntChecker2-Far3.obj
 0002:00025694       $chain$2$??$_Resize_reallocate@U_Value_init_tag@std@@@?$vector@_WV?$allocator@_W@std@@@std@@AEAAX_KAEBU_Value_init_tag@1@@Z 000000018008a694     IntChecker2-Far3.obj
 0002:000256a8       $chain$4$??$_Resize_reallocate@U_Value_init_tag@std@@@?$vector@_WV?$allocator@_W@std@@@std@@AEAAX_KAEBU_Value_init_tag@1@@Z 000000018008a6a8     IntChecker2-Far3.obj
 0002:000256bc       $chain$5$??$_Resize_reallocate@U_Value_init_tag@std@@@?$vector@_WV?$allocator@_W@std@@@std@@AEAAX_KAEBU_Value_init_tag@1@@Z 000000018008a6bc     IntChecker2-Far3.obj
 0002:000256cc       $unwind$??$_Uninitialized_move@PEAV?$function@$$A6AX_J@Z@std@@V?$allocator@V?$function@$$A6AX_J@Z@std@@@2@@std@@YAPEAV?$function@$$A6AX_J@Z@0@QEAV10@0PEAV10@AEAV?$allocator@V?$function@$$A6AX_J@Z@std@@@0@@Z 000000018008a6cc     IntChecker2-Far3.obj
 0002:000256d8       $chain$3$??$_Uninitialized_move@PEAV?$function@$$A6AX_J@Z@std@@V?$allocator@V?$function@$$A6AX_J@Z@std@@@2@@std@@YAPEAV?$function@$$A6AX_J@Z@0@QEAV10@0PEAV10@AEAV?$allocator@V?$function@$$A6AX_J@Z@std@@@0@@Z 000000018008a6d8     IntChecker2-Far3.obj
 0002:000256f8       $chain$4$??$_Uninitialized_move@PEAV?$function@$$A6AX_J@Z@std@@V?$allocator@V?$function@$$A6AX_J@Z@std@@@2@@std@@YAPEAV?$function@$$A6AX_J@Z@0@QEAV10@0PEAV10@AEAV?$allocator@V?$function@$$A6AX_J@Z@std@@@0@@Z 000000018008a6f8     IntChecker2-Far3.obj
 0002:00025708       $unwind$??$_Reallocate_grow_by@V<lambda_967c2ed818824c5314a20ec3af46b793>@@_KPEB_W_K@?$basic_string@_WU?$char_traits@_W@std@@V?$allocator@_W@2@@std@@AEAAAEAV01@_KV<lambda_967c2ed818824c5314a20ec3af46b793>@@_KPEB_W2@Z 000000018008a708     IntChecker2-Far3.obj
 0002:00025714       $chain$2$??$_Reallocate_grow_by@V<lambda_967c2ed818824c5314a20ec3af46b793>@@_KPEB_W_K@?$basic_string@_WU?$char_traits@_W@std@@V?$allocator@_W@2@@std@@AEAAAEAV01@_KV<lambda_967c2ed818824c5314a20ec3af46b793>@@_KPEB_W2@Z 000000018008a714     IntChecker2-Far3.obj
 0002:00025730       $chain$4$??$_Reallocate_grow_by@V<lambda_967c2ed818824c5314a20ec3af46b793>@@_KPEB_W_K@?$basic_string@_WU?$char_traits@_W@std@@V?$allocator@_W@2@@std@@AEAAAEAV01@_KV<lambda_967c2ed818824c5314a20ec3af46b793>@@_KPEB_W2@Z 000000018008a730     IntChecker2-Far3.obj
 0002:0002574c       $chain$5$??$_Reallocate_grow_by@V<lambda_967c2ed818824c5314a20ec3af46b793>@@_KPEB_W_K@?$basic_string@_WU?$char_traits@_W@std@@V?$allocator@_W@2@@std@@AEAAAEAV01@_KV<lambda_967c2ed818824c5314a20ec3af46b793>@@_KPEB_W2@Z 000000018008a74c     IntChecker2-Far3.obj
 0002:0002575c       $unwind$swprintf_s         000000018008a75c     IntChecker2-Far3.obj
 0002:0002576c       $unwind$??0system_error@std@@QEAA@Verror_code@1@@Z 000000018008a76c     IntChecker2-Far3.obj
 0002:00025784       $cppxdata$??0system_error@std@@QEAA@Verror_code@1@@Z 000000018008a784     IntChecker2-Far3.obj
 0002:0002578d       $ip2state$??0system_error@std@@QEAA@Verror_code@1@@Z 000000018008a78d     IntChecker2-Far3.obj
 0002:00025794       $unwind$?message@_System_error_category@std@@UEBA?AV?$basic_string@DU?$char_traits@D@std@@V?$allocator@D@2@@2@H@Z 000000018008a794     IntChecker2-Far3.obj
 0002:000257a8       $cppxdata$?message@_System_error_category@std@@UEBA?AV?$basic_string@DU?$char_traits@D@std@@V?$allocator@D@2@@2@H@Z 000000018008a7a8     IntChecker2-Far3.obj
 0002:000257b1       $stateUnwindMap$?message@_System_error_category@std@@UEBA?AV?$basic_string@DU?$char_traits@D@std@@V?$allocator@D@2@@2@H@Z 000000018008a7b1     IntChecker2-Far3.obj
 0002:000257b8       $ip2state$?message@_System_error_category@std@@UEBA?AV?$basic_string@DU?$char_traits@D@std@@V?$allocator@D@2@@2@H@Z 000000018008a7b8     IntChecker2-Far3.obj
 0002:000257bc       $unwind$?default_error_condition@_System_error_category@std@@UEBA?AVerror_condition@2@H@Z 000000018008a7bc     IntChecker2-Far3.obj
 0002:000257d0       $cppxdata$?default_error_condition@_System_error_category@std@@UEBA?AVerror_condition@2@H@Z 000000018008a7d0     IntChecker2-Far3.obj
 0002:000257d5       $ip2state$?default_error_condition@_System_error_category@std@@UEBA?AVerror_condition@2@H@Z 000000018008a7d5     IntChecker2-Far3.obj
 0002:000257d8       $unwind$?assign@?$basic_string@_WU?$char_traits@_W@std@@V?$allocator@_W@2@@std@@QEAAAEAV12@_K_W@Z 000000018008a7d8     IntChecker2-Far3.obj
 0002:000257f0       $chain$0$?assign@?$basic_string@_WU?$char_traits@_W@std@@V?$allocator@_W@2@@std@@QEAAAEAV12@_K_W@Z 000000018008a7f0     IntChecker2-Far3.obj
 0002:00025804       $chain$1$?assign@?$basic_string@_WU?$char_traits@_W@std@@V?$allocator@_W@2@@std@@QEAAAEAV12@_K_W@Z 000000018008a804     IntChecker2-Far3.obj
 0002:00025804       $chain$3$?assign@?$basic_string@_WU?$char_traits@_W@std@@V?$allocator@_W@2@@std@@QEAAAEAV12@_K_W@Z 000000018008a804     IntChecker2-Far3.obj
 0002:00025814       $chain$2$?assign@?$basic_string@_WU?$char_traits@_W@std@@V?$allocator@_W@2@@std@@QEAAAEAV12@_K_W@Z 000000018008a814     IntChecker2-Far3.obj
 0002:00025828       $unwind$?GetFileSize_i64@@YA_JPEB_W@Z 000000018008a828     Utils.obj
 0002:00025840       $unwind$?IsFile@@YA_NAEBV?$basic_string@_WU?$char_traits@_W@std@@V?$allocator@_W@2@@std@@PEA_J@Z 000000018008a840     Utils.obj
 0002:00025854       $unwind$?CopyTextToClipboard@@YA_NAEAV?$vector@V?$basic_string@_WU?$char_traits@_W@std@@V?$allocator@_W@2@@std@@V?$allocator@V?$basic_string@_WU?$char_traits@_W@std@@V?$allocator@_W@2@@std@@@2@@std@@@Z 000000018008a854     Utils.obj
 0002:00025878       $cppxdata$?CopyTextToClipboard@@YA_NAEAV?$vector@V?$basic_string@_WU?$char_traits@_W@std@@V?$allocator@_W@2@@std@@V?$allocator@V?$basic_string@_WU?$char_traits@_W@std@@V?$allocator@_W@2@@std@@@2@@std@@@Z 000000018008a878     Utils.obj
 0002:00025881       $stateUnwindMap$?CopyTextToClipboard@@YA_NAEAV?$vector@V?$basic_string@_WU?$char_traits@_W@std@@V?$allocator@_W@2@@std@@V?$allocator@V?$basic_string@_WU?$char_traits@_W@std@@V?$allocator@_W@2@@std@@@2@@std@@@Z 000000018008a881     Utils.obj
 0002:0002588d       $ip2state$?CopyTextToClipboard@@YA_NAEAV?$vector@V?$basic_string@_WU?$char_traits@_W@std@@V?$allocator@_W@2@@std@@V?$allocator@V?$basic_string@_WU?$char_traits@_W@std@@V?$allocator@_W@2@@std@@@2@@std@@@Z 000000018008a88d     Utils.obj
 0002:0002589c       $unwind$?ExtractFileName@@YA?AV?$basic_string@_WU?$char_traits@_W@std@@V?$allocator@_W@2@@std@@AEBV12@@Z 000000018008a89c     Utils.obj
 0002:000258bc       $unwind$?ExtractFileExt@@YA?AV?$basic_string@_WU?$char_traits@_W@std@@V?$allocator@_W@2@@std@@AEBV12@@Z 000000018008a8bc     Utils.obj
 0002:000258dc       $cppxdata$?ExtractFileExt@@YA?AV?$basic_string@_WU?$char_traits@_W@std@@V?$allocator@_W@2@@std@@AEBV12@@Z 000000018008a8dc     Utils.obj
 0002:000258e5       $stateUnwindMap$?ExtractFileExt@@YA?AV?$basic_string@_WU?$char_traits@_W@std@@V?$allocator@_W@2@@std@@AEBV12@@Z 000000018008a8e5     Utils.obj
 0002:000258f1       $ip2state$?ExtractFileExt@@YA?AV?$basic_string@_WU?$char_traits@_W@std@@V?$allocator@_W@2@@std@@AEBV12@@Z 000000018008a8f1     Utils.obj
 0002:00025900       $unwind$?FormatString@@YA?AV?$basic_string@_WU?$char_traits@_W@std@@V?$allocator@_W@2@@std@@V12@ZZ 000000018008a900     Utils.obj
 0002:0002591c       $cppxdata$?FormatString@@YA?AV?$basic_string@_WU?$char_traits@_W@std@@V?$allocator@_W@2@@std@@V12@ZZ 000000018008a91c     Utils.obj
 0002:00025925       $stateUnwindMap$?FormatString@@YA?AV?$basic_string@_WU?$char_traits@_W@std@@V?$allocator@_W@2@@std@@V12@ZZ 000000018008a925     Utils.obj
 0002:0002592d       $ip2state$?FormatString@@YA?AV?$basic_string@_WU?$char_traits@_W@std@@V?$allocator@_W@2@@std@@V12@ZZ 000000018008a92d     Utils.obj
 0002:00025934       $unwind$?ConvertToUnicode@@YA?AV?$basic_string@_WU?$char_traits@_W@std@@V?$allocator@_W@2@@std@@AEBV?$basic_string@DU?$char_traits@D@std@@V?$allocator@D@2@@2@H@Z 000000018008a934     Utils.obj
 0002:00025954       $cppxdata$?ConvertToUnicode@@YA?AV?$basic_string@_WU?$char_traits@_W@std@@V?$allocator@_W@2@@std@@AEBV?$basic_string@DU?$char_traits@D@std@@V?$allocator@D@2@@2@H@Z 000000018008a954     Utils.obj
 0002:0002595d       $stateUnwindMap$?ConvertToUnicode@@YA?AV?$basic_string@_WU?$char_traits@_W@std@@V?$allocator@_W@2@@std@@AEBV?$basic_string@DU?$char_traits@D@std@@V?$allocator@D@2@@2@H@Z 000000018008a95d     Utils.obj
 0002:00025964       $ip2state$?ConvertToUnicode@@YA?AV?$basic_string@_WU?$char_traits@_W@std@@V?$allocator@_W@2@@std@@AEBV?$basic_string@DU?$char_traits@D@std@@V?$allocator@D@2@@2@H@Z 000000018008a964     Utils.obj
 0002:0002596c       $unwind$?PrependLongPrefix@@YA?AV?$basic_string@_WU?$char_traits@_W@std@@V?$allocator@_W@2@@std@@AEBV12@@Z 000000018008a96c     Utils.obj
 0002:0002597c       $cppxdata$?PrependLongPrefix@@YA?AV?$basic_string@_WU?$char_traits@_W@std@@V?$allocator@_W@2@@std@@AEBV12@@Z 000000018008a97c     Utils.obj
 0002:00025985       $stateUnwindMap$?PrependLongPrefix@@YA?AV?$basic_string@_WU?$char_traits@_W@std@@V?$allocator@_W@2@@std@@AEBV12@@Z 000000018008a985     Utils.obj
 0002:0002598b       $ip2state$?PrependLongPrefix@@YA?AV?$basic_string@_WU?$char_traits@_W@std@@V?$allocator@_W@2@@std@@AEBV12@@Z 000000018008a98b     Utils.obj
 0002:00025990       $unwind$??$?6_WU?$char_traits@_W@std@@@std@@YAAEAV?$basic_ostream@_WU?$char_traits@_W@std@@@0@AEAV10@D@Z 000000018008a990     Utils.obj
 0002:000259ac       $cppxdata$??$?6_WU?$char_traits@_W@std@@@std@@YAAEAV?$basic_ostream@_WU?$char_traits@_W@std@@@0@AEAV10@D@Z 000000018008a9ac     Utils.obj
 0002:000259b9       $stateUnwindMap$??$?6_WU?$char_traits@_W@std@@@std@@YAAEAV?$basic_ostream@_WU?$char_traits@_W@std@@@0@AEAV10@D@Z 000000018008a9b9     Utils.obj
 0002:000259d2       $tryMap$??$?6_WU?$char_traits@_W@std@@@std@@YAAEAV?$basic_ostream@_WU?$char_traits@_W@std@@@0@AEAV10@D@Z 000000018008a9d2     Utils.obj
 0002:000259da       $handlerMap$??$?6_WU?$char_traits@_W@std@@@std@@YAAEAV?$basic_ostream@_WU?$char_traits@_W@std@@@0@AEAV10@D@Z 000000018008a9da     Utils.obj
 0002:000259e3       $ip2state$??$?6_WU?$char_traits@_W@std@@@std@@YAAEAV?$basic_ostream@_WU?$char_traits@_W@std@@@0@AEAV10@D@Z 000000018008a9e3     Utils.obj
 0002:000259f4       $unwind$rhash_init_multi   000000018008a9f4     rhash:rhash.obj
 0002:00025a04       $chain$1$rhash_init_multi  000000018008aa04     rhash:rhash.obj
 0002:00025a1c       $chain$3$rhash_init_multi  000000018008aa1c     rhash:rhash.obj
 0002:00025a34       $chain$4$rhash_init_multi  000000018008aa34     rhash:rhash.obj
 0002:00025a48       $chain$6$rhash_init_multi  000000018008aa48     rhash:rhash.obj
 0002:00025a5c       $unwind$rhash_init         000000018008aa5c     rhash:rhash.obj
 0002:00025a6c       $unwind$rhash_final        000000018008aa6c     rhash:rhash.obj
 0002:00025a80       $chain$0$rhash_final       000000018008aa80     rhash:rhash.obj
 0002:00025a94       $chain$1$rhash_final       000000018008aa94     rhash:rhash.obj
 0002:00025aa4       $unwind$rhash_print_bytes  000000018008aaa4     rhash:rhash.obj
 0002:00025ac0       $chain$0$rhash_print_bytes 000000018008aac0     rhash:rhash.obj
 0002:00025ad4       $chain$1$rhash_print_bytes 000000018008aad4     rhash:rhash.obj
 0002:00025ad4       $chain$3$rhash_print_bytes 000000018008aad4     rhash:rhash.obj
 0002:00025ae4       $chain$2$rhash_print_bytes 000000018008aae4     rhash:rhash.obj
 0002:00025af8       $unwind$rhash_print        000000018008aaf8     rhash:rhash.obj
 0002:00025b0c       $chain$0$rhash_print       000000018008ab0c     rhash:rhash.obj
 0002:00025b20       $chain$1$rhash_print       000000018008ab20     rhash:rhash.obj
 0002:00025b30       $unwind$__GSHandlerCheckCommon 000000018008ab30     LIBCMT:gshandler.obj
 0002:00025b30       $unwind$calculate_crc_soft 000000018008ab30     rhash:crc32.obj
 0002:00025b30       $unwind$rhash_byte_to_base64 000000018008ab30     rhash:hex.obj
 0002:00025b38       $chain$1$rhash_byte_to_base64 000000018008ab38     rhash:hex.obj
 0002:00025b50       $chain$2$rhash_byte_to_base64 000000018008ab50     rhash:hex.obj
 0002:00025b60       $unwind$rhash_urlencode    000000018008ab60     rhash:hex.obj
 0002:00025b70       $chain$2$rhash_urlencode   000000018008ab70     rhash:hex.obj
 0002:00025b88       $chain$3$rhash_urlencode   000000018008ab88     rhash:hex.obj
 0002:00025b98       $unwind$rhash_sprintI64    000000018008ab98     rhash:hex.obj
 0002:00025bac       $unwind$rhash_has160_process_block 000000018008abac     rhash:has160.obj
 0002:00025bc8       $unwind$keccak_theta       000000018008abc8     rhash:sha3.obj
 0002:00025be0       $unwind$rhash_sha3_permutation 000000018008abe0     rhash:sha3.obj
 0002:00025bf8       $unwind$rhash_sha3_update  000000018008abf8     rhash:sha3.obj
 0002:00025c08       $chain$1$rhash_sha3_update 000000018008ac08     rhash:sha3.obj
 0002:00025c20       $chain$2$rhash_sha3_update 000000018008ac20     rhash:sha3.obj
 0002:00025c30       $unwind$bt_update          000000018008ac30     rhash:torrent.obj
 0002:00025c40       $chain$2$bt_update         000000018008ac40     rhash:torrent.obj
 0002:00025c5c       $chain$3$bt_update         000000018008ac5c     rhash:torrent.obj
 0002:00025c6c       $unwind$bt_str_append      000000018008ac6c     rhash:torrent.obj
 0002:00025c80       $unwind$bt_bencode_int     000000018008ac80     rhash:torrent.obj
 0002:00025c90       $unwind$bt_bencode_str     000000018008ac90     rhash:torrent.obj
 0002:00025ca4       $unwind$rhash_sha512_process_block 000000018008aca4     rhash:sha512.obj
 0002:00025cbc       $unwind$LPSX               000000018008acbc     rhash:gost12.obj
 0002:00025cd8       $unwind$g_N                000000018008acd8     rhash:gost12.obj
 0002:00025cf8       $unwind$rhash_gost12_final 000000018008acf8     rhash:gost12.obj
 0002:00025d14       $unwind$rhash_ed2k_update  000000018008ad14     rhash:ed2k.obj
 0002:00025d28       $chain$0$rhash_ed2k_update 000000018008ad28     rhash:ed2k.obj
 0002:00025d3c       $chain$4$rhash_ed2k_update 000000018008ad3c     rhash:ed2k.obj
 0002:00025d5c       $chain$5$rhash_ed2k_update 000000018008ad5c     rhash:ed2k.obj
 0002:00025d6c       $chain$6$rhash_ed2k_update 000000018008ad6c     rhash:ed2k.obj
 0002:00025d7c       $unwind$rhash_ed2k_final   000000018008ad7c     rhash:ed2k.obj
 0002:00025d90       $chain$0$rhash_ed2k_final  000000018008ad90     rhash:ed2k.obj
 0002:00025da4       $chain$1$rhash_ed2k_final  000000018008ada4     rhash:ed2k.obj
 0002:00025db4       $unwind$rhash_whirlpool_process_block 000000018008adb4     rhash:whirlpool.obj
 0002:00025dd8       $unwind$rhash_blake2b_process_block 000000018008add8     rhash:blake2b.obj
 0002:00025df8       $unwind$rhash_blake2b_update 000000018008adf8     rhash:blake2b.obj
 0002:00025df8       $unwind$rhash_blake2s_update 000000018008adf8     rhash:blake2s.obj
 0002:00025e08       $chain$1$rhash_blake2b_update 000000018008ae08     rhash:blake2b.obj
 0002:00025e20       $chain$2$rhash_blake2b_update 000000018008ae20     rhash:blake2b.obj
 0002:00025e30       $unwind$rhash_md4_process_block 000000018008ae30     rhash:md4.obj
 0002:00025e30       $unwind$rhash_md5_process_block 000000018008ae30     rhash:md5.obj
 0002:00025e48       $unwind$rhash_edonr256_process_block 000000018008ae48     rhash:edonr.obj
 0002:00025e60       $unwind$rhash_edonr512_process_block 000000018008ae60     rhash:edonr.obj
 0002:00025e78       $unwind$rhash_ripemd160_process_block 000000018008ae78     rhash:ripemd-160.obj
 0002:00025e90       $unwind$rhash_sha256_process_block 000000018008ae90     rhash:sha256.obj
 0002:00025ea8       $unwind$rhash_tiger_process_block 000000018008aea8     rhash:tiger.obj
 0002:00025ec0       $unwind$rhash_blake2s_process_block 000000018008aec0     rhash:blake2s.obj
 0002:00025edc       $chain$1$rhash_blake2s_update 000000018008aedc     rhash:blake2s.obj
 0002:00025ef4       $chain$2$rhash_blake2s_update 000000018008aef4     rhash:blake2s.obj
 0002:00025f04       $unwind$rhash_aich_cleanup 000000018008af04     rhash:aich.obj
 0002:00025f10       $chain$0$rhash_aich_cleanup 000000018008af10     rhash:aich.obj
 0002:00025f24       $chain$1$rhash_aich_cleanup 000000018008af24     rhash:aich.obj
 0002:00025f34       $unwind$rhash_aich_hash_tree 000000018008af34     rhash:aich.obj
 0002:00025f50       $chain$2$rhash_aich_hash_tree 000000018008af50     rhash:aich.obj
 0002:00025f6c       $chain$3$rhash_aich_hash_tree 000000018008af6c     rhash:aich.obj
 0002:00025f7c       $unwind$rhash_aich_process_block 000000018008af7c     rhash:aich.obj
 0002:00025f88       $chain$0$rhash_aich_process_block 000000018008af88     rhash:aich.obj
 0002:00025f9c       $chain$2$rhash_aich_process_block 000000018008af9c     rhash:aich.obj
 0002:00025fb4       $chain$3$rhash_aich_process_block 000000018008afb4     rhash:aich.obj
 0002:00025fc4       $chain$4$rhash_aich_process_block 000000018008afc4     rhash:aich.obj
 0002:00025fd4       $unwind$rhash_aich_update  000000018008afd4     rhash:aich.obj
 0002:00025fe0       $chain$2$rhash_aich_update 000000018008afe0     rhash:aich.obj
 0002:00025ffc       $chain$3$rhash_aich_update 000000018008affc     rhash:aich.obj
 0002:0002600c       $unwind$rhash_aich_final   000000018008b00c     rhash:aich.obj
 0002:00026020       $chain$0$rhash_aich_final  000000018008b020     rhash:aich.obj
 0002:00026034       $chain$1$rhash_aich_final  000000018008b034     rhash:aich.obj
 0002:00026048       $chain$2$rhash_aich_final  000000018008b048     rhash:aich.obj
 0002:00026058       $chain$3$rhash_aich_final  000000018008b058     rhash:aich.obj
 0002:00026068       $unwind$rhash_sha1_process_block 000000018008b068     rhash:sha1.obj
 0002:00026090       $unwind$rhash_gost94_block_compress 000000018008b090     rhash:gost94.obj
 0002:000260b4       $chain$0$calculate_crc_soft 000000018008b0b4     rhash:crc32.obj
 0002:000260c8       $chain$1$calculate_crc_soft 000000018008b0c8     rhash:crc32.obj
 0002:000260d8       $unwind$rhash_tth_process_block 000000018008b0d8     rhash:tth.obj
 0002:000260f0       $chain$3$rhash_tth_process_block 000000018008b0f0     rhash:tth.obj
 0002:00026110       $chain$4$rhash_tth_process_block 000000018008b110     rhash:tth.obj
 0002:00026120       $unwind$rhash_tth_final    000000018008b120     rhash:tth.obj
 0002:00026134       $chain$3$rhash_tth_final   000000018008b134     rhash:tth.obj
 0002:00026154       $chain$5$rhash_tth_final   000000018008b154     rhash:tth.obj
 0002:0002616c       $chain$6$rhash_tth_final   000000018008b16c     rhash:tth.obj
 0002:0002617c       $chain$7$rhash_tth_final   000000018008b17c     rhash:tth.obj
 0002:0002618c       $unwind$rhash_snefru_process_block 000000018008b18c     rhash:snefru.obj
 0002:000261a4       $unwind$?fp_format_f_internal@@YAHQEAD_KHQEAU_strflt@@_NAEAV__crt_cached_ptd_host@@@Z 000000018008b1a4     libucrt:cvt.obj
 0002:000261a4       $unwind$??$common_xtox@K_W@@YAHKQEA_W_KI_N@Z 000000018008b1a4     libucrt:xtoa.obj
 0002:000261a4       $unwind$TranslateName      000000018008b1a4     libucrt:getqloc_downlevel.obj
 0002:000261a4       $unwind$__acrt_DownlevelLocaleNameToLCID 000000018008b1a4     libucrt:lcidtoname_downlevel.obj
 0002:000261a4       $unwind$??R<lambda_f03950bc5685219e0bcd2087efbe011e>@@QEBAHXZ 000000018008b1a4     libucrt:onexit.obj
 0002:000261a4       $unwind$rhash_snefru_update 000000018008b1a4     rhash:snefru.obj
 0002:000261bc       $unwind$__std_fs_directory_iterator_open 000000018008b1bc     libcpmt:filesystem.obj
 0002:000261bc       $unwind$_Mbrtowc           000000018008b1bc     libcpmt:xmbtowc.obj
 0002:000261bc       $unwind$??0regex_error@std@@QEAA@W4error_type@regex_constants@1@@Z 000000018008b1bc     libcpmt:xthrow.obj
 0002:000261bc       $unwind$?getStateFromIterators@UWMap4@FH4@@SAHAEBViterator@12@H0H0@Z 000000018008b1bc     libvcruntime:frame.obj
 0002:000261bc       $unwind$?commit_locale_name@_expandlocale_locale_name_cache@@QEAAXQEB_W_K@Z 000000018008b1bc     libucrt:wsetlocale.obj
 0002:000261bc       $unwind$__acrt_copy_locale_name 000000018008b1bc     libucrt:wsetlocale.obj
 0002:000261cc       $unwind$?_Tidy@ios_base@std@@AEAAXXZ 000000018008b1cc     libcpmt:ios.obj
 0002:000261e0       $cppxdata$?_Tidy@ios_base@std@@AEAAXXZ 000000018008b1e0     libcpmt:ios.obj
 0002:000261e5       $ip2state$?_Tidy@ios_base@std@@AEAAXXZ 000000018008b1e5     libcpmt:ios.obj
 0002:000261e8       $unwind$??0_Locimp@locale@std@@AEAA@_N@Z 000000018008b1e8     libcpmt:locale0.obj
 0002:000261f8       $unwind$?_Init@locale@std@@CAPEAV_Locimp@12@_N@Z 000000018008b1f8     libcpmt:locale0.obj
 0002:00026214       $cppxdata$?_Init@locale@std@@CAPEAV_Locimp@12@_N@Z 000000018008b214     libcpmt:locale0.obj
 0002:0002621d       $stateUnwindMap$?_Init@locale@std@@CAPEAV_Locimp@12@_N@Z 000000018008b21d     libcpmt:locale0.obj
 0002:00026224       $ip2state$?_Init@locale@std@@CAPEAV_Locimp@12@_N@Z 000000018008b224     libcpmt:locale0.obj
 0002:0002622c       $unwind$_Tolower           000000018008b22c     libcpmt:_tolower.obj
 0002:0002623c       $unwind$_Toupper           000000018008b23c     libcpmt:_toupper.obj
 0002:00026250       $unwind$_Wcrtomb           000000018008b250     libcpmt:xwctomb.obj
 0002:00026258       $unwind$__report_gsfailure 000000018008b258     LIBCMT:gs_report.obj
 0002:00026258       $unwind$_Towlower          000000018008b258     libcpmt:xtowlower.obj
 0002:00026258       $unwind$_Towupper          000000018008b258     libcpmt:xtowupper.obj
 0002:00026260       $unwind$_Getwctype         000000018008b260     libcpmt:xgetwctype.obj
 0002:00026260       $unwind$_putwch_nolock     000000018008b260     libucrt:putwch.obj
 0002:00026268       $unwind$_Strxfrm           000000018008b268     libcpmt:xstrxfrm.obj
 0002:00026268       $unwind$_wcsnicmp_l        000000018008b268     libucrt:wcsnicmp.obj
 0002:00026284       $unwind$_Strcoll           000000018008b284     libcpmt:xstrcoll.obj
 0002:00026284       $unwind$__dcrt_get_narrow_environment_from_os 000000018008b284     libucrt:get_environment_from_os.obj
 0002:00026284       $unwind$??$__acrt_convert_wcs_mbs_cp@_WDV<lambda_d8593a27d1aa8c02be35c86a17d324c4>@@U__crt_win32_buffer_internal_dynamic_resizing@@@@YAHQEB_WAEAV?$__crt_win32_buffer@DU__crt_win32_buffer_internal_dynamic_resizing@@@@AEBV<lambda_d8593a27d1aa8c02be35c86a17d324c4>@@I@Z 000000018008b284     libucrt:argv_wildcards.obj
 0002:0002629c       $unwind$__std_fs_open_handle 000000018008b29c     libcpmt:filesystem.obj
 0002:0002629c       $unwind$_mbsdec_l          000000018008b29c     libucrt:mbsdec.obj
 0002:0002629c       $unwind$_stricmp_l         000000018008b29c     libucrt:stricmp.obj
 0002:000262a8       $unwind$__std_fs_get_stats 000000018008b2a8     libcpmt:filesystem.obj
 0002:000262c4       $unwind$__std_fs_convert_wide_to_narrow_replace_chars 000000018008b2c4     libcpmt:filesystem.obj
 0002:000262c4       $unwind$??$__InternalCxxFrameHandler@V__FrameHandler3@@@@YA?AW4_EXCEPTION_DISPOSITION@@PEAUEHExceptionRecord@@PEA_KPEAU_CONTEXT@@PEAU_xDISPATCHER_CONTEXT@@PEBU_s_FuncInfo@@H1E@Z 000000018008b2c4     libvcruntime:frame.obj
 0002:000262c4       $unwind$?fp_format_e@@YAHQEBNQEAD_K12H_NIW4__acrt_rounding_mode@@AEAV__crt_cached_ptd_host@@@Z 000000018008b2c4     libucrt:cvt.obj
 0002:000262dc       $unwind$??__Finit_atexit@@YAXXZ 000000018008b2dc     libcpmt:iosptrs.obj
 0002:000262ec       $cppxdata$??__Finit_atexit@@YAXXZ 000000018008b2ec     libcpmt:iosptrs.obj
 0002:000262f5       $ip2state$??__Finit_atexit@@YAXXZ 000000018008b2f5     libcpmt:iosptrs.obj
 0002:000262f8       $unwind$__crtLCMapStringA  000000018008b2f8     libcpmt:StlLCMapStringA.obj
 0002:00026320       $unwind$__crtLCMapStringW  000000018008b320     libcpmt:StlLCMapStringW.obj
 0002:00026320       $unwind$?fp_format_f@@YAHQEBNQEAD_K12HW4__acrt_rounding_mode@@AEAV__crt_cached_ptd_host@@@Z 000000018008b320     libucrt:cvt.obj
 0002:00026320       $unwind$__acrt_LCMapStringEx 000000018008b320     libucrt:winapi_thunks.obj
 0002:00026320       $unwind$__acrt_LCMapStringW 000000018008b320     libucrt:lcmapstringw.obj
 0002:00026334       $unwind$__crtCompareStringA 000000018008b334     libcpmt:StlCompareStringA.obj
 0002:00026358       $xdatasym                  000000018008b358     LIBCMT:amdsecgs.obj
 0002:0002635c       $unwind$__scrt_is_nonwritable_in_current_image 000000018008b35c     LIBCMT:utility.obj
 0002:0002637c       $unwind$__scrt_is_nonwritable_in_current_image$filt$0 000000018008b37c     LIBCMT:utility.obj
 0002:00026384       $unwind$??_M@YAXPEAX_K1P6AX0@Z@Z 000000018008b384     LIBCMT:ehvecdtr.obj
 0002:000263ac       $unwind$?__ArrayUnwind@@YAXPEAX_K1P6AX0@Z@Z 000000018008b3ac     LIBCMT:ehvecdtr.obj
 0002:000263d8       $unwind$?filt$0@?0??__ArrayUnwind@@YAXPEAX_K1P6AX0@Z@Z@4HA 000000018008b3d8     LIBCMT:ehvecdtr.obj
 0002:000263d8       $unwind$__DestructExceptionObject$filt$0 000000018008b3d8     libvcruntime:ehhelpers.obj
 0002:000263d8       $unwind$?fin$1@?0??CxxCallCatchBlock@__FrameHandler3@@SAPEAXPEAU_EXCEPTION_RECORD@@@Z@4HA 000000018008b3d8     libvcruntime:frame.obj
 0002:000263d8       $unwind$?fin$1@?0??CxxCallCatchBlock@__FrameHandler4@@SAPEAXPEAU_EXCEPTION_RECORD@@@Z@4HA 000000018008b3d8     libvcruntime:frame.obj
 0002:000263e4       $unwind$?dllmain_crt_process_attach@@YAHQEAUHINSTANCE__@@QEAX@Z 000000018008b3e4     LIBCMT:dll_dllmain.obj
 0002:00026420       $unwind$?dllmain_crt_process_detach@@YAH_N@Z 000000018008b420     LIBCMT:dll_dllmain.obj
 0002:00026474       $unwind$?dllmain_dispatch@@YAHQEAUHINSTANCE__@@KQEAX@Z 000000018008b474     LIBCMT:dll_dllmain.obj
 0002:0002649c       $unwind$?filt$0@?0??dllmain_dispatch@@YAHQEAUHINSTANCE__@@KQEAX@Z@4HA 000000018008b49c     LIBCMT:dll_dllmain.obj
 0002:0002649c       $unwind$?filt$0@?0??FrameUnwindToState@__FrameHandler4@@SAXPEA_KPEAU_xDISPATCHER_CONTEXT@@PEAUFuncInfo4@FH4@@H@Z@4HA 000000018008b49c     libvcruntime:frame.obj
 0002:0002649c       $unwind$?fin$1@?0??FrameUnwindToState@__FrameHandler4@@SAXPEA_KPEAU_xDISPATCHER_CONTEXT@@PEAUFuncInfo4@FH4@@H@Z@4HA 000000018008b49c     libvcruntime:frame.obj
 0002:0002649c       $unwind$_write_internal$fin$0 000000018008b49c     libucrt:write.obj
 0002:0002649c       $unwind$?fin$0@?0??_fclose_internal@@YAHQEAU_iobuf@@AEAV__crt_cached_ptd_host@@@Z@4HA 000000018008b49c     libucrt:fclose.obj
 0002:000264a4       $unwind$__GSHandlerCheck_EH 000000018008b4a4     LIBCMT:gshandlereh.obj
 0002:000264a4       $unwind$__GSHandlerCheck_EH4 000000018008b4a4     LIBCMT:gshandlereh4.obj
 0002:000264a4       $unwind$__GSHandlerCheck_SEH 000000018008b4a4     LIBCMT:gshandlerseh.obj
 0002:000264a4       $unwind$??$TypeMatchHelper@V__FrameHandler3@@@@YAHPEBU_s_HandlerType@@PEBU_s_CatchableType@@PEBU_s_ThrowInfo@@@Z 000000018008b4a4     libvcruntime:frame.obj
 0002:000264a4       $unwind$??$TypeMatchHelper@V__FrameHandler4@@@@YAHPEAUHandlerType4@FH4@@PEBU_s_CatchableType@@PEBU_s_ThrowInfo@@@Z 000000018008b4a4     libvcruntime:frame.obj
 0002:000264a4       $unwind$?initialize_stdio_handles_nolock@@YAXXZ 000000018008b4a4     libucrt:ioinit.obj
 0002:000264a4       $unwind$__acrt_lowio_set_os_handle 000000018008b4a4     libucrt:osfinfo.obj
 0002:000264a4       $unwind$__acrt_initialize_stdio 000000018008b4a4     libucrt:_file.obj
 0002:000264a4       $unwind$??$__acrt_stdio_parse_mode@_W@@YA?AU__acrt_stdio_stream_mode@@QEB_W@Z 000000018008b4a4     libucrt:openfile.obj
 0002:000264c0       $xdatasym                  000000018008b4c0     LIBCMT:chkstk.obj
 0002:000264c8       $unwind$__report_securityfailure 000000018008b4c8     LIBCMT:gs_report.obj
 0002:000264d0       $unwind$capture_current_context 000000018008b4d0     LIBCMT:gs_report.obj
 0002:000264dc       $unwind$capture_previous_context 000000018008b4dc     LIBCMT:gs_report.obj
 0002:000264e8       $unwind$__isa_available_init 000000018008b4e8     LIBCMT:cpu_disp.obj
 0002:000264f8       $unwind$__scrt_fastfail    000000018008b4f8     LIBCMT:utility_desktop.obj
 0002:00026508       $unwind$__security_init_cookie 000000018008b508     LIBCMT:gs_support.obj
 0002:00026518       $xdatasym                  000000018008b518     LIBCMT:guard_dispatch.obj
 0002:00026520       $xdatasym                  000000018008b520     LIBCMT:guard_xfg_dispatch.obj
 0002:00026524       $unwind$?DecompFuncInfo@FH4@@YA_JPEAEAEAUFuncInfo4@1@_KH_N@Z 000000018008b524     libvcruntime:risctrnsctrl.obj
 0002:0002653c       $unwind$?UnwindNestedFrames@__FrameHandler3@@SAXPEA_KPEAUEHExceptionRecord@@PEAU_CONTEXT@@0PEAXPEBU_s_FuncInfo@@HHPEBU_s_HandlerType@@PEAU_xDISPATCHER_CONTEXT@@E@Z 000000018008b53c     libvcruntime:risctrnsctrl.obj
 0002:0002653c       $unwind$?UnwindNestedFrames@__FrameHandler4@@SAXPEA_KPEAUEHExceptionRecord@@PEAU_CONTEXT@@0PEAXPEAUFuncInfo4@FH4@@HHPEAUHandlerType4@5@PEAU_xDISPATCHER_CONTEXT@@E@Z 000000018008b53c     libvcruntime:risctrnsctrl.obj
 0002:00026550       $unwind$__C_specific_handler 000000018008b550     libvcruntime:riscchandler.obj
 0002:00026550       $unwind$?GetRangeOfTrysToCheck@__FrameHandler3@@SA?AU?$pair@Viterator@TryBlockMap@__FrameHandler3@@V123@@std@@AEAVTryBlockMap@1@HPEAU_xDISPATCHER_CONTEXT@@PEBU_s_FuncInfo@@H@Z 000000018008b550     libvcruntime:risctrnsctrl.obj
 0002:00026550       $unwind$__acrt_locale_initialize_numeric 000000018008b550     libucrt:initnum.obj
 0002:0002656c       $unwind$?GetRangeOfTrysToCheck@__FrameHandler4@@SA?AU?$pair@Viterator@TryBlockMap4@FH4@@V123@@std@@AEAVTryBlockMap4@FH4@@HPEAU_xDISPATCHER_CONTEXT@@PEAUFuncInfo4@5@H@Z 000000018008b56c     libvcruntime:risctrnsctrl.obj
 0002:00026588       $unwind$__CxxFrameHandler3 000000018008b588     libvcruntime:risctrnsctrl.obj
 0002:0002659c       $unwind$__CxxFrameHandler4 000000018008b59c     libvcruntime:risctrnsctrl.obj
 0002:000265b0       $unwind$??$_CallSETranslator@V__FrameHandler4@@@@YAHPEAUEHExceptionRecord@@PEA_KPEAU_CONTEXT@@PEAU_xDISPATCHER_CONTEXT@@PEAUFuncInfo4@FH4@@K1H@Z 000000018008b5b0     libvcruntime:risctrnsctrl.obj
 0002:000265d0       $unwind$?filt$0@?0???$_CallSETranslator@V__FrameHandler3@@@@YAHPEAUEHExceptionRecord@@PEA_KPEAU_CONTEXT@@PEAU_xDISPATCHER_CONTEXT@@PEBU_s_FuncInfo@@K1H@Z@4HA 000000018008b5d0     libvcruntime:risctrnsctrl.obj
 0002:000265d0       $unwind$?filt$0@?0???$_CallSETranslator@V__FrameHandler4@@@@YAHPEAUEHExceptionRecord@@PEA_KPEAU_CONTEXT@@PEAU_xDISPATCHER_CONTEXT@@PEAUFuncInfo4@FH4@@K1H@Z@4HA 000000018008b5d0     libvcruntime:risctrnsctrl.obj
 0002:000265dc       $unwind$??$_CallSETranslator@V__FrameHandler3@@@@YAHPEAUEHExceptionRecord@@PEA_KPEAU_CONTEXT@@PEAU_xDISPATCHER_CONTEXT@@PEBU_s_FuncInfo@@K1H@Z 000000018008b5dc     libvcruntime:risctrnsctrl.obj
 0002:000265fc       $unwind$__DestructExceptionObject 000000018008b5fc     libvcruntime:ehhelpers.obj
 0002:0002661c       $unwind$__std_exception_copy 000000018008b61c     libvcruntime:std_exception.obj
 0002:0002661c       $unwind$_free_osfhnd       000000018008b61c     libucrt:osfinfo.obj
 0002:0002661c       $unwind$__acrt_stdio_refill_and_read_narrow_nolock 000000018008b61c     libucrt:_filbuf.obj
 0002:00026630       $unwind$_CxxThrowException 000000018008b630     libvcruntime:throw.obj
 0002:00026640       $xdatasym                  000000018008b640     libvcruntime:memcpy.obj
 0002:00026650       $xdatasym                  000000018008b650     libvcruntime:memcmp.obj
 0002:00026658       $xdatasym                  000000018008b658     libvcruntime:memchr.obj
 0002:00026660       $xdatasym                  000000018008b660     libvcruntime:memset.obj
 0002:00026670       $unwind$?StateFromIp@__FrameHandler4@@SAHPEAUFuncInfo4@FH4@@PEAU_xDISPATCHER_CONTEXT@@_K@Z 000000018008b670     libvcruntime:ehstate.obj
 0002:00026684       $unwind$?getStartStop@UWMap4@FH4@@QEAAXHHAEAViterator@12@0@Z 000000018008b684     libvcruntime:frame.obj
 0002:0002669c       $unwind$?FrameUnwindToState@__FrameHandler3@@SAXPEA_KPEAU_xDISPATCHER_CONTEXT@@PEBU_s_FuncInfo@@H@Z 000000018008b69c     libvcruntime:frame.obj
 0002:000266e8       $unwind$?CxxCallCatchBlock@__FrameHandler3@@SAPEAXPEAU_EXCEPTION_RECORD@@@Z 000000018008b6e8     libvcruntime:frame.obj
 0002:00026724       $unwind$?FrameUnwindToState@__FrameHandler4@@SAXPEA_KPEAU_xDISPATCHER_CONTEXT@@PEAUFuncInfo4@FH4@@H@Z 000000018008b724     libvcruntime:frame.obj
 0002:0002676c       $unwind$?CxxCallCatchBlock@__FrameHandler4@@SAPEAXPEAU_EXCEPTION_RECORD@@@Z 000000018008b76c     libvcruntime:frame.obj
 0002:000267c8       $unwind$?IsInExceptionSpec@@YAEPEAUEHExceptionRecord@@PEBU_s_ESTypeList@@@Z 000000018008b7c8     libvcruntime:frame.obj
 0002:000267e4       $unwind$??$__InternalCxxFrameHandler@V__FrameHandler4@@@@YA?AW4_EXCEPTION_DISPOSITION@@PEAUEHExceptionRecord@@PEA_KPEAU_CONTEXT@@PEAU_xDISPATCHER_CONTEXT@@PEAUFuncInfo4@FH4@@H1E@Z 000000018008b7e4     libvcruntime:frame.obj
 0002:000267fc       $unwind$??$BuildCatchObjectHelperInternal@V__FrameHandler3@@@@YAHPEAUEHExceptionRecord@@PEAXPEBU_s_HandlerType@@PEBU_s_CatchableType@@@Z 000000018008b7fc     libvcruntime:frame.obj
 0002:0002683c       $unwind$??$BuildCatchObjectHelperInternal@V__FrameHandler4@@@@YAHPEAUEHExceptionRecord@@PEAXPEAUHandlerType4@FH4@@PEBU_s_CatchableType@@@Z 000000018008b83c     libvcruntime:frame.obj
 0002:0002687c       $unwind$??$BuildCatchObjectInternal@V__FrameHandler3@@@@YAXPEAUEHExceptionRecord@@PEAXPEBU_s_HandlerType@@PEBU_s_CatchableType@@@Z 000000018008b87c     libvcruntime:frame.obj
 0002:000268a8       $unwind$??$BuildCatchObjectInternal@V__FrameHandler4@@@@YAXPEAUEHExceptionRecord@@PEAXPEAUHandlerType4@FH4@@PEBU_s_CatchableType@@@Z 000000018008b8a8     libvcruntime:frame.obj
 0002:000268d4       $unwind$??$FindHandler@V__FrameHandler3@@@@YAXPEAUEHExceptionRecord@@PEA_KPEAU_CONTEXT@@PEAU_xDISPATCHER_CONTEXT@@PEBU_s_FuncInfo@@EH1@Z 000000018008b8d4     libvcruntime:frame.obj
 0002:000268f4       $unwind$??$FindHandler@V__FrameHandler4@@@@YAXPEAUEHExceptionRecord@@PEA_KPEAU_CONTEXT@@PEAU_xDISPATCHER_CONTEXT@@PEAUFuncInfo4@FH4@@EH1@Z 000000018008b8f4     libvcruntime:frame.obj
 0002:00026914       $unwind$??$CatchIt@V__FrameHandler3@@@@YAXPEAUEHExceptionRecord@@PEA_KPEAU_CONTEXT@@PEAU_xDISPATCHER_CONTEXT@@PEBU_s_FuncInfo@@PEBU_s_HandlerType@@PEBU_s_CatchableType@@PEBU_s_TryBlockMapEntry@@H1EE@Z 000000018008b914     libvcruntime:frame.obj
 0002:00026914       $unwind$??$CatchIt@V__FrameHandler4@@@@YAXPEAUEHExceptionRecord@@PEA_KPEAU_CONTEXT@@PEAU_xDISPATCHER_CONTEXT@@PEAUFuncInfo4@FH4@@PEAUHandlerType4@4@PEBU_s_CatchableType@@PEAUTryBlockMapEntry4@4@H1EE@Z 000000018008b914     libvcruntime:frame.obj
 0002:0002692c       $unwind$??$FindHandlerForForeignException@V__FrameHandler3@@@@YAXPEAUEHExceptionRecord@@PEA_KPEAU_CONTEXT@@PEAU_xDISPATCHER_CONTEXT@@PEBU_s_FuncInfo@@HH1@Z 000000018008b92c     libvcruntime:frame.obj
 0002:00026948       $unwind$??$FindHandlerForForeignException@V__FrameHandler4@@@@YAXPEAUEHExceptionRecord@@PEA_KPEAU_CONTEXT@@PEAU_xDISPATCHER_CONTEXT@@PEAUFuncInfo4@FH4@@HH1@Z 000000018008b948     libvcruntime:frame.obj
 0002:00026968       $xdatasym                  000000018008b968     libvcruntime:notify.obj
 0002:00026978       $xdatasym                  000000018008b978     libvcruntime:handlers.obj
 0002:00026998       $unwind$_wcsicmp_l         000000018008b998     libucrt:wcsicmp.obj
 0002:000269b0       $unwind$__acrt_call_reportfault 000000018008b9b0     libucrt:invalid_parameter.obj
 0002:000269d0       $unwind$__acrt_GetLocaleInfoEx 000000018008b9d0     libucrt:winapi_thunks.obj
 0002:000269d0       $unwind$__acrt_LCIDToLocaleName 000000018008b9d0     libucrt:winapi_thunks.obj
 0002:000269d0       $unwind$__acrt_DownlevelLCIDToLocaleName 000000018008b9d0     libucrt:lcidtoname_downlevel.obj
 0002:000269d0       $unwind$__lc_lctowcs       000000018008b9d0     libucrt:wsetlocale.obj
 0002:000269d0       $unwind$??$common_lseek_nolock@_J@@YA_JH_JHAEAV__crt_cached_ptd_host@@@Z 000000018008b9d0     libucrt:lseek.obj
 0002:000269d0       $unwind$_invalid_parameter_internal 000000018008b9d0     libucrt:invalid_parameter.obj
 0002:000269d0       $unwind$??$type_case_integer@$07@?$output_processor@_WV?$string_output_adapter@_W@__crt_stdio_output@@V?$format_validation_base@_WV?$string_output_adapter@_W@__crt_stdio_output@@@2@@__crt_stdio_output@@AEAA_N_N@Z 000000018008b9d0     libucrt:output.obj
 0002:000269d0       $unwind$??$type_case_integer@$09@?$output_processor@_WV?$string_output_adapter@_W@__crt_stdio_output@@V?$format_validation_base@_WV?$string_output_adapter@_W@__crt_stdio_output@@@2@@__crt_stdio_output@@AEAA_N_N@Z 000000018008b9d0     libucrt:output.obj
 0002:000269d0       $unwind$??$type_case_integer@$0BA@@?$output_processor@_WV?$string_output_adapter@_W@__crt_stdio_output@@V?$format_validation_base@_WV?$string_output_adapter@_W@__crt_stdio_output@@@2@@__crt_stdio_output@@AEAA_N_N@Z 000000018008b9d0     libucrt:output.obj
 0002:000269d0       $unwind$_wcsdup            000000018008b9d0     libucrt:wcsdup.obj
 0002:000269e4       $unwind$_invalid_parameter 000000018008b9e4     libucrt:invalid_parameter.obj
 0002:000269f0       $unwind$??$common_fsopen@_W@@YAPEAU_iobuf@@QEB_W0H@Z 000000018008b9f0     libucrt:fopen.obj
 0002:00026a1c       $unwind$??$common_fgets@D@@YAPEADQEADHV__crt_stdio_stream@@@Z 000000018008ba1c     libucrt:fgets.obj
 0002:00026a48       $unwind$_chsize_nolock     000000018008ba48     libucrt:chsize.obj
 0002:00026a48       $unwind$_close_nolock      000000018008ba48     libucrt:close.obj
 0002:00026a48       $unwind$_lseeki64_nolock   000000018008ba48     libucrt:lseek.obj
 0002:00026a48       $unwind$_write             000000018008ba48     libucrt:write.obj
 0002:00026a48       $unwind$fclose             000000018008ba48     libucrt:fclose.obj
 0002:00026a48       $unwind$_fflush_nolock     000000018008ba48     libucrt:fflush.obj
 0002:00026a58       $unwind$?_fclose_nolock_internal@@YAHQEAU_iobuf@@AEAV__crt_cached_ptd_host@@@Z 000000018008ba58     libucrt:fclose.obj
 0002:00026a68       $unwind$?_fclose_internal@@YAHQEAU_iobuf@@AEAV__crt_cached_ptd_host@@@Z 000000018008ba68     libucrt:fclose.obj
 0002:00026a8c       $unwind$__stdio_common_vswprintf_s 000000018008ba8c     libucrt:output.obj
 0002:00026aa0       $unwind$__stdio_common_vsnwprintf_s 000000018008baa0     libucrt:output.obj
 0002:00026abc       $unwind$?write_string@?$string_output_adapter@_W@__crt_stdio_output@@QEBAXQEB_WHQEAHAEAV__crt_cached_ptd_host@@@Z 000000018008babc     libucrt:output.obj
 0002:00026ad4       $unwind$??$common_vsprintf@Vformat_validation_base@__crt_stdio_output@@_W@@YAH_KQEA_W0QEB_WAEAV__crt_cached_ptd_host@@QEAD@Z 000000018008bad4     libucrt:output.obj
 0002:00026af4       $unwind$??$create_environment@D@@YAQEAPEADQEAD@Z 000000018008baf4     libucrt:environment_initialization.obj
 0002:00026af4       $unwind$_mbtowc_internal   000000018008baf4     libucrt:mbtowc.obj
 0002:00026af4       $unwind$?process@?$output_processor@_WV?$string_output_adapter@_W@__crt_stdio_output@@V?$format_validation_base@_WV?$string_output_adapter@_W@__crt_stdio_output@@@2@@__crt_stdio_output@@QEAAHXZ 000000018008baf4     libucrt:output.obj
 0002:00026af4       $unwind$??$__acrt_convert_wcs_mbs_cp@D_WV<lambda_7c9dea7b4ca7285d2cdb541a38da6275>@@U__crt_win32_buffer_internal_dynamic_resizing@@@@YAHQEBDAEAV?$__crt_win32_buffer@_WU__crt_win32_buffer_internal_dynamic_resizing@@@@AEBV<lambda_7c9dea7b4ca7285d2cdb541a38da6275>@@I@Z 000000018008baf4     libucrt:strftime.obj
 0002:00026b0c       $unwind$?parse_int_from_format_string@?$output_processor@_WV?$string_output_adapter@_W@__crt_stdio_output@@V?$format_validation_base@_WV?$string_output_adapter@_W@__crt_stdio_output@@@2@@__crt_stdio_output@@AEAA_NQEAH@Z 000000018008bb0c     libucrt:output.obj
 0002:00026b20       $unwind$?state_case_type@?$output_processor@_WV?$string_output_adapter@_W@__crt_stdio_output@@V?$format_validation_base@_WV?$string_output_adapter@_W@__crt_stdio_output@@@2@@__crt_stdio_output@@AEAA_NXZ 000000018008bb20     libucrt:output.obj
 0002:00026b44       $unwind$?type_case_a@?$output_processor@_WV?$string_output_adapter@_W@__crt_stdio_output@@V?$format_validation_base@_WV?$string_output_adapter@_W@__crt_stdio_output@@@2@@__crt_stdio_output@@AEAA_NXZ 000000018008bb44     libucrt:output.obj
 0002:00026b58       $unwind$parse_bcp47_language 000000018008bb58     libucrt:wsetlocale.obj
 0002:00026b58       $unwind$parse_bcp47_script 000000018008bb58     libucrt:wsetlocale.obj
 0002:00026b58       $unwind$?type_case_n@?$output_processor@_WV?$string_output_adapter@_W@__crt_stdio_output@@V?$format_validation_base@_WV?$string_output_adapter@_W@__crt_stdio_output@@@2@@__crt_stdio_output@@AEAA_NXZ 000000018008bb58     libucrt:output.obj
 0002:00026b64       $unwind$??$parse_integer@KV?$c_string_character_source@_W@__crt_strtox@@$00@__crt_strtox@@YAKAEAV__crt_cached_ptd_host@@V?$c_string_character_source@_W@0@H_N@Z 000000018008bb64     libucrt:atox.obj
 0002:00026b64       $unwind$??$parse_integer@KV?$c_string_character_source@_W@__crt_strtox@@$0A@@__crt_strtox@@YAKAEAV__crt_cached_ptd_host@@V?$c_string_character_source@_W@0@H_N@Z 000000018008bb64     libucrt:output.obj
 0002:00026b80       $unwind$setlocale          000000018008bb80     libucrt:setlocale.obj
 0002:00026b88       $unwind$??R<lambda_2116bde18c9e5f34230805ea4a4660ed>@@QEBAPEADXZ 000000018008bb88     libucrt:setlocale.obj
 0002:00026ba0       $unwind$??$?RV<lambda_e9ce07acdb0b138e546925ae9f1a2c9c>@@AEAV<lambda_2116bde18c9e5f34230805ea4a4660ed>@@V<lambda_5d037afbfc54bf1ca80d3d1ee4062886>@@@?$__crt_seh_guarded_call@PEAD@@QEAAPEAD$$QEAV<lambda_e9ce07acdb0b138e546925ae9f1a2c9c>@@AEAV<lambda_2116bde18c9e5f34230805ea4a4660ed>@@$$QEAV<lambda_5d037afbfc54bf1ca80d3d1ee4062886>@@@Z 000000018008bba0     libucrt:setlocale.obj
 0002:00026bc4       $unwind$__acrt_locale_initialize_ctype 000000018008bbc4     libucrt:initctype.obj
 0002:00026bec       $unwind$terminate          000000018008bbec     libucrt:terminate.obj
 0002:00026c0c       $unwind$?divide@__crt_strtox@@YA_KAEAUbig_integer@1@AEBU21@@Z 000000018008bc0c     libucrt:strtod.obj
 0002:00026c24       $chain$0$?divide@__crt_strtox@@YA_KAEAUbig_integer@1@AEBU21@@Z 000000018008bc24     libucrt:strtod.obj
 0002:00026c38       $chain$1$?divide@__crt_strtox@@YA_KAEAUbig_integer@1@AEBU21@@Z 000000018008bc38     libucrt:strtod.obj
 0002:00026c48       $xdatasym                  000000018008bc48     libucrt:pow.obj
 0002:00026c58       $xdatasym                  000000018008bc58     libucrt:powf.obj
 0002:00026c68       $unwind$_query_new_handler 000000018008bc68     libucrt:new_handler.obj
 0002:00026c88       $unwind$?try_cor_exit_process@@YAXI@Z 000000018008bc88     libucrt:exit.obj
 0002:00026c98       $ip2state$?try_cor_exit_process@@YAXI@Z 000000018008bc98     libucrt:exit.obj
 0002:00026ca0       $unwind$?common_exit@@YAXHW4_crt_exit_cleanup_mode@@W4_crt_exit_return_mode@@@Z 000000018008bca0     libucrt:exit.obj
 0002:00026cb4       $stateUnwindMap$__dcrt_uninitialize_environments_nolock 000000018008bcb4     libucrt:environment_initialization.obj
 0002:00026cb4       $stateUnwindMap$?common_exit@@YAXHW4_crt_exit_cleanup_mode@@W4_crt_exit_return_mode@@@Z 000000018008bcb4     libucrt:exit.obj
 0002:00026cb4       $stateUnwindMap$_execute_onexit_table 000000018008bcb4     libucrt:onexit.obj
 0002:00026cc0       $ip2state$?common_exit@@YAXHW4_crt_exit_cleanup_mode@@W4_crt_exit_return_mode@@@Z 000000018008bcc0     libucrt:exit.obj
 0002:00026cc8       $unwind$??R<lambda_6e4b09c48022b2350581041d5f6b0c4c>@@QEBA@XZ 000000018008bcc8     libucrt:exit.obj
 0002:00026ce8       $unwind$??$?RV<lambda_d80eeec6fff315bfe5c115232f3240e3>@@AEAV<lambda_6e4b09c48022b2350581041d5f6b0c4c>@@V<lambda_2358e3775559c9db80273638284d5e45>@@@?$__crt_seh_guarded_call@X@@QEAAX$$QEAV<lambda_d80eeec6fff315bfe5c115232f3240e3>@@AEAV<lambda_6e4b09c48022b2350581041d5f6b0c4c>@@$$QEAV<lambda_2358e3775559c9db80273638284d5e45>@@@Z 000000018008bce8     libucrt:exit.obj
 0002:00026d0c       $unwind$_configure_narrow_argv 000000018008bd0c     libucrt:argv_parsing.obj
 0002:00026d20       $unwind$?should_round_up@@YA_NQEBN_KFW4__acrt_rounding_mode@@@Z 000000018008bd20     libucrt:cvt.obj
 0002:00026d20       $unwind$TranslateName      000000018008bd20     libucrt:get_qualified_locale.obj
 0002:00026d20       $unwind$_chsize_nolock_internal 000000018008bd20     libucrt:chsize.obj
 0002:00026d20       $unwind$??$parse_command_line@D@@YAXPEADPEAPEAD0PEA_K2@Z 000000018008bd20     libucrt:argv_parsing.obj
 0002:00026d3c       $unwind$__dcrt_uninitialize_environments_nolock 000000018008bd3c     libucrt:environment_initialization.obj
 0002:00026d4c       $unwind$_register_onexit_function 000000018008bd4c     libucrt:onexit.obj
 0002:00026d54       $unwind$_execute_onexit_table 000000018008bd54     libucrt:onexit.obj
 0002:00026d68       $ip2state$_execute_onexit_table 000000018008bd68     libucrt:onexit.obj
 0002:00026d70       $unwind$??R<lambda_22ebabd17bc4fa466a2aca6d8deb888d>@@QEBAHXZ 000000018008bd70     libucrt:onexit.obj
 0002:00026d88       $unwind$??$?RV<lambda_638799b9deba96c50f710eeac98168cd>@@AEAV<lambda_22ebabd17bc4fa466a2aca6d8deb888d>@@V<lambda_a6f7d7db0129f75315ebf26d50c089f1>@@@?$__crt_seh_guarded_call@H@@QEAAH$$QEAV<lambda_638799b9deba96c50f710eeac98168cd>@@AEAV<lambda_22ebabd17bc4fa466a2aca6d8deb888d>@@$$QEAV<lambda_a6f7d7db0129f75315ebf26d50c089f1>@@@Z 000000018008bd88     libucrt:onexit.obj
 0002:00026dac       $unwind$??$?RV<lambda_7777bce6b2f8c936911f934f8298dc43>@@AEAV<lambda_f03950bc5685219e0bcd2087efbe011e>@@V<lambda_3883c3dff614d5e0c5f61bb1ac94921c>@@@?$__crt_seh_guarded_call@H@@QEAAH$$QEAV<lambda_7777bce6b2f8c936911f934f8298dc43>@@AEAV<lambda_f03950bc5685219e0bcd2087efbe011e>@@$$QEAV<lambda_3883c3dff614d5e0c5f61bb1ac94921c>@@@Z 000000018008bdac     libucrt:onexit.obj
 0002:00026dd0       $unwind$_wtol              000000018008bdd0     libucrt:atox.obj
 0002:00026dd0       $unwind$mbstowcs_s         000000018008bdd0     libucrt:mbstowcs.obj
 0002:00026dd0       $unwind$_wcstombs_s_l      000000018008bdd0     libucrt:wcstombs.obj
 0002:00026de0       $xdatasym                  000000018008bde0     libucrt:strncmp.obj
 0002:00026de4       $unwind$_towlower_l        000000018008bde4     libucrt:towlower.obj
 0002:00026dec       $unwind$_free_base         000000018008bdec     libucrt:free_base.obj
 0002:00026dec       $unwind$?destroy_fls@@YAXPEAX@Z 000000018008bdec     libucrt:per_thread_data.obj
 0002:00026dec       $unwind$__acrt_locale_free_numeric 000000018008bdec     libucrt:initnum.obj
 0002:00026dec       $unwind$__acrt_locale_free_lc_time_if_unreferenced 000000018008bdec     libucrt:locale_refcounting.obj
 0002:00026df4       $unwind$?construct_ptd_array@@YAXQEAU__acrt_ptd@@@Z 000000018008bdf4     libucrt:per_thread_data.obj
 0002:00026dfc       $unwind$?destroy_ptd_array@@YAXQEAU__acrt_ptd@@@Z 000000018008bdfc     libucrt:per_thread_data.obj
 0002:00026e04       $unwind$??$?RV<lambda_0ae27a3a962d80f24befdcbee591983d>@@AEAV<lambda_8d0ee55de4b1038c4002e0adecdf1839>@@V<lambda_dc504788e8f1664fe9b84e20bfb512f2>@@@?$__crt_seh_guarded_call@X@@QEAAX$$QEAV<lambda_0ae27a3a962d80f24befdcbee591983d>@@AEAV<lambda_8d0ee55de4b1038c4002e0adecdf1839>@@$$QEAV<lambda_dc504788e8f1664fe9b84e20bfb512f2>@@@Z 000000018008be04     libucrt:per_thread_data.obj
 0002:00026e28       $unwind$??$?RV<lambda_aa87e3671a710a21b5dc78c0bdf72e11>@@AEAV<lambda_92619d2358a28f41a33ba319515a20b9>@@V<lambda_6992ecaafeb10aed2b74cb1fae11a551>@@@?$__crt_seh_guarded_call@X@@QEAAX$$QEAV<lambda_aa87e3671a710a21b5dc78c0bdf72e11>@@AEAV<lambda_92619d2358a28f41a33ba319515a20b9>@@$$QEAV<lambda_6992ecaafeb10aed2b74cb1fae11a551>@@@Z 000000018008be28     libucrt:per_thread_data.obj
 0002:00026e4c       $unwind$??$?RV<lambda_f2e299630e499de9f9a165e60fcd3db5>@@AEAV<lambda_2ae9d31cdba2644fcbeaf08da7c24588>@@V<lambda_40d01ff24d0e7b3814fdbdcee8eab3c7>@@@?$__crt_seh_guarded_call@X@@QEAAX$$QEAV<lambda_f2e299630e499de9f9a165e60fcd3db5>@@AEAV<lambda_2ae9d31cdba2644fcbeaf08da7c24588>@@$$QEAV<lambda_40d01ff24d0e7b3814fdbdcee8eab3c7>@@@Z 000000018008be4c     libucrt:per_thread_data.obj
 0002:00026e70       $unwind$??$?RV<lambda_2d41944a1d46af3157314b8a01080d33>@@AEAV<lambda_8f455de75cd7d7f24b4096f044d8b9e6>@@V<lambda_aa500f224e6afead328df44964fe2772>@@@?$__crt_seh_guarded_call@X@@QEAAX$$QEAV<lambda_2d41944a1d46af3157314b8a01080d33>@@AEAV<lambda_8f455de75cd7d7f24b4096f044d8b9e6>@@$$QEAV<lambda_aa500f224e6afead328df44964fe2772>@@@Z 000000018008be70     libucrt:per_thread_data.obj
 0002:00026e94       $unwind$_wsetlocale        000000018008be94     libucrt:wsetlocale.obj
 0002:00026e9c       $unwind$_expandlocale      000000018008be9c     libucrt:wsetlocale.obj
 0002:00026ebc       $unwind$_wcscats           000000018008bebc     libucrt:wsetlocale.obj
 0002:00026ecc       $unwind$__lc_wcstolc       000000018008becc     libucrt:wsetlocale.obj
 0002:00026ee4       $unwind$_wsetlocale_set_cat 000000018008bee4     libucrt:wsetlocale.obj
 0002:00026f08       $unwind$_wsetlocale_get_all 000000018008bf08     libucrt:wsetlocale.obj
 0002:00026f08       $unwind$??$copy_and_add_argument_to_buffer@D@@YAHQEBD0_KAEAV?$argument_list@D@?A0x5f5c8891@@@Z 000000018008bf08     libucrt:argv_wildcards.obj
 0002:00026f24       $unwind$_wsetlocale_nolock 000000018008bf24     libucrt:wsetlocale.obj
 0002:00026f48       $unwind$__acrt_uninitialize_locale 000000018008bf48     libucrt:wsetlocale.obj
 0002:00026f48       $unwind$__acrt_get_sigabrt_handler 000000018008bf48     libucrt:signal.obj
 0002:00026f50       $unwind$??R<lambda_2a444430fde8c29194d880d93eed5e8f>@@QEBA@XZ 000000018008bf50     libucrt:wsetlocale.obj
 0002:00026f5c       $unwind$string_is_alpha    000000018008bf5c     libucrt:wsetlocale.obj
 0002:00026f70       $unwind$parse_bcp47_region 000000018008bf70     libucrt:wsetlocale.obj
 0002:00026f70       $unwind$?decode_options@@YA?AUfile_options@?A0xa9d50aae@@HHH@Z 000000018008bf70     libucrt:open.obj
 0002:00026f84       $unwind$parse_bcp47        000000018008bf84     libucrt:wsetlocale.obj
 0002:00026fa8       $unwind$??$?RV<lambda_410d79af7f07d98d83a3f525b3859a53>@@AEAV<lambda_3e16ef9562a7dcce91392c22ab16ea36>@@V<lambda_38119f0e861e05405d8a144b9b982f0a>@@@?$__crt_seh_guarded_call@X@@QEAAX$$QEAV<lambda_410d79af7f07d98d83a3f525b3859a53>@@AEAV<lambda_3e16ef9562a7dcce91392c22ab16ea36>@@$$QEAV<lambda_38119f0e861e05405d8a144b9b982f0a>@@@Z 000000018008bfa8     libucrt:wsetlocale.obj
 0002:00026fd0       $unwind$??$?RV<lambda_1d892b297fdedeee07ed8124eeb2f2fa>@@AEAV<lambda_ffc046909424fd52df0ac47e64813305>@@V<lambda_01a7098693036236037e7cdb9bca3d73>@@@?$__crt_seh_guarded_call@X@@QEAAX$$QEAV<lambda_1d892b297fdedeee07ed8124eeb2f2fa>@@AEAV<lambda_ffc046909424fd52df0ac47e64813305>@@$$QEAV<lambda_01a7098693036236037e7cdb9bca3d73>@@@Z 000000018008bfd0     libucrt:wsetlocale.obj
 0002:00026ff4       $unwind$??$?RV<lambda_e9338f07fe435327d97d4ef86149e64d>@@AEAV<lambda_2a444430fde8c29194d880d93eed5e8f>@@AEAV<lambda_02db5278e8aef8b5e4976579d73f5304>@@@?$__crt_seh_guarded_call@X@@QEAAX$$QEAV<lambda_e9338f07fe435327d97d4ef86149e64d>@@AEAV<lambda_2a444430fde8c29194d880d93eed5e8f>@@AEAV<lambda_02db5278e8aef8b5e4976579d73f5304>@@@Z 000000018008bff4     libucrt:wsetlocale.obj
 0002:00027014       $unwind$_isctype_l         000000018008c014     libucrt:isctype.obj
 0002:00027030       $unwind$?__acrt_stdio_allocate_stream@@YA?AV__crt_stdio_stream@@XZ 000000018008c030     libucrt:stream.obj
 0002:00027050       $unwind$?find_or_allocate_unused_stream_nolock@@YA?AV__crt_stdio_stream@@XZ 000000018008c050     libucrt:stream.obj
 0002:00027064       $unwind$_wopenfile         000000018008c064     libucrt:openfile.obj
 0002:00027078       $unwind$__acrt_initialize_lowio 000000018008c078     libucrt:ioinit.obj
 0002:00027098       $unwind$?initialize_inherited_file_handles_nolock@@YAXXZ 000000018008c098     libucrt:ioinit.obj
 0002:000270b4       $unwind$_close_internal    000000018008c0b4     libucrt:close.obj
 0002:000270bc       $unwind$??$?RV<lambda_ad8af0d99a0adf03d037d7dffe354bb5>@@AEAV<lambda_c9ba49e555ba839a7b07aa3fbecb7617>@@V<lambda_2f1ebd5d68526518146ae959c9e734c8>@@@?$__crt_seh_guarded_call@H@@QEAAH$$QEAV<lambda_ad8af0d99a0adf03d037d7dffe354bb5>@@AEAV<lambda_c9ba49e555ba839a7b07aa3fbecb7617>@@$$QEAV<lambda_2f1ebd5d68526518146ae959c9e734c8>@@@Z 000000018008c0bc     libucrt:close.obj
 0002:000270e0       $unwind$?common_flush_all@@YAH_N@Z 000000018008c0e0     libucrt:fflush.obj
 0002:000270e8       $unwind$??$?RV<lambda_842d9ff0dc9ef11c61343bbaebe7f885>@@AEAV<lambda_c5860995281e5c4ce005b3de8f5874ee>@@V<lambda_d90129c13df834fdcbf8d2b88dafcf2d>@@@?$__crt_seh_guarded_call@X@@QEAAX$$QEAV<lambda_842d9ff0dc9ef11c61343bbaebe7f885>@@AEAV<lambda_c5860995281e5c4ce005b3de8f5874ee>@@$$QEAV<lambda_d90129c13df834fdcbf8d2b88dafcf2d>@@@Z 000000018008c0e8     libucrt:fflush.obj
 0002:0002710c       $unwind$??$?RV<lambda_886d6c58226a84441f68b9f2b8217b83>@@AEAV<lambda_ab61a845afdef5b7c387490eaf3616ee>@@V<lambda_f7f22ab5edc0698d5f6905b0d3f44752>@@@?$__crt_seh_guarded_call@X@@QEAAX$$QEAV<lambda_886d6c58226a84441f68b9f2b8217b83>@@AEAV<lambda_ab61a845afdef5b7c387490eaf3616ee>@@$$QEAV<lambda_f7f22ab5edc0698d5f6905b0d3f44752>@@@Z 000000018008c10c     libucrt:fflush.obj
 0002:00027134       $unwind$__acrt_fp_format   000000018008c134     libucrt:cvt.obj
 0002:00027144       $unwind$?fp_format_e_internal@@YAHQEAD_KH_NIQEAU_strflt@@2AEAV__crt_cached_ptd_host@@@Z 000000018008c144     libucrt:cvt.obj
 0002:00027160       $unwind$?fp_format_a@@YAHQEBNPEAD_KQEAD2H_NIW4__acrt_rounding_mode@@AEAV__crt_cached_ptd_host@@@Z 000000018008c160     libucrt:cvt.obj
 0002:0002717c       $unwind$?fp_format_g@@YAHQEBNQEAD_K12H_NIW4__acrt_rounding_mode@@AEAV__crt_cached_ptd_host@@@Z 000000018008c17c     libucrt:cvt.obj
 0002:00027194       $unwind$_read              000000018008c194     libucrt:read.obj
 0002:000271c4       $unwind$_read_nolock       000000018008c1c4     libucrt:read.obj
 0002:000271d8       $unwind$?translate_ansi_or_utf8_nolock@@YAHHQEAD_KQEA_W1@Z 000000018008c1d8     libucrt:read.obj
 0002:000271f0       $unwind$??$translate_text_mode_nolock@_W@@YAHHQEA_W_K@Z 000000018008c1f0     libucrt:read.obj
 0002:00027204       $unwind$__acrt_initialize_winapi_thunks 000000018008c204     libucrt:winapi_thunks.obj
 0002:00027204       $unwind$__acrt_fenv_get_control 000000018008c204     libucrt:_fenvutils.obj
 0002:0002720c       $unwind$__acrt_EnumSystemLocalesEx 000000018008c20c     libucrt:winapi_thunks.obj
 0002:0002721c       $unwind$??$?RV<lambda_48fc4a32460bb0512d3b13f8499328be>@@AEAV<lambda_6c3dac0a4f3f9cefca9bb494422f9b77>@@V<lambda_0a2f2c9f9a56eb2b08bfa6ff61d331c5>@@@?$__crt_seh_guarded_call@H@@QEAAH$$QEAV<lambda_48fc4a32460bb0512d3b13f8499328be>@@AEAV<lambda_6c3dac0a4f3f9cefca9bb494422f9b77>@@$$QEAV<lambda_0a2f2c9f9a56eb2b08bfa6ff61d331c5>@@@Z 000000018008c21c     libucrt:winapi_thunks.obj
 0002:00027240       $unwind$?_mbstowcs_l_helper@@YA_KPEA_WPEBD_KAEAV__crt_cached_ptd_host@@@Z 000000018008c240     libucrt:mbstowcs.obj
 0002:00027260       $ip2state$?_mbstowcs_l_helper@@YA_KPEA_WPEBD_KAEAV__crt_cached_ptd_host@@@Z 000000018008c260     libucrt:mbstowcs.obj
 0002:00027268       $unwind$?_mbstowcs_internal@@YAHPEA_KPEA_W_KPEBD2AEAV__crt_cached_ptd_host@@@Z 000000018008c268     libucrt:mbstowcs.obj
 0002:00027268       $unwind$?_wcstombs_internal@@YAHPEA_KPEAD_KPEB_W2AEAV__crt_cached_ptd_host@@@Z 000000018008c268     libucrt:wcstombs.obj
 0002:00027280       $unwind$?_wcstombs_l_helper@@YA_KPEADPEB_W_KAEAV__crt_cached_ptd_host@@@Z 000000018008c280     libucrt:wcstombs.obj
 0002:000272a0       $unwind$__acrt_GetLocaleInfoA 000000018008c2a0     libucrt:getlocaleinfoa.obj
 0002:000272c0       $unwind$?InternalGetLocaleInfoA@@YAHQEAU__crt_locale_pointers@@QEB_WKQEADH@Z 000000018008c2c0     libucrt:getlocaleinfoa.obj
 0002:000272e8       $unwind$__acrt_GetStringTypeA 000000018008c2e8     libucrt:getstringtypea.obj
 0002:00027310       $unwind$?__acrt_LCMapStringA_stat@@YAHPEAU__crt_locale_pointers@@PEB_WKPEBDHPEADHHH@Z 000000018008c310     libucrt:lcmapstringa.obj
 0002:00027338       $unwind$_raise_exc_ex      000000018008c338     libucrt:fpexcept.obj
 0002:0002734c       $unwind$_ctrlfp            000000018008c34c     libucrt:fpctrl.obj
 0002:00027374       $unwind$__acrt_initialize_fma3 000000018008c374     libucrt:fma3_available.obj
 0002:0002737c       $unwind$_powf_special      000000018008c37c     libucrt:pow_special.obj
 0002:00027388       $unwind$_pow_special       000000018008c388     libucrt:pow_special.obj
 0002:00027394       $unwind$raise              000000018008c394     libucrt:signal.obj
 0002:000273d0       $unwind$??$?RV<lambda_450d765d439847d4c735a33c368b5fc0>@@AEAV<lambda_44731a7d0e6d81c3e6aa82d741081786>@@V<lambda_601a2a7da3b7a96e9554ac7215c4b07c>@@@?$__crt_seh_guarded_call@P6AXH@Z@@QEAAP6AXH@Z$$QEAV<lambda_450d765d439847d4c735a33c368b5fc0>@@AEAV<lambda_44731a7d0e6d81c3e6aa82d741081786>@@$$QEAV<lambda_601a2a7da3b7a96e9554ac7215c4b07c>@@@Z 000000018008c3d0     libucrt:signal.obj
 0002:000273f4       $unwind$__acrt_WideCharToMultiByte 000000018008c3f4     libucrt:widechartomultibyte.obj
 0002:00027400       $unwind$??$common_expand_argv_wildcards@D@@YAHQEAPEADQEAPEAPEAD@Z 000000018008c400     libucrt:argv_wildcards.obj
 0002:00027418       $unwind$??$expand_argument_wildcards@D@@YAHQEAD0AEAV?$argument_list@D@?A0x5f5c8891@@@Z 000000018008c418     libucrt:argv_wildcards.obj
 0002:00027438       $unwind$__acrt_GetModuleFileNameA 000000018008c438     libucrt:getmodulefilenamea.obj
 0002:00027454       $unwind$_setmbcp_nolock    000000018008c454     libucrt:mbctype.obj
 0002:00027474       $unwind$?update_thread_multibyte_data_internal@@YAPEAU__crt_multibyte_data@@QEAU__acrt_ptd@@QEAPEAU1@@Z 000000018008c474     libucrt:mbctype.obj
 0002:0002749c       $unwind$?setmbcp_internal@@YAHH_NQEAU__acrt_ptd@@QEAPEAU__crt_multibyte_data@@@Z 000000018008c49c     libucrt:mbctype.obj
 0002:000274b4       $unwind$?setSBUpLow@@YAXPEAU__crt_multibyte_data@@@Z 000000018008c4b4     libucrt:mbctype.obj
 0002:000274d0       $unwind$??$?RV<lambda_efdfa57d1f175319df784efa44bb7b81>@@AEAV<lambda_5f0a4c1567f8adc6734073e5d1e1b35c>@@V<lambda_2e8a7d3640ea6ccb4c2413664c2db6fd>@@@?$__crt_seh_guarded_call@X@@QEAAX$$QEAV<lambda_efdfa57d1f175319df784efa44bb7b81>@@AEAV<lambda_5f0a4c1567f8adc6734073e5d1e1b35c>@@$$QEAV<lambda_2e8a7d3640ea6ccb4c2413664c2db6fd>@@@Z 000000018008c4d0     libucrt:mbctype.obj
 0002:000274f4       $unwind$?x_ismbbtype_l@@YAHPEAU__crt_locale_pointers@@IHH@Z 000000018008c4f4     libucrt:ismbbyte.obj
 0002:00027504       $unwind$__acrt_update_thread_locale_data 000000018008c504     libucrt:locale_refcounting.obj
 0002:00027528       $unwind$__acrt_locale_initialize_monetary 000000018008c528     libucrt:initmon.obj
 0002:00027528       $unwind$?initialize_lc_time@@YA_NQEAU__crt_lc_time_data@@QEAU__crt_locale_data@@@Z 000000018008c528     libucrt:inittime.obj
 0002:00027544       $unwind$__acrt_locale_free_monetary 000000018008c544     libucrt:initmon.obj
 0002:0002754c       $unwind$__acrt_locale_free_time 000000018008c54c     libucrt:inittime.obj
 0002:0002755c       $unwind$__acrt_fp_strflt_to_string 000000018008c55c     libucrt:_fptostr.obj
 0002:0002755c       $unwind$__acrt_get_qualified_locale 000000018008c55c     libucrt:get_qualified_locale.obj
 0002:00027578       $unwind$LangCountryEnumProcEx 000000018008c578     libucrt:get_qualified_locale.obj
 0002:00027598       $unwind$LanguageEnumProcEx 000000018008c598     libucrt:get_qualified_locale.obj
 0002:000275b4       $unwind$GetLocaleNameFromDefault 000000018008c5b4     libucrt:get_qualified_locale.obj
 0002:000275cc       $unwind$TestDefaultCountry 000000018008c5cc     libucrt:get_qualified_locale.obj
 0002:000275dc       $unwind$__acrt_get_qualified_locale_downlevel 000000018008c5dc     libucrt:getqloc_downlevel.obj
 0002:000275f8       $unwind$LangCountryEnumProc 000000018008c5f8     libucrt:getqloc_downlevel.obj
 0002:00027618       $unwind$LanguageEnumProc   000000018008c618     libucrt:getqloc_downlevel.obj
 0002:00027634       $unwind$CountryEnumProc    000000018008c634     libucrt:getqloc_downlevel.obj
 0002:00027654       $unwind$_fcloseall         000000018008c654     libucrt:closeall.obj
 0002:00027678       $unwind$_wsopen_nolock     000000018008c678     libucrt:open.obj
 0002:00027698       $unwind$??$common_sopen_dispatch@_W@@YAHQEB_WHHHQEAHH@Z 000000018008c698     libucrt:open.obj
 0002:000276bc       $unwind$?fin$0@?0???$common_sopen_dispatch@_W@@YAHQEB_WHHHQEAHH@Z@4HA 000000018008c6bc     libucrt:open.obj
 0002:000276c4       $unwind$?truncate_ctrl_z_if_present@@YAHH@Z 000000018008c6c4     libucrt:open.obj
 0002:000276d4       $unwind$?configure_text_mode@@YAHHUfile_options@?A0xa9d50aae@@HAEAW4__crt_lowio_text_mode@@@Z 000000018008c6d4     libucrt:open.obj
 0002:000276ec       $unwind$_alloc_osfhnd      000000018008c6ec     libucrt:osfinfo.obj
 0002:0002771c       $unwind$__acrt_lowio_destroy_handle_array 000000018008c71c     libucrt:osfinfo.obj
 0002:0002772c       $unwind$__acrt_lowio_ensure_fh_exists 000000018008c72c     libucrt:osfinfo.obj
 0002:00027758       $unwind$_commit            000000018008c758     libucrt:commit.obj
 0002:00027760       $unwind$??$?RV<lambda_a37b2b86f63e897a80ea819b0eb08c01>@@AEAV<lambda_38ce7e780aa69e748d6df282ebc68efe>@@V<lambda_99fb1378e971ab6e7edea83e3a7a83a2>@@@?$__crt_seh_guarded_call@H@@QEAAH$$QEAV<lambda_a37b2b86f63e897a80ea819b0eb08c01>@@AEAV<lambda_38ce7e780aa69e748d6df282ebc68efe>@@$$QEAV<lambda_99fb1378e971ab6e7edea83e3a7a83a2>@@@Z 000000018008c760     libucrt:commit.obj
 0002:00027784       $unwind$_write_nolock      000000018008c784     libucrt:write.obj
 0002:0002779c       $unwind$_write_internal    000000018008c79c     libucrt:write.obj
 0002:000277cc       $unwind$?write_double_translated_ansi_nolock@@YA?AUwrite_result@?A0x17268360@@HQEBDIAEAV__crt_cached_ptd_host@@@Z 000000018008c7cc     libucrt:write.obj
 0002:000277f8       $ip2state$?write_double_translated_ansi_nolock@@YA?AUwrite_result@?A0x17268360@@HQEBDIAEAV__crt_cached_ptd_host@@@Z 000000018008c7f8     libucrt:write.obj
 0002:00027800       $unwind$?write_text_ansi_nolock@@YA?AUwrite_result@?A0x17268360@@HQEBDI@Z 000000018008c800     libucrt:write.obj
 0002:00027800       $unwind$?write_text_utf16le_nolock@@YA?AUwrite_result@?A0x17268360@@HQEBDI@Z 000000018008c800     libucrt:write.obj
 0002:00027820       $unwind$?write_text_utf8_nolock@@YA?AUwrite_result@?A0x17268360@@HQEBDI@Z 000000018008c820     libucrt:write.obj
 0002:00027844       $unwind$__acrt_fltout      000000018008c844     libucrt:cfout.obj
 0002:00027864       $unwind$?__mbsrtowcs_utf8@__crt_mbstring@@YA_KPEA_WPEAPEBD_KPEAU_Mbstatet@@AEAV__crt_cached_ptd_host@@@Z 000000018008c864     libucrt:mbrtowc.obj
 0002:0002787c       $unwind$?__wcsrtombs_utf8@__crt_mbstring@@YA_KPEADPEAPEB_W_KPEAU_Mbstatet@@AEAV__crt_cached_ptd_host@@@Z 000000018008c87c     libucrt:wcrtomb.obj
 0002:000278a0       $xdatasym                  000000018008c8a0     libucrt:fpsr.obj
 0002:000278a8       $unwind$__acrt_fenv_set_control 000000018008c8a8     libucrt:_fenvutils.obj
 0002:000278b8       $unwind$_call_matherr      000000018008c8b8     libucrt:libm_error.obj
 0002:000278c0       $unwind$_handle_error      000000018008c8c0     libucrt:libm_error.obj
 0002:000278c0       $unwind$_handle_errorf     000000018008c8c0     libucrt:libm_error.obj
 0002:000278e0       $unwind$qsort              000000018008c8e0     libucrt:qsort.obj
 0002:000278f8       $chain$4$qsort             000000018008c8f8     libucrt:qsort.obj
 0002:0002791c       $chain$5$qsort             000000018008c91c     libucrt:qsort.obj
 0002:0002792c       $unwind$strpbrk            000000018008c92c     libucrt:strpbrk.obj
 0002:0002793c       $unwind$fallbackMethod     000000018008c93c     libucrt:strpbrk.obj
 0002:0002794c       $unwind$_setmode_nolock    000000018008c94c     libucrt:setmode.obj
 0002:00027960       $xdatasym                  000000018008c960     libucrt:log10.obj
 0002:0002796c       $unwind$?__mbrtoc32_utf8@__crt_mbstring@@YA_KPEA_UPEBD_KPEAU_Mbstatet@@AEAV__crt_cached_ptd_host@@@Z 000000018008c96c     libucrt:mbrtoc32.obj
 0002:00027988       $unwind$common_control87   000000018008c988     libucrt:ieee.obj
 0002:000279b4       $unwind$_log_special_common 000000018008c9b4     libucrt:log_special.obj
 0002:000279c0       $unwind$_IsNonwritableInCurrentImage 000000018008c9c0     LIBCMT:pesect.obj
 0002:00027f40       .edata                     000000018008cf40     IntChecker2.exp
 0002:00027f68       rgpv                       000000018008cf68     IntChecker2.exp
 0002:00027f80       rgszName                   000000018008cf80     IntChecker2.exp
 0002:00027f98       rgwOrd                     000000018008cf98     IntChecker2.exp
 0002:00027fa4       szName                     000000018008cfa4     IntChecker2.exp
 0002:00027fb4       $N00001                    000000018008cfb4     IntChecker2.exp
 0002:00027fbf       $N00002                    000000018008cfbf     IntChecker2.exp
 0002:00027fc8       $N00003                    000000018008cfc8     IntChecker2.exp
 0002:00027fd7       $N00004                    000000018008cfd7     IntChecker2.exp
 0002:00027fe6       $N00005                    000000018008cfe6     IntChecker2.exp
 0002:00027fec       $N00006                    000000018008cfec     IntChecker2.exp
 0002:000283ee       .idata$6                   000000018008d3ee     Shlwapi:SHLWAPI.dll
 0002:0002840c       .idata$6                   000000018008d40c     wintrust:WINTRUST.dll
 0002:00028574       .idata$6                   000000018008d574     kernel32:KERNEL32.dll
 0002:000285de       .idata$6                   000000018008d5de     user32:USER32.dll
 0003:00000004       ?init@std@@3JA             000000018008e004     libcpmt:xlock.obj
 0003:00000008       ?atcount_cdecl@@3_KA       000000018008e008     libcpmt:iosptrs.obj
 0003:00000050       ?__vcrt_flsindex@@3KA      000000018008e050     libvcruntime:per_thread_data.obj
 0003:00000060       ?errno_no_memory@@3HA      000000018008e060     libucrt:errno.obj
 0003:00000064       ?doserrno_no_memory@@3KA   000000018008e064     libucrt:errno.obj
 0003:00000140       ?__acrt_flsindex@@3KA      000000018008e140     libucrt:per_thread_data.obj
 0003:00000148       _ctype_loc_style           000000018008e148     libucrt:wsetlocale.obj
 0003:00000524       ?dazSupported@?1??_ctrlfp@@9@9 000000018008e524     libucrt:fpctrl.obj
 0003:00000530       ?tzstd_program@@3PADA      000000018008e530     libucrt:timeset.obj
 0003:00000570       ?tzdst_program@@3PADA      000000018008e570     libucrt:timeset.obj
 0003:000005b0       ?w_tzstd_program@@3PA_WA   000000018008e5b0     libucrt:timeset.obj
 0003:00000630       ?w_tzdst_program@@3PA_WA   000000018008e630     libucrt:timeset.obj
 0003:000006b0       ?tzname_states@@3PAY01PEADA 000000018008e6b0     libucrt:timeset.obj
 0003:000006c0       ?w_tzname_states@@3PAY01PEA_WA 000000018008e6c0     libucrt:timeset.obj
 0003:00000900       _mbctypes                  000000018008e900     libucrt:mbctype.obj
 0003:00000a10       _mbcasemaps                000000018008ea10     libucrt:mbctype.obj
 0003:00000b10       ?__rgctypeflag@@3PADA      000000018008eb10     libucrt:mbctype.obj
 0003:00000b20       ?__rgcode_page_info@@3PAUcode_page_info@@A 000000018008eb20     libucrt:mbctype.obj
 0003:00000c10       ?__dcrt_lowio_console_output_handle@@3PEAXEA 000000018008ec10     libucrt:initcon.obj
 0003:00000c18       ?dazSupported@?1??common_control87@@9@9 000000018008ec18     libucrt:ieee.obj
 0003:000078f8       ?optDetectHashFiles@@3HA   00000001800958f8     IntChecker2-Far3.obj
 0003:000078fc       ?optClearSelectionOnComplete@@3HA 00000001800958fc     IntChecker2-Far3.obj
 0003:00007900       ?optConfirmAbort@@3HA      0000000180095900     IntChecker2-Far3.obj
 0003:00007904       ?optAutoExtension@@3HA     0000000180095904     IntChecker2-Far3.obj
 0003:00007908       ?optDefaultAlgo@@3HA       0000000180095908     IntChecker2-Far3.obj
 0003:0000790c       ?optUsePrefix@@3HA         000000018009590c     IntChecker2-Far3.obj
 0003:00007910       ?optListDefaultCodepage@@3HA 0000000180095910     IntChecker2-Far3.obj
 0003:00007920       ?optPrefix@@3PA_WA         0000000180095920     IntChecker2-Far3.obj
 0003:00007bd0       ??_R0?AV<lambda_e249c70d12b28e046aa37836257b4bd8>@@@8 0000000180095bd0     IntChecker2-Far3.obj
 0003:00008890       ??_R0?AV?$_Func_impl_no_alloc@V<lambda_e249c70d12b28e046aa37836257b4bd8>@@HPEB_W@std@@@8 0000000180096890     IntChecker2-Far3.obj
 0003:00008c30       ?freq_cached@?1??_Query_perf_frequency@@9@4U?$atomic@_J@std@@A 0000000180096c30     libcpmt:xtime.obj
 0003:00008c50       ?stdstr@std@@3PAPEAVios_base@1@A 0000000180096c50     libcpmt:ios.obj
 0003:00008ca0       ?stdopens@std@@3PADA       0000000180096ca0     libcpmt:ios.obj
 0003:00008ce0       ?classic_locale@std@@3Vlocale@1@A 0000000180096ce0     libcpmt:locale0.obj
 0003:00008cf8       ?_Fac_head@std@@3PEAU_Fac_node@1@EA 0000000180096cf8     libcpmt:locale0.obj
 0003:00008d00       ?_Fac_tidy_reg@std@@3U_Fac_tidy_reg_t@1@B 0000000180096d00     libcpmt:locale0.obj
 0003:00008d08       global_locale              0000000180096d08     libcpmt:locale0.obj
 0003:00008d10       ?registered@?1??_Setgloballocale@locale@std@@CAXPEAX@Z@4_NA 0000000180096d10     libcpmt:locale0.obj
 0003:00008d20       ?initlocks@std@@3V_Init_locks@1@A 0000000180096d20     libcpmt:xlock.obj
 0003:00008d30       ?mtx@std@@3PAU_RTL_CRITICAL_SECTION@@A 0000000180096d30     libcpmt:xlock.obj
 0003:00009010       ?initlocks@std@@3V_Init_locks@1@A 0000000180097010     libcpmt:iosptrs.obj
 0003:00009011       ?init_atexit@@3U_Init_atexit@@A 0000000180097011     libcpmt:iosptrs.obj
 0003:00009020       ?atfuns_cdecl@@3PAP6AXXZA  0000000180097020     libcpmt:iosptrs.obj
 0003:00009168       ?is_initialized_as_dll@@3_NA 0000000180097168     LIBCMT:utility.obj
 0003:00009169       ?module_local_atexit_table_initialized@@3_NA 0000000180097169     LIBCMT:utility.obj
 0003:00009170       ?module_local_atexit_table@@3U_onexit_table_t@@A 0000000180097170     LIBCMT:utility.obj
 0003:00009188       ?module_local_at_quick_exit_table@@3U_onexit_table_t@@A 0000000180097188     LIBCMT:utility.obj
 0003:000091a0       ?__proc_attached@@3HA      00000001800971a0     LIBCMT:dll_dllmain.obj
 0003:000091b0       GS_ExceptionRecord         00000001800971b0     LIBCMT:gs_report.obj
 0003:00009250       GS_ContextRecord           0000000180097250     LIBCMT:gs_report.obj
 0003:00009750       ?__vcrt_startup_thread_ptd@@3U__vcrt_ptd@@A 0000000180097750     libvcruntime:per_thread_data.obj
 0003:000097d8       __vcrt_lock_table          00000001800977d8     libvcruntime:locks.obj
 0003:00009800       __vcrt_locks_initialized   0000000180097800     libvcruntime:locks.obj
 0003:00009848       ?heap@@3V_HeapManager@@A   0000000180097848     libvcruntime:undname.obj
 0003:00009870       ?module_handles@@3PAPEAUHINSTANCE__@@A 0000000180097870     libvcruntime:winapi_downlevel.obj
 0003:00009888       ?function_pointers@@3PAPEAXA 0000000180097888     libvcruntime:winapi_downlevel.obj
 0003:000098b0       ?__acrt_invalid_parameter_handler@@3V?$dual_state_global@P6AXPEB_W00I_K@Z@__crt_state_management@@A 00000001800978b0     libucrt:invalid_parameter.obj
 0003:000098c0       ?__acrt_lock_table@@3PAU_RTL_CRITICAL_SECTION@@A 00000001800978c0     libucrt:locks.obj
 0003:00009af0       ?__acrt_locks_initialized@@3IA 0000000180097af0     libucrt:locks.obj
 0003:00009b00       ?__acrt_new_handler@@3V?$dual_state_global@P6AH_K@Z@__crt_state_management@@A 0000000180097b00     libucrt:new_handler.obj
 0003:00009b08       ?c_termination_complete@@3JA 0000000180097b08     libucrt:exit.obj
 0003:00009b10       ?thread_local_exit_callback_func@@3P6AXPEAXK0@ZEA 0000000180097b10     libucrt:exit.obj
 0003:00009b20       ?program_name@?1???$common_configure_argv@D@@YAHW4_crt_argv_mode@@@Z@4PADA 0000000180097b20     libucrt:argv_parsing.obj
 0003:0000a0a8       ?internal_state@?1??_mbtowc_internal@@9@4U_Mbstatet@@A 00000001800980a8     libucrt:mbtowc.obj
 0003:0000a0b0       ?enable_percent_n@@3_KA    00000001800980b0     libucrt:printf_count_output.obj
 0003:0000a0d0       ?module_handles@@3PAPEAUHINSTANCE__@@A 00000001800980d0     libucrt:winapi_thunks.obj
 0003:0000a170       ?encoded_function_pointers@@3PAPEAXA 0000000180098170     libucrt:winapi_thunks.obj
 0003:0000a260       ?static_enum_proc@?1??enum_system_locales_ex_nolock@@YAHQ6AHPEA_WK_J@Z@Z@4P6AH0K1@ZEA 0000000180098260     libucrt:winapi_thunks.obj
 0003:0000a270       ?ctrlc_action@@3V?$dual_state_global@P6AXH@Z@__crt_state_management@@A 0000000180098270     libucrt:signal.obj
 0003:0000a278       ?ctrlbreak_action@@3V?$dual_state_global@P6AXH@Z@__crt_state_management@@A 0000000180098278     libucrt:signal.obj
 0003:0000a280       ?abort_action@@3V?$dual_state_global@P6AXH@Z@__crt_state_management@@A 0000000180098280     libucrt:signal.obj
 0003:0000a288       ?term_action@@3V?$dual_state_global@P6AXH@Z@__crt_state_management@@A 0000000180098288     libucrt:signal.obj
 0003:0000a2a0       ?_tzname@@3V?$dual_state_global@PEAPEAD@__crt_state_management@@A 00000001800982a0     libucrt:timeset.obj
 0003:0000a2a8       ?w_tzname@@3V?$dual_state_global@PEAPEA_W@__crt_state_management@@A 00000001800982a8     libucrt:timeset.obj
 0003:0000a2b0       ?tz_api_used@@3HA          00000001800982b0     libucrt:tzset.obj
 0003:0000a2b4       ?tzset_init_state@@3V?$dual_state_global@J@__crt_state_management@@A 00000001800982b4     libucrt:tzset.obj
 0003:0000a2c0       ?tz_info@@3U_TIME_ZONE_INFORMATION@@A 00000001800982c0     libucrt:tzset.obj
 0003:0000a388       ?fSystemSet@@3HA           0000000180098388     libucrt:mbctype.obj
 0003:0000a38c       ?initialized@?1??__acrt_initialize_multibyte@@9@4_NA 000000018009838c     libucrt:mbctype.obj
 0003:0000a3c8       ?user_matherr@@3V?$dual_state_global@P6AHPEAU_exception@@@Z@__crt_state_management@@A 00000001800983c8     libucrt:matherr.obj
 0003:0000a3d4       ?__acrt_global_new_mode@@3V?$dual_state_global@J@__crt_state_management@@A 00000001800983d4     libucrt:new_mode.obj
 0003:0000a3dc       ?__acrt_app_type@@3W4_crt_app_type@@A 00000001800983dc     libucrt:report_runtime_error.obj
 0003:0000a3e0       ?internal_pst@?1??__mbrtoc32_utf8@__crt_mbstring@@YA_KPEA_UPEBD_KPEAU_Mbstatet@@AEAV__crt_cached_ptd_host@@@Z@4U3@A 00000001800983e0     libucrt:mbrtoc32.obj
 0003:0000a3e8       ?internal_pst@?1??__c16rtomb_utf8@__crt_mbstring@@YA_KPEAD_SPEAU_Mbstatet@@AEAV__crt_cached_ptd_host@@@Z@4U3@A 00000001800983e8     libucrt:c16rtomb.obj
 0003:0000a410       ?hashValue@?BP@??OpenW@@9@4PA_WA 0000000180098410     IntChecker2-Far3.obj
 0003:0000a610       ?szGeneratingLine@?M@??FileHashingProgress@@YA_NPEAX_J@Z@4PA_WA 0000000180098610     IntChecker2-Far3.obj
 0003:0000a720       ?optIgnoreMissingFiles@@3HA 0000000180098720     IntChecker2-Far3.obj
 0003:0000a840       ?FSF@@3UFarStandardFunctions@@A 0000000180098840     IntChecker2-Far3.obj
 0003:0000a9c8       ?optDefaultOutputTarget@@3HA 00000001800989c8     IntChecker2-Far3.obj
 0003:0000a9cc       ?optHashUppercase@@3HA     00000001800989cc     IntChecker2-Far3.obj
 0003:0000a9d0       ?optRememberLastUsedAlgo@@3HA 00000001800989d0     IntChecker2-Far3.obj
 0003:0000a9e0       ?MsgLines@?1??DisplayMessage@@YAXPEB_W00_N1@Z@4PAPEB_WA 00000001800989e0     IntChecker2-Far3.obj
 0003:0000a9f8       ?MsgLines@?1??ConfirmMessage@@YA_NPEB_W0_N@Z@4PAPEB_WA 00000001800989f8     IntChecker2-Far3.obj
 0003:0000aa10       ?InfoLines@?M@??FileHashingProgress@@YA_NPEAX_J@Z@4PAPEB_WA 0000000180098a10     IntChecker2-Far3.obj
 0003:0000aa60       ?DlgLines@?1??DisplayHashGenerateError@@YAHAEBV?$basic_string@_WU?$char_traits@_W@std@@V?$allocator@_W@2@@std@@@Z@4PAPEB_WA 0000000180098a60     IntChecker2-Far3.obj
 0003:0000aaa0       ?wszGoodMessage@?4??DisplayValidationResults@@YAXAEAVFar3Panel@@AEAV?$vector@V?$basic_string@_WU?$char_traits@_W@std@@V?$allocator@_W@2@@std@@V?$allocator@V?$basic_string@_WU?$char_traits@_W@std@@V?$allocator@_W@2@@std@@@2@@std@@1H@Z@4PA_WA 0000000180098aa0     IntChecker2-Far3.obj
 0003:0000aca0       ?InfoLines@?N@??RunVerifySignatures@@YAXAEAVFar3Panel@@@Z@4PAPEB_WA 0000000180098ca0     IntChecker2-Far3.obj
 0003:0000acb8       ?DlgLines@?BA@??RunVerifySignatures@@YAXAEAVFar3Panel@@@Z@4PAPEB_WA 0000000180098cb8     IntChecker2-Far3.obj
 0003:0000ace0       ?PluginMenuStrings@?1??GetPluginInfoW@@9@4PAPEB_WA 0000000180098ce0     IntChecker2-Far3.obj
 0003:0000ace8       ?ConfigMenuStrings@?1??GetPluginInfoW@@9@4PAPEB_WA 0000000180098ce8     IntChecker2-Far3.obj
 0005:00000000       MoveSmall                  000000018009e000     libvcruntime:memcpy.obj
 0005:00000040       MoveSmallYmm               000000018009e040     libvcruntime:memcpy.obj
 0005:00000064       MoveSmallYmmNT             000000018009e064     libvcruntime:memcpy.obj
 0005:00000088       MoveSmallXmm               000000018009e088     libvcruntime:memcpy.obj
 0005:000000b0       MsetTab                    000000018009e0b0     libvcruntime:memset.obj
 0006:00000060       $R000000                   000000018009f060     IntChecker2.res
